Archive member included to satisfy reference by file (symbol)

d:/microchip/bin/bin/../../lib/gcc/pic32c/8.3.1/../../../../pic32c/lib/thumb/v7e-m+fp/hard\libpic32c.a(data_init.o)
                              build/default/debug/_ext/1171490990/startup_xc32.o (__pic32c_data_initialization)
d:/microchip/bin/bin/../../lib/gcc/pic32c/8.3.1/../../../../pic32c/lib/thumb/v7e-m+fp/hard\libm-fast-emfloat.a(__aeabi_dadd.o)
                              build/default/debug/_ext/1033058136/iperf.o (__aeabi_dadd)
d:/microchip/bin/bin/../../lib/gcc/pic32c/8.3.1/../../../../pic32c/lib/thumb/v7e-m+fp/hard\libm-fast-emfloat.a(__aeabi_dsub.o)
                              build/default/debug/_ext/1033058136/iperf.o (__aeabi_dsub)
d:/microchip/bin/bin/../../lib/gcc/pic32c/8.3.1/../../../../pic32c/lib/thumb/v7e-m+fp/hard\libm-fast-emfloat.a(__aeabi_dmul.o)
                              build/default/debug/_ext/1033058136/iperf.o (__aeabi_dmul)
d:/microchip/bin/bin/../../lib/gcc/pic32c/8.3.1/../../../../pic32c/lib/thumb/v7e-m+fp/hard\libm-fast-emfloat.a(__aeabi_ddiv.o)
                              build/default/debug/_ext/1033058136/iperf.o (__aeabi_ddiv)
d:/microchip/bin/bin/../../lib/gcc/pic32c/8.3.1/../../../../pic32c/lib/thumb/v7e-m+fp/hard\libm-fast-emfloat.a(__aeabi_dcmpgt.o)
                              build/default/debug/_ext/1033058136/iperf.o (__aeabi_dcmpgt)
d:/microchip/bin/bin/../../lib/gcc/pic32c/8.3.1/../../../../pic32c/lib/thumb/v7e-m+fp/hard\libm-fast-emfloat.a(__aeabi_d2uiz.o)
                              build/default/debug/_ext/1033058136/iperf.o (__aeabi_d2uiz)
d:/microchip/bin/bin/../../lib/gcc/pic32c/8.3.1/../../../../pic32c/lib/thumb/v7e-m+fp/hard\libm-fast-emfloat.a(__aeabi_i2d.o)
                              build/default/debug/_ext/1033058136/iperf.o (__aeabi_i2d)
d:/microchip/bin/bin/../../lib/gcc/pic32c/8.3.1/../../../../pic32c/lib/thumb/v7e-m+fp/hard\libm-fast-emfloat.a(__aeabi_ui2d.o)
                              build/default/debug/_ext/1033058136/iperf.o (__aeabi_ui2d)
d:/microchip/bin/bin/../../lib/gcc/pic32c/8.3.1/../../../../pic32c/lib/thumb/v7e-m+fp/hard\libg-musl.a(isalnum.o)
                              build/default/debug/_ext/1033058136/dhcp.o (isalnum)
d:/microchip/bin/bin/../../lib/gcc/pic32c/8.3.1/../../../../pic32c/lib/thumb/v7e-m+fp/hard\libg-musl.a(isxdigit.o)
                              build/default/debug/_ext/1033058136/tcpip_helpers.o (isxdigit)
d:/microchip/bin/bin/../../lib/gcc/pic32c/8.3.1/../../../../pic32c/lib/thumb/v7e-m+fp/hard\libg-musl.a(tolower.o)
                              build/default/debug/_ext/1033058136/helpers.o (tolower)
d:/microchip/bin/bin/../../lib/gcc/pic32c/8.3.1/../../../../pic32c/lib/thumb/v7e-m+fp/hard\libg-musl.a(toupper.o)
                              build/default/debug/_ext/1033058136/tcpip_helpers.o (toupper)
d:/microchip/bin/bin/../../lib/gcc/pic32c/8.3.1/../../../../pic32c/lib/thumb/v7e-m+fp/hard\libg-musl.a(__libc_start_main.o)
                              build/default/debug/_ext/1171490990/startup_xc32.o (__libc_init_array)
d:/microchip/bin/bin/../../lib/gcc/pic32c/8.3.1/../../../../pic32c/lib/thumb/v7e-m+fp/hard\libg-musl.a(libc.o)
                              d:/microchip/bin/bin/../../lib/gcc/pic32c/8.3.1/../../../../pic32c/lib/thumb/v7e-m+fp/hard\libg-musl.a(__libc_start_main.o) (__progname_full)
d:/microchip/bin/bin/../../lib/gcc/pic32c/8.3.1/../../../../pic32c/lib/thumb/v7e-m+fp/hard\libg-musl.a(calloc.o)
                              build/default/debug/_ext/1171490990/initialization.o (calloc)
d:/microchip/bin/bin/../../lib/gcc/pic32c/8.3.1/../../../../pic32c/lib/thumb/v7e-m+fp/hard\libg-musl.a(malloc.o)
                              build/default/debug/_ext/1645245335/crypto.o (free)
d:/microchip/bin/bin/../../lib/gcc/pic32c/8.3.1/../../../../pic32c/lib/thumb/v7e-m+fp/hard\libg-musl.a(expand_heap.o)
                              d:/microchip/bin/bin/../../lib/gcc/pic32c/8.3.1/../../../../pic32c/lib/thumb/v7e-m+fp/hard\libg-musl.a(malloc.o) (__expand_heap)
d:/microchip/bin/bin/../../lib/gcc/pic32c/8.3.1/../../../../pic32c/lib/thumb/v7e-m+fp/hard\libg-musl.a(rand.o)
                              build/default/debug/_ext/1664057780/random.o (srand)
d:/microchip/bin/bin/../../lib/gcc/pic32c/8.3.1/../../../../pic32c/lib/thumb/v7e-m+fp/hard\libg-musl.a(vsnprintf.o)
                              build/default/debug/_ext/1376093119/sys_command.o (vsnprintf)
d:/microchip/bin/bin/../../lib/gcc/pic32c/8.3.1/../../../../pic32c/lib/thumb/v7e-m+fp/hard\libg-musl.a(snprintf.o)
                              (snprintf)
d:/microchip/bin/bin/../../lib/gcc/pic32c/8.3.1/../../../../pic32c/lib/thumb/v7e-m+fp/hard\libg-musl.a(sprintf.o)
                              (sprintf)
d:/microchip/bin/bin/../../lib/gcc/pic32c/8.3.1/../../../../pic32c/lib/thumb/v7e-m+fp/hard\libg-musl.a(vsprintf.o)
                              d:/microchip/bin/bin/../../lib/gcc/pic32c/8.3.1/../../../../pic32c/lib/thumb/v7e-m+fp/hard\libg-musl.a(sprintf.o) (vsprintf)
d:/microchip/bin/bin/../../lib/gcc/pic32c/8.3.1/../../../../pic32c/lib/thumb/v7e-m+fp/hard\libg-musl.a(atoi.o)
                              build/default/debug/_ext/1033058136/tcpip_commands.o (atoi)
d:/microchip/bin/bin/../../lib/gcc/pic32c/8.3.1/../../../../pic32c/lib/thumb/v7e-m+fp/hard\libg-musl.a(atol.o)
                              build/default/debug/_ext/1033058136/http.o (atol)
d:/microchip/bin/bin/../../lib/gcc/pic32c/8.3.1/../../../../pic32c/lib/thumb/v7e-m+fp/hard\libg-musl.a(strtol.o)
                              build/default/debug/_ext/1033058136/tcpip_helpers.o (strtol)
d:/microchip/bin/bin/../../lib/gcc/pic32c/8.3.1/../../../../pic32c/lib/thumb/v7e-m+fp/hard\libg-musl.a(memcmp.o)
                              build/default/debug/_ext/1546807373/drv_gmac.o (memcmp)
d:/microchip/bin/bin/../../lib/gcc/pic32c/8.3.1/../../../../pic32c/lib/thumb/v7e-m+fp/hard\libg-musl.a(memcpy.o)
                              build/default/debug/_ext/992804092/drv_memory.o (memcpy)
d:/microchip/bin/bin/../../lib/gcc/pic32c/8.3.1/../../../../pic32c/lib/thumb/v7e-m+fp/hard\libg-musl.a(memmove.o)
                              build/default/debug/_ext/1664057780/asn.o (memmove)
d:/microchip/bin/bin/../../lib/gcc/pic32c/8.3.1/../../../../pic32c/lib/thumb/v7e-m+fp/hard\libg-musl.a(memset.o)
                              build/default/debug/_ext/444070925/drv_ethphy.o (memset)
d:/microchip/bin/bin/../../lib/gcc/pic32c/8.3.1/../../../../pic32c/lib/thumb/v7e-m+fp/hard\libg-musl.a(strlen.o)
                              build/default/debug/_ext/1751889202/sys_fs_shell.o (strlen)
d:/microchip/bin/bin/../../lib/gcc/pic32c/8.3.1/../../../../pic32c/lib/thumb/v7e-m+fp/hard\libg-musl.a(strstr.o)
                              build/default/debug/_ext/1751889202/sys_fs_shell.o (strstr)
d:/microchip/bin/bin/../../lib/gcc/pic32c/8.3.1/../../../../pic32c/lib/thumb/v7e-m+fp/hard\libg-musl.a(strchr.o)
                              build/default/debug/_ext/1376093119/sys_command.o (strchr)
d:/microchip/bin/bin/../../lib/gcc/pic32c/8.3.1/../../../../pic32c/lib/thumb/v7e-m+fp/hard\libg-musl.a(strchrnul.o)
                              d:/microchip/bin/bin/../../lib/gcc/pic32c/8.3.1/../../../../pic32c/lib/thumb/v7e-m+fp/hard\libg-musl.a(strchr.o) (__strchrnul)
d:/microchip/bin/bin/../../lib/gcc/pic32c/8.3.1/../../../../pic32c/lib/thumb/v7e-m+fp/hard\libg-musl.a(strcmp.o)
                              build/default/debug/_ext/1033058136/tcpip_commands.o (strcmp)
d:/microchip/bin/bin/../../lib/gcc/pic32c/8.3.1/../../../../pic32c/lib/thumb/v7e-m+fp/hard\libg-musl.a(strcpy.o)
                              build/default/debug/_ext/1751889202/sys_fs_shell.o (strcpy)
d:/microchip/bin/bin/../../lib/gcc/pic32c/8.3.1/../../../../pic32c/lib/thumb/v7e-m+fp/hard\libg-musl.a(strncmp.o)
                              build/default/debug/_ext/1033058136/snmp.o (strncmp)
d:/microchip/bin/bin/../../lib/gcc/pic32c/8.3.1/../../../../pic32c/lib/thumb/v7e-m+fp/hard\libg-musl.a(strncpy.o)
                              build/default/debug/_ext/1645245335/crypto.o (strncpy)
d:/microchip/bin/bin/../../lib/gcc/pic32c/8.3.1/../../../../pic32c/lib/thumb/v7e-m+fp/hard\libg-musl.a(strtok.o)
                              build/default/debug/_ext/1376093119/sys_command.o (strtok)
d:/microchip/bin/bin/../../lib/gcc/pic32c/8.3.1/../../../../pic32c/lib/thumb/v7e-m+fp/hard\libg-musl.a(gmtime.o)
                              build/default/debug/_ext/1664057780/asn.o (gmtime)
d:/microchip/bin/bin/../../lib/gcc/pic32c/8.3.1/../../../../pic32c/lib/thumb/v7e-m+fp/hard\libg-musl.a(gmtime_r.o)
                              d:/microchip/bin/bin/../../lib/gcc/pic32c/8.3.1/../../../../pic32c/lib/thumb/v7e-m+fp/hard\libg-musl.a(gmtime.o) (__gmtime_r)
d:/microchip/bin/bin/../../lib/gcc/pic32c/8.3.1/../../../../pic32c/lib/thumb/v7e-m+fp/hard\libg-musl.a(time.o)
                              build/default/debug/_ext/1664057780/asn.o (time)
d:/microchip/bin/bin/../../lib/gcc/pic32c/8.3.1/../../../../pic32c/lib/thumb/v7e-m+fp/hard\libg-musl.a(__environ.o)
                              d:/microchip/bin/bin/../../lib/gcc/pic32c/8.3.1/../../../../pic32c/lib/thumb/v7e-m+fp/hard\libg-musl.a(__libc_start_main.o) (__environ)
d:/microchip/bin/bin/../../lib/gcc/pic32c/8.3.1/../../../../pic32c/lib/thumb/v7e-m+fp/hard\libg-musl.a(__errno_location.o)
                              d:/microchip/bin/bin/../../lib/gcc/pic32c/8.3.1/../../../../pic32c/lib/thumb/v7e-m+fp/hard\libg-musl.a(calloc.o) (__errno_val)
d:/microchip/bin/bin/../../lib/gcc/pic32c/8.3.1/../../../../pic32c/lib/thumb/v7e-m+fp/hard\libg-musl.a(intscan.o)
                              d:/microchip/bin/bin/../../lib/gcc/pic32c/8.3.1/../../../../pic32c/lib/thumb/v7e-m+fp/hard\libg-musl.a(strtol.o) (__intscan)
d:/microchip/bin/bin/../../lib/gcc/pic32c/8.3.1/../../../../pic32c/lib/thumb/v7e-m+fp/hard\libg-musl.a(shgetc.o)
                              d:/microchip/bin/bin/../../lib/gcc/pic32c/8.3.1/../../../../pic32c/lib/thumb/v7e-m+fp/hard\libg-musl.a(strtol.o) (__shlim)
d:/microchip/bin/bin/../../lib/gcc/pic32c/8.3.1/../../../../pic32c/lib/thumb/v7e-m+fp/hard\libg-musl.a(__uflow.o)
                              d:/microchip/bin/bin/../../lib/gcc/pic32c/8.3.1/../../../../pic32c/lib/thumb/v7e-m+fp/hard\libg-musl.a(shgetc.o) (__uflow)
d:/microchip/bin/bin/../../lib/gcc/pic32c/8.3.1/../../../../pic32c/lib/thumb/v7e-m+fp/hard\libg-musl.a(vfprintf.o)
                              d:/microchip/bin/bin/../../lib/gcc/pic32c/8.3.1/../../../../pic32c/lib/thumb/v7e-m+fp/hard\libg-musl.a(vsnprintf.o) (vfprintf)
d:/microchip/bin/bin/../../lib/gcc/pic32c/8.3.1/../../../../pic32c/lib/thumb/v7e-m+fp/hard\libg-musl.a(stpcpy.o)
                              d:/microchip/bin/bin/../../lib/gcc/pic32c/8.3.1/../../../../pic32c/lib/thumb/v7e-m+fp/hard\libg-musl.a(strcpy.o) (__stpcpy)
d:/microchip/bin/bin/../../lib/gcc/pic32c/8.3.1/../../../../pic32c/lib/thumb/v7e-m+fp/hard\libg-musl.a(stpncpy.o)
                              d:/microchip/bin/bin/../../lib/gcc/pic32c/8.3.1/../../../../pic32c/lib/thumb/v7e-m+fp/hard\libg-musl.a(strncpy.o) (__stpncpy)
d:/microchip/bin/bin/../../lib/gcc/pic32c/8.3.1/../../../../pic32c/lib/thumb/v7e-m+fp/hard\libg-musl.a(strcspn.o)
                              d:/microchip/bin/bin/../../lib/gcc/pic32c/8.3.1/../../../../pic32c/lib/thumb/v7e-m+fp/hard\libg-musl.a(strtok.o) (strcspn)
d:/microchip/bin/bin/../../lib/gcc/pic32c/8.3.1/../../../../pic32c/lib/thumb/v7e-m+fp/hard\libg-musl.a(strspn.o)
                              d:/microchip/bin/bin/../../lib/gcc/pic32c/8.3.1/../../../../pic32c/lib/thumb/v7e-m+fp/hard\libg-musl.a(strtok.o) (strspn)
d:/microchip/bin/bin/../../lib/gcc/pic32c/8.3.1/../../../../pic32c/lib/thumb/v7e-m+fp/hard\libg-musl.a(__secs_to_tm.o)
                              d:/microchip/bin/bin/../../lib/gcc/pic32c/8.3.1/../../../../pic32c/lib/thumb/v7e-m+fp/hard\libg-musl.a(gmtime_r.o) (__secs_to_tm)
d:/microchip/bin/bin/../../lib/gcc/pic32c/8.3.1/../../../../pic32c/lib/thumb/v7e-m+fp/hard\libg-musl.a(clock_gettime.o)
                              d:/microchip/bin/bin/../../lib/gcc/pic32c/8.3.1/../../../../pic32c/lib/thumb/v7e-m+fp/hard\libg-musl.a(time.o) (__clock_gettime)
d:/microchip/bin/bin/../../lib/gcc/pic32c/8.3.1/../../../../pic32c/lib/thumb/v7e-m+fp/hard\libg-musl.a(gettimeofday.o)
                              d:/microchip/bin/bin/../../lib/gcc/pic32c/8.3.1/../../../../pic32c/lib/thumb/v7e-m+fp/hard\libg-musl.a(clock_gettime.o) (gettimeofday)
d:/microchip/bin/bin/../../lib/gcc/pic32c/8.3.1/../../../../pic32c/lib/thumb/v7e-m+fp/hard\libg-musl.a(syscall_ret.o)
                              d:/microchip/bin/bin/../../lib/gcc/pic32c/8.3.1/../../../../pic32c/lib/thumb/v7e-m+fp/hard\libg-musl.a(clock_gettime.o) (__syscall_ret)
d:/microchip/bin/bin/../../lib/gcc/pic32c/8.3.1/../../../../pic32c/lib/thumb/v7e-m+fp/hard\libg-musl.a(__toread.o)
                              d:/microchip/bin/bin/../../lib/gcc/pic32c/8.3.1/../../../../pic32c/lib/thumb/v7e-m+fp/hard\libg-musl.a(__uflow.o) (__toread)
d:/microchip/bin/bin/../../lib/gcc/pic32c/8.3.1/../../../../pic32c/lib/thumb/v7e-m+fp/hard\libg-musl.a(__io_fmt_needed.o)
                              d:/microchip/bin/bin/../../lib/gcc/pic32c/8.3.1/../../../../pic32c/lib/thumb/v7e-m+fp/hard\libg-musl.a(vfprintf.o) (__io_fmt_needed)
d:/microchip/bin/bin/../../lib/gcc/pic32c/8.3.1/../../../../pic32c/lib/thumb/v7e-m+fp/hard\libg-musl.a(__pop_float.o)
                              d:/microchip/bin/bin/../../lib/gcc/pic32c/8.3.1/../../../../pic32c/lib/thumb/v7e-m+fp/hard\libg-musl.a(__io_fmt_needed.o) (__pop_float_needed)
d:/microchip/bin/bin/../../lib/gcc/pic32c/8.3.1/../../../../pic32c/lib/thumb/v7e-m+fp/hard\libg-musl.a(__pop_int.o)
                              d:/microchip/bin/bin/../../lib/gcc/pic32c/8.3.1/../../../../pic32c/lib/thumb/v7e-m+fp/hard\libg-musl.a(__io_fmt_needed.o) (__pop_int_needed)
d:/microchip/bin/bin/../../lib/gcc/pic32c/8.3.1/../../../../pic32c/lib/thumb/v7e-m+fp/hard\libg-musl.a(__pop_ptr.o)
                              d:/microchip/bin/bin/../../lib/gcc/pic32c/8.3.1/../../../../pic32c/lib/thumb/v7e-m+fp/hard\libg-musl.a(__io_fmt_needed.o) (__pop_ptr_needed)
d:/microchip/bin/bin/../../lib/gcc/pic32c/8.3.1/../../../../pic32c/lib/thumb/v7e-m+fp/hard\libg-musl.a(__printf_core.o)
                              d:/microchip/bin/bin/../../lib/gcc/pic32c/8.3.1/../../../../pic32c/lib/thumb/v7e-m+fp/hard\libg-musl.a(vfprintf.o) (__printf_core)
d:/microchip/bin/bin/../../lib/gcc/pic32c/8.3.1/../../../../pic32c/lib/thumb/v7e-m+fp/hard\libg-musl.a(__stdio_exit.o)
                              d:/microchip/bin/bin/../../lib/gcc/pic32c/8.3.1/../../../../pic32c/lib/thumb/v7e-m+fp/hard\libg-musl.a(__toread.o) (__stdio_exit_needed)
d:/microchip/bin/bin/../../lib/gcc/pic32c/8.3.1/../../../../pic32c/lib/thumb/v7e-m+fp/hard\libg-musl.a(__fmt_a.o)
                              d:/microchip/bin/bin/../../lib/gcc/pic32c/8.3.1/../../../../pic32c/lib/thumb/v7e-m+fp/hard\libg-musl.a(__io_fmt_needed.o) (__fmt_a_needed)
d:/microchip/bin/bin/../../lib/gcc/pic32c/8.3.1/../../../../pic32c/lib/thumb/v7e-m+fp/hard\libg-musl.a(__fmt_d.o)
                              d:/microchip/bin/bin/../../lib/gcc/pic32c/8.3.1/../../../../pic32c/lib/thumb/v7e-m+fp/hard\libg-musl.a(__io_fmt_needed.o) (__fmt_d_needed)
d:/microchip/bin/bin/../../lib/gcc/pic32c/8.3.1/../../../../pic32c/lib/thumb/v7e-m+fp/hard\libg-musl.a(__fmt_fp.o)
                              d:/microchip/bin/bin/../../lib/gcc/pic32c/8.3.1/../../../../pic32c/lib/thumb/v7e-m+fp/hard\libg-musl.a(__io_fmt_needed.o) (__fmt_f_needed)
d:/microchip/bin/bin/../../lib/gcc/pic32c/8.3.1/../../../../pic32c/lib/thumb/v7e-m+fp/hard\libg-musl.a(__fmt_o.o)
                              d:/microchip/bin/bin/../../lib/gcc/pic32c/8.3.1/../../../../pic32c/lib/thumb/v7e-m+fp/hard\libg-musl.a(__io_fmt_needed.o) (__fmt_o_needed)
d:/microchip/bin/bin/../../lib/gcc/pic32c/8.3.1/../../../../pic32c/lib/thumb/v7e-m+fp/hard\libg-musl.a(__fmt_s.o)
                              d:/microchip/bin/bin/../../lib/gcc/pic32c/8.3.1/../../../../pic32c/lib/thumb/v7e-m+fp/hard\libg-musl.a(__io_fmt_needed.o) (__fmt_s_needed)
d:/microchip/bin/bin/../../lib/gcc/pic32c/8.3.1/../../../../pic32c/lib/thumb/v7e-m+fp/hard\libg-musl.a(__fmt_u.o)
                              d:/microchip/bin/bin/../../lib/gcc/pic32c/8.3.1/../../../../pic32c/lib/thumb/v7e-m+fp/hard\libg-musl.a(__io_fmt_needed.o) (__fmt_u_needed)
d:/microchip/bin/bin/../../lib/gcc/pic32c/8.3.1/../../../../pic32c/lib/thumb/v7e-m+fp/hard\libg-musl.a(__fmt_x.o)
                              d:/microchip/bin/bin/../../lib/gcc/pic32c/8.3.1/../../../../pic32c/lib/thumb/v7e-m+fp/hard\libg-musl.a(__io_fmt_needed.o) (__fmt_x_needed)
d:/microchip/bin/bin/../../lib/gcc/pic32c/8.3.1/../../../../pic32c/lib/thumb/v7e-m+fp/hard\libg-musl.a(__cvt_u.o)
                              d:/microchip/bin/bin/../../lib/gcc/pic32c/8.3.1/../../../../pic32c/lib/thumb/v7e-m+fp/hard\libg-musl.a(__fmt_d.o) (__cvt_u)
d:/microchip/bin/bin/../../lib/gcc/pic32c/8.3.1/../../../../pic32c/lib/thumb/v7e-m+fp/hard\libm-fast-emfloat.a(fma.o)
                              d:/microchip/bin/bin/../../lib/gcc/pic32c/8.3.1/../../../../pic32c/lib/thumb/v7e-m+fp/hard\libg-musl.a(__fmt_fp.o) (fma)
d:/microchip/bin/bin/../../lib/gcc/pic32c/8.3.1/../../../../pic32c/lib/thumb/v7e-m+fp/hard\libm-fast-emfloat.a(floor.o)
                              d:/microchip/bin/bin/../../lib/gcc/pic32c/8.3.1/../../../../pic32c/lib/thumb/v7e-m+fp/hard\libg-musl.a(__fmt_a.o) (floor)
d:/microchip/bin/bin/../../lib/gcc/pic32c/8.3.1/../../../../pic32c/lib/thumb/v7e-m+fp/hard\libm-fast-emfloat.a(__aeabi_dcmple.o)
                              d:/microchip/bin/bin/../../lib/gcc/pic32c/8.3.1/../../../../pic32c/lib/thumb/v7e-m+fp/hard\libg-musl.a(__fmt_fp.o) (__aeabi_dcmple)
d:/microchip/bin/bin/../../lib/gcc/pic32c/8.3.1/../../../../pic32c/lib/thumb/v7e-m+fp/hard\libm-fast-emfloat.a(__aeabi_dcmpeq.o)
                              d:/microchip/bin/bin/../../lib/gcc/pic32c/8.3.1/../../../../pic32c/lib/thumb/v7e-m+fp/hard\libg-musl.a(__fmt_a.o) (__aeabi_dcmpeq)
d:/microchip/bin/bin/../../lib/gcc/pic32c/8.3.1/../../../../pic32c/lib/thumb/v7e-m+fp/hard\libm-fast-emfloat.a(__aeabi_dcmplt.o)
                              d:/microchip/bin/bin/../../lib/gcc/pic32c/8.3.1/../../../../pic32c/lib/thumb/v7e-m+fp/hard\libg-musl.a(__fmt_a.o) (__aeabi_dcmplt)
d:/microchip/bin/bin/../../lib/gcc/pic32c/8.3.1/../../../../pic32c/lib/thumb/v7e-m+fp/hard\libm-fast-emfloat.a(__aeabi_d2iz.o)
                              d:/microchip/bin/bin/../../lib/gcc/pic32c/8.3.1/../../../../pic32c/lib/thumb/v7e-m+fp/hard\libg-musl.a(__fmt_a.o) (__aeabi_d2iz)
d:/microchip/bin/bin/../../lib/gcc/pic32c/8.3.1/thumb/v7e-m+fp/hard\libgcc.a(_aeabi_ldivmod.o)
                              d:/microchip/bin/bin/../../lib/gcc/pic32c/8.3.1/../../../../pic32c/lib/thumb/v7e-m+fp/hard\libg-musl.a(__secs_to_tm.o) (__aeabi_ldivmod)
d:/microchip/bin/bin/../../lib/gcc/pic32c/8.3.1/thumb/v7e-m+fp/hard\libgcc.a(_aeabi_uldivmod.o)
                              build/default/debug/_ext/1033058136/tcp.o (__aeabi_uldivmod)
d:/microchip/bin/bin/../../lib/gcc/pic32c/8.3.1/thumb/v7e-m+fp/hard\libgcc.a(_udivmoddi4.o)
                              d:/microchip/bin/bin/../../lib/gcc/pic32c/8.3.1/thumb/v7e-m+fp/hard\libgcc.a(_aeabi_ldivmod.o) (__udivmoddi4)
d:/microchip/bin/bin/../../lib/gcc/pic32c/8.3.1/thumb/v7e-m+fp/hard\libgcc.a(_dvmd_tls.o)
                              d:/microchip/bin/bin/../../lib/gcc/pic32c/8.3.1/thumb/v7e-m+fp/hard\libgcc.a(_aeabi_ldivmod.o) (__aeabi_ldiv0)
d:/microchip/bin/bin/../../lib/gcc/pic32c/8.3.1/../../../../pic32c/lib/thumb/v7e-m+fp/hard\libpic32c.a(sbrk.o)
                              d:/microchip/bin/bin/../../lib/gcc/pic32c/8.3.1/../../../../pic32c/lib/thumb/v7e-m+fp/hard\libg-musl.a(expand_heap.o) (_sbrk)
d:/microchip/bin/bin/../../lib/gcc/pic32c/8.3.1/../../../../pic32c/lib/thumb/v7e-m+fp/hard\libpic32c.a(pic32_data_init_clear.o)
                              (__dinit_clear_needed)
d:/microchip/bin/bin/../../lib/gcc/pic32c/8.3.1/../../../../pic32c/lib/thumb/v7e-m+fp/hard\libpic32c.a(pic32_data_init_copy_emb.o)
                              (__dinit_copy_emb_needed)
d:/microchip/bin/bin/../../lib/gcc/pic32c/8.3.1/../../../../pic32c/lib/thumb/v7e-m+fp/hard\libpic32c.a(pic32_data_init_copy.o)
                              (__dinit_copy_needed)

Microchip PIC32 Memory-Usage Report

ROM Program-Memory Usage
section                    address  length [bytes]      (dec)  Description
-------                 ----------  -------------------------  -----------
.vectors                         0          0x264         612   
.text                        0x264           0x20          32  App's exec code 
.ARM.exidx                   0x284            0x8           8   
.rodata                      0x28c         0x1a58        6744  Read-only const 
.text.TCPIP_SNMP_Task       0x1ce4         0x1208        4616   
.text.TCPIP_HTTP_Proces     0x2eec          0xee8        3816   
.text.TCPIP_TCP_Task        0x3dd4          0xe40        3648   
.text.TCPIP_IPERF_Task      0x4c14          0xd70        3440   
.rodata                     0x5984          0xaa4        2724  Read-only const 
.dinit                      0x6428          0x9c0        2496   
.rodata                     0x6de8          0x914        2324  Read-only const 
.rodata.macPIC32CHwRegD     0x76fc          0x708        1800   
.text.Transform             0x7e04          0x6d0        1744   
.text.TCPIP_STACK_Task      0x84d4          0x628        1576   
.text.CommandIperfStart     0x8afc          0x5ec        1516   
.text._TcpSend              0x90e8          0x5b0        1456   
.text._Command_DNS_Serv     0x9698          0x520        1312   
.text.TCPIP_HTTP_PostEx     0x9bb8          0x4dc        1244   
.text.TCPIP_COMMAND_Tas     0xa094          0x4d4        1236   
.text.__fmt_fp              0xa568          0x4c0        1216   
.text.TCPIP_DHCP_Task       0xaa28          0x4bc        1212   
.text.DRV_GMAC_PowerMod     0xaee4            0x4           4   
.text.__fmt_a               0xaee8          0x4b8        1208   
.rodata                     0xb3a0          0x490        1168  Read-only const 
.text.SYS_CMD_Tasks         0xb830          0x474        1140   
.text._TCPIP_DoInitiali     0xbca4          0x434        1076   
.text._DNS_ProcessPacke     0xc0d8          0x3f8        1016   
.text.__intscan             0xc4d0          0x3f4        1012   
.text.GenericTxStart        0xc8c4          0x3cc         972   
.text.DRV_PIC32CGMAC_Li     0xcc90          0x39c         924   
.text.TCPIP_SNMP_Proces     0xd02c          0x388         904   
.text.TCPIP_SNMP_OIDFin     0xd3b4          0x380         896   
.text.TCPIP_Helper_Stri     0xd734          0x33c         828   
.text.Transform_Sha256      0xda70          0x30c         780   
.text.DRV_GMAC_Initiali     0xdd7c          0x308         776   
.text.__printf_core         0xe084          0x308         776   
.text.TCPIP_TCP_FifoSiz     0xe38c          0x2f0         752   
.text.TCPIP_SNMP_Proces     0xe67c          0x2e8         744   
.rodata                     0xe964          0x2e4         740  Read-only const 
.text.TCPIP_SNMP_Proces     0xec48          0x2d0         720   
.text.Hash_DRBG_Generat     0xef18          0x2cc         716   
.text.TCPIP_ARP_Task        0xf1e4          0x2c4         708   
.text._TCP_Open             0xf4a8          0x2c0         704   
.text                       0xf768          0x2bc         700  App's exec code 
.text._DNS_Send_Query       0xfa24          0x290         656   
.rodata                     0xfcb4          0x290         656  Read-only const 
.text.SYS_FS_MEDIA_MANA     0xff44          0x288         648   
.text._CommandDhcpOptio    0x101cc          0x26c         620   
.text.DRV_MEMORY_SetupX    0x10438          0x264         612   
.text._CommandMiim         0x1069c          0x264         612   
.text.ReportBW_Jitter_L    0x10900          0x25c         604   
.text._CommandPing         0x10b5c          0x254         596   
.text.__aeabi_dadd         0x10db0          0x23e         574   
.text._DRV_ETHPHY_Clien    0x10fee            0x2           2   
.text.TCPIP_STACK_Bring    0x10ff0          0x23c         572   
.text.TCPIP_UDP_Task       0x1122c          0x23c         572   
.text.TCPIP_IPV4_Task      0x11468          0x238         568   
.text.TCPIP_HTTP_Initia    0x116a0          0x230         560   
.text.TCPIP_TCP_ArrayFi    0x118d0          0x224         548   
.text.TCPIP_UDP_Flush      0x11af4          0x220         544   
.text.__aeabi_ddiv         0x11d14          0x216         534   
.text.DRV_GMAC_Reinitia    0x11f2a            0x2           2   
.text._Command_NetInfo     0x11f2c          0x210         528   
.text.TCPIP_IPV4_PktTx     0x1213c          0x210         528   
.text.DRV_MEMORY_Open      0x1234c          0x20c         524   
.text.TCPIP_UDP_Options    0x12558          0x204         516   
.text.TCPIP_DNS_ClientI    0x1275c          0x1f0         496   
.text.TCPIP_ICMP_Task      0x1294c          0x1e4         484   
.text.xTaskCreate          0x12b30          0x1e4         484   
.text.TCPIP_SNMP_Initia    0x12d14          0x1e0         480   
.text.TCPIP_SNMP_Proces    0x12ef4          0x1e0         480   
.text.TCPIP_ARP_Initial    0x130d4          0x1dc         476   
.text._DHCPReceive         0x132b0          0x1d4         468   
.text.SERCOM1_USART_Int    0x13484          0x1d4         468   
.text.GenericTxEnd         0x13658          0x1cc         460   
.text._DHCPSend            0x13824          0x1bc         444   
.rodata                    0x139e0          0x1bc         444  Read-only const 
.text.DRV_GMAC_PacketRx    0x13b9c          0x1b0         432   
.text.DRV_PIC32CGMAC_Li    0x13d4c          0x1b0         432   
.text.SYS_FS_Mount         0x13efc          0x1a8         424   
.text._DRV_ETHPHY_Defau    0x140a4          0x1a6         422   
.text.DRV_NVMCTRL_Open     0x1424a            0x2           2   
.text.malloc               0x1424c          0x1a4         420   
.text.TCPIP_DHCP_Initia    0x143f0          0x190         400   
.text._Command_MacInfo     0x14580          0x18c         396   
.text.wc_Sha256Final       0x1470c          0x188         392   
.text.TCPIP_HTTP_Print     0x14894          0x188         392   
.text.CommandIperfSize     0x14a1c          0x184         388   
.text._InitRng             0x14ba0          0x184         388   
.text.Shell_FileAbsPath    0x14d24          0x180         384   
.text.SYS_FS_MEDIA_MANA    0x14ea4          0x180         384   
.text.DRV_PIC32CGMAC_Li    0x15024          0x178         376   
.text._TcpCloseSocket      0x1519c          0x172         370   
.text.DRV_NVMCTRL_Close    0x1530e            0x2           2   
.text.TCPIP_TCP_ArrayPu    0x15310          0x170         368   
.text._Command_NetworkO    0x15480          0x164         356   
.text._DHCPOptionHostNa    0x155e4          0x164         356   
.text.CommandHelp          0x15748          0x164         356   
.text.SYS_FS_FileOpen      0x158ac          0x160         352   
.text._UDPOpen             0x15a0c          0x15c         348   
.text.DRV_MIIM_Tasks       0x15b68          0x154         340   
.text.TCPIP_DNS_EntryQu    0x15cbc          0x154         340   
.text.xQueueSemaphoreTa    0x15e10          0x154         340   
.text.TCPIP_TCP_Initial    0x15f64          0x150         336   
.text.wc_Sha256Update      0x160b4          0x146         326   
.text.Hash_df              0x161fa          0x140         320   
.text._LoadNetworkConfi    0x1633a          0x138         312   
.text.DRV_MIIM_Reinitia    0x16472            0x2           2   
.text._MACDeinit           0x16474          0x134         308   
.text.TCPIP_UDP_Deiniti    0x165a8          0x134         308   
.text._DNS_Resolve         0x166dc          0x130         304   
.text.TCPIP_SNMP_Varbin    0x1680c          0x130         304   
.text.__aeabi_dmul         0x1693c          0x130         304   
.text._CommandMiimOp       0x16a6c          0x12c         300   
.text.DRV_PIC32CGMAC_Li    0x16b98          0x128         296   
.text.TCPIP_SNMP_NextLe    0x16cc0          0x128         296   
.text.TCPIP_IPV4_Initia    0x16de8          0x128         296   
.text.TCPIP_UDP_Options    0x16f10          0x128         296   
.text.TCPIP_SNMP_Varbin    0x17038          0x128         296   
.text.CommandIperfNetIf    0x17160          0x124         292   
.text.TCPIP_UDP_Bind       0x17284          0x124         292   
.text.__fmt_x              0x173a8          0x124         292   
.text.DRV_GMAC_Tasks       0x174cc          0x120         288   
.text._Command_StackOnO    0x175ec          0x120         288   
.text.TCPIP_IPV4_Packet    0x1770c          0x120         288   
.text.TCPIP_Helper_Stri    0x1782c          0x120         288   
.text.xQueueGenericSend    0x1794c          0x120         288   
.text.DRV_GMAC_EventMas    0x17a6c          0x11c         284   
.text._UDPv4TxAckFnc       0x17b88          0x11c         284   
.text.wc_RNG_GenerateBl    0x17ca4          0x11c         284   
.text.CommandPingHandle    0x17dc0          0x110         272   
.text._Tcpv4TxAckFnc       0x17ed0          0x10c         268   
.text.xTaskIncrementTic    0x17fdc          0x10c         268   
.text._TCPIP_HEAP_Free     0x180e8          0x10a         266   
.rodata                    0x181f2          0x10a         266  Read-only const 
.text.SYS_FS_Unmount       0x182fc          0x108         264   
.text.TCPIP_TCP_Options    0x18404          0x106         262   
.text._TCPIP_HEAP_Buffe    0x1850a            0x2           2   
.text.TCPIP_UDP_Initial    0x1850c          0x104         260   
.text._Command_HeapInfo    0x18610          0x100         256   
.rodata.K                  0x18710          0x100         256   
.text.wc_Md5Update         0x18810           0xfe         254   
.text.EVSYS_Initialize     0x1890e            0x2           2   
.text.TCPIP_ICMP_EchoRe    0x18910           0xfc         252   
.text._Command_AddressS    0x18a0c           0xfc         252   
.text.SYS_FS_DirOpen       0x18b08           0xfc         252   
.text.free                 0x18c04           0xf8         248   
.text.TCPIP_SNMP_MIBRec    0x18cfc           0xf6         246   
.text.Console_UART_Task    0x18df2            0x2           2   
.text.TCPIP_ARP_EntryRe    0x18df4           0xf0         240   
.text._DNS_IsNameResolv    0x18ee4           0xf0         240   
.text.TCPIP_DNS_ClientT    0x18fd4           0xf0         240   
.text.MPFS_DirRead         0x190c4           0xf0         240   
.text.Shell_Cwd            0x191b4           0xec         236   
.text.TCPIP_TCP_Deiniti    0x192a0           0xec         236   
.text._ARPProbeAddress     0x1938c           0xec         236   
.text._DNS_GetAddresses    0x19478           0xec         236   
.text.DRV_PIC32CGMAC_Li    0x19564           0xe8         232   
.text.SYS_FS_Shell_Crea    0x1964c           0xe8         232   
.text._Command_IPAddres    0x19734           0xe8         232   
.text.xTaskResumeAll       0x1981c           0xe8         232   
.text.CLOCK_Initialize     0x19904           0xe4         228   
.text._HTTP_ReadTo         0x199e8           0xe2         226   
.text.DRV_MEMORY_Handle    0x19aca           0xe0         224   
.text.TCPIP_UDP_ArrayGe    0x19baa           0xde         222   
.text.DRV_ETHPHY_Setup     0x19c88           0xdc         220   
.text.SYS_FS_FileSeek      0x19d64           0xdc         220   
.text.SYS_TIME_PLIBCall    0x19e40           0xdc         220   
.text.SERCOM1_USART_Wri    0x19f1c           0xd8         216   
.text.MPFSFindFile         0x19ff4           0xd8         216   
.text.TCPIP_Commands_In    0x1a0cc           0xd4         212   
.text._DRV_ETHPHY_NegRe    0x1a1a0           0xd2         210   
.text.DRV_EXTPHY_MDIXCo    0x1a272           0xd0         208   
.text.Dummy_App_Func       0x1a342            0x2           2   
.text.DRV_GMAC_PacketTx    0x1a344           0xcc         204   
.text.TCPIP_SNMP_IsVali    0x1a410           0xcc         204   
.text.TCPIP_TCP_ArrayGe    0x1a4dc           0xcc         204   
.rodata.tcpipCmdTbl        0x1a5a8           0xcc         204   
.text.TCPIP_HEAP_Create    0x1a674           0xcc         204   
.text.floor                0x1a740           0xcc         204   
.text.DRV_PIC32CGMAC_Li    0x1a80c           0xc8         200   
.text._Command_DNSAddre    0x1a8d4           0xc8         200   
.text._DRV_MIIM_StartOp    0x1a99c           0xc4         196   
.text.TCPIP_HTTP_Task      0x1aa60           0xc4         196   
.text.TCPIP_UDP_OpenSer    0x1ab24           0xc4         196   
.text.SYS_FS_GetDisk       0x1abe8           0xc4         196   
.text.TCPIP_TCP_Bind       0x1acac           0xc0         192   
.text._Command_DefaultI    0x1ad6c           0xc0         192   
.rodata                    0x1ae2c           0xc0         192  Read-only const 
.text._DRV_MIIM_ClientD    0x1aeec           0xbc         188   
.text.TCPIP_IPERF_Initi    0x1afa8           0xbc         188   
.text.TCPIP_HTTP_Print_    0x1b064           0xbc         188   
.text._GetMaxSegSizeOpt    0x1b120           0xba         186   
.text.vPortFree            0x1b1da            0x2           2   
.text.CommandIperfStop     0x1b1dc           0xb8         184   
.text.TCPIP_IPV4_DeInit    0x1b294           0xb8         184   
.text.wc_Md5Final          0x1b34c           0xb8         184   
.text._ARPSendIfPkt        0x1b404           0xb4         180   
.text.TCPIP_IPV4_ArpHan    0x1b4b8           0xb4         180   
.text.TCPIP_STACK_KillS    0x1b56c           0xb4         180   
.text.SYS_TIME_HwTimerC    0x1b620           0xb4         180   
.text.SYS_TIME_Initiali    0x1b6d4           0xb4         180   
.text.TCPIP_STACK_NetUp    0x1b788           0xb0         176   
.text.MPFS_Open            0x1b838           0xb0         176   
.text.SYS_TIME_TimerObj    0x1b8e8           0xb0         176   
.text.__pop_int            0x1b998           0xac         172   
.text._TcpDisconnect       0x1ba44           0xaa         170   
.text._TCPIP_HEAP_Mallo    0x1baee           0xaa         170   
.text.Hash_DRBG_Reseed     0x1bb98           0xaa         170   
.text.wc_Sha256Free        0x1bc42            0x2           2   
.text._DRV_ETHPHY_Setup    0x1bc44           0xa8         168   
.text.DRV_MEMORY_Initia    0x1bcec           0xa8         168   
.text._TCP_SktSetSequen    0x1bd94           0xa8         168   
.text.TCPIP_TCP_ServerO    0x1be3c           0xa8         168   
.text.vTaskSwitchContex    0x1bee4           0xa8         168   
.text.xTaskPriorityInhe    0x1bf8c           0xa8         168   
.text.__fmt_d              0x1c034           0xa8         168   
.text._DHCPProcessRecei    0x1c0dc           0xa4         164   
.text._DRV_ETHPHY_Setup    0x1c180           0xa2         162   
.text.wc_RNG_HealthTest    0x1c222           0xa2         162   
.text._ARPDeleteResourc    0x1c2c4           0xa0         160   
.text.TCPIP_Helper_IPv6    0x1c364           0xa0         160   
.text._UDPv4AllocateSkt    0x1c404           0xa0         160   
.text.TCPIP_UDP_Disconn    0x1c4a4           0xa0         160   
.text._DRV_PHY_SMITrans    0x1c544           0x9e         158   
.text.TCPIP_HTTP_URLDec    0x1c5e2           0x9e         158   
.text.DRV_MIIM_Setup       0x1c680           0x9c         156   
.text._Command_MACAddre    0x1c71c           0x9c         156   
.text.MPFS_Mount           0x1c7b8           0x9c         156   
.text.MPFS_Stat            0x1c854           0x9c         156   
.text.SYS_FS_FileStat      0x1c8f0           0x9c         156   
.text._DRV_ETHPHY_Setup    0x1c98c           0x98         152   
.text.DRV_GMAC_Statisti    0x1ca24           0x98         152   
.text._HTTP_CloseConnec    0x1cabc           0x98         152   
.text._DHCPEnable          0x1cb54           0x98         152   
.text.TCPIP_DHCP_Reques    0x1cbec           0x98         152   
.text.TCPIP_DHCP_InfoGe    0x1cc84           0x98         152   
.text.TCPIP_Helper_Stri    0x1cd1c           0x98         152   
.text.PORT_Initialize      0x1cdb4           0x98         152   
.text.DisplayNodeMsg       0x1ce4c           0x98         152   
.text.prvAddCurrentTask    0x1cee4           0x98         152   
.text.DRV_PIC32CGMAC_Li    0x1cf7c           0x94         148   
.text.TCPIP_ARP_IsResol    0x1d010           0x94         148   
.text.ascii_to_u32s        0x1d0a4           0x94         148   
.text.SYS_Tasks            0x1d138           0x94         148   
.text.TCPIP_SNMP_Record    0x1d1cc           0x94         148   
.text.DRV_MIIM_Operatio    0x1d260           0x90         144   
.text._DHCPCleanup         0x1d2f0           0x90         144   
.text._TCPIPStackModule    0x1d380           0x90         144   
.text.SYS_FS_Initialize    0x1d410           0x90         144   
.text.SYS_TIME_AddToLis    0x1d4a0           0x90         144   
.text.SYS_Initialize       0x1d530           0x90         144   
.text.TCPIP_HTTP_Print_    0x1d5c0           0x8e         142   
.text.APP_Tasks            0x1d64e            0x2           2   
.text.TCPIP_SNMP_FreeMe    0x1d650           0x8c         140   
.text._DHCPClientClose     0x1d6dc           0x8c         140   
.text.TCPIP_STACK_Initi    0x1d768           0x8c         140   
.text._UDPsetPacketInfo    0x1d7f4           0x8c         140   
.text.Reset_Handler        0x1d880           0x8c         140   
.text._Command_GatewayA    0x1d90c           0x88         136   
.text._DHCPPacketFilter    0x1d994           0x88         136   
.text._DHCPSetLeaseTime    0x1da1c           0x88         136   
.text._OAHashFindBkt       0x1daa4           0x88         136   
.text.SYS_CMDIO_ADD        0x1db2c           0x88         136   
.rodata.MPFSFunctions      0x1dbb4           0x88         136   
.text.TCPIP_IPV4_MacPac    0x1dc3c           0x84         132   
.text.TCPIP_STACK_NetAd    0x1dcc0           0x84         132   
.rodata.TCPIP_STACK_MOD    0x1dd44           0x84         132   
.text._TCPIP_PKT_Packet    0x1ddc8           0x84         132   
.text.NVIC_Initialize      0x1de4c           0x84         132   
.text.SYS_FS_FileRead      0x1ded0           0x84         132   
.text._DNS_ValidateIf      0x1df54           0x82         130   
.text.TCPIP_Helper_Pack    0x1dfd6           0x82         130   
.text.DRV_ETHPHY_Vendor    0x1e058           0x80         128   
.text.DRV_ETHPHY_Vendor    0x1e0d8           0x80         128   
.text.SERCOM1_USART_Ini    0x1e158           0x80         128   
.text.SendCommandPrint     0x1e1d8           0x80         128   
.text.MPFS_Read            0x1e258           0x80         128   
.text.xTaskPriorityDisi    0x1e2d8           0x80         128   
.text.vTaskPriorityDisi    0x1e358           0x80         128   
.rodata.outputA_data       0x1e3d8           0x80         128   
.rodata.outputB_data       0x1e458           0x80         128   
.text.TCPIP_HTTP_GetExe    0x1e4d8           0x80         128   
.text.__pad                0x1e558           0x80         128   
.text.prvUnlockQueue       0x1e5d8           0x7e         126   
.text.strspn               0x1e656           0x7e         126   
.text.DRV_ETHPHY_Vendor    0x1e6d4           0x7c         124   
.text.DRV_PIC32CGMAC_Li    0x1e750           0x7c         124   
.text.DRV_MEMORY_Comman    0x1e7cc           0x7c         124   
.text.SERCOM1_USART_Rea    0x1e848           0x7c         124   
.text.SYS_FS_FileClose     0x1e8c4           0x7c         124   
.text.SYS_FS_FileTell      0x1e940           0x7c         124   
.text.SYS_FS_FileSize      0x1e9bc           0x7c         124   
.text.SYS_FS_DirClose      0x1ea38           0x7c         124   
.text.__pop_ptr            0x1eab4           0x7c         124   
.text.DRV_PIC32CGMAC_Li    0x1eb30           0x7a         122   
.text.TCPIP_TCP_SocketI    0x1ebaa           0x7a         122   
.text._DRV_ETHPHY_Setup    0x1ec24           0x78         120   
.text.DRV_PIC32CGMAC_Li    0x1ec9c           0x78         120   
.text.DRV_MIIM_Open        0x1ed14           0x78         120   
.text.DRV_MIIM_Initiali    0x1ed8c           0x78         120   
.text.TCPIP_SNMP_Deinit    0x1ee04           0x78         120   
.text._HTTP_Cleanup        0x1ee7c           0x78         120   
.rodata                    0x1eef4           0x78         120  Read-only const 
.text.TCPIP_Helper_Pack    0x1ef6c           0x78         120   
.text.__cvt_u              0x1efe4           0x78         120   
.text._DRV_GMAC_LinkSta    0x1f05c           0x76         118   
.text.prvCopyDataToQueu    0x1f0d2           0x76         118   
.text.strcspn              0x1f148           0x76         118   
.text.TCPIP_HTTP_Print_    0x1f1be            0x2           2   
.text.DRV_GMAC_Process     0x1f1c0           0x74         116   
.text._ARPUpdateEntry      0x1f234           0x74         116   
.text.TCPIP_ARP_EntryRe    0x1f2a8           0x74         116   
.text.GenericTxDone        0x1f31c           0x74         116   
.text.TCPIP_DHCP_Connec    0x1f390           0x74         116   
.text.prvIdleTask          0x1f404           0x74         116   
.text.xTaskRemoveFromEv    0x1f478           0x74         116   
.text.wc_GenerateSeed      0x1f4ec           0x74         116   
.text.TCPIP_HTTP_Print_    0x1f560           0x74         116   
.text._MacTxPendingPack    0x1f5d4           0x72         114   
.text._TCPIP_StackSyncF    0x1f646           0x72         114   
.text.TCPIP_PKT_DataSeg    0x1f6b8           0x72         114   
.text.Hash_DRBG_Instant    0x1f72a           0x72         114   
.text.__fmt_o              0x1f79c           0x72         114   
.text.TCPIP_HTTP_Print_    0x1f80e            0x2           2   
.text._DRV_ETHPHY_NegCo    0x1f810           0x70         112   
.text.DRV_GMAC_EventAck    0x1f880           0x70         112   
.text.DRV_GMAC_Tasks_IS    0x1f8f0           0x70         112   
.text.DRV_MEMORY_Driver    0x1f960           0x70         112   
.text.TCPIP_SNMP_VarDat    0x1f9d0           0x70         112   
.text.TCPIP_IPV4_Cleanu    0x1fa40           0x70         112   
.text.TCPIP_Helper_Calc    0x1fab0           0x70         112   
.text.xQueueGenericRese    0x1fb20           0x70         112   
.text.TCPIP_SNMP_OIDStr    0x1fb90           0x6e         110   
.text.TCPIP_HTTP_Print_    0x1fbfe            0x2           2   
.text.DRV_PIC32CGMAC_Li    0x1fc00           0x6c         108   
.text.TCPIP_ICMP_Initia    0x1fc6c           0x6c         108   
.text._Command_BIOSName    0x1fcd8           0x6c         108   
.text.TCPIP_DNS_Disable    0x1fd44           0x6c         108   
.text.SYS_CMD_ADDGRP       0x1fdb0           0x6c         108   
.text.SYS_CONSOLE_Print    0x1fe1c           0x6c         108   
.text.pvPortMalloc         0x1fe88           0x6c         108   
.text.DRV_MEMORY_Handle    0x1fef4           0x6a         106   
.text.wc_CryptoCb_Sha25    0x1ff5e           0x6a         106   
.text.DRV_ETHPHY_Open      0x1ffc8           0x68         104   
.text._AllocateRxPacket    0x20030           0x68         104   
.text.TCPIP_SNMP_Length    0x20098           0x68         104   
.text._TcpSwapHeader       0x20100           0x68         104   
.text._TcpCleanup          0x20168           0x68         104   
.text._DNS_AddSelection    0x201d0           0x68         104   
.text.TCPIP_OAHASH_Entr    0x20238           0x68         104   
.text._TCPIPStackInsert    0x202a0           0x68         104   
.text.SYS_CONSOLE_Initi    0x20308           0x68         104   
.text.SYS_FS_FileEOF       0x20370           0x68         104   
.text.wc_RNG_TestSeed      0x203d8           0x68         104   
.text._DRV_ETHPHY_NegRe    0x20440           0x64         100   
.text._DRV_ETHPHY_Reset    0x204a4           0x64         100   
.text.DRV_MEMORY_Close     0x20508           0x64         100   
.text.TCPIP_SNMP_OIDIsV    0x2056c           0x64         100   
.text.TCPIP_OAHASH_Entr    0x205d0           0x64         100   
.text.TCPIP_STACK_Bring    0x20634           0x64         100   
.text.TCPIP_UDP_SocketI    0x20698           0x64         100   
.text.MPFS_DirOpen         0x206fc           0x64         100   
.text.xPortPendSVHandle    0x20760           0x64         100   
.text.xQueueGiveFromISR    0x207c4           0x64         100   
.text.vTaskStartSchedul    0x20828           0x64         100   
.text.wc_InitSha256_ex     0x2088c           0x64         100   
.text._MacRxPacketAck      0x208f0           0x62          98   
.text.TCPIP_ARP_EntryGe    0x20952           0x62          98   
.text.DRV_MEMORY_Handle    0x209b4           0x60          96   
.text._PingStop            0x20a14           0x60          96   
.text.Ipv4FilterSetActi    0x20a74           0x60          96   
.text._DHCPOptionProces    0x20ad4           0x60          96   
.text.TCPIP_DHCP_Disabl    0x20b34           0x60          96   
.text.TCPIP_DNS_ClientD    0x20b94           0x60          96   
.text.TCPIP_DNS_GetIPAd    0x20bf4           0x60          96   
.text._TCPIP_SelectDefa    0x20c54           0x60          96   
.text.vsnprintf            0x20cb4           0x60          96   
.text.strstr               0x20d14           0x60          96   
.text.__strchrnul          0x20d74           0x60          96   
.text._DRV_ETHPHY_NegCo    0x20dd4           0x5c          92   
.rodata.DRV_ETHPHY_OBJE    0x20e30           0x5c          92   
.text._DRV_GMAC_LinkSta    0x20e8c           0x5c          92   
.text.DRV_GMAC_Register    0x20ee8           0x5c          92   
.text.uitoa                0x20f44           0x5c          92   
.text._TcpClientSocketC    0x20fa0           0x5c          92   
.text.TCPIP_ARP_Probe      0x20ffc           0x5c          92   
.text.TCPIP_DHCP_Enable    0x21058           0x5c          92   
.text._TCPIPStackIpAddF    0x210b4           0x5c          92   
.text.SYS_FS_MEDIA_MANA    0x21110           0x5c          92   
.text.SYS_TIME_RemoveFr    0x2116c           0x5c          92   
.text.xTaskCheckForTime    0x211c8           0x5c          92   
.text.wc_CryptoCb_Rando    0x21224           0x5c          92   
.text.__libc_start_init    0x21280           0x5c          92   
.text.unbin                0x212dc           0x5c          92   
.rodata                    0x21338           0x5c          92  Read-only const 
.text.DRV_PIC32CGMAC_Li    0x21394           0x5a          90   
.text.TCPIP_UDP_BcastIP    0x213ee           0x5a          90   
.text.DRV_ETHPHY_Initia    0x21448           0x58          88   
.text.DRV_GMAC_RxFilter    0x214a0           0x58          88   
.rodata.DRV_GMAC_Object    0x214f8           0x58          88   
.text._DNS_Enable          0x21550           0x58          88   
.text._TCPIPStackModule    0x215a8           0x58          88   
.text.OSAL_SEM_Create      0x21600           0x58          88   
.text.MPFSGetArray         0x21658           0x58          88   
.text.SYS_TIME_TimerAdd    0x216b0           0x58          88   
.text.SYS_TIME_TimerSta    0x21708           0x58          88   
.text.SYS_TIME_Callback    0x21760           0x58          88   
.rodata.TCPIP_STACK_MOD    0x217b8           0x58          88   
.text.__shgetc             0x21810           0x58          88   
.text.__fmt_s              0x21868           0x58          88   
.text.DRV_MIIM_Operatio    0x218c0           0x56          86   
.text.__fmt_u              0x21916           0x56          86   
.text._DRV_PHY_SMITrans    0x2196c           0x54          84   
.text._ARPNotifyClients    0x219c0           0x54          84   
.text.IperfSetState        0x21a14           0x54          84   
.text.TCPIP_IPERF_Deini    0x21a68           0x54          84   
.text.IPv4RegisterFilte    0x21abc           0x54          84   
.text._DHCPOptionWriteS    0x21b10           0x54          84   
.text.TCPIP_DNS_RemoveA    0x21b64           0x54          84   
.text.TCPIP_STACK_Strin    0x21bb8           0x54          84   
.text._TCPIPStackAnyNet    0x21c0c           0x54          84   
.text._SYS_FS_MEDIA_MAN    0x21c60           0x54          84   
.text.SYS_TIME_Callback    0x21cb4           0x54          84   
.text.stpncpy              0x21d08           0x54          84   
.text._TcpAbort            0x21d5c           0x52          82   
.text.TCPIP_TCP_RemoteB    0x21dae           0x52          82   
.text._DNS_DeleteHash      0x21e00           0x52          82   
.text.strtox               0x21e52           0x52          82   
.text.DRV_ETHPHY_LinkSt    0x21ea4           0x50          80   
.text.DRV_GMAC_Paramete    0x21ef4           0x50          80   
.rodata                    0x21f44           0x50          80  Read-only const 
.rodata                    0x21f94           0x50          80  Read-only const 
.text._DHCPOptionWriteI    0x21fe4           0x50          80   
.text.TCPIP_DHCP_Renew     0x22034           0x50          80   
.text.TCPIP_DNS_OAHASH_    0x22084           0x50          80   
.text.SYS_CONSOLE_Statu    0x220d4           0x50          80   
.text.MPFSGetFileRecord    0x22124           0x50          80   
.text.SYS_FS_FileNameGe    0x22174           0x50          80   
.rodata                    0x221c4           0x50          80  Read-only const 
.text._DRV_ETHPHY_Setup    0x22214           0x4e          78   
.text._DRV_MIIM_GetClie    0x22262           0x4e          78   
.text.TCPIP_HTTP_PostVa    0x222b0           0x4e          78   
.text.TCPIP_IPV4_Select    0x222fe           0x4e          78   
.text.TCPIP_UDP_PutIsRe    0x2234c           0x4e          78   
.text._DRV_ETHPHY_LinkS    0x2239a           0x4c          76   
.text.TCPIP_HTTP_Print_    0x223e6            0x2           2   
.text.TCPIP_SNMP_WriteC    0x223e8           0x4c          76   
.text.TCPIP_SNMP_ReadCo    0x22434           0x4c          76   
.text._TcpSocketKill       0x22480           0x4c          76   
.text.ResetIperfCounter    0x224cc           0x4c          76   
.text._DHCPSetRunFail      0x22518           0x4c          76   
.text.TCPIP_Helper_IPAd    0x22564           0x4c          76   
.text._TCPIP_MacEventCB    0x225b0           0x4c          76   
.text._UDPClose            0x225fc           0x4c          76   
.text.SYS_FS_MEDIA_MANA    0x22648           0x4c          76   
.text.__pic32c_data_ini    0x22694           0x4c          76   
.text.TCPIP_IPV4_Select    0x226e0           0x4a          74   
.text.TCPIP_UDP_ArrayPu    0x2272a           0x4a          74   
.text.TCPIP_UDP_Destina    0x22774           0x4a          74   
.text.__toread             0x227be           0x4a          74   
.text.__aeabi_d2iz         0x22808           0x4a          74   
.text.__dummy              0x22852            0x2           2   
.text.DRV_ETHPHY_Negoti    0x22854           0x48          72   
.text.DRV_GMAC_LinkChec    0x2289c           0x48          72   
.rodata.default_shell_o    0x228e4           0x48          72   
.text._TCPSendWinIncUpd    0x2292c           0x48          72   
.text.TCPIP_TCP_Destina    0x22974           0x48          72   
.text.TCPIP_ARP_Deiniti    0x229bc           0x48          72   
.rodata._DHCPOptProcTbl    0x22a04           0x48          72   
.text.TCPIP_STACK_MACId    0x22a4c           0x48          72   
.text.TCPIP_STACK_Match    0x22a94           0x48          72   
.text._TCPIPStackSignal    0x22adc           0x48          72   
.rodata.keySeqTbl          0x22b24           0x48          72   
.text.xPortStartSchedul    0x22b6c           0x48          72   
.text.wc_CryptoCb_FindD    0x22bb4           0x48          72   
.text.strtok               0x22bfc           0x48          72   
.text._DRV_GMAC_LinkSta    0x22c44           0x46          70   
.text.Shell_GetCwd         0x22c8a           0x46          70   
.text.Shell_GetRoot        0x22cd0           0x46          70   
.text.TCPIP_TCP_FifoTxF    0x22d16           0x46          70   
.text.TCPIP_ARP_Resolve    0x22d5c           0x46          70   
.text._TCPIP_HEAP_Delet    0x22da2           0x46          70   
.text.TCPIP_Helper_Sing    0x22de8           0x46          70   
.text.TCPIP_Notificatio    0x22e2e           0x46          70   
.text.TCPIP_UDP_SignalH    0x22e74           0x46          70   
.text.atoi                 0x22eba           0x46          70   
.text.atol                 0x22f00           0x46          70   
.text.DRV_GMAC_ConfigGe    0x22f48           0x44          68   
.text._MacTxDiscardQueu    0x22f8c           0x44          68   
.text.Helper_SingleList    0x22fd0           0x44          68   
.text._SNMP_Trap_Initia    0x23014           0x44          68   
.text.TCPIP_SNMP_GetArr    0x23058           0x44          68   
.text.TCPIP_SNMP_WriteC    0x2309c           0x44          68   
.text.TCPIP_SNMP_ReadCo    0x230e0           0x44          68   
.text.TCPIP_TCP_SignalH    0x23124           0x44          68   
.text._MiimClose           0x23168           0x44          68   
.text.TCPIP_Helper_MACA    0x231ac           0x44          68   
.text.TCPIP_STACK_NetBy    0x231f0           0x44          68   
.text.TCPIP_STACK_Addre    0x23234           0x44          68   
.text._TCPIPStackModule    0x23278           0x44          68   
.rodata                    0x232bc           0x44          68  Read-only const 
.text.MPFS_Seek            0x23300           0x44          68   
.text.SYS_INT_SourceDis    0x23344           0x44          68   
.text.TCPIP_SNMP_NextIn    0x23388           0x44          68   
.text._DRV_GMAC_LinkSta    0x233cc           0x42          66   
.text.DRV_MEMORY_Handle    0x2340e           0x42          66   
.text._TcpSocketSetSour    0x23450           0x42          66   
.text.TCPIP_HTTP_ArgGet    0x23492           0x42          66   
.text.TCPIP_Helper_Form    0x234d4           0x42          66   
.text._UDPSetNewRxPacke    0x23516           0x42          66   
.text.TCPIP_UDP_SourceI    0x23558           0x42          66   
.text                      0x2359c           0x40          64  App's exec code 
.text.DRV_ETHPHY_Reset     0x235dc           0x40          64   
.text.DRV_ETHPHY_Negoti    0x2361c           0x40          64   
.text.DRV_ETHPHY_Restar    0x2365c           0x40          64   
.text._DRV_ETHPHY_Reset    0x2369c           0x40          64   
.rodata.DRV_MIIM_OBJECT    0x236dc           0x40          64   
.text._TCP_PortIsAvaila    0x2371c           0x40          64   
.text._MiimOpen            0x2375c           0x40          64   
.rodata.HTTPResponseHea    0x2379c           0x40          64   
.text._DHCPSetBoundStat    0x237dc           0x40          64   
.text.TCPIP_DHCP_Deinit    0x2381c           0x40          64   
.text.TCPIP_DNS_RemoveE    0x2385c           0x40          64   
.rodata                    0x2389c           0x40          64  Read-only const 
.text.TCPIP_STACK_NetHa    0x238dc           0x40          64   
.text._TCPIP_PKT_Packet    0x2391c           0x40          64   
.text._UDPIsAvailablePo    0x2395c           0x40          64   
.text.TCPIP_UDP_SocketN    0x2399c           0x40          64   
.text.NVMCTRL_PageWrite    0x239dc           0x40          64   
.text.TC0_TimerInitiali    0x23a1c           0x40          64   
.text.SYS_FS_MEDIA_MANA    0x23a5c           0x40          64   
.text.TCPIP_SNMP_ExactI    0x23a9c           0x40          64   
.text.adjust_size          0x23adc           0x40          64   
.text._TCPSetHalfFlushF    0x23b1c           0x3e          62   
.text._DHCPOptionProces    0x23b5a           0x3e          62   
.text.TCPIP_STACK_Addre    0x23b98           0x3e          62   
.text.TCPIP_UDP_TxOffse    0x23bd6           0x3e          62   
.text._DRV_ETHPHY_NegCo    0x23c14           0x3c          60   
.text.DRV_MIIM_Register    0x23c50           0x3c          60   
.text.hexatob              0x23c8c           0x3c          60   
.text.TCPIP_TCP_Close      0x23cc8           0x3c          60   
.text._DHCPOptionProces    0x23d04           0x3c          60   
.text._DHCPNotifyClient    0x23d40           0x3c          60   
.text.TCPIP_DHCP_IsEnab    0x23d7c           0x3c          60   
.text._TCPIPStackModule    0x23db8           0x3c          60   
.text._TCPIP_PKT_Packet    0x23df4           0x3c          60   
.text.TCPIP_UDP_OpenCli    0x23e30           0x3c          60   
.text.OSAL_SEM_PostISR     0x23e6c           0x3c          60   
.text.Console_UART_Read    0x23ea8           0x3c          60   
.text.Console_UART_Writ    0x23ee4           0x3c          60   
.text.SYS_TIME_GetTimer    0x23f20           0x3c          60   
.text.SYS_TIME_Resource    0x23f5c           0x3c          60   
.text.SYS_TIME_TimerDes    0x23f98           0x3c          60   
.text.wc_InitMd5_ex        0x23fd4           0x3c          60   
.text.__aeabi_dcmple       0x24010           0x3c          60   
.text._DRV_ETHPHY_Setup    0x2404c           0x3a          58   
.text._DRV_ETHPHY_NegRe    0x24086           0x3a          58   
.text._DRV_MIIM_Release    0x240c0           0x3a          58   
.text.DRV_MIIM_Deinitia    0x240fa           0x3a          58   
.text.Shell_FileOpen       0x24134           0x3a          58   
.text.Shell_FileStat       0x2416e           0x3a          58   
.text.TCPIP_TCP_SignalH    0x241a8           0x3a          58   
.text._TCPIP_HEAP_MaxSi    0x241e2           0x3a          58   
.text._DHCPOptionProces    0x2421c           0x3a          58   
.text.TCPIP_STACK_NetAl    0x24256           0x3a          58   
.text.SNMPGetTimeStamp     0x24290           0x3a          58   
.text.TCPIP_HTTP_Print_    0x242ca           0x3a          58   
.text.TCPIP_HTTP_Print_    0x24304           0x3a          58   
.text.DRV_ETHPHY_HWConf    0x24340           0x38          56   
.text._DRV_ETHPHY_Setup    0x24378           0x38          56   
.text.DRV_GMAC_Open        0x243b0           0x38          56   
.text.DRV_PIC32CGMAC_Li    0x243e8           0x38          56   
.text.DRV_MEMORY_Geomet    0x24420           0x38          56   
.text.DRV_MEMORY_Addres    0x24458           0x38          56   
.text.TCPIP_SNMP_Struct    0x24490           0x38          56   
.text.TCPIP_SNMP_PDUPro    0x244c8           0x38          56   
.text._TCP_EphemeralPor    0x24500           0x38          56   
.text.TCPIP_Commands_De    0x24538           0x38          56   
.rodata.httpContentType    0x24570           0x38          56   
.rodata.httpFileExtensi    0x245a8           0x38          56   
.text.TCPIP_DNS_ClientI    0x245e0           0x38          56   
.text.TCPIP_PKT_PacketM    0x24618           0x38          56   
.text._UDPAllocateEphem    0x24650           0x38          56   
.text.MPFS_EOF             0x24688           0x38          56   
.text.SYS_TIME_Resource    0x246c0           0x38          56   
.rodata.TCPIP_HOSTS_CON    0x246f8           0x38          56   
.text.__aeabi_dcmpgt       0x24730           0x38          56   
.text.bin_index            0x24768           0x38          56   
.text.__fmt_state          0x247a0           0x38          56   
.text.__aeabi_dcmplt       0x247d8           0x38          56   
.text._DRV_ETHPHY_NegCo    0x24810           0x36          54   
.text.Shell_FileDelete     0x24846           0x36          54   
.text.Shell_DirMake        0x2487c           0x36          54   
.text.Shell_DirOpen        0x248b2           0x36          54   
.text.stricmp              0x248e8           0x36          54   
.text._TCPSetSourceAddr    0x2491e           0x36          54   
.text._DNS_NetIsValid      0x24954           0x36          54   
.text._TCPIPStackSetCon    0x2498a           0x36          54   
.text._DRV_ETHPHY_Setup    0x249c0           0x34          52   
.text.DRV_PIC32CGMAC_Li    0x249f4           0x34          52   
.text._SNMP_BuildIntege    0x24a28           0x34          52   
.text._TCP_SktFlagsGet     0x24a5c           0x34          52   
.text._ARPSetEntry         0x24a90           0x34          52   
.text.TCPIP_ARP_Handler    0x24ac4           0x34          52   
.text.TCPIP_HTTP_Deinit    0x24af8           0x34          52   
.rodata                    0x24b2c           0x34          52  Read-only const 
.text._DNSGetData          0x24b60           0x34          52   
.text.TCPIP_STACK_NetDo    0x24b94           0x34          52   
.text.TCPIP_UDP_RxOffse    0x24bc8           0x34          52   
.text.CommandQuit          0x24bfc           0x34          52   
.text.Console_UART_Writ    0x24c30           0x34          52   
.text.Console_UART_Writ    0x24c64           0x34          52   
.text.Console_UART_Read    0x24c98           0x34          52   
.text.Console_UART_Read    0x24ccc           0x34          52   
.text.SYS_CONSOLE_Read     0x24d00           0x34          52   
.text.SYS_CONSOLE_ReadC    0x24d34           0x34          52   
.text.SYS_CONSOLE_Write    0x24d68           0x34          52   
.text.MPFS_Close           0x24d9c           0x34          52   
.text.SYS_FS_MEDIA_MANA    0x24dd0           0x34          52   
.rodata.tcpipMACPIC32CI    0x24e04           0x34          52   
.text.vListInsert          0x24e38           0x34          52   
.text.vTaskDelay           0x24e6c           0x34          52   
.text.Hash_DRBG_Uninsta    0x24ea0           0x34          52   
.text.TCPIP_HTTP_Print_    0x24ed4           0x34          52   
.text.TCPIP_HTTP_Print_    0x24f08           0x34          52   
.text.TCPIP_HTTP_Print_    0x24f3c           0x34          52   
.text.TCPIP_HTTP_Print_    0x24f70           0x34          52   
.text.TCPIP_HTTP_Print_    0x24fa4           0x34          52   
.text.TCPIP_HTTP_Print_    0x24fd8           0x34          52   
.text.TCPIP_HTTP_Print_    0x2500c           0x34          52   
.text.TCPIP_HTTP_Print_    0x25040           0x34          52   
.text.TCPIP_HTTP_Print_    0x25074           0x34          52   
.text.TCPIP_HTTP_Print_    0x250a8           0x34          52   
.text._DRV_PHY_SMIReadS    0x250dc           0x32          50   
.text._DRV_PHY_SMIWrite    0x2510e           0x32          50   
.text._DRV_ETHPHY_Setup    0x25140           0x32          50   
.text.TCPIP_STACK_NetBi    0x25172           0x32          50   
.text.trim                 0x251a4           0x32          50   
.text.__aeabi_dcmpeq       0x251d6           0x32          50   
.text._DRV_PHY_NegCompl    0x25208           0x30          48   
.text._DRV_ETHPHY_Setup    0x25238           0x30          48   
.text.DRV_GMAC_Status      0x25268           0x30          48   
.text.DRV_PIC32CGMAC_Li    0x25298           0x30          48   
.text.GMAC_InterruptHan    0x252c8           0x30          48   
.rodata.memoryMediaFunc    0x252f8           0x30          48   
.text.TCPIP_ICMP_Cleanu    0x25328           0x30          48   
.text._TCPSocketTxFreeS    0x25358           0x30          48   
.text.TCPIP_ARP_HashEnt    0x25388           0x30          48   
.rodata.iperfCmdTbl        0x253b8           0x30          48   
.text.TCPIP_IPV4_CheckP    0x253e8           0x30          48   
.text.fnv_32_hash          0x25418           0x30          48   
.text.TCPIP_OAHASH_Entr    0x25448           0x30          48   
.text.TCPIP_Helper_Stri    0x25478           0x30          48   
.text.TCPIP_Helper_Prot    0x254a8           0x30          48   
.text.TCPIP_Helper_Prot    0x254d8           0x30          48   
.text.TCPIP_STACK_Initi    0x25508           0x30          48   
.text.TCPIP_PKT_Initial    0x25538           0x30          48   
.text.TCPIP_UDP_Close      0x25568           0x30          48   
.text.SendCommandCharac    0x25598           0x30          48   
.text._keyEndProcess       0x255c8           0x30          48   
.text._keyHomeProcess      0x255f8           0x30          48   
.text.SYS_CONSOLE_Messa    0x25628           0x30          48   
.text.MPFS_Unmount         0x25658           0x30          48   
.text.SYS_FS_MEDIA_MANA    0x25688           0x30          48   
.text.SYS_TIME_UpdateTi    0x256b8           0x30          48   
.text.xQueueGenericCrea    0x256e8           0x30          48   
.text.wc_CryptoCb_FindD    0x25718           0x30          48   
.rodata.seedA_data         0x25748           0x30          48   
.rodata.seedB_data         0x25778           0x30          48   
.text.TCPIP_HTTP_Print_    0x257a8           0x30          48   
.text.TCPIP_HTTP_Print_    0x257d8           0x30          48   
.text.alloc_rev            0x25808           0x30          48   
.text                      0x25838           0x30          48  App's exec code 
.text._XtlEventsTcp2Eth    0x25868           0x2e          46   
.text._DRV_MIIM_GetObje    0x25896           0x2e          46   
.text.DRV_MIIM_Deregist    0x258c4           0x2e          46   
.text.TCPIP_TCP_Connect    0x258f2           0x2e          46   
.text._DHCPOptionProces    0x25920           0x2e          46   
.text._DHCPOptionProces    0x2594e           0x2e          46   
.text._DHCPOptionProces    0x2597c           0x2e          46   
.text._DHCPOptionClient    0x259aa           0x2e          46   
.text._DHCPSetTimeout      0x259d8           0x2e          46   
.text._DNS_CleanCacheEn    0x25a06           0x2e          46   
.text._DNSClientCleanup    0x25a34           0x2e          46   
.text.TCPIP_STACK_DNSSe    0x25a62           0x2e          46   
.text._TxSktGetLockedV4    0x25a90           0x2e          46   
.text.wc_CryptoCb_Regis    0x25abe           0x2e          46   
.text.DRV_ETHPHY_Close     0x25aec           0x2c          44   
.text.DRV_ETHPHY_Vendor    0x25b18           0x2c          44   
.text.DRV_ETHPHY_Reinit    0x25b44           0x2c          44   
.text._DRV_ETHPHY_LinkS    0x25b70           0x2c          44   
.text.DRV_PIC32CGMAC_Li    0x25b9c           0x2c          44   
.text.DRV_MEMORY_Transf    0x25bc8           0x2c          44   
.text.DRV_MEMORY_IsAtta    0x25bf4           0x2c          44   
.text._ARPRemoveEntry      0x25c20           0x2c          44   
.text.TCPIP_Helper_Prot    0x25c4c           0x2c          44   
.text.TCPIP_STACK_IsBca    0x25c78           0x2c          44   
.text._TCPIPStackModule    0x25ca4           0x2c          44   
.text._TCPIP_PKT_Socket    0x25cd0           0x2c          44   
.text._UDPFreeTxResourc    0x25cfc           0x2c          44   
.text.TC0_TimerInterrup    0x25d28           0x2c          44   
.rodata.sysConsoleUARTD    0x25d54           0x2c          44   
.text.MPFS_GetPosition     0x25d80           0x2c          44   
.text.SYS_TIME_Counter6    0x25dac           0x2c          44   
.text.TCPIP_STACK_Init     0x25dd8           0x2c          44   
.text.pxPortInitialiseS    0x25e04           0x2c          44   
.text.xPortSysTickHandl    0x25e30           0x2c          44   
.text.prvResetNextTaskU    0x25e5c           0x2c          44   
.text.wc_RNG_HealthTest    0x25e88           0x2c          44   
.text.alloc_fwd            0x25eb4           0x2c          44   
.text.fma                  0x25ee0           0x2c          44   
.text._sbrk                0x25f0c           0x2c          44   
.text._DRV_GMAC_LinkSta    0x25f38           0x2a          42   
.text.DRV_NVMCTRL_Geome    0x25f62           0x2a          42   
.text.TCPIP_TCP_WasRese    0x25f8c           0x2a          42   
.text.TCPIP_DNS_OAHASH_    0x25fb6           0x2a          42   
.text.TCPIP_Helper_Prot    0x25fe0           0x2a          42   
.text.TCPIP_Helper_Prot    0x2600a           0x2a          42   
.text.TCPIP_Notificatio    0x26034           0x2a          42   
.text.__pop_float          0x2605e           0x2a          42   
.text.DRV_ETHPHY_Tasks     0x26088           0x28          40   
.text.DRV_ETHPHY_PhyAdd    0x260b0           0x28          40   
.text._DRV_PHY_SetOperD    0x260d8           0x28          40   
.text.DRV_ETHPHY_Client    0x26100           0x28          40   
.text.DRV_PIC32CGMAC_Li    0x26128           0x28          40   
.text.DRV_PIC32CGMAC_Li    0x26150           0x28          40   
.text.DRV_MIIM_Status      0x26178           0x28          40   
.text.TCPIP_ICMP_Deinit    0x261a0           0x28          40   
.text._TcpSocketChk        0x261c8           0x28          40   
.text._TcpFlush            0x261f0           0x28          40   
.text._ARPRemoveCacheEn    0x26218           0x28          40   
.text.Ipv4DeRegisterFil    0x26240           0x28          40   
.text._DHCPOptionWriteP    0x26268           0x28          40   
.text.TCPIP_DHCP_IsActi    0x26290           0x28          40   
.text._TCPIP_STACK_Tick    0x262b8           0x28          40   
.text._TCPIPSignalEntry    0x262e0           0x28          40   
.text.TCPIP_STACK_Index    0x26308           0x28          40   
.text.TCPIP_STACK_NetMA    0x26330           0x28          40   
.text.TCPIP_STACK_NetMA    0x26358           0x28          40   
.text.TCPIP_STACK_NetIs    0x26380           0x28          40   
.text._TCPIPStackSignal    0x263a8           0x28          40   
.text._UDPSocketDcpt       0x263d0           0x28          40   
.text._UDPUpdatePacketL    0x263f8           0x28          40   
.text.TCPIP_UDP_GetIsRe    0x26420           0x28          40   
.text.TC0_Timer16bitCou    0x26448           0x28          40   
.text.SYS_CMD_Initializ    0x26470           0x28          40   
.text.Console_UART_Init    0x26498           0x28          40   
.text.SYS_FS_MEDIA_MANA    0x264c0           0x28          40   
.rodata                    0x264e8           0x28          40  Read-only const 
.text.SYS_TMR_TickCount    0x26510           0x28          40   
.text.SYS_TMR_TickCount    0x26538           0x28          40   
.text.SYS_TMR_TickCount    0x26560           0x28          40   
.rodata.drvMemory0InitD    0x26588           0x28          40   
.rodata.tcpipARPInitDat    0x265b0           0x28          40   
.text.prvPortStartFirst    0x265d8           0x28          40   
.text.vPortSetupTimerIn    0x26600           0x28          40   
.text.TCPIP_HTTP_Print_    0x26628           0x28          40   
.text.strncmp              0x26650           0x28          40   
.text.__uflow              0x26678           0x28          40   
.text._DRV_ETHPHY_NegRe    0x266a0           0x26          38   
.text._DRV_ETHPHY_NegRe    0x266c6           0x26          38   
.text.TCPIP_SNMP_TrapSp    0x266ec           0x26          38   
.text.TCPIP_TCP_IsConne    0x26712           0x26          38   
.text.TCPIP_TCP_Flush      0x26738           0x26          38   
.text.TCPIP_TCP_Discard    0x2675e           0x26          38   
.text.TCPIP_OAHASH_Init    0x26784           0x26          38   
.text.TCPIP_STACK_DNSSe    0x267aa           0x26          38   
.text.TCPIP_STACK_Addre    0x267d0           0x26          38   
.text.SYS_RANDOM_Crypto    0x267f6           0x26          38   
.text.__malloc0            0x2681c           0x26          38   
.text.__string_out         0x26842           0x26          38   
.text.DRV_ETHPHY_Vendor    0x26868           0x24          36   
.rodata                    0x2688c           0x24          36  Read-only const 
.text.DRV_PIC32CGMAC_Li    0x268b0           0x24          36   
.text.Shell_Delete         0x268d4           0x24          36   
.text.TCPIP_SNMP_GetDat    0x268f8           0x24          36   
.text.TCPIP_SNMP_DataIs    0x2691c           0x24          36   
.text.TCPIP_SNMP_DataTy    0x26940           0x24          36   
.text._ICMPAllocateTxPa    0x26964           0x24          36   
.text.TCPIP_ICMP_EchoRe    0x26988           0x24          36   
.text._ARPAllocateTxPac    0x269ac           0x24          36   
.text.TCPIP_ARP_Handler    0x269d0           0x24          36   
.rodata._tcpip_heap_obj    0x269f4           0x24          36   
.text._DHCPOptionProces    0x26a18           0x24          36   
.text._DHCPOptionWriteM    0x26a3c           0x24          36   
.text.TCPIP_STACK_IPAdd    0x26a60           0x24          36   
.rodata._builtinCmdTbl     0x26a84           0x24          36   
.text.MPFSIsHandleValid    0x26aa8           0x24          36   
.text.MPFS_DirClose        0x26acc           0x24          36   
.text.SYS_RESET_Softwar    0x26af0           0x24          36   
.text.SYS_RANDOM_Crypto    0x26b14           0x24          36   
.rodata.drvMemory0Devic    0x26b38           0x24          36   
.text.DRV_PIC32CGMAC_Li    0x26b5c            0x4           4   
.text.vPortSVCHandler      0x26b60           0x24          36   
.text.uxListRemove         0x26b84           0x24          36   
.text.xQueueCreateMutex    0x26ba8           0x24          36   
.text.TCPIP_HTTP_Print_    0x26bcc           0x24          36   
.text.__aeabi_d2uiz        0x26bf0           0x24          36   
.text._DRV_PHY_SMITrans    0x26c14           0x22          34   
.text.TCPIP_SNMP_ErrorS    0x26c36           0x22          34   
.text.TCPIP_TCP_Find       0x26c58           0x22          34   
.text.TCPIP_HTTP_PostNa    0x26c7a           0x22          34   
.text.TCPIP_Helper_Prot    0x26c9c           0x22          34   
.text.TCPIP_STACK_NetAd    0x26cbe           0x22          34   
.text._UDPFreeRxQueue      0x26ce0           0x22          34   
.text.TCPIP_UDP_Discard    0x26d02           0x22          34   
.text.TCPIP_HTTP_Print_    0x26d24           0x22          34   
.text.__aeabi_i2d          0x26d46           0x22          34   
.text.DRV_ETHPHY_Status    0x26d68           0x20          32   
.text.DRV_ETHPHY_Client    0x26d88           0x20          32   
.text.DRV_ETHPHY_Client    0x26da8           0x20          32   
.text._DRV_ETHPHY_Clien    0x26dc8           0x20          32   
.text._DRV_ETHPHY_Clien    0x26de8           0x20          32   
.text._DRV_ETHPHY_Clien    0x26e08           0x20          32   
.text._DRV_ETHPHY_Clien    0x26e28           0x20          32   
.text._DRV_ETHPHY_Clien    0x26e48           0x20          32   
.text._DRV_ETHPHY_Clien    0x26e68           0x20          32   
.text._DRV_ETHPHY_Setup    0x26e88           0x20          32   
.rodata                    0x26ea8           0x20          32  Read-only const 
.rodata._DRV_PHY_SetupP    0x26ec8           0x20          32   
.text.DRV_GMAC_Close       0x26ee8           0x20          32   
.text.DRV_GMAC_Deinitia    0x26f08           0x20          32   
.text.DRV_PIC32CGMAC_Li    0x26f28           0x20          32   
.text.DRV_GMAC_LibDescr    0x26f48           0x20          32   
.text.TCPIP_SNMP_Packet    0x26f68           0x20          32   
.text._SwapARPPacket       0x26f88           0x20          32   
.text.TCPIP_DNS_OAHASH_    0x26fa8           0x20          32   
.text.TCPIP_Helper_Prot    0x26fc8           0x20          32   
.rodata.TCPIP_MAC_POWER    0x26fe8           0x20          32   
.text.TCPIP_STACK_NetDe    0x27008           0x20          32   
.text._TCPIPStackHandle    0x27028           0x20          32   
.text.TCPIP_Notificatio    0x27048           0x20          32   
.rodata                    0x27068           0x20          32  Read-only const 
.text.TCPIP_UDP_Destina    0x27088           0x20          32   
.text._keyRightProcess     0x270a8           0x20          32   
.text.GetCommandCharact    0x270c8           0x20          32   
.text.MPFS_GetSize         0x270e8           0x20          32   
.text.SYS_FS_MEDIA_MANA    0x27108           0x20          32   
.text.SYS_INT_SourceRes    0x27128           0x20          32   
.text.SYS_RANDOM_Crypto    0x27148           0x20          32   
.rodata.tcpipPhyInitDat    0x27168           0x20          32   
.text.prvTaskExitError     0x27188           0x20          32   
.text.vPortEnterCritica    0x271a8           0x20          32   
.rodata.reseedSeedA_dat    0x271c8           0x20          32   
.text.TCPIP_SNMP_IsVali    0x271e8           0x20          32   
.text.lock_bin             0x27208           0x20          32   
.text._DRV_GMAC_LinkSta    0x27228           0x1e          30   
.text._SNMP_BuildIntege    0x27246           0x1e          30   
.text.TCPIP_SNMP_DataCo    0x27264           0x1e          30   
.text._TCPIsGetReady       0x27282           0x1e          30   
.text.TCPIP_TCP_FifoRxF    0x272a0           0x1e          30   
.text.TCPIP_STACK_NetAd    0x272be           0x1e          30   
.text.TCPIP_STACK_NetAd    0x272dc           0x1e          30   
.text.TCPIP_STACK_Netwo    0x272fa           0x1e          30   
.text.TCPIP_PKT_Payload    0x27318           0x1e          30   
.text.OSAL_SEM_Pend        0x27336           0x1e          30   
.text.OSAL_MUTEX_Lock      0x27354           0x1e          30   
.text._keyUpProcess        0x27372           0x1e          30   
.rodata                    0x27390           0x1e          30  Read-only const 
.text.__dinit_copy_emb     0x273ae           0x1e          30   
.text.__dinit_copy         0x273cc           0x1e          30   
.text._DRV_ETHPHY_Reset    0x273ea           0x1c          28   
.rodata._DRV_PHY_Client    0x27408           0x1c          28   
.text.DRV_GMAC_EventPen    0x27424           0x1c          28   
.text.DRV_PIC32CGMAC_Li    0x27440           0x1c          28   
.text.DRV_PIC32CGMAC_Si    0x2745c           0x1c          28   
.text.DRV_MEMORY_EraseW    0x27478           0x1c          28   
.text.Helper_SingleList    0x27494           0x1c          28   
.text.Shell_LastError      0x274b0           0x1c          28   
.text._ARPTxAckFnc         0x274cc           0x1c          28   
.text.TCPIP_IPV4_MaxDat    0x274e8           0x1c          28   
.text._TCPIP_HEAP_Callo    0x27504           0x1c          28   
.rodata._DHCPOptWriteTb    0x27520           0x1c          28   
.text.TCPIP_Helper_Sing    0x2753c           0x1c          28   
.text.TCPIP_Helper_Prot    0x27558           0x1c          28   
.text._TCPIPSignalEntry    0x27574           0x1c          28   
.text.TCPIP_STACK_NetAd    0x27590           0x1c          28   
.text.TCPIP_STACK_NetAd    0x275ac           0x1c          28   
.text.TCPIP_STACK_NetAd    0x275c8           0x1c          28   
.text.TCPIP_STACK_NetIs    0x275e4           0x1c          28   
.text.TCPIP_STACK_NetMa    0x27600           0x1c          28   
.text.TCPIP_STACK_NetIs    0x2761c           0x1c          28   
.text.TCPIP_STACK_Deini    0x27638           0x1c          28   
.text.NVMCTRL_BlockEras    0x27654           0x1c          28   
.text._keyLeftProcess      0x27670           0x1c          28   
.text.SendCommandMessag    0x2768c           0x1c          28   
.text.SYS_DEBUG_Initial    0x276a8           0x1c          28   
.text.SYS_FS_FileWrite     0x276c4           0x1c          28   
.text.SYS_FS_MEDIA_MANA    0x276e0           0x1c          28   
.text.SYS_TIME_MSToCoun    0x276fc           0x1c          28   
.text.SYS_TMR_CallbackP    0x27718           0x1c          28   
.rodata.sysTimePlibAPI     0x27734           0x1c          28   
.rodata.tcpipHTTPInitDa    0x27750           0x1c          28   
.rodata.tcpipSNMPInitDa    0x2776c           0x1c          28   
.text.vTaskPlaceOnEvent    0x27788           0x1c          28   
.text.pvTaskIncrementMu    0x277a4           0x1c          28   
.text.__aeabi_ui2d         0x277c0           0x1c          28   
.text.isxdigit             0x277dc           0x1c          28   
.text.calloc               0x277f8           0x1c          28   
.text.memcmp               0x27814           0x1c          28   
.text.memcpy               0x27830           0x1c          28   
.text.vfprintf             0x2784c           0x1c          28   
.text.DRV_PIC32CGMAC_Si    0x27868           0x1a          26   
.text.DRV_MEMORY_Read      0x27882           0x1a          26   
.text.DRV_MEMORY_Erase     0x2789c           0x1a          26   
.text.Helper_SingleList    0x278b6           0x1a          26   
.text.DRV_MIIM_Read        0x278d0           0x1a          26   
.text.DRV_MIIM_Write       0x278ea           0x1a          26   
.text.DRV_MIIM_Scan        0x27904           0x1a          26   
.text.TCPIP_TCP_ClientO    0x2791e           0x1a          26   
.text.TCPIP_TCP_Disconn    0x27938           0x1a          26   
.text.TCPIP_TCP_PutIsRe    0x27952           0x1a          26   
.text.TCPIP_TCP_StringP    0x2796c           0x1a          26   
.text.TCPIP_DNS_IsResol    0x27986           0x1a          26   
.text.TCPIP_Helper_Sing    0x279a0           0x1a          26   
.text.TCPIP_Helper_Sing    0x279ba           0x1a          26   
.text.TCPIP_STACK_NetIs    0x279d4           0x1a          26   
.text.TCPIP_Notificatio    0x279ee           0x1a          26   
.text._UDPTxPktValid       0x27a08           0x1a          26   
.text.TCPIP_UDP_TxPoint    0x27a22           0x1a          26   
.text.wc_InitRng           0x27a3c           0x1a          26   
.text.TCPIP_HTTP_Print_    0x27a56           0x1a          26   
.text.TCPIP_HTTP_Print_    0x27a70           0x1a          26   
.text.isalnum              0x27a8a           0x1a          26   
.text.snprintf             0x27aa4           0x1a          26   
.text.sprintf              0x27abe           0x1a          26   
.text.CRYPT_MD5_DataAdd    0x27ad8           0x18          24   
.text.CRYPT_MD5_Finaliz    0x27af0           0x18          24   
.text.CRYPT_RNG_BlockGe    0x27b08           0x18          24   
.text.DRV_ETHPHY_Deinit    0x27b20           0x18          24   
.text._DRV_ETHPHY_NegCo    0x27b38           0x18          24   
.text._DRV_ETHPHY_Setup    0x27b50           0x18          24   
.text._DRV_ETHPHY_LinkS    0x27b68           0x18          24   
.text._DRV_ETHPHY_NegCo    0x27b80           0x18          24   
.text._DRV_ETHPHY_NegRe    0x27b98           0x18          24   
.text._DRV_ETHPHY_NegRe    0x27bb0           0x18          24   
.rodata._DRV_PHY_NegCom    0x27bc8           0x18          24   
.text.DRV_PIC32CGMAC_Si    0x27be0           0x18          24   
.text.DRV_PIC32CGMAC_Li    0x27bf8           0x18          24   
.text.DRV_MIIM_Close       0x27c10           0x18          24   
.text.TCPIP_TCP_Put        0x27c28           0x18          24   
.text.TCPIP_ARP_HashKey    0x27c40           0x18          24   
.text.TCPIP_OAHASH_Entr    0x27c58           0x18          24   
.text.TCPIP_STACK_NetAd    0x27c70           0x18          24   
.text.TCPIP_STACK_NetAd    0x27c88           0x18          24   
.text.TCPIP_STACK_NetAd    0x27ca0           0x18          24   
.text.TCPIP_STACK_NetAd    0x27cb8           0x18          24   
.text.TCPIP_STACK_NetMa    0x27cd0           0x18          24   
.rodata.TCPIP_FRAME_PRO    0x27ce8           0x18          24   
.text.OSAL_CRIT_Enter      0x27d00           0x18          24   
.text.OSAL_SEM_Post        0x27d18           0x18          24   
.text.OSAL_MUTEX_Create    0x27d30           0x18          24   
.text.OSAL_MUTEX_Unlock    0x27d48           0x18          24   
.text.SERCOM1_USART_Wri    0x27d60           0x18          24   
.text.SERCOM1_USART_Rea    0x27d78           0x18          24   
.text.TC0_TimerStart       0x27d90           0x18          24   
.text.TC0_TimerStop        0x27da8           0x18          24   
.text._keyDownProcess      0x27dc0           0x18          24   
.text.CommandReset         0x27dd8           0x18          24   
.text.SYS_TIME_GetElaps    0x27df0           0x18          24   
.text._SYS_RANDOM_Crypt    0x27e08           0x18          24   
.rodata.sysConsole0UART    0x27e20           0x18          24   
.rodata.tcpipDNSClientI    0x27e38           0x18          24   
.text._TCPIP_STACK_Task    0x27e50           0x18          24   
.text._DRV_MIIM_Task       0x27e68           0x18          24   
.text.vTaskInternalSetT    0x27e80           0x18          24   
.text.TCPIP_HTTP_Print_    0x27e98           0x18          24   
.text.rand                 0x27eb0           0x18          24   
.text.strlen               0x27ec8           0x18          24   
.text.__shlim              0x27ee0           0x18          24   
.text.DRV_MIIM_ClientSt    0x27ef8           0x16          22   
.text._SNMPSocketRxSign    0x27f0e           0x16          22   
.text.TCPIP_TCP_WasDisc    0x27f24           0x16          22   
.text._HTTPSocketRxSign    0x27f3a           0x16          22   
.text._IperfUDPRxSignal    0x27f50           0x16          22   
.text._IperfTCPRxSignal    0x27f66           0x16          22   
.text._TCPIP_HEAP_LastE    0x27f7c           0x16          22   
.text._DHCPSocketRxSign    0x27f92           0x16          22   
.text._DNSSocketRxSigna    0x27fa8           0x16          22   
.text.TCPIP_STACK_Addre    0x27fbe           0x16          22   
.text._TCPIPStackPacket    0x27fd4           0x16          22   
.text.OSAL_CRIT_Leave      0x27fea           0x16          22   
.text.vListInitialise      0x28000           0x16          22   
.text.vListInsertEnd       0x28016           0x16          22   
.text.prvIsQueueEmpty      0x2802c           0x16          22   
.text.xQueueCreateCount    0x28042           0x16          22   
.text.wc_InitMd5           0x28058           0x16          22   
.text.__expand_heap        0x2806e           0x16          22   
.text.strcmp               0x28084           0x16          22   
.rodata._DRV_PHY_NegRes    0x2809c           0x14          20   
.rodata.DRV_ETHPHY_OBJE    0x280b0           0x14          20   
.rodata._DRV_GMAC_LinkS    0x280c4           0x14          20   
.text.DRV_PIC32CGMAC_Li    0x280d8           0x14          20   
.text.DRV_MEMORY_Regist    0x280ec           0x14          20   
.rodata.dataTypeTable      0x28100           0x14          20   
.text.Ipv4DeRegisterCal    0x28114           0x14          20   
.text.TCPIP_HEAP_Create    0x28128           0x14          20   
.text._DHCPOptionWriteE    0x2813c           0x14          20   
.text.TCPIP_STACK_NetUp    0x28150           0x14          20   
.text.TCPIP_STACK_HeapH    0x28164           0x14          20   
.text.NVMCTRL_IsBusy       0x28178           0x14          20   
.text.SERCOM1_USART_Rea    0x2818c           0x14          20   
.text.SERCOM1_USART_Wri    0x281a0           0x14          20   
.text.TC0_Timer16bitPer    0x281b4           0x14          20   
.text.TC0_Timer16bitCom    0x281c8           0x14          20   
.rodata.sysConsoleApi      0x281dc           0x14          20   
.text.Console_UART_Reso    0x281f0           0x14          20   
.text.vPortEnableVFP       0x28204           0x14          20   
.text.vPortExitCritical    0x28218           0x14          20   
.text.CRYPT_WCCB_Initia    0x2822c           0x14          20   
.text.TCPIP_HTTP_Print_    0x28240           0x14          20   
.text.TCPIP_HTTP_Print_    0x28254           0x14          20   
.text.TCPIP_HTTP_Print_    0x28268           0x14          20   
.rodata                    0x2827c           0x14          20  Read-only const 
.text.strtol               0x28290           0x14          20   
.text.memset               0x282a4           0x14          20   
.text.strchr               0x282b8           0x14          20   
.text.stpcpy               0x282cc           0x14          20   
.text.CRYPT_MD5_Initial    0x282e0           0x12          18   
.text.TCPIP_TCP_GetIsRe    0x282f2           0x12          18   
.text._TCPIP_HEAP_FreeS    0x28304           0x12          18   
.text.TCPIP_OAHASH_Entr    0x28316           0x12          18   
.text.OSAL_SEM_Delete      0x28328           0x12          18   
.text.NVIC_INT_Disable     0x2833a           0x12          18   
.text.NVIC_INT_Restore     0x2834c           0x12          18   
.text.vApplicationStack    0x2835e           0x12          18   
.text.vApplicationMallo    0x28370           0x12          18   
.text.__dinit_clear        0x28382           0x12          18   
.text.CRYPT_RNG_Initial    0x28394           0x10          16   
.rodata._DRV_PHY_SetupP    0x283a4           0x10          16   
.text.DRV_EXTPHY_MIICon    0x283b4           0x10          16   
.text.DRV_PIC32CGMAC_Li    0x283c4           0x10          16   
.text.DRV_MEMORY_EventH    0x283d4           0x10          16   
.rodata.gMemoryXferFunc    0x283e4           0x10          16   
.text._Shell_ObjectLock    0x283f4           0x10          16   
.text.TCPIP_SNMP_AuthTr    0x28404           0x10          16   
.text.TCPIP_TCP_SocketN    0x28414           0x10          16   
.rodata.heapTypeStr.146    0x28424           0x10          16   
.text.TCPIP_DNS_GetIPv4    0x28434           0x10          16   
.text.TCPIP_DNS_GetIPv6    0x28444           0x10          16   
.text.TCPIP_Notificatio    0x28454           0x10          16   
.text.TCPIP_UDP_SocketN    0x28464           0x10          16   
.text.NVMCTRL_Initializ    0x28474           0x10          16   
.text.NVMCTRL_Read         0x28484           0x10          16   
.text.IsCommandReady       0x28494           0x10          16   
.text.Console_UART_Stat    0x284a4           0x10          16   
.text.SYS_FS_DirectoryM    0x284b4           0x10          16   
.text.SYS_FS_FileDirect    0x284c4           0x10          16   
.text.sy_time_h2_adapte    0x284d4           0x10          16   
.rodata.tcpipDHCPInitDa    0x284e4           0x10          16   
.rodata.tcpipIPv4InitDa    0x284f4           0x10          16   
.text._APP_Tasks           0x28504           0x10          16   
.text._SYS_CMD_Tasks       0x28514           0x10          16   
.text._SYS_FS_Tasks        0x28524           0x10          16   
.text.vTaskSuspendAll      0x28534           0x10          16   
.text.APP_Initialize       0x28544           0x10          16   
.rodata                    0x28554           0x10          16  Read-only const 
.rodata                    0x28564           0x10          16  Read-only const 
.text.DRV_PIC32CGMAC_Li    0x28574            0xe          14   
.text.DRV_NVMCTRL_Trans    0x28582            0xe          14   
.text.DRV_NVMCTRL_Read     0x28590            0xe          14   
.text.Shell_FileWrite      0x2859e            0xe          14   
.text.Shell_FileRead       0x285ac            0xe          14   
.text.Shell_FileSeek       0x285ba            0xe          14   
.text.btohexa_low          0x285c8            0xe          14   
.text.TCPIP_HTTP_Curren    0x285d6            0xe          14   
.text.TCPIP_Helper_Chec    0x285e4            0xe          14   
.text.TCPIP_STACK_NetIn    0x285f2            0xe          14   
.text.TCPIP_STACK_NetIx    0x28600            0xe          14   
.text._TCPIPStackSignal    0x2860e            0xe          14   
.text.main                 0x2861c            0xe          14   
.text.TCPIP_HTTP_Print_    0x2862a            0xe          14   
.text.TCPIP_HTTP_Print_    0x28638            0xe          14   
.text.tolower              0x28646            0xe          14   
.text.toupper              0x28654            0xe          14   
.rodata._DRV_PHY_LinkSt    0x28664            0xc          12   
.rodata._DRV_PHY_NegRes    0x28670            0xc          12   
.rodata._DRV_PHY_ResetP    0x2867c            0xc          12   
.text._DRV_GMAC_GetTxOc    0x28688            0xc          12   
.text._DRV_GMAC_GetTxOc    0x28694            0xc          12   
.text._DRV_GMAC_GetTxFr    0x286a0            0xc          12   
.text._DRV_GMAC_GetTxBC    0x286ac            0xc          12   
.text._DRV_GMAC_GetTxMC    0x286b8            0xc          12   
.text._DRV_GMAC_GetTxPa    0x286c4            0xc          12   
.text._DRV_GMAC_GetTx64    0x286d0            0xc          12   
.text._DRV_GMAC_GetTx12    0x286dc            0xc          12   
.text._DRV_GMAC_GetTx25    0x286e8            0xc          12   
.text._DRV_GMAC_GetTx51    0x286f4            0xc          12   
.text._DRV_GMAC_GetTx10    0x28700            0xc          12   
.text._DRV_GMAC_GetTx15    0x2870c            0xc          12   
.text._DRV_GMAC_GetTxGT    0x28718            0xc          12   
.text._DRV_GMAC_GetTxUn    0x28724            0xc          12   
.text._DRV_GMAC_GetTxSi    0x28730            0xc          12   
.text._DRV_GMAC_GetTxMu    0x2873c            0xc          12   
.text._DRV_GMAC_GetTxEx    0x28748            0xc          12   
.text._DRV_GMAC_GetTxLa    0x28754            0xc          12   
.text._DRV_GMAC_GetTxDe    0x28760            0xc          12   
.text._DRV_GMAC_GetTxCS    0x2876c            0xc          12   
.text._DRV_GMAC_GetRxOc    0x28778            0xc          12   
.text._DRV_GMAC_GetRxOc    0x28784            0xc          12   
.text._DRV_GMAC_GetRxFr    0x28790            0xc          12   
.text._DRV_GMAC_GetRxBC    0x2879c            0xc          12   
.text._DRV_GMAC_GetRxMC    0x287a8            0xc          12   
.text._DRV_GMAC_GetRxPa    0x287b4            0xc          12   
.text._DRV_GMAC_GetRx64    0x287c0            0xc          12   
.text._DRV_GMAC_GetRx12    0x287cc            0xc          12   
.text._DRV_GMAC_GetRx25    0x287d8            0xc          12   
.text._DRV_GMAC_GetRx51    0x287e4            0xc          12   
.text._DRV_GMAC_GetRx10    0x287f0            0xc          12   
.text._DRV_GMAC_GetRx15    0x287fc            0xc          12   
.text._DRV_GMAC_GetRxGT    0x28808            0xc          12   
.text._DRV_GMAC_GetRxUn    0x28814            0xc          12   
.text._DRV_GMAC_GetRxOv    0x28820            0xc          12   
.text._DRV_GMAC_GetRxJa    0x2882c            0xc          12   
.text._DRV_GMAC_GetRxFC    0x28838            0xc          12   
.text._DRV_GMAC_GetRxLF    0x28844            0xc          12   
.text._DRV_GMAC_GetRxSy    0x28850            0xc          12   
.text._DRV_GMAC_GetRxAl    0x2885c            0xc          12   
.text._DRV_GMAC_GetRxRe    0x28868            0xc          12   
.text._DRV_GMAC_GetRxOv    0x28874            0xc          12   
.text._DRV_GMAC_GetRxIP    0x28880            0xc          12   
.text._DRV_GMAC_GetRxTC    0x2888c            0xc          12   
.text._DRV_GMAC_GetRxUD    0x28898            0xc          12   
.text.DRV_PIC32CGMAC_Li    0x288a4            0xc          12   
.text.DRV_PIC32CGMAC_Li    0x288b0            0xc          12   
.text.DRV_PIC32CGMAC_Li    0x288bc            0xc          12   
.text.DRV_NVMCTRL_PageW    0x288c8            0xc          12   
.text.btohexa_high         0x288d4            0xc          12   
.text.TCPIP_SNMP_IsTrap    0x288e0            0xc          12   
.text.TCPIP_ARP_HashKey    0x288ec            0xc          12   
.text.TCPIP_HTTP_Curren    0x288f8            0xc          12   
.text.TCPIP_IPV4_Packet    0x28904            0xc          12   
.text._TCPIP_HEAP_Size     0x28910            0xc          12   
.text._TCPIP_HEAP_HighW    0x2891c            0xc          12   
.text.TCPIP_DNS_OAHASH_    0x28928            0xc          12   
.text.TCPIP_DNS_Enable     0x28934            0xc          12   
.text.TCPIP_STACK_NetDe    0x28940            0xc          12   
.text.TCPIP_STACK_Numbe    0x2894c            0xc          12   
.rodata.TCPIP_STACK_IF_    0x28958            0xc          12   
.text.TCPIP_PKT_Deiniti    0x28964            0xc          12   
.text.TC0_TimerCallback    0x28970            0xc          12   
.text.SYS_DEBUG_Console    0x2897c            0xc          12   
.text.SYS_DEBUG_ErrorLe    0x28988            0xc          12   
.text.SYS_FS_Error         0x28994            0xc          12   
.text.SYS_TIME_Frequenc    0x289a0            0xc          12   
.rodata.sysConsole0Init    0x289ac            0xc          12   
.rodata.sysfsMountTable    0x289b8            0xc          12   
.text.vTaskMissedYield     0x289c4            0xc          12   
.text.srand                0x289d0            0xc          12   
.text.vsprintf             0x289dc            0xc          12   
.text.strcpy               0x289e8            0xc          12   
.text.strncpy              0x289f4            0xc          12   
.text._DRV_ETHPHY_NegRe    0x28a00            0xa          10   
.text.DRV_MEMORY_TimerH    0x28a0a            0xa          10   
.text.DRV_NVMCTRL_Secto    0x28a14            0xa          10   
.text.Shell_DirClose       0x28a1e            0xa          10   
.text.Shell_FileEof        0x28a28            0xa          10   
.text.Shell_FileTell       0x28a32            0xa          10   
.text.Shell_FileSize       0x28a3c            0xa          10   
.text.Shell_FileClose      0x28a46            0xa          10   
.text._ICMPTxPktAcknowl    0x28a50            0xa          10   
.text.TCPIP_TCP_Get        0x28a5a            0xa          10   
.text._Command_ZcllOnOf    0x28a64            0xa          10   
.text._Command_DHCPSOnO    0x28a6e            0xa          10   
.text.TCPIP_DNS_Resolve    0x28a78            0xa          10   
.text.TCPIP_DNS_IsNameR    0x28a82            0xa          10   
.text.TCPIP_Helper_Sing    0x28a8c            0xa          10   
.text.TCPIP_STACK_NetNa    0x28a96            0xa          10   
.text._TCPIPStackAddres    0x28aa0            0xa          10   
.text.TCPIP_UDP_ServerO    0x28aaa            0xa          10   
.text.TCPIP_UDP_ClientO    0x28ab4            0xa          10   
.text.DRV_EXTPHY_SMIClo    0x28ac0            0x8           8   
.rodata                    0x28ac8            0x8           8  Read-only const 
.text.TCPIP_HTTP_Curren    0x28ad0            0x8           8   
.text.TCPIP_HEAP_Malloc    0x28ad8            0x8           8   
.text.TCPIP_HEAP_Calloc    0x28ae0            0x8           8   
.text.TCPIP_HEAP_FreeOu    0x28ae8            0x8           8   
.text.TCPIP_STACK_Gatew    0x28af0            0x8           8   
.text.TCPIP_STACK_Prima    0x28af8            0x8           8   
.text.TCPIP_STACK_Secon    0x28b00            0x8           8   
.text.TCPIP_STACK_NetAd    0x28b08            0x8           8   
.text._TCPIPStackHeapCo    0x28b10            0x8           8   
.text.TCPIP_STACK_NetGe    0x28b18            0x8           8   
.text.TCPIP_Notificatio    0x28b20            0x8           8   
.text.TCPIP_UDP_TxPutIs    0x28b28            0x8           8   
.text.OSAL_Malloc          0x28b30            0x8           8   
.text.SERCOM1_USART_Wri    0x28b38            0x8           8   
.text.TC0_TimerFrequenc    0x28b40            0x8           8   
.rodata                    0x28b48            0x8           8  Read-only const 
.text.SYS_FS_Tasks         0x28b50            0x8           8   
.rodata                    0x28b58            0x8           8  Read-only const 
.text.SYS_INT_Disable      0x28b60            0x8           8   
.text.SYS_INT_Restore      0x28b68            0x8           8   
.text.SYS_TIME_CounterG    0x28b70            0x8           8   
.rodata.drvMiimInitData    0x28b78            0x8           8   
.rodata.sysFSInit          0x28b80            0x8           8   
.rodata.sysTimeInitData    0x28b88            0x8           8   
.rodata.tcpipTCPInitDat    0x28b90            0x8           8   
.rodata.tcpipUDPInitDat    0x28b98            0x8           8   
.text.vQueueDelete         0x28ba0            0x8           8   
.rodata                    0x28ba8            0x8           8  Read-only const 
.rodata                    0x28bb0            0x8           8  Read-only const 
.text.__aeabi_dsub         0x28bb8            0x8           8   
.rodata                    0x28bc0            0x7           7  Read-only const 
.text.TCPIP_ARP_HashKey    0x28bc8            0x6           6   
.text.TCPIP_HTTP_Curren    0x28bce            0x6           6   
.text.TCPIP_HTTP_Curren    0x28bd4            0x6           6   
.text.TCPIP_HTTP_Curren    0x28bda            0x6           6   
.text.TCPIP_HTTP_Curren    0x28be0            0x6           6   
.text.TCPIP_HTTP_Curren    0x28be6            0x6           6   
.text.TCPIP_STACK_MACOb    0x28bec            0x6           6   
.text.TCPIP_STACK_NetBI    0x28bf2            0x6           6   
.text.TCPIP_PKT_GapDcpt    0x28bf8            0x6           6   
.text.vListInitialiseIt    0x28bfe            0x6           6   
.text.CRYPT_WCCB_Callba    0x28c04            0x6           6   
.text.DRV_PIC32CGMAC_Li    0x28c0a            0x4           4   
.text.DRV_NVMCTRL_Statu    0x28c0e            0x4           4   
.text.TCPIP_HTTP_Curren    0x28c12            0x4           4   
.text.TCPIP_HTTP_Curren    0x28c16            0x4           4   
.text.TCPIP_HTTP_Curren    0x28c1a            0x4           4   
.rodata.HTTP_CRLF          0x28c20            0x4           4   
.text.TCPIP_IPV4_IsFrag    0x28c24            0x4           4   
.text._DHCPOptionProces    0x28c28            0x4           4   
.rodata._DHCPRequestPar    0x28c2c            0x4           4   
.rodata.dhcpMagicCookie    0x28c30            0x4           4   
.text.TCPIP_PKT_GapDcpt    0x28c34            0x4           4   
.text.Console_UART_Flus    0x28c38            0x4           4   
.rodata.debugInit          0x28c3c            0x4           4   
.rodata.sysConsole0UART    0x28c40            0x4           4   
.text.Dummy_Handler        0x28c44            0x4           4   
.text.NonMaskableInt_Ha    0x28c48            0x4           4   
.text.HardFault_Handler    0x28c4c            0x4           4   
.text.DebugMonitor_Hand    0x28c50            0x4           4   
.text.MemoryManagement_    0x28c54            0x4           4   
.text.BusFault_Handler     0x28c58            0x4           4   
.text.UsageFault_Handle    0x28c5c            0x4           4   
.text.__dummy_decompres    0x28c60            0x4           4   
.text                      0x28c64            0x4           4  App's exec code 
.NVM_MEDIA_DATA            0x80000        0x80000      524288   
      Total ROM used  :     0xa8c57      691287  65.9% of 0x100000
        --------------------------------------------------------------------------
         Total Program Memory used  :     0xa8c57      691287  65.9% of 0x100000
        --------------------------------------------------------------------------


RAM Data-Memory Usage
section                    address  length [bytes]      (dec)  Description
-------                 ----------  -------------------------  -----------
.bss.ucHeap             0x20000000         0xa000       40960   
.bss.gDrvMemory0EraseBu 0x2000a000         0x2000        8192   
.bss.gSYSFSFileObj      0x2000c000         0x1a90        6800   
.bss.SERCOM1_USART_Read 0x2000da90         0x1000        4096   
.bss.SERCOM1_USART_Writ 0x2000ea90         0x1000        4096   
.bss.gSYSFSMediaBlockBu 0x2000fa90          0x800        2048   
.bss.icmpPingBuff       0x20010290          0x7d0        2000   
.bss.printBuff          0x20010a60          0x400        1024   
.bss.TCPIP_STACK_MODULE 0x20010e60          0x270         624   
.bss                    0x200110d0          0x20c         524  Uninitialized data 
.bss._hEventMac         0x200112dc            0x4           4   
.bss.gSYSFSMediaBuffer  0x200112e0          0x200         512   
.bss.getBuffer          0x200114e0          0x1f1         497   
.bss.smSnmp.14769       0x200116d1            0x1           1   
.bss.tcpDefRxSize       0x200116d2            0x2           2   
.bss.md5.14627          0x200116d4          0x1b8         440   
.bss.drvGmacQueEvents   0x2001188c            0x4           4   
.bss.gSysMpfsFileObj    0x20011890          0x190         400   
.bss.gSYSFSDirObj       0x20011a20          0x190         400   
.bss.sysRandCtx         0x20011bb0          0x108         264   
.bss.snmpReqVarErrStatu 0x20011cb8            0x8           8   
.bss.fileName.8813      0x20011cc0          0x100         256   
.bss.fileName.8922      0x20011dc0          0x100         256   
.bss.gIperfState        0x20011ec0           0xd8         216   
.bss.consolePrintBuffer 0x20011f98           0xc8         200   
.bss.httpNetData        0x20012060           0xbc         188   
.bss.gDrvMemoryObj      0x2001211c           0xa8         168   
.bss.timers             0x200121c4           0xa0         160   
.bss.gDrvMIIMObj        0x20012264           0x94         148   
.bss.TCPIP_MODULES_QUEU 0x200122f8           0x90         144   
.bss.gmac_dcpt_array    0x20012388           0x80         128   
.bss._usrCmdTbl         0x20012408           0x80         128   
.bss.gPhyDrvInst        0x20012488           0x68         104   
.bss.pxReadyTasksLists  0x200124f0           0x64         100   
.bss.gCryptoDev         0x20012554           0x60          96   
.bss                    0x200125b4           0x50          80  Uninitialized data 
.bss.arpMod             0x20012604           0x4c          76   
.bss.sercom1USARTObj    0x20012650           0x40          64   
.bss.hashBuffer.8812    0x20012690           0x40          64   
.bss.gSystemCounterObj  0x200126d0           0x40          64   
.bss.g_bfr              0x20012710           0x34          52   
.bss.gDnsDcpt           0x20012744           0x28          40   
.bss.gSYSFSMediaObject  0x2001276c           0x28          40   
.bss.gSnmpDcpt          0x20012794           0x20          32   
.bss.tcpip_stack_ctrl_d 0x200127b4           0x20          32   
.bss.ipv4ArpPool        0x200127d4            0xc          12   
.bss.fileRecord.8898    0x200127e0           0x20          32   
.bss.fileRecord.8921    0x20012800           0x20          32   
.bss.gSysMpfsFileRecord 0x20012820           0x20          32   
.bss.dnslookupTargetHos 0x20012840           0x1f          31   
.bss.indexBytes.14832   0x2001285f            0x1           1   
.bss.icmpTargetHost     0x20012860           0x1f          31   
.bss.indexBytes.14855   0x2001287f            0x1           1   
.bss                    0x20012880           0x1c          28  Uninitialized data 
.bss.gSYSFSVolumeObject 0x2001289c           0x1c          28   
.bss.icmpEchoRequest    0x200128b8           0x18          24   
.bss.cmdTcpipInitData   0x200128d0           0x18          24   
.bss.tcpip_init_data    0x200128e8           0x18          24   
.bss.sysObj             0x20012900           0x18          24   
.bss.icmpRegisteredUser 0x20012918           0x14          20   
.bss.ipv4ArpQueue       0x2001292c           0x14          20   
.bss.ipv4PacketFilters  0x20012940           0x14          20   
.bss.dhcpRegisteredUser 0x20012954           0x14          20   
.bss.gSYSFSMountPoint   0x20012968           0x14          20   
.bss.xDelayedTaskList1  0x2001297c           0x14          20   
.bss.xDelayedTaskList2  0x20012990           0x14          20   
.bss.xPendingReadyList  0x200129a4           0x14          20   
.bss.xSuspendedTaskList 0x200129b8           0x14          20   
.bss.xTasksWaitingTermi 0x200129cc           0x14          20   
.bss.s_buf_ipv4addr     0x200129e0           0x14          20   
.bss.icmpTargetAddrStr  0x200129f4           0x11          17   
.bss.varDataType.14831  0x20012a05            0x1           1   
.bss.tcpDefTxSize       0x20012a06            0x2           2   
.bss.tcpip_heap_config  0x20012a08           0x10          16   
.bss.gDrvMemory0ClientO 0x20012a18           0x10          16   
.bss.gConsoleUartData   0x20012a28            0xc          12   
.bss.consoleDeviceInsta 0x20012a34            0xc          12   
.bss.TC0_CallbackObject 0x20012a40            0x8           8   
.bss.cmdIODevList       0x20012a48            0x8           8   
.bss.gSYSFSCurrentMount 0x20012a50            0x8           8   
.bss.gSYSFSObj          0x20012a58            0x8           8   
.bss.gSYSFSEventHandler 0x20012a60            0x8           8   
.bss.AN0String.14768    0x20012a68            0x8           8   
.bss.appData            0x20012a70            0x8           8   
.bss.SnmpStackDcptMemSt 0x20012a78            0x4           4   
.bss.SnmpStackMemH      0x20012a7c            0x4           4   
.bss.snmpFileShell      0x20012a80            0x4           4   
.bss.snmpInitCount      0x20012a84            0x4           4   
.bss.icmpEchoStart      0x20012a88            0x4           4   
.bss.icmpEchoTmo        0x20012a8c            0x4           4   
.bss.icmpInitCount      0x20012a90            0x4           4   
.bss.icmpMemH           0x20012a94            0x4           4   
.bss.pIcmpEchoRequest   0x20012a98            0x4           4   
.bss.signalHandle       0x20012a9c            0x4           4   
.bss.TCBStubs           0x20012aa0            0x4           4   
.bss.TcpSockets         0x20012aa4            0x4           4   
.bss.tcpHeapH           0x20012aa8            0x4           4   
.bss.tcpInitCount       0x20012aac            0x4           4   
.bss.tcpLockCount       0x20012ab0            0x4           4   
.bss.tcpSemaphore       0x20012ab4            0x4           4   
.bss.tcpSignalHandle    0x20012ab8            0x4           4   
.bss.commandInitCount   0x20012abc            0x4           4   
.bss.dnsLookUpStartTick 0x20012ac0            0x4           4   
.bss.dnsLookupCmdIoPara 0x20012ac4            0x4           4   
.bss.icmpAckRecv        0x20012ac8            0x4           4   
.bss.icmpCmdIoParam     0x20012acc            0x4           4   
.bss.icmpNetH           0x20012ad0            0x4           4   
.bss.icmpReqCount       0x20012ad4            0x4           4   
.bss.icmpReqDelay       0x20012ad8            0x4           4   
.bss.icmpReqHandle      0x20012adc            0x4           4   
.bss.icmpReqNo          0x20012ae0            0x4           4   
.bss.icmpStartTick      0x20012ae4            0x4           4   
.bss.icmpTargetAddr     0x20012ae8            0x4           4   
.bss.initialNetIfs      0x20012aec            0x4           4   
.bss.miimAdd            0x20012af0            0x4           4   
.bss.miimCmdIoParam     0x20012af4            0x4           4   
.bss.miimHandle         0x20012af8            0x4           4   
.bss.miimObj            0x20012afc            0x4           4   
.bss.miimOpHandle       0x20012b00            0x4           4   
.bss.miimRegEnd         0x20012b04            0x4           4   
.bss.miimRegIx          0x20012b08            0x4           4   
.bss.miimRegStart       0x20012b0c            0x4           4   
.bss.pCmdTcpipInitData  0x20012b10            0x4           4   
.bss.pTcpipCmdDevice    0x20012b14            0x4           4   
.bss.tcpipCmdSignalHand 0x20012b18            0x4           4   
.bss.httpConnCtrl       0x20012b1c            0x4           4   
.bss.httpConnData       0x20012b20            0x4           4   
.bss.httpConnNo         0x20012b24            0x4           4   
.bss.httpFileShell      0x20012b28            0x4           4   
.bss.httpInitCount      0x20012b2c            0x4           4   
.bss.httpSignalHandle   0x20012b30            0x4           4   
.bss.http_free_fnc      0x20012b34            0x4           4   
.bss.http_malloc_fnc    0x20012b38            0x4           4   
.bss.iperfInitCount     0x20012b3c            0x4           4   
.bss.nIperfSessions     0x20012b40            0x4           4   
.bss.ipv4ActFilterCount 0x20012b44            0x4           4   
.bss.ipv4ArpEntries     0x20012b48            0x4           4   
.bss.ipv4ArpHandle      0x20012b4c            0x4           4   
.bss.ipv4MemH           0x20012b50            0x4           4   
.bss.signalHandle       0x20012b54            0x4           4   
.bss.DHCPClients        0x20012b58            0x4           4   
.bss.dhcpInitCount      0x20012b5c            0x4           4   
.bss.dhcpInterfaces     0x20012b60            0x4           4   
.bss.dhcpMemH           0x20012b64            0x4           4   
.bss.dhcpSecondCount    0x20012b68            0x4           4   
.bss.dhcpSignalHandle   0x20012b6c            0x4           4   
.bss.dnsInitCount       0x20012b70            0x4           4   
.bss.pgDnsDcpt          0x20012b74            0x4           4   
.bss.newTcpipErrorEvent 0x20012b78            0x4           4   
.bss.newTcpipStackEvent 0x20012b7c            0x4           4   
.bss.newTcpipTickAvlbl  0x20012b80            0x4           4   
.bss.stackAsyncSignalCo 0x20012b84            0x4           4   
.bss.stackTaskRate      0x20012b88            0x4           4   
.bss.tcpipDefIf         0x20012b8c            0x4           4   
.bss.tcpipNetIf         0x20012b90            0x4           4   
.bss.tcpip_stack_init_c 0x20012b94            0x4           4   
.bss.totTcpipEventsCnt  0x20012b98            0x4           4   
.bss.pktMemH            0x20012b9c            0x4           4   
.bss.UDPSocketDcpt      0x20012ba0            0x4           4   
.bss.nUdpSockets        0x20012ba4            0x4           4   
.bss.signalHandle       0x20012ba8            0x4           4   
.bss.udpInitCount       0x20012bac            0x4           4   
.bss.udpMemH            0x20012bb0            0x4           4   
.bss.userSem            0x20012bb4            0x4           4   
.bss._cmdInitData       0x20012bb8            0x4           4   
.bss.printBuffPtr       0x20012bbc            0x4           4   
.bss.consolePrintBuffer 0x20012bc0            0x4           4   
.bss.sysDebugInstance   0x20012bc4            0x4           4   
.bss.gSysFsMutex        0x20012bc8            0x4           4   
.bss.gTickConv          0x20012bcc            0x4           4   
.bss.systemAdaptObj     0x20012bd0            0x4           4   
.bss.pRandCtx           0x20012bd4            0x4           4   
.bss.sysCmdInit         0x20012bd8            0x4           4   
.bss.xAPP_Tasks         0x20012bdc            0x4           4   
.bss.pucAlignedHeap.616 0x20012be0            0x4           4   
.bss.xNextFreeByte      0x20012be4            0x4           4   
.bss.pxCurrentTCB       0x20012be8            0x4           4   
.bss.pxDelayedTaskList  0x20012bec            0x4           4   
.bss.pxOverflowDelayedT 0x20012bf0            0x4           4   
.bss.uxCurrentNumberOfT 0x20012bf4            0x4           4   
.bss.uxDeletedTasksWait 0x20012bf8            0x4           4   
.bss.uxSchedulerSuspend 0x20012bfc            0x4           4   
.bss.uxTaskNumber       0x20012c00            0x4           4   
.bss.uxTopReadyPriority 0x20012c04            0x4           4   
.bss.xIdleTaskHandle    0x20012c08            0x4           4   
.bss.xNextTaskUnblockTi 0x20012c0c            0x4           4   
.bss.xNumOfOverflows    0x20012c10            0x4           4   
.bss.xPendedTicks       0x20012c14            0x4           4   
.bss.xSchedulerRunning  0x20012c18            0x4           4   
.bss.xTickCount         0x20012c1c            0x4           4   
.bss.xYieldPending      0x20012c20            0x4           4   
.bss                    0x20012c24            0x4           4  Uninitialized data 
.bss                    0x20012c28            0x4           4  Uninitialized data 
.bss                    0x20012c2c            0x4           4  Uninitialized data 
.bss                    0x20012c30            0x4           4  Uninitialized data 
.bss                    0x20012c34            0x4           4  Uninitialized data 
.bss                    0x20012c38            0x4           4  Uninitialized data 
.bss.MPFS_VolToPart     0x20012c3c            0x2           2   
.bss.SNMPTxOffset       0x20012c3e            0x2           2   
.bss.varBindLen.14751   0x20012c40            0x2           2   
.bss.icmpIdentifier     0x20012c42            0x2           2   
.bss.icmpSequenceNo     0x20012c44            0x2           2   
.bss.miimObjIx          0x20012c46            0x2           2   
.bss.miimWrData         0x20012c48            0x2           2   
.bss.httpConnDataSize   0x20012c4a            0x2           2   
.bss.ipv4Identifier     0x20012c4c            0x2           2   
.bss.ipv4InitCount      0x20012c4e            0x2           2   
.bss.dhcpClientPort     0x20012c50            0x2           2   
.bss.dhcpClientSocket   0x20012c52            0x2           2   
.bss.dhcpServerPort     0x20012c54            0x2           2   
.bss.udpDefTxSize       0x20012c56            0x2           2   
.bss.nvm_error          0x20012c58            0x2           2   
.bss.SNMPRxOffset       0x20012c5a            0x2           2   
.bss.SNMPStatus         0x20012c5c            0x1           1   
.bss.varDataType.14854  0x20012c5d            0x1           1   
.bss.tcpipCmdStat       0x20012c5e            0x1           1   
.bss.fileErr            0x20012c5f            0x1           1   
.bss.httpConfigFlags    0x20012c60            0x1           1   
.bss.iperf_async_reques 0x20012c61            0x1           1   
.bss.ipv4FilterType     0x20012c62            0x1           1   
.bss.tcpip_stack_status 0x20012c63            0x1           1   
.bss.error_reported.946 0x20012c64            0x1           1   
.bss.isConsoleMutexCrea 0x20012c65            0x1           1   
.bss.gblErrLvl          0x20012c66            0x1           1   
.bss.gSysMpfsHandleToke 0x20012c67            0x1           1   
.bss.errorValue         0x20012c68            0x1           1   
.bss.lastFailure        0x20012c69            0x1           1   
.bss.lastSuccess        0x20012c6a            0x1           1   
.data.queueIndex.10255  0x20012c6b            0x1           1   
.data._gmac_drv_dcpt    0x20012c6c           0xf8         248   
.data.trapInfo          0x20012d64           0x3c          60   
.data.gSnmpNonMibRecInf 0x20012da0           0x33          51   
.data.dnsType           0x20012dd3            0x1           1   
.data.gSYSFSMediaManage 0x20012dd4           0x18          24   
.data.snmpFileDescrptr  0x20012dec            0x4           4   
.data.gSysMpfsObj       0x20012df0           0x14          20   
.data.gSYSFSVolumeName  0x20012e04           0x14          20   
.data.tcpipHeapConfig   0x20012e18           0x14          20   
.data.tcpipSNMPInitRead 0x20012e2c            0xc          12   
.data.tcpipSNMPInitWrit 0x20012e38            0xc          12   
.data.arpBcastAdd       0x20012e44            0x6           6   
.data.gSysTimeTokenCoun 0x20012e4a            0x2           2   
.data.snmpMountPath     0x20012e4c            0x4           4   
.data.icmpPingSize      0x20012e50            0x4           4   
.data.tcpip_stack_tickH 0x20012e54            0x4           4   
.data.uxCriticalNesting 0x20012e58            0x4           4   
.data.drvGmacIRQ        0x20012e5c            0x2           2   
         Total RAM used  :     0x12e5e       77406  29.5% of 0x40000
        --------------------------------------------------------------------------
            Total Data Memory used  :     0x12e5e       77406  29.5% of 0x40000
        --------------------------------------------------------------------------


Dynamic Data-Memory Reservation
section                    address  length [bytes]      (dec)  Description
-------                 ----------  -------------------------  -----------
heap                    0x20012e60        0x17ac0       96960  Reserved for heap 
stack                   0x2002a938        0x156b8       87736  Reserved for stack 

        --------------------------------------------------------------------------

Microchip PIC32 Memory-Usage Report By Module

        text        data         bss         dec         hex    basename                      filename
--------------------------------------------------------------------------------
      524288           0           0      524288       80000    mpfs_img2.o               build/default/debug/_ext/1360937237/mpfs_img2.o
         110           0       40968       41078        a076    heap_1.o                  build/default/debug/_ext/1665200909/heap_1.o
       15528           5        2208       17741        454d    tcpip_commands.o          build/default/debug/_ext/1033058136/tcpip_commands.o
       12150           0          32       12182        2f96    tcp.o                     build/default/debug/_ext/1033058136/tcp.o
       11282           8         565       11855        2e4f    snmp.o                    build/default/debug/_ext/1033058136/snmp.o
       11368           0         277       11645        2d7d    iperf.o                   build/default/debug/_ext/1033058136/iperf.o
        2908           0        7241       10149        27a5    sys_fs.o                  build/default/debug/_ext/1269487135/sys_fs.o
        8664           4         877        9545        2549    tcpip_manager.o           build/default/debug/_ext/1033058136/tcpip_manager.o
        1108          44        8236        9388        24ac    initialization.o          build/default/debug/_ext/1171490990/initialization.o
        1032           0        8256        9288        2448    plib_sercom1_usart.o      build/default/debug/_ext/504274921/plib_sercom1_usart.o
        8060           0          36        8096        1fa0    http.o                    build/default/debug/_ext/1033058136/http.o
        6516         249           4        6769        1a71    drv_gmac.o                build/default/debug/_ext/1546807373/drv_gmac.o
        5872           0          26        5898        170a    udp.o                     build/default/debug/_ext/1033058136/udp.o
        5792           0          50        5842        16d2    dhcp.o                    build/default/debug/_ext/1033058136/dhcp.o
        5164           0         104        5268        1494    drv_ethphy.o              build/default/debug/_ext/444070925/drv_ethphy.o
        4912           0          48        4960        1360    dns.o                     build/default/debug/_ext/1033058136/dns.o
        3254           0        1169        4423        1147    sys_command.o             build/default/debug/_ext/1376093119/sys_command.o
        1588          44        2638        4270        10ae    sys_fs_media_manager.o    build/default/debug/_ext/1269487135/sys_fs_media_manager.o
        4026           2         132        4160        1040    drv_gmac_lib_samE5x.o     build/default/debug/_ext/1546807373/drv_gmac_lib_samE5x.o
        3262           0         650        3912         f48    custom_http_app.o         build/default/debug/_ext/1360937237/custom_http_app.o
        3194           0         168        3362         d22    drv_memory.o              build/default/debug/_ext/992804092/drv_memory.o
        3206           6          76        3288         cd8    arp.o                     build/default/debug/_ext/1033058136/arp.o
        2892           0          77        2969         b99    ipv4.o                    build/default/debug/_ext/1033058136/ipv4.o
        2880           0           0        2880         b40    random.o                  build/default/debug/_ext/1664057780/random.o
        1720          20        1073        2813         afd    mpfs.o                    build/default/debug/_ext/699575981/mpfs.o
        2636           0           0        2636         a4c    tcpip_helpers.o           build/default/debug/_ext/1033058136/tcpip_helpers.o
        2364           0         260        2624         a40    FreeRTOS_tasks.o          build/default/debug/_ext/404212886/FreeRTOS_tasks.o
        2496           0           0        2496         9c0    data_init                 data_init
        2264           0           0        2264         8d8    md5.o                     build/default/debug/_ext/1664057780/md5.o
        2048           0         148        2196         894    drv_miim.o                build/default/debug/_ext/438849557/drv_miim.o
        1740           2         224        1966         7ae    sys_time.o                build/default/debug/_ext/101884895/sys_time.o
        1856           0           0        1856         740    sha256.o                  build/default/debug/_ext/1664057780/sha256.o
        1184           0         524        1708         6ac    malloc.o                  libg-musl.a
        1522           0           0        1522         5f2    sys_fs_shell.o            build/default/debug/_ext/1751889202/sys_fs_shell.o
        1278           0           0        1278         4fe    intscan.o                 libg-musl.a
        1232           0           0        1232         4d0    __fmt_fp.o                libg-musl.a
        1224           0           0        1224         4c8    __fmt_a.o                 libg-musl.a
        1220           0           0        1220         4c4    queue.o                   build/default/debug/_ext/404212886/queue.o
         970         111           8        1089         441    custom_snmp_app.o         build/default/debug/_ext/1360937237/custom_snmp_app.o
        1014           0          68        1082         43a    icmp.o                    build/default/debug/_ext/1033058136/icmp.o
        1028           0           0        1028         404    __printf_core.o           libg-musl.a
         896           0           0         896         380    tcpip_heap_internal.o     build/default/debug/_ext/1033058136/tcpip_heap_internal.o
         496           0         217         713         2c9    sys_console.o             build/default/debug/_ext/1832805299/sys_console.o
         708           0           0         708         2c4    _udivmoddi4.o             libgcc.a
         616           0           0         616         268    interrupts.o              build/default/debug/_ext/1171490990/interrupts.o
         602           0           4         606         25e    tcpip_packet.o            build/default/debug/_ext/1033058136/tcpip_packet.o
         574           0           0         574         23e    __aeabi_dadd.o            libm-fast-emfloat.a
         534           0           0         534         216    __aeabi_ddiv.o            libm-fast-emfloat.a
         480           4           0         484         1e4    port.o                    build/default/debug/_ext/246609638/port.o
         468           0           0         468         1d4    oahash.o                  build/default/debug/_ext/1033058136/oahash.o
         454           0          12         466         1d2    sys_console_uart.o        build/default/debug/_ext/1832805299/sys_console_uart.o
         364           0          96         460         1cc    cryptocb.o                build/default/debug/_ext/1664057780/cryptocb.o
         414           0           0         414         19e    http_print.o              build/default/debug/_ext/1360937237/http_print.o
         130           0         268         398         18e    sys_random_h2_adapter.o   build/default/debug/_ext/753841488/sys_random_h2_adapter.o
         352           0           0         352         160    osal_freertos.o           build/default/debug/_ext/1529399856/osal_freertos.o
         324           0           4         328         148    tasks.o                   build/default/debug/_ext/1171490990/tasks.o
         304           0           0         304         130    __aeabi_dmul.o            libm-fast-emfloat.a
         292           0           0         292         124    __fmt_x.o                 libg-musl.a
         256           0           8         264         108    plib_tc0.o                build/default/debug/_ext/829342655/plib_tc0.o
         252           0           0         252          fc    drv_extphy_ksz8081.o      build/default/debug/_ext/444070925/drv_extphy_ksz8081.o
         232           0           0         232          e8    helpers.o                 build/default/debug/_ext/1033058136/helpers.o
         228           0           0         228          e4    plib_clock.o              build/default/debug/_ext/1984496892/plib_clock.o
         204           0           0         204          cc    floor.o                   libm-fast-emfloat.a
         194           0           0         194          c2    tcpip_notify.o            build/default/debug/_ext/1033058136/tcpip_notify.o
         164           0           8         172          ac    sys_time_h2_adapter.o     build/default/debug/_ext/753841488/sys_time_h2_adapter.o
         172           0           0         172          ac    __pop_int.o               libg-musl.a
         168           0           0         168          a8    plib_nvic.o               build/default/debug/_ext/1865468468/plib_nvic.o
         168           0           0         168          a8    __fmt_d.o                 libg-musl.a
         152           0           0         152          98    plib_port.o               build/default/debug/_ext/1865521619/plib_port.o
         144           0           2         146          92    plib_nvmctrl.o            build/default/debug/_ext/1593096446/plib_nvmctrl.o
         142           0           0         142          8e    startup_xc32.o            build/default/debug/_ext/1171490990/startup_xc32.o
         138           0           0         138          8a    list.o                    build/default/debug/_ext/404212886/list.o
         126           0           0         126          7e    strspn.o                  libg-musl.a
         124           0           0         124          7c    __pop_ptr.o               libg-musl.a
         120           0           0         120          78    __cvt_u.o                 libg-musl.a
         118           0           0         118          76    strcspn.o                 libg-musl.a
         116           0           0         116          74    sys_int.o                 build/default/debug/_ext/1881668453/sys_int.o
         114           0           0         114          72    __fmt_o.o                 libg-musl.a
         112           0           0         112          70    shgetc.o                  libg-musl.a
         106           0           0         106          6a    crypto.o                  build/default/debug/_ext/1645245335/crypto.o
         100           0           4         104          68    data_init.o               libpic32c.a
         102           0           0         102          66    strtol.o                  libg-musl.a
         100           0           0         100          64    drv_memory_nvmctrl.o      build/default/debug/_ext/992804092/drv_memory_nvmctrl.o
          72           0          28         100          64    crtbegin.o                d:/microchip/bin/bin/../../lib/gcc/pic32c/8.3.1/thumb/v7e-m+fp/hard/crtbegin.o
          96           0           0          96          60    strstr.o                  libg-musl.a
          96           0           0          96          60    strchrnul.o               libg-musl.a
          96           0           0          96          60    vsnprintf.o               libg-musl.a
          95           0           0          95          5f    __fmt_s.o                 libg-musl.a
          94           0           0          94          5e    __libc_start_main.o       libg-musl.a
          86           0           0          86          56    __fmt_u.o                 libg-musl.a
          84           0           0          84          54    stpncpy.o                 libg-musl.a
           0           0          80          80          50    libc.o                    libg-musl.a
          72           0           4          76          4c    strtok.o                  libg-musl.a
          74           0           0          74          4a    __aeabi_d2iz.o            libm-fast-emfloat.a
          74           0           0          74          4a    __toread.o                libg-musl.a
          70           0           0          70          46    atol.o                    libg-musl.a
          70           0           0          70          46    atoi.o                    libg-musl.a
          68           0           0          68          44    drv_memory_file_system.o  build/default/debug/_ext/992804092/drv_memory_file_system.o
          60           0           0          60          3c    __aeabi_dcmple.o          libm-fast-emfloat.a
          52           0           5          57          39    sys_debug.o               build/default/debug/_ext/944882569/sys_debug.o
          56           0           0          56          38    __aeabi_dcmplt.o          libm-fast-emfloat.a
          56           0           0          56          38    __aeabi_dcmpgt.o          libm-fast-emfloat.a
          50           0           0          50          32    __aeabi_dcmpeq.o          libm-fast-emfloat.a
          48           0           0          48          30    hash_fnv.o                build/default/debug/_ext/1033058136/hash_fnv.o
          44           0           4          48          30    sbrk.o                    libpic32c.a
          48           0           0          48          30    _aeabi_uldivmod.o         libgcc.a
          46           0           0          46          2e    tcpip_heap_alloc.o        build/default/debug/_ext/1033058136/tcpip_heap_alloc.o
          44           0           0          44          2c    fma.o                     libm-fast-emfloat.a
          42           0           0          42          2a    __pop_float.o             libg-musl.a
          36           0           4          40          28    rand.o                    libg-musl.a
          40           0           0          40          28    strncmp.o                 libg-musl.a
          40           0           0          40          28    __uflow.o                 libg-musl.a
          36           0           0          36          24    sys_reset.o               build/default/debug/_ext/1000052432/sys_reset.o
          36           0           0          36          24    __aeabi_d2uiz.o           libm-fast-emfloat.a
          36           0           0          36          24    freertos_hooks.o          build/default/debug/_ext/1171490990/freertos_hooks.o
          34           0           0          34          22    __aeabi_i2d.o             libm-fast-emfloat.a
          30           0           0          30          1e    pic32_data_init_copy.o    libpic32c.a
          30           0           0          30          1e    pic32_data_init_copy_emb.olibpic32c.a
          28           0           0          28          1c    isxdigit.o                libg-musl.a
          28           0           0          28          1c    memcmp.o                  libg-musl.a
          28           0           0          28          1c    __aeabi_ui2d.o            libm-fast-emfloat.a
          28           0           0          28          1c    memcpy.o                  libg-musl.a
          28           0           0          28          1c    calloc.o                  libg-musl.a
          28           0           0          28          1c    vfprintf.o                libg-musl.a
          26           0           0          26          1a    snprintf.o                libg-musl.a
          18           0           8          26          1a    app.o                     build/default/debug/_ext/1360937237/app.o
          26           0           0          26          1a    sprintf.o                 libg-musl.a
          26           0           0          26          1a    crypt_wolfcryptcb.o       build/default/debug/_ext/172253694/crypt_wolfcryptcb.o
          26           0           0          26          1a    isalnum.o                 libg-musl.a
          24           0           0          24          18    exceptions.o              build/default/debug/_ext/1171490990/exceptions.o
          24           0           0          24          18    strlen.o                  libg-musl.a
          22           0           0          22          16    expand_heap.o             libg-musl.a
          22           0           0          22          16    strcmp.o                  libg-musl.a
          20           0           0          20          14    strchr.o                  libg-musl.a
          20           0           0          20          14    memset.o                  libg-musl.a
          20           0           0          20          14    stpcpy.o                  libg-musl.a
          18           0           0          18          12    pic32_data_init_clear.o   libpic32c.a
          16           0           0          16          10    crtn.o                    d:/microchip/bin/bin/../../lib/gcc/pic32c/8.3.1/thumb/v7e-m+fp/hard/crtn.o
          14           0           0          14           e    tolower.o                 libg-musl.a
          14           0           0          14           e    main.o                    build/default/debug/_ext/1360937237/main.o
          14           0           0          14           e    toupper.o                 libg-musl.a
          12           0           0          12           c    strcpy.o                  libg-musl.a
          12           0           0          12           c    vsprintf.o                libg-musl.a
          12           0           0          12           c    strncpy.o                 libg-musl.a
           8           0           0           8           8    crti.o                    d:/microchip/bin/bin/../../lib/gcc/pic32c/8.3.1/thumb/v7e-m+fp/hard/crti.o
           8           0           0           8           8    __aeabi_dsub.o            libm-fast-emfloat.a
           0           0           4           4           4    __errno_location.o        libg-musl.a
           0           0           4           4           4    __environ.o               libg-musl.a
           4           0           0           4           4    _dvmd_tls.o               libgcc.a
           2           0           0           2           2    plib_evsys.o              build/default/debug/_ext/1986646378/plib_evsys.o
--------------------------------------------------------------------------------
      691299         499       76907      768705       bbac1    dist/default/debug/RackGerenciavel.X.debug.elf


Discarded input sections

 .text          0x00000000        0x0 d:/microchip/bin/bin/../../lib/gcc/pic32c/8.3.1/thumb/v7e-m+fp/hard/crti.o
 .data          0x00000000        0x0 d:/microchip/bin/bin/../../lib/gcc/pic32c/8.3.1/thumb/v7e-m+fp/hard/crti.o
 .bss           0x00000000        0x0 d:/microchip/bin/bin/../../lib/gcc/pic32c/8.3.1/thumb/v7e-m+fp/hard/crti.o
 .xc_stack_usage.hdr
                0x00000000        0xe d:/microchip/bin/bin/../../lib/gcc/pic32c/8.3.1/thumb/v7e-m+fp/hard/crti.o
 .xc_stack_usage
                0x00000000       0x26 d:/microchip/bin/bin/../../lib/gcc/pic32c/8.3.1/thumb/v7e-m+fp/hard/crti.o
 .data          0x00000000        0x4 d:/microchip/bin/bin/../../lib/gcc/pic32c/8.3.1/thumb/v7e-m+fp/hard/crtbegin.o
 .xc_stack_usage
                0x00000000       0x3c d:/microchip/bin/bin/../../lib/gcc/pic32c/8.3.1/thumb/v7e-m+fp/hard/crtbegin.o
 .xc_stack_usage.hdr
                0x00000000        0xe d:/microchip/bin/bin/../../lib/gcc/pic32c/8.3.1/thumb/v7e-m+fp/hard/crtbegin.o
 .text          0x00000000        0x0 build/default/debug/_ext/1645245335/crypto.o
 .data          0x00000000        0x0 build/default/debug/_ext/1645245335/crypto.o
 .bss           0x00000000        0x0 build/default/debug/_ext/1645245335/crypto.o
 .text.CRYPT_MD5_DataSizeSet
                0x00000000        0xc build/default/debug/_ext/1645245335/crypto.o
 .text.CRYPT_SHA_Initialize
                0x00000000       0x10 build/default/debug/_ext/1645245335/crypto.o
 .text.CRYPT_SHA_DataSizeSet
                0x00000000        0xc build/default/debug/_ext/1645245335/crypto.o
 .text.CRYPT_SHA_DataAdd
                0x00000000       0x18 build/default/debug/_ext/1645245335/crypto.o
 .text.CRYPT_SHA_Finalize
                0x00000000       0x18 build/default/debug/_ext/1645245335/crypto.o
 .text.CRYPT_SHA256_Initialize
                0x00000000       0x10 build/default/debug/_ext/1645245335/crypto.o
 .text.CRYPT_SHA256_DataSizeSet
                0x00000000        0xc build/default/debug/_ext/1645245335/crypto.o
 .text.CRYPT_SHA256_DataAdd
                0x00000000       0x18 build/default/debug/_ext/1645245335/crypto.o
 .text.CRYPT_SHA256_Finalize
                0x00000000       0x18 build/default/debug/_ext/1645245335/crypto.o
 .text.CRYPT_SHA224_Initialize
                0x00000000       0x10 build/default/debug/_ext/1645245335/crypto.o
 .text.CRYPT_SHA224_DataAdd
                0x00000000       0x18 build/default/debug/_ext/1645245335/crypto.o
 .text.CRYPT_SHA224_Finalize
                0x00000000       0x18 build/default/debug/_ext/1645245335/crypto.o
 .text.CRYPT_HMAC_SetKey
                0x00000000       0x48 build/default/debug/_ext/1645245335/crypto.o
 .text.CRYPT_HMAC_DataAdd
                0x00000000       0x18 build/default/debug/_ext/1645245335/crypto.o
 .text.CRYPT_HMAC_Finalize
                0x00000000       0x18 build/default/debug/_ext/1645245335/crypto.o
 .text.CRYPT_RNG_Deinitialize
                0x00000000       0x12 build/default/debug/_ext/1645245335/crypto.o
 .text.CRYPT_RNG_Get
                0x00000000       0x18 build/default/debug/_ext/1645245335/crypto.o
 .text.CRYPT_TDES_KeySet
                0x00000000       0x18 build/default/debug/_ext/1645245335/crypto.o
 .text.CRYPT_TDES_IvSet
                0x00000000       0x18 build/default/debug/_ext/1645245335/crypto.o
 .text.CRYPT_TDES_CBC_Encrypt
                0x00000000       0x20 build/default/debug/_ext/1645245335/crypto.o
 .text.CRYPT_TDES_CBC_Decrypt
                0x00000000       0x20 build/default/debug/_ext/1645245335/crypto.o
 .text.CRYPT_AES_KeySet
                0x00000000       0x20 build/default/debug/_ext/1645245335/crypto.o
 .text.CRYPT_AES_IvSet
                0x00000000       0x18 build/default/debug/_ext/1645245335/crypto.o
 .text.CRYPT_AES_CBC_Encrypt
                0x00000000       0x20 build/default/debug/_ext/1645245335/crypto.o
 .text.CRYPT_AES_CBC_Decrypt
                0x00000000       0x20 build/default/debug/_ext/1645245335/crypto.o
 .text.CRYPT_AES_CTR_Encrypt
                0x00000000       0x20 build/default/debug/_ext/1645245335/crypto.o
 .text.CRYPT_AES_GCM_SetKey
                0x00000000       0x18 build/default/debug/_ext/1645245335/crypto.o
 .text.CRYPT_AES_GCM_Encrypt
                0x00000000       0x34 build/default/debug/_ext/1645245335/crypto.o
 .text.CRYPT_AES_GCM_Decrypt
                0x00000000       0x2c build/default/debug/_ext/1645245335/crypto.o
 .text.CRYPT_AES_DIRECT_Encrypt
                0x00000000       0x12 build/default/debug/_ext/1645245335/crypto.o
 .text.CRYPT_AES_DIRECT_Decrypt
                0x00000000       0x22 build/default/debug/_ext/1645245335/crypto.o
 .text.CRYPT_RSA_Initialize
                0x00000000       0x28 build/default/debug/_ext/1645245335/crypto.o
 .text.CRYPT_RSA_Free
                0x00000000       0x20 build/default/debug/_ext/1645245335/crypto.o
 .text.CRYPT_RSA_PublicKeyDecode
                0x00000000       0x2a build/default/debug/_ext/1645245335/crypto.o
 .text.CRYPT_RSA_PrivateKeyDecode
                0x00000000       0x2a build/default/debug/_ext/1645245335/crypto.o
 .text.CRYPT_RSA_PublicEncrypt
                0x00000000       0x3e build/default/debug/_ext/1645245335/crypto.o
 .text.CRYPT_RSA_PrivateDecrypt
                0x00000000       0x32 build/default/debug/_ext/1645245335/crypto.o
 .text.CRYPT_RSA_EncryptSizeGet
                0x00000000       0x12 build/default/debug/_ext/1645245335/crypto.o
 .text.CRYPT_ECC_Initialize
                0x00000000       0x24 build/default/debug/_ext/1645245335/crypto.o
 .text.CRYPT_ECC_Free
                0x00000000       0x20 build/default/debug/_ext/1645245335/crypto.o
 .text.CRYPT_ECC_PublicExport
                0x00000000       0x28 build/default/debug/_ext/1645245335/crypto.o
 .text.CRYPT_ECC_PublicImport
                0x00000000       0x22 build/default/debug/_ext/1645245335/crypto.o
 .text.CRYPT_ECC_PrivateImport
                0x00000000       0x36 build/default/debug/_ext/1645245335/crypto.o
 .text.CRYPT_ECC_DHE_KeyMake
                0x00000000       0x22 build/default/debug/_ext/1645245335/crypto.o
 .text.CRYPT_ECC_DHE_SharedSecretMake
                0x00000000       0x3a build/default/debug/_ext/1645245335/crypto.o
 .text.CRYPT_ECC_DSA_HashSign
                0x00000000       0x4a build/default/debug/_ext/1645245335/crypto.o
 .text.CRYPT_ECC_DSA_HashVerify
                0x00000000       0x42 build/default/debug/_ext/1645245335/crypto.o
 .text.CRYPT_ECC_KeySizeGet
                0x00000000       0x12 build/default/debug/_ext/1645245335/crypto.o
 .text.CRYPT_ECC_SignatureSizeGet
                0x00000000       0x12 build/default/debug/_ext/1645245335/crypto.o
 .text.CRYPT_ERROR_StringGet
                0x00000000       0x1c build/default/debug/_ext/1645245335/crypto.o
 .rodata        0x00000000       0x28 build/default/debug/_ext/1645245335/crypto.o
 .text          0x00000000        0x0 build/default/debug/_ext/444070925/drv_ethphy.o
 .data          0x00000000        0x0 build/default/debug/_ext/444070925/drv_ethphy.o
 .bss           0x00000000        0x0 build/default/debug/_ext/444070925/drv_ethphy.o
 .text          0x00000000        0x0 build/default/debug/_ext/444070925/drv_extphy_ksz8081.o
 .data          0x00000000        0x0 build/default/debug/_ext/444070925/drv_extphy_ksz8081.o
 .bss           0x00000000        0x0 build/default/debug/_ext/444070925/drv_extphy_ksz8081.o
 .text          0x00000000        0x0 build/default/debug/_ext/1546807373/drv_gmac.o
 .data          0x00000000        0x0 build/default/debug/_ext/1546807373/drv_gmac.o
 .bss           0x00000000        0x0 build/default/debug/_ext/1546807373/drv_gmac.o
 .text          0x00000000        0x0 build/default/debug/_ext/1546807373/drv_gmac_lib_samE5x.o
 .data          0x00000000        0x0 build/default/debug/_ext/1546807373/drv_gmac_lib_samE5x.o
 .bss           0x00000000        0x0 build/default/debug/_ext/1546807373/drv_gmac_lib_samE5x.o
 .text          0x00000000        0x0 build/default/debug/_ext/992804092/drv_memory.o
 .data          0x00000000        0x0 build/default/debug/_ext/992804092/drv_memory.o
 .bss           0x00000000        0x0 build/default/debug/_ext/992804092/drv_memory.o
 .text.DRV_MEMORY_RegisterWithSysFs
                0x00000000        0x2 build/default/debug/_ext/992804092/drv_memory.o
 .text.DRV_MEMORY_Status
                0x00000000       0x30 build/default/debug/_ext/992804092/drv_memory.o
 .text.DRV_MEMORY_SyncRead
                0x00000000       0x1e build/default/debug/_ext/992804092/drv_memory.o
 .text.DRV_MEMORY_Write
                0x00000000       0x1a build/default/debug/_ext/992804092/drv_memory.o
 .text.DRV_MEMORY_SyncWrite
                0x00000000       0x1e build/default/debug/_ext/992804092/drv_memory.o
 .text.DRV_MEMORY_SyncErase
                0x00000000       0x1e build/default/debug/_ext/992804092/drv_memory.o
 .text.DRV_MEMORY_SyncEraseWrite
                0x00000000       0x20 build/default/debug/_ext/992804092/drv_memory.o
 .text.DRV_MEMORY_IsWriteProtected
                0x00000000        0x4 build/default/debug/_ext/992804092/drv_memory.o
 .text          0x00000000        0x0 build/default/debug/_ext/992804092/drv_memory_file_system.o
 .data          0x00000000        0x0 build/default/debug/_ext/992804092/drv_memory_file_system.o
 .bss           0x00000000        0x0 build/default/debug/_ext/992804092/drv_memory_file_system.o
 .text          0x00000000        0x0 build/default/debug/_ext/992804092/drv_memory_nvmctrl.o
 .data          0x00000000        0x0 build/default/debug/_ext/992804092/drv_memory_nvmctrl.o
 .bss           0x00000000        0x0 build/default/debug/_ext/992804092/drv_memory_nvmctrl.o
 .text          0x00000000        0x0 build/default/debug/_ext/438849557/drv_miim.o
 .data          0x00000000        0x0 build/default/debug/_ext/438849557/drv_miim.o
 .bss           0x00000000        0x0 build/default/debug/_ext/438849557/drv_miim.o
 .text.Helper_SingleListInitialize
                0x00000000        0xa build/default/debug/_ext/438849557/drv_miim.o
 .text          0x00000000        0x0 build/default/debug/_ext/1751889202/sys_fs_shell.o
 .data          0x00000000        0x0 build/default/debug/_ext/1751889202/sys_fs_shell.o
 .bss           0x00000000        0x0 build/default/debug/_ext/1751889202/sys_fs_shell.o
 .text          0x00000000        0x0 build/default/debug/_ext/1033058136/helpers.o
 .data          0x00000000        0x0 build/default/debug/_ext/1033058136/helpers.o
 .bss           0x00000000        0x0 build/default/debug/_ext/1033058136/helpers.o
 .text.strncpy_m
                0x00000000       0x6e build/default/debug/_ext/1033058136/helpers.o
 .text          0x00000000        0x0 build/default/debug/_ext/1033058136/snmp.o
 .data          0x00000000        0x0 build/default/debug/_ext/1033058136/snmp.o
 .bss           0x00000000        0x0 build/default/debug/_ext/1033058136/snmp.o
 .text.TCPIP_SNMP_CopyOfDataToINUDPBuff
                0x00000000       0x24 build/default/debug/_ext/1033058136/snmp.o
 .text.TCPIP_SNMP_ProcessBufferDataGet
                0x00000000       0x10 build/default/debug/_ext/1033058136/snmp.o
 .text.TCPIP_SNMP_NotifyPrepare
                0x00000000       0x28 build/default/debug/_ext/1033058136/snmp.o
 .text.TCPIP_SNMP_NotifyIsReady
                0x00000000       0x6c build/default/debug/_ext/1033058136/snmp.o
 .text.TCPIP_SNMP_TrapTimeGet
                0x00000000        0xc build/default/debug/_ext/1033058136/snmp.o
 .text.TCPIP_SNMP_GenericTrapCodeToTrapOID
                0x00000000       0x4c build/default/debug/_ext/1033058136/snmp.o
 .text.TCPIP_SNMP_ValidateTrapIntf
                0x00000000       0x1c build/default/debug/_ext/1033058136/snmp.o
 .text.TCPIP_SNMP_ClientGetNet
                0x00000000       0x44 build/default/debug/_ext/1033058136/snmp.o
 .text.TCPIP_SNMP_TRAPTypeGet
                0x00000000       0x10 build/default/debug/_ext/1033058136/snmp.o
 .text.TCPIP_SNMPV3_TrapTypeGet
                0x00000000       0x10 build/default/debug/_ext/1033058136/snmp.o
 .text._SNMP_CheckIfValidV3StructAnd4ByteDataLen
                0x00000000       0x30 build/default/debug/_ext/1033058136/snmp.o
 .text.TCPIP_SNMP_OIDStringFindByID
                0x00000000       0x5a build/default/debug/_ext/1033058136/snmp.o
 .text.TCPIP_SNMP_TRAPv2Notify
                0x00000000      0x748 build/default/debug/_ext/1033058136/snmp.o
 .text.TCPIP_SNMP_TRAPv1Notify
                0x00000000      0x404 build/default/debug/_ext/1033058136/snmp.o
 .text.TCPIP_SNMP_FileDescrSet
                0x00000000        0xc build/default/debug/_ext/1033058136/snmp.o
 .text.TCPIP_SNMP_FileDescrGet
                0x00000000        0xc build/default/debug/_ext/1033058136/snmp.o
 .text.TCPIP_SNMP_TrapSpecificNotificationGet
                0x00000000       0x20 build/default/debug/_ext/1033058136/snmp.o
 .text.TCPIP_SNMP_TrapInterFaceSet
                0x00000000       0x10 build/default/debug/_ext/1033058136/snmp.o
 .text.TCPIP_SNMP_AuthTrapFlagGet
                0x00000000       0x10 build/default/debug/_ext/1033058136/snmp.o
 .text.TCPIP_SNMP_TrapSendFlagSet
                0x00000000       0x10 build/default/debug/_ext/1033058136/snmp.o
 .text.TCPIP_SNMP_TrapSendFlagGet
                0x00000000       0x18 build/default/debug/_ext/1033058136/snmp.o
 .text.TCPIP_SNMP_SocketIDGet
                0x00000000       0x10 build/default/debug/_ext/1033058136/snmp.o
 .text.TCPIP_SNMP_SocketIDSet
                0x00000000        0xc build/default/debug/_ext/1033058136/snmp.o
 .text.TCPIP_SNMP_TRAPMibIDGet
                0x00000000       0x10 build/default/debug/_ext/1033058136/snmp.o
 .text.TCPIP_SNMP_MibIDSet
                0x00000000       0x10 build/default/debug/_ext/1033058136/snmp.o
 .text.TCPIP_SNMP_GetRXOffset
                0x00000000        0xc build/default/debug/_ext/1033058136/snmp.o
 .text.TCPIP_SNMP_SetRXOffset
                0x00000000        0xc build/default/debug/_ext/1033058136/snmp.o
 .bss.packetStructLenOffset.14588
                0x00000000        0x2 build/default/debug/_ext/1033058136/snmp.o
 .bss.pduStructLenOffset.14589
                0x00000000        0x2 build/default/debug/_ext/1033058136/snmp.o
 .bss.snmpTrapTimer
                0x00000000        0x4 build/default/debug/_ext/1033058136/snmp.o
 .bss.varBindStructLenOffset.14590
                0x00000000        0x2 build/default/debug/_ext/1033058136/snmp.o
 .bss.varPairStructLenOffset.14591
                0x00000000        0x2 build/default/debug/_ext/1033058136/snmp.o
 .bss.varbindlen.14585
                0x00000000        0x4 build/default/debug/_ext/1033058136/snmp.o
 .data.gen_trap_oid.14565
                0x00000000        0x9 build/default/debug/_ext/1033058136/snmp.o
 .data.snmpTrapFileDescriptr
                0x00000000        0x4 build/default/debug/_ext/1033058136/snmp.o
 .data.snmptrap_oids.14566
                0x00000000        0x9 build/default/debug/_ext/1033058136/snmp.o
 .text          0x00000000        0x0 build/default/debug/_ext/1033058136/icmp.o
 .data          0x00000000        0x0 build/default/debug/_ext/1033058136/icmp.o
 .bss           0x00000000        0x0 build/default/debug/_ext/1033058136/icmp.o
 .text.TCPIP_ICMP_CallbackRegister
                0x00000000       0x30 build/default/debug/_ext/1033058136/icmp.o
 .text.TCPIP_ICMP_CallbackDeregister
                0x00000000       0x24 build/default/debug/_ext/1033058136/icmp.o
 .text.TCPIP_ICMP_EchoRequestSend
                0x00000000       0x90 build/default/debug/_ext/1033058136/icmp.o
 .text          0x00000000        0x0 build/default/debug/_ext/1033058136/tcp.o
 .data          0x00000000        0x0 build/default/debug/_ext/1033058136/tcp.o
 .bss           0x00000000        0x0 build/default/debug/_ext/1033058136/tcp.o
 .text.TCPIP_TCP_SocketTraceSet
                0x00000000        0x4 build/default/debug/_ext/1033058136/tcp.o
 .text.TCPIP_TCP_Abort
                0x00000000       0x14 build/default/debug/_ext/1033058136/tcp.o
 .text.TCPIP_TCP_SocketFlagsGet
                0x00000000       0x12 build/default/debug/_ext/1033058136/tcp.o
 .text.TCPIP_TCP_SocketsNumberGet
                0x00000000        0xc build/default/debug/_ext/1033058136/tcp.o
 .text.TCPIP_TCP_FifoTxFreeGet
                0x00000000       0x26 build/default/debug/_ext/1033058136/tcp.o
 .text.TCPIP_TCP_ArrayPeek
                0x00000000       0x66 build/default/debug/_ext/1033058136/tcp.o
 .text.TCPIP_TCP_Peek
                0x00000000       0x1a build/default/debug/_ext/1033058136/tcp.o
 .text.TCPIP_TCP_SocketNetSet
                0x00000000       0x28 build/default/debug/_ext/1033058136/tcp.o
 .text.TCPIP_TCP_OptionsGet
                0x00000000       0xc4 build/default/debug/_ext/1033058136/tcp.o
 .text.TCPIP_TCP_SourceIPAddressSet
                0x00000000       0x32 build/default/debug/_ext/1033058136/tcp.o
 .text.TCPIP_TCP_IsReady
                0x00000000        0x4 build/default/debug/_ext/1033058136/tcp.o
 .text          0x00000000        0x0 build/default/debug/_ext/1033058136/arp.o
 .data          0x00000000        0x0 build/default/debug/_ext/1033058136/arp.o
 .bss           0x00000000        0x0 build/default/debug/_ext/1033058136/arp.o
 .text.TCPIP_ARP_EntrySet
                0x00000000       0xe8 build/default/debug/_ext/1033058136/arp.o
 .text.TCPIP_ARP_EntryRemoveAll
                0x00000000       0x7c build/default/debug/_ext/1033058136/arp.o
 .text.TCPIP_ARP_EntryQuery
                0x00000000       0xa8 build/default/debug/_ext/1033058136/arp.o
 .text.TCPIP_ARP_CacheEntriesNoGet
                0x00000000       0x58 build/default/debug/_ext/1033058136/arp.o
 .text.TCPIP_ARP_CacheThresholdSet
                0x00000000       0x54 build/default/debug/_ext/1033058136/arp.o
 .text          0x00000000        0x0 build/default/debug/_ext/1033058136/tcpip_commands.o
 .data          0x00000000        0x0 build/default/debug/_ext/1033058136/tcpip_commands.o
 .bss           0x00000000        0x0 build/default/debug/_ext/1033058136/tcpip_commands.o
 .text          0x00000000        0x0 build/default/debug/_ext/1033058136/http.o
 .data          0x00000000        0x0 build/default/debug/_ext/1033058136/http.o
 .bss           0x00000000        0x0 build/default/debug/_ext/1033058136/http.o
 .text.TCPIP_HTTP_FileInclude
                0x00000000      0x120 build/default/debug/_ext/1033058136/http.o
 .text.TCPIP_HTTP_CurrentConnectionCallbackPosGet
                0x00000000        0x4 build/default/debug/_ext/1033058136/http.o
 .text.TCPIP_HTTP_CurrentConnectionStatusGet
                0x00000000        0x6 build/default/debug/_ext/1033058136/http.o
 .text.TCPIP_HTTP_CurrentConnectionHasArgsGet
                0x00000000        0x6 build/default/debug/_ext/1033058136/http.o
 .text.TCPIP_HTTP_CurrentConnectionByteCountSet
                0x00000000        0x4 build/default/debug/_ext/1033058136/http.o
 .text.TCPIP_HTTP_CurrentConnectionIsAuthorizedGet
                0x00000000        0x6 build/default/debug/_ext/1033058136/http.o
 .text.TCPIP_HTTP_CurrentConnectionIsAuthorizedSet
                0x00000000        0x6 build/default/debug/_ext/1033058136/http.o
 .text.TCPIP_HTTP_CurrentConnectionUserDataSet
                0x00000000        0x4 build/default/debug/_ext/1033058136/http.o
 .text.TCPIP_HTTP_CurrentConnectionUserDataGet
                0x00000000        0x4 build/default/debug/_ext/1033058136/http.o
 .text.TCPIP_HTTP_CurrentConnectionSMSet
                0x00000000        0x6 build/default/debug/_ext/1033058136/http.o
 .text.TCPIP_HTTP_CurrentConnectionSMGet
                0x00000000        0x6 build/default/debug/_ext/1033058136/http.o
 .text.TCPIP_HTTP_CurrentConnectionUploadBufferStartSet
                0x00000000        0x4 build/default/debug/_ext/1033058136/http.o
 .text.TCPIP_HTTP_CurrentConnectionUploadBufferStartGet
                0x00000000        0x4 build/default/debug/_ext/1033058136/http.o
 .text.TCPIP_HTTP_CurrentConnectionUploadBufferEndSet
                0x00000000        0x4 build/default/debug/_ext/1033058136/http.o
 .text.TCPIP_HTTP_CurrentConnectionUploadBufferEndGet
                0x00000000        0x4 build/default/debug/_ext/1033058136/http.o
 .text.TCPIP_HTTP_CurrentConnectionUploadBufferCurrSet
                0x00000000        0x4 build/default/debug/_ext/1033058136/http.o
 .text.TCPIP_HTTP_CurrentConnectionUploadBufferCurrGet
                0x00000000        0x4 build/default/debug/_ext/1033058136/http.o
 .text.TCPIP_HTTP_CurrentConnectionIndexGet
                0x00000000        0x6 build/default/debug/_ext/1033058136/http.o
 .text.TCPIP_HTTP_CurrentConnectionHandleGet
                0x00000000       0x24 build/default/debug/_ext/1033058136/http.o
 .text.TCPIP_HTTP_ActiveConnectionCountGet
                0x00000000       0x50 build/default/debug/_ext/1033058136/http.o
 .text          0x00000000        0x0 build/default/debug/_ext/1033058136/iperf.o
 .data          0x00000000        0x0 build/default/debug/_ext/1033058136/iperf.o
 .bss           0x00000000        0x0 build/default/debug/_ext/1033058136/iperf.o
 .text          0x00000000        0x0 build/default/debug/_ext/1033058136/ipv4.o
 .data          0x00000000        0x0 build/default/debug/_ext/1033058136/ipv4.o
 .bss           0x00000000        0x0 build/default/debug/_ext/1033058136/ipv4.o
 .text.TCPIP_IPv4_ArpStatGet
                0x00000000        0x4 build/default/debug/_ext/1033058136/ipv4.o
 .text.TCPIP_IPv4_ForwardStatGet
                0x00000000        0x4 build/default/debug/_ext/1033058136/ipv4.o
 .text.TCPIP_IPV4_PacketFilterSet
                0x00000000       0x24 build/default/debug/_ext/1033058136/ipv4.o
 .text.TCPIP_IPV4_PacketFilterClear
                0x00000000       0x24 build/default/debug/_ext/1033058136/ipv4.o
 .text.TCPIP_IPV4_MacPacketTransmit
                0x00000000       0x60 build/default/debug/_ext/1033058136/ipv4.o
 .text.TCPIP_IPV4_PacketAlloc
                0x00000000       0x78 build/default/debug/_ext/1033058136/ipv4.o
 .text.TCPIP_IPV4_PacketOptionFieldSet
                0x00000000       0x36 build/default/debug/_ext/1033058136/ipv4.o
 .text.TCPIP_IPV4_PacketOptionListGet
                0x00000000       0x56 build/default/debug/_ext/1033058136/ipv4.o
 .text.TCPIP_IPV4_PacketOptionGet
                0x00000000       0x70 build/default/debug/_ext/1033058136/ipv4.o
 .text          0x00000000        0x0 build/default/debug/_ext/1033058136/tcpip_heap_alloc.o
 .data          0x00000000        0x0 build/default/debug/_ext/1033058136/tcpip_heap_alloc.o
 .bss           0x00000000        0x0 build/default/debug/_ext/1033058136/tcpip_heap_alloc.o
 .text._TCPIP_HEAP_PointerMapCached
                0x00000000        0x2 build/default/debug/_ext/1033058136/tcpip_heap_alloc.o
 .text          0x00000000        0x0 build/default/debug/_ext/1033058136/tcpip_heap_internal.o
 .data          0x00000000        0x0 build/default/debug/_ext/1033058136/tcpip_heap_internal.o
 .bss           0x00000000        0x0 build/default/debug/_ext/1033058136/tcpip_heap_internal.o
 .text          0x00000000        0x0 build/default/debug/_ext/1033058136/dhcp.o
 .data          0x00000000        0x0 build/default/debug/_ext/1033058136/dhcp.o
 .bss           0x00000000        0x0 build/default/debug/_ext/1033058136/dhcp.o
 .text.TCPIP_DHCP_IsBound
                0x00000000       0x3c build/default/debug/_ext/1033058136/dhcp.o
 .text.TCPIP_DHCP_IsServerDetected
                0x00000000       0x3c build/default/debug/_ext/1033058136/dhcp.o
 .text.TCPIP_DHCP_RequestTimeoutSet
                0x00000000       0x54 build/default/debug/_ext/1033058136/dhcp.o
 .text.TCPIP_DHCP_HandlerRegister
                0x00000000       0x34 build/default/debug/_ext/1033058136/dhcp.o
 .text.TCPIP_DHCP_HandlerDeRegister
                0x00000000       0x24 build/default/debug/_ext/1033058136/dhcp.o
 .text.TCPIP_DHCP_HostNameCallbackRegister
                0x00000000       0x54 build/default/debug/_ext/1033058136/dhcp.o
 .text          0x00000000        0x0 build/default/debug/_ext/1033058136/dns.o
 .data          0x00000000        0x0 build/default/debug/_ext/1033058136/dns.o
 .bss           0x00000000        0x0 build/default/debug/_ext/1033058136/dns.o
 .text.TCPIP_DNS_Send_Query
                0x00000000        0xa build/default/debug/_ext/1033058136/dns.o
 .text.TCPIP_DNS_IsEnabled
                0x00000000       0x1a build/default/debug/_ext/1033058136/dns.o
 .text          0x00000000        0x0 build/default/debug/_ext/1033058136/hash_fnv.o
 .data          0x00000000        0x0 build/default/debug/_ext/1033058136/hash_fnv.o
 .bss           0x00000000        0x0 build/default/debug/_ext/1033058136/hash_fnv.o
 .text.fnv_32a_hash
                0x00000000       0x30 build/default/debug/_ext/1033058136/hash_fnv.o
 .text          0x00000000        0x0 build/default/debug/_ext/1033058136/oahash.o
 .data          0x00000000        0x0 build/default/debug/_ext/1033058136/oahash.o
 .bss           0x00000000        0x0 build/default/debug/_ext/1033058136/oahash.o
 .text          0x00000000        0x0 build/default/debug/_ext/1033058136/tcpip_helpers.o
 .data          0x00000000        0x0 build/default/debug/_ext/1033058136/tcpip_helpers.o
 .bss           0x00000000        0x0 build/default/debug/_ext/1033058136/tcpip_helpers.o
 .text._TCPIP_Helper_SecurePortEntry
                0x00000000       0x38 build/default/debug/_ext/1033058136/tcpip_helpers.o
 .text.TCPIP_Helper_IsPrivateAddress
                0x00000000       0x2c build/default/debug/_ext/1033058136/tcpip_helpers.o
 .text.TCPIP_Helper_PowerModeToString
                0x00000000       0x14 build/default/debug/_ext/1033058136/tcpip_helpers.o
 .text.TCPIP_Helper_Base64Decode
                0x00000000      0x100 build/default/debug/_ext/1033058136/tcpip_helpers.o
 .text.TCPIP_Helper_Base64Encode
                0x00000000      0x112 build/default/debug/_ext/1033058136/tcpip_helpers.o
 .text.TCPIP_Helper_FindCommonPrefix
                0x00000000       0x52 build/default/debug/_ext/1033058136/tcpip_helpers.o
 .text.TCPIP_Helper_SingleListHeadAdd
                0x00000000       0x16 build/default/debug/_ext/1033058136/tcpip_helpers.o
 .text.TCPIP_Helper_SingleListMidAdd
                0x00000000        0xe build/default/debug/_ext/1033058136/tcpip_helpers.o
 .text.TCPIP_Helper_SingleListNextRemove
                0x00000000       0x26 build/default/debug/_ext/1033058136/tcpip_helpers.o
 .text.TCPIP_Helper_SingleListFind
                0x00000000       0x20 build/default/debug/_ext/1033058136/tcpip_helpers.o
 .text.TCPIP_Helper_ProtectedSingleListHeadAdd
                0x00000000       0x2a build/default/debug/_ext/1033058136/tcpip_helpers.o
 .text.TCPIP_Helper_ProtectedSingleListMidAdd
                0x00000000       0x30 build/default/debug/_ext/1033058136/tcpip_helpers.o
 .text.TCPIP_Helper_ProtectedSingleListNextRemove
                0x00000000       0x30 build/default/debug/_ext/1033058136/tcpip_helpers.o
 .text.TCPIP_Helper_ProtectedSingleListAppend
                0x00000000       0x2a build/default/debug/_ext/1033058136/tcpip_helpers.o
 .text.TCPIP_Helper_DoubleListInitialize
                0x00000000        0xa build/default/debug/_ext/1033058136/tcpip_helpers.o
 .text.TCPIP_Helper_DoubleListHeadAdd
                0x00000000       0x22 build/default/debug/_ext/1033058136/tcpip_helpers.o
 .text.TCPIP_Helper_DoubleListTailAdd
                0x00000000       0x22 build/default/debug/_ext/1033058136/tcpip_helpers.o
 .text.TCPIP_Helper_DoubleListMidAdd
                0x00000000       0x14 build/default/debug/_ext/1033058136/tcpip_helpers.o
 .text.TCPIP_Helper_DoubleListHeadRemove
                0x00000000       0x24 build/default/debug/_ext/1033058136/tcpip_helpers.o
 .text.TCPIP_Helper_DoubleListTailRemove
                0x00000000       0x24 build/default/debug/_ext/1033058136/tcpip_helpers.o
 .text.TCPIP_Helper_DoubleListMidRemove
                0x00000000       0x12 build/default/debug/_ext/1033058136/tcpip_helpers.o
 .text.TCPIP_Helper_DoubleListNodeRemove
                0x00000000       0x20 build/default/debug/_ext/1033058136/tcpip_helpers.o
 .text.TCPIP_Helper_DoubleListFind
                0x00000000       0x20 build/default/debug/_ext/1033058136/tcpip_helpers.o
 .text.TCPIP_Helper_ProtectedDoubleListInitialize
                0x00000000       0x22 build/default/debug/_ext/1033058136/tcpip_helpers.o
 .text.TCPIP_Helper_ProtectedDoubleListDeinitialize
                0x00000000       0x30 build/default/debug/_ext/1033058136/tcpip_helpers.o
 .text.TCPIP_Helper_ProtectedDoubleListHeadAdd
                0x00000000       0x2a build/default/debug/_ext/1033058136/tcpip_helpers.o
 .text.TCPIP_Helper_ProtectedDoubleListTailAdd
                0x00000000       0x2a build/default/debug/_ext/1033058136/tcpip_helpers.o
 .text.TCPIP_Helper_ProtectedDoubleListMidAdd
                0x00000000       0x2e build/default/debug/_ext/1033058136/tcpip_helpers.o
 .text.TCPIP_Helper_ProtectedDoubleListHeadRemove
                0x00000000       0x2c build/default/debug/_ext/1033058136/tcpip_helpers.o
 .text.TCPIP_Helper_ProtectedDoubleListTailRemove
                0x00000000       0x2c build/default/debug/_ext/1033058136/tcpip_helpers.o
 .text.TCPIP_Helper_ProtectedDoubleListMidRemove
                0x00000000       0x2a build/default/debug/_ext/1033058136/tcpip_helpers.o
 .text.TCPIP_Helper_ProtectedDoubleListNodeRemove
                0x00000000       0x2a build/default/debug/_ext/1033058136/tcpip_helpers.o
 .text.TCPIP_Helper_ProtectedDoubleListRemoveAll
                0x00000000       0x2a build/default/debug/_ext/1033058136/tcpip_helpers.o
 .text.TCPIP_Helper_ProtectedDoubleListLock
                0x00000000       0x14 build/default/debug/_ext/1033058136/tcpip_helpers.o
 .text.TCPIP_Helper_ProtectedDoubleListUnlock
                0x00000000       0x10 build/default/debug/_ext/1033058136/tcpip_helpers.o
 .text.TCPIP_Helper_TCPSecurePortGet
                0x00000000       0x16 build/default/debug/_ext/1033058136/tcpip_helpers.o
 .text.TCPIP_Helper_UDPSecurePortGet
                0x00000000       0x16 build/default/debug/_ext/1033058136/tcpip_helpers.o
 .text.TCPIP_Helper_SecurePortGetByIndex
                0x00000000       0x34 build/default/debug/_ext/1033058136/tcpip_helpers.o
 .text.TCPIP_Helper_SecurePortSet
                0x00000000       0x5e build/default/debug/_ext/1033058136/tcpip_helpers.o
 .data.tcpSecurePortTbl
                0x00000000       0x28 build/default/debug/_ext/1033058136/tcpip_helpers.o
 .text          0x00000000        0x0 build/default/debug/_ext/1033058136/tcpip_manager.o
 .data          0x00000000        0x0 build/default/debug/_ext/1033058136/tcpip_manager.o
 .bss           0x00000000        0x0 build/default/debug/_ext/1033058136/tcpip_manager.o
 .text._NetConfigStringToBuffer
                0x00000000       0x52 build/default/debug/_ext/1033058136/tcpip_manager.o
 .text.TCPIP_STACK_Status
                0x00000000       0x1c build/default/debug/_ext/1033058136/tcpip_manager.o
 .text.TCPIP_STACK_NetMulticastGet
                0x00000000        0x4 build/default/debug/_ext/1033058136/tcpip_manager.o
 .text.TCPIP_STACK_NetMulticastSet
                0x00000000        0x4 build/default/debug/_ext/1033058136/tcpip_manager.o
 .text.TCPIP_STACK_MacToNet
                0x00000000       0x3c build/default/debug/_ext/1033058136/tcpip_manager.o
 .text.TCPIP_STACK_MacToNetIndex
                0x00000000       0x44 build/default/debug/_ext/1033058136/tcpip_manager.o
 .text.TCPIP_Stack_UserHandleToNet
                0x00000000       0x3c build/default/debug/_ext/1033058136/tcpip_manager.o
 .text.TCPIP_STACK_NetMACIdGet
                0x00000000       0x18 build/default/debug/_ext/1033058136/tcpip_manager.o
 .text.TCPIP_STACK_ModuleConfigGet
                0x00000000       0x4c build/default/debug/_ext/1033058136/tcpip_manager.o
 .text.TCPIP_STACK_NetConfigGet
                0x00000000       0x50 build/default/debug/_ext/1033058136/tcpip_manager.o
 .text.TCPIP_STACK_NetConfigSet
                0x00000000      0x1aa build/default/debug/_ext/1033058136/tcpip_manager.o
 .text.TCPIP_STACK_MACIdToString
                0x00000000       0x3c build/default/debug/_ext/1033058136/tcpip_manager.o
 .text.TCPIP_STACK_EventsPendingGet
                0x00000000       0x20 build/default/debug/_ext/1033058136/tcpip_manager.o
 .text.TCPIP_STACK_NetStaticIPv6AddressGet
                0x00000000        0x4 build/default/debug/_ext/1033058136/tcpip_manager.o
 .text.TCPIP_STACK_NetDefaultIPv6GatewayGet
                0x00000000        0x4 build/default/debug/_ext/1033058136/tcpip_manager.o
 .text.TCPIP_STACK_AddressIsOfNetUp
                0x00000000       0x30 build/default/debug/_ext/1033058136/tcpip_manager.o
 .text._TCPIPStackAnyNetDirected
                0x00000000       0x48 build/default/debug/_ext/1033058136/tcpip_manager.o
 .text.TCPIP_STACK_NetMACId
                0x00000000        0xc build/default/debug/_ext/1033058136/tcpip_manager.o
 .text.TCPIP_STACK_NetToMAC
                0x00000000        0xa build/default/debug/_ext/1033058136/tcpip_manager.o
 .text.TCPIP_STACK_VersionGet
                0x00000000        0x8 build/default/debug/_ext/1033058136/tcpip_manager.o
 .text.TCPIP_STACK_VersionStrGet
                0x00000000        0x8 build/default/debug/_ext/1033058136/tcpip_manager.o
 .text.TCPIP_MODULE_SignalFunctionRegister
                0x00000000       0x3c build/default/debug/_ext/1033058136/tcpip_manager.o
 .text.TCPIP_MODULE_SignalFunctionDeregister
                0x00000000        0xe build/default/debug/_ext/1033058136/tcpip_manager.o
 .text.TCPIP_MODULE_SignalGet
                0x00000000       0x28 build/default/debug/_ext/1033058136/tcpip_manager.o
 .text.TCPIP_STACK_HEAP_Size
                0x00000000        0xe build/default/debug/_ext/1033058136/tcpip_manager.o
 .text.TCPIP_STACK_HEAP_MaxSize
                0x00000000        0xe build/default/debug/_ext/1033058136/tcpip_manager.o
 .text.TCPIP_STACK_HEAP_FreeSize
                0x00000000        0xe build/default/debug/_ext/1033058136/tcpip_manager.o
 .text.TCPIP_STACK_HEAP_HighWatermark
                0x00000000        0xe build/default/debug/_ext/1033058136/tcpip_manager.o
 .text.TCPIP_STACK_HEAP_LastError
                0x00000000       0x10 build/default/debug/_ext/1033058136/tcpip_manager.o
 .text          0x00000000        0x0 build/default/debug/_ext/1033058136/tcpip_notify.o
 .data          0x00000000        0x0 build/default/debug/_ext/1033058136/tcpip_notify.o
 .bss           0x00000000        0x0 build/default/debug/_ext/1033058136/tcpip_notify.o
 .text          0x00000000        0x0 build/default/debug/_ext/1033058136/tcpip_packet.o
 .data          0x00000000        0x0 build/default/debug/_ext/1033058136/tcpip_packet.o
 .bss           0x00000000        0x0 build/default/debug/_ext/1033058136/tcpip_packet.o
 .text.TCPIP_PKT_SegmentAppend
                0x00000000       0x14 build/default/debug/_ext/1033058136/tcpip_packet.o
 .text._TCPIP_PKT_SegmentAlloc
                0x00000000       0x4c build/default/debug/_ext/1033058136/tcpip_packet.o
 .text._TCPIP_PKT_SegmentFree
                0x00000000       0x1c build/default/debug/_ext/1033058136/tcpip_packet.o
 .text          0x00000000        0x0 build/default/debug/_ext/1033058136/udp.o
 .data          0x00000000        0x0 build/default/debug/_ext/1033058136/udp.o
 .bss           0x00000000        0x0 build/default/debug/_ext/1033058136/udp.o
 .text.TCPIP_UDP_IsConnected
                0x00000000       0x2c build/default/debug/_ext/1033058136/udp.o
 .text.TCPIP_UDP_Put
                0x00000000       0x18 build/default/debug/_ext/1033058136/udp.o
 .text.TCPIP_UDP_StringPut
                0x00000000       0x2a build/default/debug/_ext/1033058136/udp.o
 .text.TCPIP_UDP_TxCountGet
                0x00000000       0x22 build/default/debug/_ext/1033058136/udp.o
 .text.TCPIP_UDP_Get
                0x00000000        0xa build/default/debug/_ext/1033058136/udp.o
 .text.TCPIP_UDP_RemoteBind
                0x00000000       0xa6 build/default/debug/_ext/1033058136/udp.o
 .text.TCPIP_UDP_SetSplitPayload
                0x00000000       0x56 build/default/debug/_ext/1033058136/udp.o
 .text.TCPIP_UDP_SignalHandlerDeregister
                0x00000000       0x3a build/default/debug/_ext/1033058136/udp.o
 .text.TCPIP_UDP_SocketsNumberGet
                0x00000000        0xc build/default/debug/_ext/1033058136/udp.o
 .text          0x00000000        0x0 build/default/debug/_ext/1529399856/osal_freertos.o
 .data          0x00000000        0x0 build/default/debug/_ext/1529399856/osal_freertos.o
 .bss           0x00000000        0x0 build/default/debug/_ext/1529399856/osal_freertos.o
 .text.OSAL_SEM_GetCount
                0x00000000       0x12 build/default/debug/_ext/1529399856/osal_freertos.o
 .text.OSAL_MUTEX_Delete
                0x00000000       0x1a build/default/debug/_ext/1529399856/osal_freertos.o
 .text.OSAL_Free
                0x00000000        0x8 build/default/debug/_ext/1529399856/osal_freertos.o
 .text.OSAL_Initialize
                0x00000000        0x4 build/default/debug/_ext/1529399856/osal_freertos.o
 .text          0x00000000        0x0 build/default/debug/_ext/1984496892/plib_clock.o
 .data          0x00000000        0x0 build/default/debug/_ext/1984496892/plib_clock.o
 .bss           0x00000000        0x0 build/default/debug/_ext/1984496892/plib_clock.o
 .text          0x00000000        0x0 build/default/debug/_ext/1865131932/plib_cmcc.o
 .data          0x00000000        0x0 build/default/debug/_ext/1865131932/plib_cmcc.o
 .bss           0x00000000        0x0 build/default/debug/_ext/1865131932/plib_cmcc.o
 .text.CMCC_Disable
                0x00000000       0x18 build/default/debug/_ext/1865131932/plib_cmcc.o
 .text.CMCC_EnableICache
                0x00000000       0x28 build/default/debug/_ext/1865131932/plib_cmcc.o
 .text.CMCC_DisableICache
                0x00000000       0x28 build/default/debug/_ext/1865131932/plib_cmcc.o
 .text.CMCC_EnableDCache
                0x00000000       0x28 build/default/debug/_ext/1865131932/plib_cmcc.o
 .text.CMCC_DisableDCache
                0x00000000       0x28 build/default/debug/_ext/1865131932/plib_cmcc.o
 .text.CMCC_InvalidateAll
                0x00000000       0x20 build/default/debug/_ext/1865131932/plib_cmcc.o
 .debug_info    0x00000000      0x53a build/default/debug/_ext/1865131932/plib_cmcc.o
 .debug_abbrev  0x00000000       0x99 build/default/debug/_ext/1865131932/plib_cmcc.o
 .debug_aranges
                0x00000000       0x48 build/default/debug/_ext/1865131932/plib_cmcc.o
 .debug_ranges  0x00000000       0x38 build/default/debug/_ext/1865131932/plib_cmcc.o
 .debug_line    0x00000000      0x1ee build/default/debug/_ext/1865131932/plib_cmcc.o
 .debug_str     0x00000000        0x0 build/default/debug/_ext/1865131932/plib_cmcc.o
 .comment       0x00000000       0x2c build/default/debug/_ext/1865131932/plib_cmcc.o
 .debug_frame   0x00000000       0x70 build/default/debug/_ext/1865131932/plib_cmcc.o
 .ARM.attributes
                0x00000000       0x34 build/default/debug/_ext/1865131932/plib_cmcc.o
 .text          0x00000000        0x0 build/default/debug/_ext/1986646378/plib_evsys.o
 .data          0x00000000        0x0 build/default/debug/_ext/1986646378/plib_evsys.o
 .bss           0x00000000        0x0 build/default/debug/_ext/1986646378/plib_evsys.o
 .text          0x00000000        0x0 build/default/debug/_ext/1865468468/plib_nvic.o
 .data          0x00000000        0x0 build/default/debug/_ext/1865468468/plib_nvic.o
 .bss           0x00000000        0x0 build/default/debug/_ext/1865468468/plib_nvic.o
 .text.NVIC_INT_Enable
                0x00000000        0x8 build/default/debug/_ext/1865468468/plib_nvic.o
 .text          0x00000000        0x0 build/default/debug/_ext/1593096446/plib_nvmctrl.o
 .data          0x00000000        0x0 build/default/debug/_ext/1593096446/plib_nvmctrl.o
 .bss           0x00000000        0x0 build/default/debug/_ext/1593096446/plib_nvmctrl.o
 .text.NVMCTRL_SetWriteMode
                0x00000000       0x14 build/default/debug/_ext/1593096446/plib_nvmctrl.o
 .text.NVMCTRL_QuadWordWrite
                0x00000000       0x4c build/default/debug/_ext/1593096446/plib_nvmctrl.o
 .text.NVMCTRL_DoubleWordWrite
                0x00000000       0x40 build/default/debug/_ext/1593096446/plib_nvmctrl.o
 .text.NVMCTRL_PageBufferWrite
                0x00000000       0x2c build/default/debug/_ext/1593096446/plib_nvmctrl.o
 .text.NVMCTRL_PageBufferCommit
                0x00000000       0x28 build/default/debug/_ext/1593096446/plib_nvmctrl.o
 .text.NVMCTRL_USER_ROW_RowErase
                0x00000000       0x30 build/default/debug/_ext/1593096446/plib_nvmctrl.o
 .text.NVMCTRL_ErrorGet
                0x00000000       0x20 build/default/debug/_ext/1593096446/plib_nvmctrl.o
 .text.NVMCTRL_StatusGet
                0x00000000        0xc build/default/debug/_ext/1593096446/plib_nvmctrl.o
 .text.NVMCTRL_USER_ROW_PageWrite
                0x00000000       0x68 build/default/debug/_ext/1593096446/plib_nvmctrl.o
 .text.NVMCTRL_RegionLock
                0x00000000       0x10 build/default/debug/_ext/1593096446/plib_nvmctrl.o
 .text.NVMCTRL_RegionUnlock
                0x00000000       0x10 build/default/debug/_ext/1593096446/plib_nvmctrl.o
 .text.NVMCTRL_RegionLockStatusGet
                0x00000000        0xc build/default/debug/_ext/1593096446/plib_nvmctrl.o
 .text.NVMCTRL_SecurityBitSet
                0x00000000       0x10 build/default/debug/_ext/1593096446/plib_nvmctrl.o
 .text.NVMCTRL_SmartEEPROM_IsBusy
                0x00000000       0x10 build/default/debug/_ext/1593096446/plib_nvmctrl.o
 .text.NVMCTRL_SmartEEPROMStatusGet
                0x00000000        0xc build/default/debug/_ext/1593096446/plib_nvmctrl.o
 .text.NVMCTRL_SmartEEPROM_IsActiveSectorFull
                0x00000000       0x10 build/default/debug/_ext/1593096446/plib_nvmctrl.o
 .text.NVMCTRL_BankSwap
                0x00000000       0x10 build/default/debug/_ext/1593096446/plib_nvmctrl.o
 .text.NVMCTRL_SmartEEPROMSectorReallocate
                0x00000000       0x10 build/default/debug/_ext/1593096446/plib_nvmctrl.o
 .text.NVMCTRL_SmartEEPROMFlushPageBuffer
                0x00000000       0x18 build/default/debug/_ext/1593096446/plib_nvmctrl.o
 .text          0x00000000        0x0 build/default/debug/_ext/1865521619/plib_port.o
 .data          0x00000000        0x0 build/default/debug/_ext/1865521619/plib_port.o
 .bss           0x00000000        0x0 build/default/debug/_ext/1865521619/plib_port.o
 .text.PORT_GroupRead
                0x00000000        0x4 build/default/debug/_ext/1865521619/plib_port.o
 .text.PORT_GroupWrite
                0x00000000        0xc build/default/debug/_ext/1865521619/plib_port.o
 .text.PORT_GroupLatchRead
                0x00000000        0x4 build/default/debug/_ext/1865521619/plib_port.o
 .text.PORT_GroupSet
                0x00000000        0x4 build/default/debug/_ext/1865521619/plib_port.o
 .text.PORT_GroupClear
                0x00000000        0x4 build/default/debug/_ext/1865521619/plib_port.o
 .text.PORT_GroupToggle
                0x00000000        0x4 build/default/debug/_ext/1865521619/plib_port.o
 .text.PORT_GroupInputEnable
                0x00000000        0x4 build/default/debug/_ext/1865521619/plib_port.o
 .text.PORT_GroupOutputEnable
                0x00000000        0x4 build/default/debug/_ext/1865521619/plib_port.o
 .text.PORT_PinPeripheralFunctionConfig
                0x00000000       0x4a build/default/debug/_ext/1865521619/plib_port.o
 .text.PORT_PinGPIOConfig
                0x00000000       0x20 build/default/debug/_ext/1865521619/plib_port.o
 .text          0x00000000        0x0 build/default/debug/_ext/504274921/plib_sercom1_usart.o
 .data          0x00000000        0x0 build/default/debug/_ext/504274921/plib_sercom1_usart.o
 .bss           0x00000000        0x0 build/default/debug/_ext/504274921/plib_sercom1_usart.o
 .text.SERCOM1_USART_FrequencyGet
                0x00000000        0x8 build/default/debug/_ext/504274921/plib_sercom1_usart.o
 .text.SERCOM1_USART_SerialSetup
                0x00000000      0x144 build/default/debug/_ext/504274921/plib_sercom1_usart.o
 .text.SERCOM1_USART_ErrorGet
                0x00000000       0x10 build/default/debug/_ext/504274921/plib_sercom1_usart.o
 .text.SERCOM1_USART_ReadBufferSizeGet
                0x00000000        0xc build/default/debug/_ext/504274921/plib_sercom1_usart.o
 .text.SERCOM1_USART_ReadNotificationEnable
                0x00000000       0x18 build/default/debug/_ext/504274921/plib_sercom1_usart.o
 .text.SERCOM1_USART_ReadThresholdSet
                0x00000000        0xc build/default/debug/_ext/504274921/plib_sercom1_usart.o
 .text.SERCOM1_USART_ReadCallbackRegister
                0x00000000        0xc build/default/debug/_ext/504274921/plib_sercom1_usart.o
 .text.SERCOM1_USART_TransmitComplete
                0x00000000       0x10 build/default/debug/_ext/504274921/plib_sercom1_usart.o
 .text.SERCOM1_USART_WriteBufferSizeGet
                0x00000000        0xc build/default/debug/_ext/504274921/plib_sercom1_usart.o
 .text.SERCOM1_USART_WriteNotificationEnable
                0x00000000       0x10 build/default/debug/_ext/504274921/plib_sercom1_usart.o
 .text.SERCOM1_USART_WriteThresholdSet
                0x00000000        0xc build/default/debug/_ext/504274921/plib_sercom1_usart.o
 .text.SERCOM1_USART_WriteCallbackRegister
                0x00000000        0xc build/default/debug/_ext/504274921/plib_sercom1_usart.o
 .text          0x00000000        0x0 build/default/debug/_ext/829342655/plib_tc0.o
 .data          0x00000000        0x0 build/default/debug/_ext/829342655/plib_tc0.o
 .bss           0x00000000        0x0 build/default/debug/_ext/829342655/plib_tc0.o
 .text.TC0_TimerCommandSet
                0x00000000       0x18 build/default/debug/_ext/829342655/plib_tc0.o
 .text.TC0_Timer16bitCounterSet
                0x00000000       0x14 build/default/debug/_ext/829342655/plib_tc0.o
 .text.TC0_Timer16bitPeriodGet
                0x00000000        0xc build/default/debug/_ext/829342655/plib_tc0.o
 .text          0x00000000        0x0 build/default/debug/_ext/163028504/xc32_monitor.o
 .data          0x00000000        0x0 build/default/debug/_ext/163028504/xc32_monitor.o
 .bss           0x00000000        0x0 build/default/debug/_ext/163028504/xc32_monitor.o
 .text.read     0x00000000        0x6 build/default/debug/_ext/163028504/xc32_monitor.o
 .text.write    0x00000000        0x6 build/default/debug/_ext/163028504/xc32_monitor.o
 .debug_info    0x00000000      0x331 build/default/debug/_ext/163028504/xc32_monitor.o
 .debug_abbrev  0x00000000       0x96 build/default/debug/_ext/163028504/xc32_monitor.o
 .debug_loc     0x00000000       0x4a build/default/debug/_ext/163028504/xc32_monitor.o
 .debug_aranges
                0x00000000       0x28 build/default/debug/_ext/163028504/xc32_monitor.o
 .debug_ranges  0x00000000       0x18 build/default/debug/_ext/163028504/xc32_monitor.o
 .debug_line    0x00000000       0xb1 build/default/debug/_ext/163028504/xc32_monitor.o
 .debug_str     0x00000000        0x0 build/default/debug/_ext/163028504/xc32_monitor.o
 .comment       0x00000000       0x2c build/default/debug/_ext/163028504/xc32_monitor.o
 .debug_frame   0x00000000       0x30 build/default/debug/_ext/163028504/xc32_monitor.o
 .ARM.attributes
                0x00000000       0x34 build/default/debug/_ext/163028504/xc32_monitor.o
 .text          0x00000000        0x0 build/default/debug/_ext/1014039709/sys_cache.o
 .data          0x00000000        0x0 build/default/debug/_ext/1014039709/sys_cache.o
 .bss           0x00000000        0x0 build/default/debug/_ext/1014039709/sys_cache.o
 .text.SYS_CACHE_EnableCaches
                0x00000000        0x2 build/default/debug/_ext/1014039709/sys_cache.o
 .text.SYS_CACHE_DisableCaches
                0x00000000        0x2 build/default/debug/_ext/1014039709/sys_cache.o
 .text.SYS_CACHE_EnableICache
                0x00000000        0x2 build/default/debug/_ext/1014039709/sys_cache.o
 .text.SYS_CACHE_DisableICache
                0x00000000        0x2 build/default/debug/_ext/1014039709/sys_cache.o
 .text.SYS_CACHE_InvalidateICache
                0x00000000        0x2 build/default/debug/_ext/1014039709/sys_cache.o
 .text.SYS_CACHE_EnableDCache
                0x00000000        0x2 build/default/debug/_ext/1014039709/sys_cache.o
 .text.SYS_CACHE_DisableDCache
                0x00000000        0x2 build/default/debug/_ext/1014039709/sys_cache.o
 .text.SYS_CACHE_InvalidateDCache
                0x00000000        0x2 build/default/debug/_ext/1014039709/sys_cache.o
 .text.SYS_CACHE_CleanDCache
                0x00000000        0x2 build/default/debug/_ext/1014039709/sys_cache.o
 .text.SYS_CACHE_CleanInvalidateDCache
                0x00000000        0x2 build/default/debug/_ext/1014039709/sys_cache.o
 .text.SYS_CACHE_InvalidateDCache_by_Addr
                0x00000000        0x2 build/default/debug/_ext/1014039709/sys_cache.o
 .text.SYS_CACHE_CleanDCache_by_Addr
                0x00000000        0x2 build/default/debug/_ext/1014039709/sys_cache.o
 .text.SYS_CACHE_CleanInvalidateDCache_by_Addr
                0x00000000        0x2 build/default/debug/_ext/1014039709/sys_cache.o
 .debug_info    0x00000000      0x5dc build/default/debug/_ext/1014039709/sys_cache.o
 .debug_abbrev  0x00000000       0x8f build/default/debug/_ext/1014039709/sys_cache.o
 .debug_aranges
                0x00000000       0x80 build/default/debug/_ext/1014039709/sys_cache.o
 .debug_ranges  0x00000000       0x70 build/default/debug/_ext/1014039709/sys_cache.o
 .debug_line    0x00000000      0x178 build/default/debug/_ext/1014039709/sys_cache.o
 .debug_str     0x00000000        0x0 build/default/debug/_ext/1014039709/sys_cache.o
 .comment       0x00000000       0x2c build/default/debug/_ext/1014039709/sys_cache.o
 .debug_frame   0x00000000       0xe0 build/default/debug/_ext/1014039709/sys_cache.o
 .ARM.attributes
                0x00000000       0x34 build/default/debug/_ext/1014039709/sys_cache.o
 .text          0x00000000        0x0 build/default/debug/_ext/1376093119/sys_command.o
 .data          0x00000000        0x0 build/default/debug/_ext/1376093119/sys_command.o
 .bss           0x00000000        0x0 build/default/debug/_ext/1376093119/sys_command.o
 .text.SYS_CMD_READY_TO_READ
                0x00000000        0x4 build/default/debug/_ext/1376093119/sys_command.o
 .text.SYS_CMD_MESSAGE
                0x00000000        0xc build/default/debug/_ext/1376093119/sys_command.o
 .text.SYS_CMD_PRINT
                0x00000000       0x80 build/default/debug/_ext/1376093119/sys_command.o
 .text.SYS_CMDIO_GET_HANDLE
                0x00000000       0x20 build/default/debug/_ext/1376093119/sys_command.o
 .text.SYS_CMD_DELETE
                0x00000000       0x64 build/default/debug/_ext/1376093119/sys_command.o
 .text          0x00000000        0x0 build/default/debug/_ext/1832805299/sys_console_uart.o
 .data          0x00000000        0x0 build/default/debug/_ext/1832805299/sys_console_uart.o
 .bss           0x00000000        0x0 build/default/debug/_ext/1832805299/sys_console_uart.o
 .text          0x00000000        0x0 build/default/debug/_ext/1832805299/sys_console.o
 .data          0x00000000        0x0 build/default/debug/_ext/1832805299/sys_console.o
 .bss           0x00000000        0x0 build/default/debug/_ext/1832805299/sys_console.o
 .text.SYS_CONSOLE_HandleGet
                0x00000000        0xa build/default/debug/_ext/1832805299/sys_console.o
 .text.SYS_CONSOLE_DeviceGet
                0x00000000       0x18 build/default/debug/_ext/1832805299/sys_console.o
 .text.SYS_CONSOLE_Tasks
                0x00000000       0x28 build/default/debug/_ext/1832805299/sys_console.o
 .text.SYS_CONSOLE_ReadFreeBufferCountGet
                0x00000000       0x34 build/default/debug/_ext/1832805299/sys_console.o
 .text.SYS_CONSOLE_WriteFreeBufferCountGet
                0x00000000       0x34 build/default/debug/_ext/1832805299/sys_console.o
 .text.SYS_CONSOLE_WriteCountGet
                0x00000000       0x34 build/default/debug/_ext/1832805299/sys_console.o
 .text.SYS_CONSOLE_Flush
                0x00000000       0x2c build/default/debug/_ext/1832805299/sys_console.o
 .text          0x00000000        0x0 build/default/debug/_ext/944882569/sys_debug.o
 .data          0x00000000        0x0 build/default/debug/_ext/944882569/sys_debug.o
 .bss           0x00000000        0x0 build/default/debug/_ext/944882569/sys_debug.o
 .text.SYS_DEBUG_Status
                0x00000000        0xc build/default/debug/_ext/944882569/sys_debug.o
 .text.SYS_DEBUG_ErrorLevelSet
                0x00000000        0xc build/default/debug/_ext/944882569/sys_debug.o
 .text.SYS_DEBUG_Redirect
                0x00000000       0x14 build/default/debug/_ext/944882569/sys_debug.o
 .text          0x00000000        0x0 build/default/debug/_ext/699575981/mpfs.o
 .data          0x00000000        0x0 build/default/debug/_ext/699575981/mpfs.o
 .bss           0x00000000        0x0 build/default/debug/_ext/699575981/mpfs.o
 .text          0x00000000        0x0 build/default/debug/_ext/1269487135/sys_fs.o
 .data          0x00000000        0x0 build/default/debug/_ext/1269487135/sys_fs.o
 .bss           0x00000000        0x0 build/default/debug/_ext/1269487135/sys_fs.o
 .text.SYS_FS_EventHandlerSet
                0x00000000        0x8 build/default/debug/_ext/1269487135/sys_fs.o
 .text.SYS_FS_FileError
                0x00000000       0x16 build/default/debug/_ext/1269487135/sys_fs.o
 .text.SYS_FS_DirRead
                0x00000000       0x80 build/default/debug/_ext/1269487135/sys_fs.o
 .text.SYS_FS_DirRewind
                0x00000000       0x78 build/default/debug/_ext/1269487135/sys_fs.o
 .text.SYS_FS_DirSearch
                0x00000000      0x150 build/default/debug/_ext/1269487135/sys_fs.o
 .text.SYS_FS_FileSync
                0x00000000       0x1c build/default/debug/_ext/1269487135/sys_fs.o
 .text.SYS_FS_FileTruncate
                0x00000000       0x1c build/default/debug/_ext/1269487135/sys_fs.o
 .text.SYS_FS_FileCharacterPut
                0x00000000       0x1c build/default/debug/_ext/1269487135/sys_fs.o
 .text.SYS_FS_FileStringPut
                0x00000000       0x1c build/default/debug/_ext/1269487135/sys_fs.o
 .text.SYS_FS_FilePrintf
                0x00000000       0x20 build/default/debug/_ext/1269487135/sys_fs.o
 .text.SYS_FS_FileTestError
                0x00000000       0x1c build/default/debug/_ext/1269487135/sys_fs.o
 .text.SYS_FS_FileDirectoryModeSet
                0x00000000       0x10 build/default/debug/_ext/1269487135/sys_fs.o
 .text.SYS_FS_FileDirectoryTimeSet
                0x00000000       0x10 build/default/debug/_ext/1269487135/sys_fs.o
 .text.SYS_FS_FileDirectoryRenameMove
                0x00000000       0x10 build/default/debug/_ext/1269487135/sys_fs.o
 .text.SYS_FS_CurrentDriveSet
                0x00000000       0x10 build/default/debug/_ext/1269487135/sys_fs.o
 .text.SYS_FS_DriveLabelSet
                0x00000000       0x10 build/default/debug/_ext/1269487135/sys_fs.o
 .text.SYS_FS_DriveFormat
                0x00000000       0x10 build/default/debug/_ext/1269487135/sys_fs.o
 .text.SYS_FS_DrivePartition
                0x00000000       0x10 build/default/debug/_ext/1269487135/sys_fs.o
 .text.SYS_FS_DriveSectorGet
                0x00000000       0x10 build/default/debug/_ext/1269487135/sys_fs.o
 .text.SYS_FS_FileStringGet
                0x00000000       0x1c build/default/debug/_ext/1269487135/sys_fs.o
 .text.SYS_FS_DirectoryChange
                0x00000000       0x10 build/default/debug/_ext/1269487135/sys_fs.o
 .text.SYS_FS_CurrentWorkingDirectoryGet
                0x00000000       0x10 build/default/debug/_ext/1269487135/sys_fs.o
 .text.SYS_FS_CurrentDriveGet
                0x00000000       0x4c build/default/debug/_ext/1269487135/sys_fs.o
 .text.SYS_FS_DriveLabelGet
                0x00000000       0x10 build/default/debug/_ext/1269487135/sys_fs.o
 .text          0x00000000        0x0 build/default/debug/_ext/1269487135/sys_fs_media_manager.o
 .data          0x00000000        0x0 build/default/debug/_ext/1269487135/sys_fs_media_manager.o
 .bss           0x00000000        0x0 build/default/debug/_ext/1269487135/sys_fs_media_manager.o
 .text.SYS_FS_MEDIA_MANAGER_DeRegister
                0x00000000        0xc build/default/debug/_ext/1269487135/sys_fs_media_manager.o
 .text.SYS_FS_MEDIA_MANAGER_SectorRead
                0x00000000       0x54 build/default/debug/_ext/1269487135/sys_fs_media_manager.o
 .text.SYS_FS_MEDIA_MANAGER_EventHandlerSet
                0x00000000       0x24 build/default/debug/_ext/1269487135/sys_fs_media_manager.o
 .text.SYS_FS_MEDIA_MANAGER_RegisterTransferHandler
                0x00000000        0xc build/default/debug/_ext/1269487135/sys_fs_media_manager.o
 .text.SYS_FS_MEDIA_MANAGER_GetMediaGeometry
                0x00000000       0x1c build/default/debug/_ext/1269487135/sys_fs_media_manager.o
 .bss.gNumOfFSClients
                0x00000000        0x1 build/default/debug/_ext/1269487135/sys_fs_media_manager.o
 .rodata.gPartitionTypeOffset
                0x00000000        0x8 build/default/debug/_ext/1269487135/sys_fs_media_manager.o
 .text          0x00000000        0x0 build/default/debug/_ext/1881668453/sys_int.o
 .data          0x00000000        0x0 build/default/debug/_ext/1881668453/sys_int.o
 .bss           0x00000000        0x0 build/default/debug/_ext/1881668453/sys_int.o
 .text.SYS_INT_Enable
                0x00000000        0x8 build/default/debug/_ext/1881668453/sys_int.o
 .text          0x00000000        0x0 build/default/debug/_ext/1000052432/sys_reset.o
 .data          0x00000000        0x0 build/default/debug/_ext/1000052432/sys_reset.o
 .bss           0x00000000        0x0 build/default/debug/_ext/1000052432/sys_reset.o
 .text          0x00000000        0x0 build/default/debug/_ext/101884895/sys_time.o
 .data          0x00000000        0x0 build/default/debug/_ext/101884895/sys_time.o
 .bss           0x00000000        0x0 build/default/debug/_ext/101884895/sys_time.o
 .text.SYS_TIME_Deinitialize
                0x00000000       0x30 build/default/debug/_ext/101884895/sys_time.o
 .text.SYS_TIME_Status
                0x00000000       0x14 build/default/debug/_ext/101884895/sys_time.o
 .text.SYS_TIME_CounterSet
                0x00000000       0x1c build/default/debug/_ext/101884895/sys_time.o
 .text.SYS_TIME_CountToUS
                0x00000000       0x44 build/default/debug/_ext/101884895/sys_time.o
 .text.SYS_TIME_CountToMS
                0x00000000       0x3c build/default/debug/_ext/101884895/sys_time.o
 .text.SYS_TIME_USToCount
                0x00000000       0x1c build/default/debug/_ext/101884895/sys_time.o
 .text.SYS_TIME_TimerCreate
                0x00000000       0x1c build/default/debug/_ext/101884895/sys_time.o
 .text.SYS_TIME_TimerReload
                0x00000000       0x88 build/default/debug/_ext/101884895/sys_time.o
 .text.SYS_TIME_TimerStop
                0x00000000       0x3c build/default/debug/_ext/101884895/sys_time.o
 .text.SYS_TIME_TimerCounterGet
                0x00000000       0x88 build/default/debug/_ext/101884895/sys_time.o
 .text.SYS_TIME_TimerPeriodHasExpired
                0x00000000       0x28 build/default/debug/_ext/101884895/sys_time.o
 .text.SYS_TIME_DelayUS
                0x00000000       0x50 build/default/debug/_ext/101884895/sys_time.o
 .text.SYS_TIME_DelayMS
                0x00000000       0x50 build/default/debug/_ext/101884895/sys_time.o
 .text.SYS_TIME_DelayIsComplete
                0x00000000       0x18 build/default/debug/_ext/101884895/sys_time.o
 .text          0x00000000        0x0 build/default/debug/_ext/753841488/sys_time_h2_adapter.o
 .data          0x00000000        0x0 build/default/debug/_ext/753841488/sys_time_h2_adapter.o
 .bss           0x00000000        0x0 build/default/debug/_ext/753841488/sys_time_h2_adapter.o
 .text          0x00000000        0x0 build/default/debug/_ext/753841488/sys_random_h2_adapter.o
 .data          0x00000000        0x0 build/default/debug/_ext/753841488/sys_random_h2_adapter.o
 .bss           0x00000000        0x0 build/default/debug/_ext/753841488/sys_random_h2_adapter.o
 .text.SYS_RANDOM_CryptoDeinitialize
                0x00000000       0x18 build/default/debug/_ext/753841488/sys_random_h2_adapter.o
 .text.SYS_RANDOM_CryptoByteGet
                0x00000000       0x22 build/default/debug/_ext/753841488/sys_random_h2_adapter.o
 .text          0x00000000        0x0 build/default/debug/_ext/1171490990/initialization.o
 .data          0x00000000        0x0 build/default/debug/_ext/1171490990/initialization.o
 .bss           0x00000000        0x0 build/default/debug/_ext/1171490990/initialization.o
 .bss.tcpipICMPInitData
                0x00000000        0x4 build/default/debug/_ext/1171490990/initialization.o
 .rodata.TCPIP_HOSTS_CONFIGURATION_SIZE
                0x00000000        0x4 build/default/debug/_ext/1171490990/initialization.o
 .rodata.TCPIP_STACK_MODULE_CONFIG_TBL_SIZE
                0x00000000        0x4 build/default/debug/_ext/1171490990/initialization.o
 .text          0x00000000        0x0 build/default/debug/_ext/1171490990/interrupts.o
 .data          0x00000000        0x0 build/default/debug/_ext/1171490990/interrupts.o
 .bss           0x00000000        0x0 build/default/debug/_ext/1171490990/interrupts.o
 .text          0x00000000        0x0 build/default/debug/_ext/1171490990/exceptions.o
 .data          0x00000000        0x0 build/default/debug/_ext/1171490990/exceptions.o
 .bss           0x00000000        0x0 build/default/debug/_ext/1171490990/exceptions.o
 .text          0x00000000        0x0 build/default/debug/_ext/1171490990/startup_xc32.o
 .data          0x00000000        0x0 build/default/debug/_ext/1171490990/startup_xc32.o
 .bss           0x00000000        0x0 build/default/debug/_ext/1171490990/startup_xc32.o
 .text          0x00000000        0x0 build/default/debug/_ext/1171490990/libc_syscalls.o
 .data          0x00000000        0x0 build/default/debug/_ext/1171490990/libc_syscalls.o
 .bss           0x00000000        0x0 build/default/debug/_ext/1171490990/libc_syscalls.o
 .text._exit    0x00000000        0x4 build/default/debug/_ext/1171490990/libc_syscalls.o
 .debug_info    0x00000000      0x312 build/default/debug/_ext/1171490990/libc_syscalls.o
 .debug_abbrev  0x00000000       0x4f build/default/debug/_ext/1171490990/libc_syscalls.o
 .debug_aranges
                0x00000000       0x20 build/default/debug/_ext/1171490990/libc_syscalls.o
 .debug_ranges  0x00000000       0x10 build/default/debug/_ext/1171490990/libc_syscalls.o
 .debug_line    0x00000000       0x5c build/default/debug/_ext/1171490990/libc_syscalls.o
 .debug_str     0x00000000        0x0 build/default/debug/_ext/1171490990/libc_syscalls.o
 .comment       0x00000000       0x2c build/default/debug/_ext/1171490990/libc_syscalls.o
 .debug_frame   0x00000000       0x20 build/default/debug/_ext/1171490990/libc_syscalls.o
 .ARM.attributes
                0x00000000       0x34 build/default/debug/_ext/1171490990/libc_syscalls.o
 .text          0x00000000        0x0 build/default/debug/_ext/1171490990/tasks.o
 .data          0x00000000        0x0 build/default/debug/_ext/1171490990/tasks.o
 .bss           0x00000000        0x0 build/default/debug/_ext/1171490990/tasks.o
 .text          0x00000000        0x0 build/default/debug/_ext/1171490990/freertos_hooks.o
 .data          0x00000000        0x0 build/default/debug/_ext/1171490990/freertos_hooks.o
 .bss           0x00000000        0x0 build/default/debug/_ext/1171490990/freertos_hooks.o
 .text.vApplicationIdleHook
                0x00000000        0x2 build/default/debug/_ext/1171490990/freertos_hooks.o
 .text.vApplicationTickHook
                0x00000000        0x2 build/default/debug/_ext/1171490990/freertos_hooks.o
 .text.vAssertCalled
                0x00000000       0x1c build/default/debug/_ext/1171490990/freertos_hooks.o
 .text          0x00000000        0x0 build/default/debug/_ext/246609638/port.o
 .data          0x00000000        0x0 build/default/debug/_ext/246609638/port.o
 .bss           0x00000000        0x0 build/default/debug/_ext/246609638/port.o
 .text.vPortEndScheduler
                0x00000000        0x2 build/default/debug/_ext/246609638/port.o
 .text          0x00000000        0x0 build/default/debug/_ext/1665200909/heap_1.o
 .data          0x00000000        0x0 build/default/debug/_ext/1665200909/heap_1.o
 .bss           0x00000000        0x0 build/default/debug/_ext/1665200909/heap_1.o
 .text.vPortInitialiseBlocks
                0x00000000        0xc build/default/debug/_ext/1665200909/heap_1.o
 .text.xPortGetFreeHeapSize
                0x00000000       0x10 build/default/debug/_ext/1665200909/heap_1.o
 .text          0x00000000        0x0 build/default/debug/_ext/404212886/croutine.o
 .data          0x00000000        0x0 build/default/debug/_ext/404212886/croutine.o
 .bss           0x00000000        0x0 build/default/debug/_ext/404212886/croutine.o
 .debug_info    0x00000000      0x2f7 build/default/debug/_ext/404212886/croutine.o
 .debug_abbrev  0x00000000       0x1b build/default/debug/_ext/404212886/croutine.o
 .debug_aranges
                0x00000000       0x18 build/default/debug/_ext/404212886/croutine.o
 .debug_line    0x00000000       0x1d build/default/debug/_ext/404212886/croutine.o
 .debug_str     0x00000000        0x0 build/default/debug/_ext/404212886/croutine.o
 .comment       0x00000000       0x2c build/default/debug/_ext/404212886/croutine.o
 .ARM.attributes
                0x00000000       0x39 build/default/debug/_ext/404212886/croutine.o
 .text          0x00000000        0x0 build/default/debug/_ext/404212886/list.o
 .data          0x00000000        0x0 build/default/debug/_ext/404212886/list.o
 .bss           0x00000000        0x0 build/default/debug/_ext/404212886/list.o
 .text          0x00000000        0x0 build/default/debug/_ext/404212886/queue.o
 .data          0x00000000        0x0 build/default/debug/_ext/404212886/queue.o
 .bss           0x00000000        0x0 build/default/debug/_ext/404212886/queue.o
 .text.prvCopyDataFromQueue
                0x00000000       0x24 build/default/debug/_ext/404212886/queue.o
 .text.xQueueGenericSendFromISR
                0x00000000       0x70 build/default/debug/_ext/404212886/queue.o
 .text.xQueueReceive
                0x00000000      0x110 build/default/debug/_ext/404212886/queue.o
 .text.xQueuePeek
                0x00000000      0x10c build/default/debug/_ext/404212886/queue.o
 .text.xQueueReceiveFromISR
                0x00000000       0x72 build/default/debug/_ext/404212886/queue.o
 .text.xQueuePeekFromISR
                0x00000000       0x30 build/default/debug/_ext/404212886/queue.o
 .text.uxQueueMessagesWaiting
                0x00000000       0x12 build/default/debug/_ext/404212886/queue.o
 .text.uxQueueSpacesAvailable
                0x00000000       0x16 build/default/debug/_ext/404212886/queue.o
 .text.uxQueueMessagesWaitingFromISR
                0x00000000        0x4 build/default/debug/_ext/404212886/queue.o
 .text.xQueueIsQueueEmptyFromISR
                0x00000000        0xa build/default/debug/_ext/404212886/queue.o
 .text.xQueueIsQueueFullFromISR
                0x00000000        0xe build/default/debug/_ext/404212886/queue.o
 .text          0x00000000        0x0 build/default/debug/_ext/404212886/FreeRTOS_tasks.o
 .data          0x00000000        0x0 build/default/debug/_ext/404212886/FreeRTOS_tasks.o
 .bss           0x00000000        0x0 build/default/debug/_ext/404212886/FreeRTOS_tasks.o
 .text.vTaskDelete
                0x00000000       0xcc build/default/debug/_ext/404212886/FreeRTOS_tasks.o
 .text.uxTaskPriorityGet
                0x00000000       0x20 build/default/debug/_ext/404212886/FreeRTOS_tasks.o
 .text.uxTaskPriorityGetFromISR
                0x00000000       0x28 build/default/debug/_ext/404212886/FreeRTOS_tasks.o
 .text.vTaskPrioritySet
                0x00000000       0xd0 build/default/debug/_ext/404212886/FreeRTOS_tasks.o
 .text.vTaskResume
                0x00000000       0x88 build/default/debug/_ext/404212886/FreeRTOS_tasks.o
 .text.vTaskEndScheduler
                0x00000000       0x24 build/default/debug/_ext/404212886/FreeRTOS_tasks.o
 .text.xTaskGetTickCount
                0x00000000        0xc build/default/debug/_ext/404212886/FreeRTOS_tasks.o
 .text.xTaskGetTickCountFromISR
                0x00000000        0xc build/default/debug/_ext/404212886/FreeRTOS_tasks.o
 .text.uxTaskGetNumberOfTasks
                0x00000000        0xc build/default/debug/_ext/404212886/FreeRTOS_tasks.o
 .text.pcTaskGetName
                0x00000000       0x14 build/default/debug/_ext/404212886/FreeRTOS_tasks.o
 .text.vTaskDelayUntil
                0x00000000       0x60 build/default/debug/_ext/404212886/FreeRTOS_tasks.o
 .text.xTaskCatchUpTicks
                0x00000000       0x1c build/default/debug/_ext/404212886/FreeRTOS_tasks.o
 .text.vTaskSuspend
                0x00000000       0xcc build/default/debug/_ext/404212886/FreeRTOS_tasks.o
 .text.vTaskPlaceOnUnorderedEventList
                0x00000000       0x24 build/default/debug/_ext/404212886/FreeRTOS_tasks.o
 .text.vTaskRemoveFromUnorderedEventList
                0x00000000       0x58 build/default/debug/_ext/404212886/FreeRTOS_tasks.o
 .text.vTaskSetTimeOutState
                0x00000000       0x24 build/default/debug/_ext/404212886/FreeRTOS_tasks.o
 .text.xTaskGetCurrentTaskHandle
                0x00000000        0xc build/default/debug/_ext/404212886/FreeRTOS_tasks.o
 .text.uxTaskResetEventItemValue
                0x00000000       0x18 build/default/debug/_ext/404212886/FreeRTOS_tasks.o
 .text.ulTaskNotifyTake
                0x00000000       0x78 build/default/debug/_ext/404212886/FreeRTOS_tasks.o
 .text.xTaskNotifyWait
                0x00000000       0x98 build/default/debug/_ext/404212886/FreeRTOS_tasks.o
 .text.xTaskGenericNotify
                0x00000000       0xb4 build/default/debug/_ext/404212886/FreeRTOS_tasks.o
 .text.xTaskGenericNotifyFromISR
                0x00000000       0xd4 build/default/debug/_ext/404212886/FreeRTOS_tasks.o
 .text.vTaskNotifyGiveFromISR
                0x00000000       0xa0 build/default/debug/_ext/404212886/FreeRTOS_tasks.o
 .text.xTaskNotifyStateClear
                0x00000000       0x30 build/default/debug/_ext/404212886/FreeRTOS_tasks.o
 .text.ulTaskNotifyValueClear
                0x00000000       0x2c build/default/debug/_ext/404212886/FreeRTOS_tasks.o
 .text          0x00000000        0x0 build/default/debug/_ext/404212886/timers.o
 .data          0x00000000        0x0 build/default/debug/_ext/404212886/timers.o
 .bss           0x00000000        0x0 build/default/debug/_ext/404212886/timers.o
 .debug_info    0x00000000      0x2f5 build/default/debug/_ext/404212886/timers.o
 .debug_abbrev  0x00000000       0x1b build/default/debug/_ext/404212886/timers.o
 .debug_aranges
                0x00000000       0x18 build/default/debug/_ext/404212886/timers.o
 .debug_line    0x00000000       0x1d build/default/debug/_ext/404212886/timers.o
 .debug_str     0x00000000        0x0 build/default/debug/_ext/404212886/timers.o
 .comment       0x00000000       0x2c build/default/debug/_ext/404212886/timers.o
 .ARM.attributes
                0x00000000       0x39 build/default/debug/_ext/404212886/timers.o
 .text          0x00000000        0x0 build/default/debug/_ext/404212886/event_groups.o
 .data          0x00000000        0x0 build/default/debug/_ext/404212886/event_groups.o
 .bss           0x00000000        0x0 build/default/debug/_ext/404212886/event_groups.o
 .text.xEventGroupCreate
                0x00000000       0x1a build/default/debug/_ext/404212886/event_groups.o
 .text.xEventGroupWaitBits
                0x00000000       0xc0 build/default/debug/_ext/404212886/event_groups.o
 .text.xEventGroupClearBits
                0x00000000       0x1a build/default/debug/_ext/404212886/event_groups.o
 .text.xEventGroupGetBitsFromISR
                0x00000000       0x1c build/default/debug/_ext/404212886/event_groups.o
 .text.xEventGroupSetBits
                0x00000000       0x66 build/default/debug/_ext/404212886/event_groups.o
 .text.xEventGroupSync
                0x00000000       0x90 build/default/debug/_ext/404212886/event_groups.o
 .text.vEventGroupDelete
                0x00000000       0x2a build/default/debug/_ext/404212886/event_groups.o
 .text.vEventGroupSetBitsCallback
                0x00000000        0x8 build/default/debug/_ext/404212886/event_groups.o
 .text.vEventGroupClearBitsCallback
                0x00000000        0x8 build/default/debug/_ext/404212886/event_groups.o
 .debug_info    0x00000000      0xf7a build/default/debug/_ext/404212886/event_groups.o
 .debug_abbrev  0x00000000      0x2ef build/default/debug/_ext/404212886/event_groups.o
 .debug_loc     0x00000000      0xac5 build/default/debug/_ext/404212886/event_groups.o
 .debug_aranges
                0x00000000       0x60 build/default/debug/_ext/404212886/event_groups.o
 .debug_ranges  0x00000000       0x98 build/default/debug/_ext/404212886/event_groups.o
 .debug_line    0x00000000      0x5b7 build/default/debug/_ext/404212886/event_groups.o
 .debug_str     0x00000000      0x1ac build/default/debug/_ext/404212886/event_groups.o
 .comment       0x00000000       0x2c build/default/debug/_ext/404212886/event_groups.o
 .debug_frame   0x00000000      0x100 build/default/debug/_ext/404212886/event_groups.o
 .ARM.attributes
                0x00000000       0x34 build/default/debug/_ext/404212886/event_groups.o
 .text          0x00000000        0x0 build/default/debug/_ext/404212886/stream_buffer.o
 .data          0x00000000        0x0 build/default/debug/_ext/404212886/stream_buffer.o
 .bss           0x00000000        0x0 build/default/debug/_ext/404212886/stream_buffer.o
 .text.prvBytesInBuffer
                0x00000000       0x12 build/default/debug/_ext/404212886/stream_buffer.o
 .text.prvWriteBytesToBuffer
                0x00000000       0x44 build/default/debug/_ext/404212886/stream_buffer.o
 .text.prvReadBytesFromBuffer
                0x00000000       0x50 build/default/debug/_ext/404212886/stream_buffer.o
 .text.xStreamBufferGenericCreate
                0x00000000       0x38 build/default/debug/_ext/404212886/stream_buffer.o
 .text.vStreamBufferDelete
                0x00000000       0x1a build/default/debug/_ext/404212886/stream_buffer.o
 .text.xStreamBufferReset
                0x00000000       0x44 build/default/debug/_ext/404212886/stream_buffer.o
 .text.xStreamBufferSetTriggerLevel
                0x00000000       0x14 build/default/debug/_ext/404212886/stream_buffer.o
 .text.xStreamBufferSpacesAvailable
                0x00000000       0x14 build/default/debug/_ext/404212886/stream_buffer.o
 .text.xStreamBufferBytesAvailable
                0x00000000        0x8 build/default/debug/_ext/404212886/stream_buffer.o
 .text.xStreamBufferSend
                0x00000000       0xde build/default/debug/_ext/404212886/stream_buffer.o
 .text.xStreamBufferSendFromISR
                0x00000000       0x98 build/default/debug/_ext/404212886/stream_buffer.o
 .text.xStreamBufferReceive
                0x00000000       0xbe build/default/debug/_ext/404212886/stream_buffer.o
 .text.xStreamBufferNextMessageLengthBytes
                0x00000000       0x36 build/default/debug/_ext/404212886/stream_buffer.o
 .text.xStreamBufferReceiveFromISR
                0x00000000       0x98 build/default/debug/_ext/404212886/stream_buffer.o
 .text.xStreamBufferIsEmpty
                0x00000000        0xe build/default/debug/_ext/404212886/stream_buffer.o
 .text.xStreamBufferIsFull
                0x00000000       0x18 build/default/debug/_ext/404212886/stream_buffer.o
 .text.xStreamBufferSendCompletedFromISR
                0x00000000       0x3e build/default/debug/_ext/404212886/stream_buffer.o
 .text.xStreamBufferReceiveCompletedFromISR
                0x00000000       0x3e build/default/debug/_ext/404212886/stream_buffer.o
 .debug_info    0x00000000     0x1d7b build/default/debug/_ext/404212886/stream_buffer.o
 .debug_abbrev  0x00000000      0x39f build/default/debug/_ext/404212886/stream_buffer.o
 .debug_loc     0x00000000     0x1b36 build/default/debug/_ext/404212886/stream_buffer.o
 .debug_aranges
                0x00000000       0xa8 build/default/debug/_ext/404212886/stream_buffer.o
 .debug_ranges  0x00000000      0x128 build/default/debug/_ext/404212886/stream_buffer.o
 .debug_line    0x00000000      0xb24 build/default/debug/_ext/404212886/stream_buffer.o
 .debug_str     0x00000000      0x234 build/default/debug/_ext/404212886/stream_buffer.o
 .comment       0x00000000       0x2c build/default/debug/_ext/404212886/stream_buffer.o
 .debug_frame   0x00000000      0x230 build/default/debug/_ext/404212886/stream_buffer.o
 .ARM.attributes
                0x00000000       0x34 build/default/debug/_ext/404212886/stream_buffer.o
 .text          0x00000000        0x0 build/default/debug/_ext/172253694/pic32mz-crypt.o
 .data          0x00000000        0x0 build/default/debug/_ext/172253694/pic32mz-crypt.o
 .bss           0x00000000        0x0 build/default/debug/_ext/172253694/pic32mz-crypt.o
 .debug_info    0x00000000      0x310 build/default/debug/_ext/172253694/pic32mz-crypt.o
 .debug_abbrev  0x00000000       0x1b build/default/debug/_ext/172253694/pic32mz-crypt.o
 .debug_aranges
                0x00000000       0x18 build/default/debug/_ext/172253694/pic32mz-crypt.o
 .debug_line    0x00000000       0x1d build/default/debug/_ext/172253694/pic32mz-crypt.o
 .debug_str     0x00000000        0x0 build/default/debug/_ext/172253694/pic32mz-crypt.o
 .comment       0x00000000       0x2c build/default/debug/_ext/172253694/pic32mz-crypt.o
 .ARM.attributes
                0x00000000       0x39 build/default/debug/_ext/172253694/pic32mz-crypt.o
 .text          0x00000000        0x0 build/default/debug/_ext/172253694/crypt_aes_sam6149.o
 .data          0x00000000        0x0 build/default/debug/_ext/172253694/crypt_aes_sam6149.o
 .bss           0x00000000        0x0 build/default/debug/_ext/172253694/crypt_aes_sam6149.o
 .debug_info    0x00000000      0x314 build/default/debug/_ext/172253694/crypt_aes_sam6149.o
 .debug_abbrev  0x00000000       0x1b build/default/debug/_ext/172253694/crypt_aes_sam6149.o
 .debug_aranges
                0x00000000       0x18 build/default/debug/_ext/172253694/crypt_aes_sam6149.o
 .debug_line    0x00000000       0x1d build/default/debug/_ext/172253694/crypt_aes_sam6149.o
 .debug_str     0x00000000        0x0 build/default/debug/_ext/172253694/crypt_aes_sam6149.o
 .comment       0x00000000       0x2c build/default/debug/_ext/172253694/crypt_aes_sam6149.o
 .ARM.attributes
                0x00000000       0x39 build/default/debug/_ext/172253694/crypt_aes_sam6149.o
 .text          0x00000000        0x0 build/default/debug/_ext/172253694/crypt_aes_u2238.o
 .data          0x00000000        0x0 build/default/debug/_ext/172253694/crypt_aes_u2238.o
 .bss           0x00000000        0x0 build/default/debug/_ext/172253694/crypt_aes_u2238.o
 .debug_info    0x00000000      0x312 build/default/debug/_ext/172253694/crypt_aes_u2238.o
 .debug_abbrev  0x00000000       0x1b build/default/debug/_ext/172253694/crypt_aes_u2238.o
 .debug_aranges
                0x00000000       0x18 build/default/debug/_ext/172253694/crypt_aes_u2238.o
 .debug_line    0x00000000       0x1d build/default/debug/_ext/172253694/crypt_aes_u2238.o
 .debug_str     0x00000000        0x0 build/default/debug/_ext/172253694/crypt_aes_u2238.o
 .comment       0x00000000       0x2c build/default/debug/_ext/172253694/crypt_aes_u2238.o
 .ARM.attributes
                0x00000000       0x39 build/default/debug/_ext/172253694/crypt_aes_u2238.o
 .text          0x00000000        0x0 build/default/debug/_ext/172253694/crypt_ecc_ba414e.o
 .data          0x00000000        0x0 build/default/debug/_ext/172253694/crypt_ecc_ba414e.o
 .bss           0x00000000        0x0 build/default/debug/_ext/172253694/crypt_ecc_ba414e.o
 .debug_info    0x00000000      0x304 build/default/debug/_ext/172253694/crypt_ecc_ba414e.o
 .debug_abbrev  0x00000000       0x1b build/default/debug/_ext/172253694/crypt_ecc_ba414e.o
 .debug_aranges
                0x00000000       0x18 build/default/debug/_ext/172253694/crypt_ecc_ba414e.o
 .debug_line    0x00000000       0x1d build/default/debug/_ext/172253694/crypt_ecc_ba414e.o
 .debug_str     0x00000000        0x0 build/default/debug/_ext/172253694/crypt_ecc_ba414e.o
 .comment       0x00000000       0x2c build/default/debug/_ext/172253694/crypt_ecc_ba414e.o
 .ARM.attributes
                0x00000000       0x39 build/default/debug/_ext/172253694/crypt_ecc_ba414e.o
 .text          0x00000000        0x0 build/default/debug/_ext/172253694/crypt_ecc_pukcl.o
 .data          0x00000000        0x0 build/default/debug/_ext/172253694/crypt_ecc_pukcl.o
 .bss           0x00000000        0x0 build/default/debug/_ext/172253694/crypt_ecc_pukcl.o
 .debug_info    0x00000000      0x303 build/default/debug/_ext/172253694/crypt_ecc_pukcl.o
 .debug_abbrev  0x00000000       0x1b build/default/debug/_ext/172253694/crypt_ecc_pukcl.o
 .debug_aranges
                0x00000000       0x18 build/default/debug/_ext/172253694/crypt_ecc_pukcl.o
 .debug_line    0x00000000       0x1d build/default/debug/_ext/172253694/crypt_ecc_pukcl.o
 .debug_str     0x00000000        0x0 build/default/debug/_ext/172253694/crypt_ecc_pukcl.o
 .comment       0x00000000       0x2c build/default/debug/_ext/172253694/crypt_ecc_pukcl.o
 .ARM.attributes
                0x00000000       0x39 build/default/debug/_ext/172253694/crypt_ecc_pukcl.o
 .text          0x00000000        0x0 build/default/debug/_ext/172253694/crypt_pukcl_functions.o
 .data          0x00000000        0x0 build/default/debug/_ext/172253694/crypt_pukcl_functions.o
 .bss           0x00000000        0x0 build/default/debug/_ext/172253694/crypt_pukcl_functions.o
 .text.crypt_pukcl_SelfTest
                0x00000000       0x88 build/default/debug/_ext/172253694/crypt_pukcl_functions.o
 .text.SecureCopy
                0x00000000       0x4e build/default/debug/_ext/172253694/crypt_pukcl_functions.o
 .bss.PUKCLParam
                0x00000000       0x30 build/default/debug/_ext/172253694/crypt_pukcl_functions.o
 .bss.SelfTestState
                0x00000000        0x1 build/default/debug/_ext/172253694/crypt_pukcl_functions.o
 .bss.pvPUKCLParam
                0x00000000        0x4 build/default/debug/_ext/172253694/crypt_pukcl_functions.o
 .debug_info    0x00000000     0x2957 build/default/debug/_ext/172253694/crypt_pukcl_functions.o
 .debug_abbrev  0x00000000      0x1a0 build/default/debug/_ext/172253694/crypt_pukcl_functions.o
 .debug_loc     0x00000000      0x223 build/default/debug/_ext/172253694/crypt_pukcl_functions.o
 .debug_aranges
                0x00000000       0x28 build/default/debug/_ext/172253694/crypt_pukcl_functions.o
 .debug_ranges  0x00000000       0x18 build/default/debug/_ext/172253694/crypt_pukcl_functions.o
 .debug_line    0x00000000      0x534 build/default/debug/_ext/172253694/crypt_pukcl_functions.o
 .debug_str     0x00000000      0x1fe build/default/debug/_ext/172253694/crypt_pukcl_functions.o
 .comment       0x00000000       0x2c build/default/debug/_ext/172253694/crypt_pukcl_functions.o
 .debug_frame   0x00000000       0x4c build/default/debug/_ext/172253694/crypt_pukcl_functions.o
 .ARM.attributes
                0x00000000       0x34 build/default/debug/_ext/172253694/crypt_pukcl_functions.o
 .text          0x00000000        0x0 build/default/debug/_ext/172253694/crypt_rng_sam6334.o
 .data          0x00000000        0x0 build/default/debug/_ext/172253694/crypt_rng_sam6334.o
 .bss           0x00000000        0x0 build/default/debug/_ext/172253694/crypt_rng_sam6334.o
 .debug_info    0x00000000      0x314 build/default/debug/_ext/172253694/crypt_rng_sam6334.o
 .debug_abbrev  0x00000000       0x1b build/default/debug/_ext/172253694/crypt_rng_sam6334.o
 .debug_aranges
                0x00000000       0x18 build/default/debug/_ext/172253694/crypt_rng_sam6334.o
 .debug_line    0x00000000       0x1d build/default/debug/_ext/172253694/crypt_rng_sam6334.o
 .debug_str     0x00000000        0x0 build/default/debug/_ext/172253694/crypt_rng_sam6334.o
 .comment       0x00000000       0x2c build/default/debug/_ext/172253694/crypt_rng_sam6334.o
 .ARM.attributes
                0x00000000       0x39 build/default/debug/_ext/172253694/crypt_rng_sam6334.o
 .text          0x00000000        0x0 build/default/debug/_ext/172253694/crypt_rng_u2242.o
 .data          0x00000000        0x0 build/default/debug/_ext/172253694/crypt_rng_u2242.o
 .bss           0x00000000        0x0 build/default/debug/_ext/172253694/crypt_rng_u2242.o
 .debug_info    0x00000000      0x312 build/default/debug/_ext/172253694/crypt_rng_u2242.o
 .debug_abbrev  0x00000000       0x1b build/default/debug/_ext/172253694/crypt_rng_u2242.o
 .debug_aranges
                0x00000000       0x18 build/default/debug/_ext/172253694/crypt_rng_u2242.o
 .debug_line    0x00000000       0x1d build/default/debug/_ext/172253694/crypt_rng_u2242.o
 .debug_str     0x00000000        0x0 build/default/debug/_ext/172253694/crypt_rng_u2242.o
 .comment       0x00000000       0x2c build/default/debug/_ext/172253694/crypt_rng_u2242.o
 .ARM.attributes
                0x00000000       0x39 build/default/debug/_ext/172253694/crypt_rng_u2242.o
 .text          0x00000000        0x0 build/default/debug/_ext/172253694/crypt_rsa_pukcl.o
 .data          0x00000000        0x0 build/default/debug/_ext/172253694/crypt_rsa_pukcl.o
 .bss           0x00000000        0x0 build/default/debug/_ext/172253694/crypt_rsa_pukcl.o
 .debug_info    0x00000000      0x303 build/default/debug/_ext/172253694/crypt_rsa_pukcl.o
 .debug_abbrev  0x00000000       0x1b build/default/debug/_ext/172253694/crypt_rsa_pukcl.o
 .debug_aranges
                0x00000000       0x18 build/default/debug/_ext/172253694/crypt_rsa_pukcl.o
 .debug_line    0x00000000       0x1d build/default/debug/_ext/172253694/crypt_rsa_pukcl.o
 .debug_str     0x00000000        0x0 build/default/debug/_ext/172253694/crypt_rsa_pukcl.o
 .comment       0x00000000       0x2c build/default/debug/_ext/172253694/crypt_rsa_pukcl.o
 .ARM.attributes
                0x00000000       0x39 build/default/debug/_ext/172253694/crypt_rsa_pukcl.o
 .text          0x00000000        0x0 build/default/debug/_ext/172253694/crypt_sam_u2803.o
 .data          0x00000000        0x0 build/default/debug/_ext/172253694/crypt_sam_u2803.o
 .bss           0x00000000        0x0 build/default/debug/_ext/172253694/crypt_sam_u2803.o
 .debug_info    0x00000000      0x303 build/default/debug/_ext/172253694/crypt_sam_u2803.o
 .debug_abbrev  0x00000000       0x1b build/default/debug/_ext/172253694/crypt_sam_u2803.o
 .debug_aranges
                0x00000000       0x18 build/default/debug/_ext/172253694/crypt_sam_u2803.o
 .debug_line    0x00000000       0x1d build/default/debug/_ext/172253694/crypt_sam_u2803.o
 .debug_str     0x00000000        0x0 build/default/debug/_ext/172253694/crypt_sam_u2803.o
 .comment       0x00000000       0x2c build/default/debug/_ext/172253694/crypt_sam_u2803.o
 .ARM.attributes
                0x00000000       0x39 build/default/debug/_ext/172253694/crypt_sam_u2803.o
 .text          0x00000000        0x0 build/default/debug/_ext/172253694/crypt_sha1_sam11105.o
 .data          0x00000000        0x0 build/default/debug/_ext/172253694/crypt_sha1_sam11105.o
 .bss           0x00000000        0x0 build/default/debug/_ext/172253694/crypt_sha1_sam11105.o
 .debug_info    0x00000000      0x316 build/default/debug/_ext/172253694/crypt_sha1_sam11105.o
 .debug_abbrev  0x00000000       0x1b build/default/debug/_ext/172253694/crypt_sha1_sam11105.o
 .debug_aranges
                0x00000000       0x18 build/default/debug/_ext/172253694/crypt_sha1_sam11105.o
 .debug_line    0x00000000       0x1d build/default/debug/_ext/172253694/crypt_sha1_sam11105.o
 .debug_str     0x00000000        0x0 build/default/debug/_ext/172253694/crypt_sha1_sam11105.o
 .comment       0x00000000       0x2c build/default/debug/_ext/172253694/crypt_sha1_sam11105.o
 .ARM.attributes
                0x00000000       0x39 build/default/debug/_ext/172253694/crypt_sha1_sam11105.o
 .text          0x00000000        0x0 build/default/debug/_ext/172253694/crypt_sha1_sam6156.o
 .data          0x00000000        0x0 build/default/debug/_ext/172253694/crypt_sha1_sam6156.o
 .bss           0x00000000        0x0 build/default/debug/_ext/172253694/crypt_sha1_sam6156.o
 .debug_info    0x00000000      0x315 build/default/debug/_ext/172253694/crypt_sha1_sam6156.o
 .debug_abbrev  0x00000000       0x1b build/default/debug/_ext/172253694/crypt_sha1_sam6156.o
 .debug_aranges
                0x00000000       0x18 build/default/debug/_ext/172253694/crypt_sha1_sam6156.o
 .debug_line    0x00000000       0x1d build/default/debug/_ext/172253694/crypt_sha1_sam6156.o
 .debug_str     0x00000000        0x0 build/default/debug/_ext/172253694/crypt_sha1_sam6156.o
 .comment       0x00000000       0x2c build/default/debug/_ext/172253694/crypt_sha1_sam6156.o
 .ARM.attributes
                0x00000000       0x39 build/default/debug/_ext/172253694/crypt_sha1_sam6156.o
 .text          0x00000000        0x0 build/default/debug/_ext/172253694/crypt_sha224_sam11105.o
 .data          0x00000000        0x0 build/default/debug/_ext/172253694/crypt_sha224_sam11105.o
 .bss           0x00000000        0x0 build/default/debug/_ext/172253694/crypt_sha224_sam11105.o
 .debug_info    0x00000000      0x318 build/default/debug/_ext/172253694/crypt_sha224_sam11105.o
 .debug_abbrev  0x00000000       0x1b build/default/debug/_ext/172253694/crypt_sha224_sam11105.o
 .debug_aranges
                0x00000000       0x18 build/default/debug/_ext/172253694/crypt_sha224_sam11105.o
 .debug_line    0x00000000       0x1d build/default/debug/_ext/172253694/crypt_sha224_sam11105.o
 .debug_str     0x00000000        0x0 build/default/debug/_ext/172253694/crypt_sha224_sam11105.o
 .comment       0x00000000       0x2c build/default/debug/_ext/172253694/crypt_sha224_sam11105.o
 .ARM.attributes
                0x00000000       0x39 build/default/debug/_ext/172253694/crypt_sha224_sam11105.o
 .text          0x00000000        0x0 build/default/debug/_ext/172253694/crypt_sha224_sam6156.o
 .data          0x00000000        0x0 build/default/debug/_ext/172253694/crypt_sha224_sam6156.o
 .bss           0x00000000        0x0 build/default/debug/_ext/172253694/crypt_sha224_sam6156.o
 .debug_info    0x00000000      0x317 build/default/debug/_ext/172253694/crypt_sha224_sam6156.o
 .debug_abbrev  0x00000000       0x1b build/default/debug/_ext/172253694/crypt_sha224_sam6156.o
 .debug_aranges
                0x00000000       0x18 build/default/debug/_ext/172253694/crypt_sha224_sam6156.o
 .debug_line    0x00000000       0x1d build/default/debug/_ext/172253694/crypt_sha224_sam6156.o
 .debug_str     0x00000000        0x0 build/default/debug/_ext/172253694/crypt_sha224_sam6156.o
 .comment       0x00000000       0x2c build/default/debug/_ext/172253694/crypt_sha224_sam6156.o
 .ARM.attributes
                0x00000000       0x39 build/default/debug/_ext/172253694/crypt_sha224_sam6156.o
 .text          0x00000000        0x0 build/default/debug/_ext/172253694/crypt_sha256_sam11105.o
 .data          0x00000000        0x0 build/default/debug/_ext/172253694/crypt_sha256_sam11105.o
 .bss           0x00000000        0x0 build/default/debug/_ext/172253694/crypt_sha256_sam11105.o
 .debug_info    0x00000000      0x318 build/default/debug/_ext/172253694/crypt_sha256_sam11105.o
 .debug_abbrev  0x00000000       0x1b build/default/debug/_ext/172253694/crypt_sha256_sam11105.o
 .debug_aranges
                0x00000000       0x18 build/default/debug/_ext/172253694/crypt_sha256_sam11105.o
 .debug_line    0x00000000       0x1d build/default/debug/_ext/172253694/crypt_sha256_sam11105.o
 .debug_str     0x00000000        0x0 build/default/debug/_ext/172253694/crypt_sha256_sam11105.o
 .comment       0x00000000       0x2c build/default/debug/_ext/172253694/crypt_sha256_sam11105.o
 .ARM.attributes
                0x00000000       0x39 build/default/debug/_ext/172253694/crypt_sha256_sam11105.o
 .text          0x00000000        0x0 build/default/debug/_ext/172253694/crypt_sha256_sam6156.o
 .data          0x00000000        0x0 build/default/debug/_ext/172253694/crypt_sha256_sam6156.o
 .bss           0x00000000        0x0 build/default/debug/_ext/172253694/crypt_sha256_sam6156.o
 .debug_info    0x00000000      0x317 build/default/debug/_ext/172253694/crypt_sha256_sam6156.o
 .debug_abbrev  0x00000000       0x1b build/default/debug/_ext/172253694/crypt_sha256_sam6156.o
 .debug_aranges
                0x00000000       0x18 build/default/debug/_ext/172253694/crypt_sha256_sam6156.o
 .debug_line    0x00000000       0x1d build/default/debug/_ext/172253694/crypt_sha256_sam6156.o
 .debug_str     0x00000000        0x0 build/default/debug/_ext/172253694/crypt_sha256_sam6156.o
 .comment       0x00000000       0x2c build/default/debug/_ext/172253694/crypt_sha256_sam6156.o
 .ARM.attributes
                0x00000000       0x39 build/default/debug/_ext/172253694/crypt_sha256_sam6156.o
 .text          0x00000000        0x0 build/default/debug/_ext/172253694/crypt_sha384_sam6156.o
 .data          0x00000000        0x0 build/default/debug/_ext/172253694/crypt_sha384_sam6156.o
 .bss           0x00000000        0x0 build/default/debug/_ext/172253694/crypt_sha384_sam6156.o
 .debug_info    0x00000000      0x317 build/default/debug/_ext/172253694/crypt_sha384_sam6156.o
 .debug_abbrev  0x00000000       0x1b build/default/debug/_ext/172253694/crypt_sha384_sam6156.o
 .debug_aranges
                0x00000000       0x18 build/default/debug/_ext/172253694/crypt_sha384_sam6156.o
 .debug_line    0x00000000       0x1d build/default/debug/_ext/172253694/crypt_sha384_sam6156.o
 .debug_str     0x00000000        0x0 build/default/debug/_ext/172253694/crypt_sha384_sam6156.o
 .comment       0x00000000       0x2c build/default/debug/_ext/172253694/crypt_sha384_sam6156.o
 .ARM.attributes
                0x00000000       0x39 build/default/debug/_ext/172253694/crypt_sha384_sam6156.o
 .text          0x00000000        0x0 build/default/debug/_ext/172253694/crypt_sha512_sam6156.o
 .data          0x00000000        0x0 build/default/debug/_ext/172253694/crypt_sha512_sam6156.o
 .bss           0x00000000        0x0 build/default/debug/_ext/172253694/crypt_sha512_sam6156.o
 .debug_info    0x00000000      0x317 build/default/debug/_ext/172253694/crypt_sha512_sam6156.o
 .debug_abbrev  0x00000000       0x1b build/default/debug/_ext/172253694/crypt_sha512_sam6156.o
 .debug_aranges
                0x00000000       0x18 build/default/debug/_ext/172253694/crypt_sha512_sam6156.o
 .debug_line    0x00000000       0x1d build/default/debug/_ext/172253694/crypt_sha512_sam6156.o
 .debug_str     0x00000000        0x0 build/default/debug/_ext/172253694/crypt_sha512_sam6156.o
 .comment       0x00000000       0x2c build/default/debug/_ext/172253694/crypt_sha512_sam6156.o
 .ARM.attributes
                0x00000000       0x39 build/default/debug/_ext/172253694/crypt_sha512_sam6156.o
 .text          0x00000000        0x0 build/default/debug/_ext/172253694/crypt_tdes_sam6150.o
 .data          0x00000000        0x0 build/default/debug/_ext/172253694/crypt_tdes_sam6150.o
 .bss           0x00000000        0x0 build/default/debug/_ext/172253694/crypt_tdes_sam6150.o
 .debug_info    0x00000000      0x306 build/default/debug/_ext/172253694/crypt_tdes_sam6150.o
 .debug_abbrev  0x00000000       0x1b build/default/debug/_ext/172253694/crypt_tdes_sam6150.o
 .debug_aranges
                0x00000000       0x18 build/default/debug/_ext/172253694/crypt_tdes_sam6150.o
 .debug_line    0x00000000       0x1d build/default/debug/_ext/172253694/crypt_tdes_sam6150.o
 .debug_str     0x00000000        0x0 build/default/debug/_ext/172253694/crypt_tdes_sam6150.o
 .comment       0x00000000       0x2c build/default/debug/_ext/172253694/crypt_tdes_sam6150.o
 .ARM.attributes
                0x00000000       0x39 build/default/debug/_ext/172253694/crypt_tdes_sam6150.o
 .text          0x00000000        0x0 build/default/debug/_ext/172253694/crypt_wolfcryptcb.o
 .data          0x00000000        0x0 build/default/debug/_ext/172253694/crypt_wolfcryptcb.o
 .bss           0x00000000        0x0 build/default/debug/_ext/172253694/crypt_wolfcryptcb.o
 .text          0x00000000        0x0 build/default/debug/_ext/1664057780/arc4.o
 .data          0x00000000        0x0 build/default/debug/_ext/1664057780/arc4.o
 .bss           0x00000000        0x0 build/default/debug/_ext/1664057780/arc4.o
 .debug_info    0x00000000      0x2fc build/default/debug/_ext/1664057780/arc4.o
 .debug_abbrev  0x00000000       0x1b build/default/debug/_ext/1664057780/arc4.o
 .debug_aranges
                0x00000000       0x18 build/default/debug/_ext/1664057780/arc4.o
 .debug_line    0x00000000       0x1d build/default/debug/_ext/1664057780/arc4.o
 .debug_str     0x00000000        0x0 build/default/debug/_ext/1664057780/arc4.o
 .comment       0x00000000       0x2c build/default/debug/_ext/1664057780/arc4.o
 .ARM.attributes
                0x00000000       0x39 build/default/debug/_ext/1664057780/arc4.o
 .text          0x00000000        0x0 build/default/debug/_ext/1664057780/asm.o
 .data          0x00000000        0x0 build/default/debug/_ext/1664057780/asm.o
 .bss           0x00000000        0x0 build/default/debug/_ext/1664057780/asm.o
 .debug_info    0x00000000      0x2fb build/default/debug/_ext/1664057780/asm.o
 .debug_abbrev  0x00000000       0x1b build/default/debug/_ext/1664057780/asm.o
 .debug_aranges
                0x00000000       0x18 build/default/debug/_ext/1664057780/asm.o
 .debug_line    0x00000000       0x1d build/default/debug/_ext/1664057780/asm.o
 .debug_str     0x00000000        0x0 build/default/debug/_ext/1664057780/asm.o
 .comment       0x00000000       0x2c build/default/debug/_ext/1664057780/asm.o
 .ARM.attributes
                0x00000000       0x39 build/default/debug/_ext/1664057780/asm.o
 .text          0x00000000        0x0 build/default/debug/_ext/1664057780/asn.o
 .data          0x00000000        0x0 build/default/debug/_ext/1664057780/asn.o
 .bss           0x00000000        0x0 build/default/debug/_ext/1664057780/asn.o
 .text.GetBoolean
                0x00000000       0x3a build/default/debug/_ext/1664057780/asn.o
 .text.trim_leading_zeros
                0x00000000       0x42 build/default/debug/_ext/1664057780/asn.o
 .text.CheckCurve
                0x00000000       0x28 build/default/debug/_ext/1664057780/asn.o
 .text.MatchBaseName
                0x00000000       0xf4 build/default/debug/_ext/1664057780/asn.o
 .text.OurPasswordCb
                0x00000000       0x22 build/default/debug/_ext/1664057780/asn.o
 .text.GetLength_ex
                0x00000000       0x7a build/default/debug/_ext/1664057780/asn.o
 .text.GetLength
                0x00000000       0x10 build/default/debug/_ext/1664057780/asn.o
 .text.GetDateInfo
                0x00000000       0x8e build/default/debug/_ext/1664057780/asn.o
 .text.GetASNTag
                0x00000000       0x36 build/default/debug/_ext/1664057780/asn.o
 .text.GetASNHeader_ex
                0x00000000       0x58 build/default/debug/_ext/1664057780/asn.o
 .text.GetASNInt
                0x00000000       0x6c build/default/debug/_ext/1664057780/asn.o
 .text.GetSequence
                0x00000000       0x18 build/default/debug/_ext/1664057780/asn.o
 .text.GetSequence_ex
                0x00000000       0x18 build/default/debug/_ext/1664057780/asn.o
 .text.GetSet   0x00000000       0x18 build/default/debug/_ext/1664057780/asn.o
 .text.GetSet_ex
                0x00000000       0x18 build/default/debug/_ext/1664057780/asn.o
 .text.GetOctetString
                0x00000000       0x18 build/default/debug/_ext/1664057780/asn.o
 .text.GetSigName
                0x00000000       0x7c build/default/debug/_ext/1664057780/asn.o
 .text.GetMyVersion
                0x00000000       0x58 build/default/debug/_ext/1664057780/asn.o
 .text.GetInt   0x00000000       0x56 build/default/debug/_ext/1664057780/asn.o
 .text.CheckBitString
                0x00000000       0xbe build/default/debug/_ext/1664057780/asn.o
 .text.OidFromId
                0x00000000      0x630 build/default/debug/_ext/1664057780/asn.o
 .text.GetASNObjectId
                0x00000000       0x68 build/default/debug/_ext/1664057780/asn.o
 .text.SkipObjectId
                0x00000000       0x26 build/default/debug/_ext/1664057780/asn.o
 .text.GetObjectId
                0x00000000       0x94 build/default/debug/_ext/1664057780/asn.o
 .text.GetAlgoId
                0x00000000       0x9c build/default/debug/_ext/1664057780/asn.o
 .text.wc_RsaPrivateKeyDecode
                0x00000000      0x11a build/default/debug/_ext/1664057780/asn.o
 .text.ToTraditionalInline_ex
                0x00000000       0xc2 build/default/debug/_ext/1664057780/asn.o
 .text.ToTraditionalInline
                0x00000000       0x10 build/default/debug/_ext/1664057780/asn.o
 .text.ToTraditional_ex
                0x00000000       0x40 build/default/debug/_ext/1664057780/asn.o
 .text.ToTraditional
                0x00000000       0x10 build/default/debug/_ext/1664057780/asn.o
 .text.wc_GetPkcs8TraditionalOffset
                0x00000000       0x30 build/default/debug/_ext/1664057780/asn.o
 .text.wc_RsaPublicKeyDecode_ex
                0x00000000      0x17a build/default/debug/_ext/1664057780/asn.o
 .text.wc_RsaPublicKeyDecodeRaw
                0x00000000       0x92 build/default/debug/_ext/1664057780/asn.o
 .text.wc_RsaPublicKeyDecode
                0x00000000       0x48 build/default/debug/_ext/1664057780/asn.o
 .text.FreeAltNames
                0x00000000       0x22 build/default/debug/_ext/1664057780/asn.o
 .text.FreeNameSubtrees
                0x00000000       0x22 build/default/debug/_ext/1664057780/asn.o
 .text.CalcHashId
                0x00000000        0x8 build/default/debug/_ext/1664057780/asn.o
 .text.GetName  0x00000000      0x410 build/default/debug/_ext/1664057780/asn.o
 .text.ExtractDate
                0x00000000      0x200 build/default/debug/_ext/1664057780/asn.o
 .text.DateGreaterThan
                0x00000000       0x92 build/default/debug/_ext/1664057780/asn.o
 .text.wc_ValidateDate
                0x00000000       0xfa build/default/debug/_ext/1664057780/asn.o
 .text.GetDate  0x00000000       0xaa build/default/debug/_ext/1664057780/asn.o
 .text.wc_GetTime
                0x00000000       0x22 build/default/debug/_ext/1664057780/asn.o
 .text.wc_GetDateInfo
                0x00000000       0x1c build/default/debug/_ext/1664057780/asn.o
 .text.wc_GetDateAsCalendarTime
                0x00000000       0x22 build/default/debug/_ext/1664057780/asn.o
 .text.SetLength
                0x00000000       0x7a build/default/debug/_ext/1664057780/asn.o
 .text.SetASNInt
                0x00000000       0x44 build/default/debug/_ext/1664057780/asn.o
 .text.SetASNIntMP
                0x00000000       0x8a build/default/debug/_ext/1664057780/asn.o
 .text.SetBitString
                0x00000000       0x28 build/default/debug/_ext/1664057780/asn.o
 .text.SetObjectId
                0x00000000       0x16 build/default/debug/_ext/1664057780/asn.o
 .text.SetCurve
                0x00000000       0x32 build/default/debug/_ext/1664057780/asn.o
 .text.SetSequence
                0x00000000       0x16 build/default/debug/_ext/1664057780/asn.o
 .text.SetOctetString
                0x00000000       0x10 build/default/debug/_ext/1664057780/asn.o
 .text.SetSet   0x00000000       0x10 build/default/debug/_ext/1664057780/asn.o
 .text.SetImplicit
                0x00000000       0x24 build/default/debug/_ext/1664057780/asn.o
 .text.SetExplicit
                0x00000000       0x18 build/default/debug/_ext/1664057780/asn.o
 .text.SetAlgoID
                0x00000000      0x108 build/default/debug/_ext/1664057780/asn.o
 .text.SetEccPublicKey
                0x00000000       0xa0 build/default/debug/_ext/1664057780/asn.o
 .text.wc_EncodeSignature
                0x00000000       0x66 build/default/debug/_ext/1664057780/asn.o
 .text.wc_GetCTC_HashOID
                0x00000000       0x10 build/default/debug/_ext/1664057780/asn.o
 .text.InitSignatureCtx
                0x00000000       0x1c build/default/debug/_ext/1664057780/asn.o
 .text.InitDecodedCert
                0x00000000       0x4a build/default/debug/_ext/1664057780/asn.o
 .text.FreeSignatureCtx
                0x00000000       0x5c build/default/debug/_ext/1664057780/asn.o
 .text.FreeDecodedCert
                0x00000000       0x7e build/default/debug/_ext/1664057780/asn.o
 .text.GetCA    0x00000000        0x2 build/default/debug/_ext/1664057780/asn.o
 .text.GetCAByName
                0x00000000        0x2 build/default/debug/_ext/1664057780/asn.o
 .text.MakeSigner
                0x00000000       0x18 build/default/debug/_ext/1664057780/asn.o
 .text.FreeSigner
                0x00000000       0x32 build/default/debug/_ext/1664057780/asn.o
 .text.FreeSignerTable
                0x00000000       0x3a build/default/debug/_ext/1664057780/asn.o
 .text.SetMyVersion
                0x00000000       0x28 build/default/debug/_ext/1664057780/asn.o
 .text.wc_CreatePKCS8Key
                0x00000000      0x146 build/default/debug/_ext/1664057780/asn.o
 .text.wc_BuildEccKeyDer
                0x00000000      0x1da build/default/debug/_ext/1664057780/asn.o
 .text.eccToPKCS8
                0x00000000      0x104 build/default/debug/_ext/1664057780/asn.o
 .text.SetSerialNumber
                0x00000000       0x9c build/default/debug/_ext/1664057780/asn.o
 .text.GetSerialNumber
                0x00000000       0x64 build/default/debug/_ext/1664057780/asn.o
 .text.wc_GetPubX509
                0x00000000      0x16e build/default/debug/_ext/1664057780/asn.o
 .text.DecodeToKey
                0x00000000      0x1cc build/default/debug/_ext/1664057780/asn.o
 .text.AllocDer
                0x00000000       0x88 build/default/debug/_ext/1664057780/asn.o
 .text.FreeDer  0x00000000       0x38 build/default/debug/_ext/1664057780/asn.o
 .text.wc_AllocDer
                0x00000000        0x8 build/default/debug/_ext/1664057780/asn.o
 .text.wc_FreeDer
                0x00000000        0x8 build/default/debug/_ext/1664057780/asn.o
 .text.wc_PemGetHeaderFooter
                0x00000000       0xf0 build/default/debug/_ext/1664057780/asn.o
 .text.PemToDer
                0x00000000      0x1dc build/default/debug/_ext/1664057780/asn.o
 .text.wc_PemToDer
                0x00000000       0x18 build/default/debug/_ext/1664057780/asn.o
 .text.wc_KeyPemToDer
                0x00000000       0x8c build/default/debug/_ext/1664057780/asn.o
 .text.wc_CertPemToDer
                0x00000000       0x7a build/default/debug/_ext/1664057780/asn.o
 .text.wc_EccPublicKeyToDer
                0x00000000       0x56 build/default/debug/_ext/1664057780/asn.o
 .text.wc_EccPublicKeyDerSize
                0x00000000        0xe build/default/debug/_ext/1664057780/asn.o
 .text.StoreECC_DSA_Sig
                0x00000000       0x7a build/default/debug/_ext/1664057780/asn.o
 .text.StoreECC_DSA_Sig_Bin
                0x00000000       0xe8 build/default/debug/_ext/1664057780/asn.o
 .text.DecodeECC_DSA_Sig_Bin
                0x00000000       0x9a build/default/debug/_ext/1664057780/asn.o
 .text.DecodeECC_DSA_Sig
                0x00000000       0x70 build/default/debug/_ext/1664057780/asn.o
 .text.wc_EccPrivateKeyDecode
                0x00000000      0x1a0 build/default/debug/_ext/1664057780/asn.o
 .text.wc_CheckPrivateKey
                0x00000000      0x18c build/default/debug/_ext/1664057780/asn.o
 .text.wc_CheckPrivateKeyCert
                0x00000000       0x26 build/default/debug/_ext/1664057780/asn.o
 .text.wc_EccPublicKeyDecode
                0x00000000      0x1f4 build/default/debug/_ext/1664057780/asn.o
 .text.ConfirmSignature
                0x00000000      0x35e build/default/debug/_ext/1664057780/asn.o
 .text.ParseCertRelative
                0x00000000     0x116a build/default/debug/_ext/1664057780/asn.o
 .text.ParseCert
                0x00000000       0x7e build/default/debug/_ext/1664057780/asn.o
 .text.wc_EccKeyToDer
                0x00000000        0xa build/default/debug/_ext/1664057780/asn.o
 .text.wc_EccPrivateKeyToDer
                0x00000000        0xa build/default/debug/_ext/1664057780/asn.o
 .text.wc_EccPrivateKeyToPKCS8
                0x00000000        0xa build/default/debug/_ext/1664057780/asn.o
 .text.wc_EccKeyToPKCS8
                0x00000000        0xa build/default/debug/_ext/1664057780/asn.o
 .text.GetNameHash
                0x00000000       0x7c build/default/debug/_ext/1664057780/asn.o
 .rodata        0x00000000      0x244 build/default/debug/_ext/1664057780/asn.o
 .rodata.BEGIN_CERT
                0x00000000        0x4 build/default/debug/_ext/1664057780/asn.o
 .rodata.BEGIN_DSA_PRIV
                0x00000000        0x4 build/default/debug/_ext/1664057780/asn.o
 .rodata.BEGIN_EC_PRIV
                0x00000000        0x4 build/default/debug/_ext/1664057780/asn.o
 .rodata.BEGIN_ENC_PRIV_KEY
                0x00000000        0x4 build/default/debug/_ext/1664057780/asn.o
 .rodata.BEGIN_PRIV_KEY
                0x00000000        0x4 build/default/debug/_ext/1664057780/asn.o
 .rodata.BEGIN_PUB_KEY
                0x00000000        0x4 build/default/debug/_ext/1664057780/asn.o
 .rodata.BEGIN_RSA_PRIV
                0x00000000        0x4 build/default/debug/_ext/1664057780/asn.o
 .rodata.BEGIN_X509_CRL
                0x00000000        0x4 build/default/debug/_ext/1664057780/asn.o
 .rodata.END_CERT
                0x00000000        0x4 build/default/debug/_ext/1664057780/asn.o
 .rodata.END_DSA_PRIV
                0x00000000        0x4 build/default/debug/_ext/1664057780/asn.o
 .rodata.END_EC_PRIV
                0x00000000        0x4 build/default/debug/_ext/1664057780/asn.o
 .rodata.END_ENC_PRIV_KEY
                0x00000000        0x4 build/default/debug/_ext/1664057780/asn.o
 .rodata.END_PRIV_KEY
                0x00000000        0x4 build/default/debug/_ext/1664057780/asn.o
 .rodata.END_PUB_KEY
                0x00000000        0x4 build/default/debug/_ext/1664057780/asn.o
 .rodata.END_RSA_PRIV
                0x00000000        0x4 build/default/debug/_ext/1664057780/asn.o
 .rodata.END_X509_CRL
                0x00000000        0x4 build/default/debug/_ext/1664057780/asn.o
 .rodata.blkAes128CbcOid
                0x00000000        0xc build/default/debug/_ext/1664057780/asn.o
 .rodata.blkAes128CcmOid
                0x00000000        0xc build/default/debug/_ext/1664057780/asn.o
 .rodata.blkAes128GcmOid
                0x00000000        0xc build/default/debug/_ext/1664057780/asn.o
 .rodata.blkAes192CbcOid
                0x00000000        0xc build/default/debug/_ext/1664057780/asn.o
 .rodata.blkAes192CcmOid
                0x00000000        0xc build/default/debug/_ext/1664057780/asn.o
 .rodata.blkAes192GcmOid
                0x00000000        0xc build/default/debug/_ext/1664057780/asn.o
 .rodata.blkAes256CbcOid
                0x00000000        0xc build/default/debug/_ext/1664057780/asn.o
 .rodata.blkAes256CcmOid
                0x00000000        0xc build/default/debug/_ext/1664057780/asn.o
 .rodata.blkAes256GcmOid
                0x00000000        0xc build/default/debug/_ext/1664057780/asn.o
 .rodata.blkDes3CbcOid
                0x00000000        0x8 build/default/debug/_ext/1664057780/asn.o
 .rodata.blkDesCbcOid
                0x00000000        0x8 build/default/debug/_ext/1664057780/asn.o
 .rodata.dhSinglePass_stdDH_sha1kdf_Oid
                0x00000000        0xc build/default/debug/_ext/1664057780/asn.o
 .rodata.dhSinglePass_stdDH_sha224kdf_Oid
                0x00000000        0x8 build/default/debug/_ext/1664057780/asn.o
 .rodata.dhSinglePass_stdDH_sha256kdf_Oid
                0x00000000        0x8 build/default/debug/_ext/1664057780/asn.o
 .rodata.extAltNamesHwNameOid
                0x00000000        0x8 build/default/debug/_ext/1664057780/asn.o
 .rodata.extAltNamesOid
                0x00000000        0x4 build/default/debug/_ext/1664057780/asn.o
 .rodata.extAuthInfoCaIssuerOid
                0x00000000        0x8 build/default/debug/_ext/1664057780/asn.o
 .rodata.extAuthInfoOid
                0x00000000        0x8 build/default/debug/_ext/1664057780/asn.o
 .rodata.extAuthKeyOid
                0x00000000        0x4 build/default/debug/_ext/1664057780/asn.o
 .rodata.extBasicCaOid
                0x00000000        0x4 build/default/debug/_ext/1664057780/asn.o
 .rodata.extCertPolicyAnyOid
                0x00000000        0x4 build/default/debug/_ext/1664057780/asn.o
 .rodata.extCertPolicyOid
                0x00000000        0x4 build/default/debug/_ext/1664057780/asn.o
 .rodata.extCrlDistOid
                0x00000000        0x4 build/default/debug/_ext/1664057780/asn.o
 .rodata.extExtKeyUsageAnyOid
                0x00000000        0x4 build/default/debug/_ext/1664057780/asn.o
 .rodata.extExtKeyUsageClientAuthOid
                0x00000000        0x8 build/default/debug/_ext/1664057780/asn.o
 .rodata.extExtKeyUsageCodeSigningOid
                0x00000000        0x8 build/default/debug/_ext/1664057780/asn.o
 .rodata.extExtKeyUsageEmailProtectOid
                0x00000000        0x8 build/default/debug/_ext/1664057780/asn.o
 .rodata.extExtKeyUsageOcspSignOid
                0x00000000        0x8 build/default/debug/_ext/1664057780/asn.o
 .rodata.extExtKeyUsageOid
                0x00000000        0x4 build/default/debug/_ext/1664057780/asn.o
 .rodata.extExtKeyUsageServerAuthOid
                0x00000000        0x8 build/default/debug/_ext/1664057780/asn.o
 .rodata.extExtKeyUsageTimestampOid
                0x00000000        0x8 build/default/debug/_ext/1664057780/asn.o
 .rodata.extInhibitAnyOid
                0x00000000        0x4 build/default/debug/_ext/1664057780/asn.o
 .rodata.extKeyUsageOid
                0x00000000        0x4 build/default/debug/_ext/1664057780/asn.o
 .rodata.extNameConsOid
                0x00000000        0x4 build/default/debug/_ext/1664057780/asn.o
 .rodata.extSubjKeyOid
                0x00000000        0x4 build/default/debug/_ext/1664057780/asn.o
 .rodata.hashMd5hOid
                0x00000000        0x8 build/default/debug/_ext/1664057780/asn.o
 .rodata.hashSha1hOid
                0x00000000        0x8 build/default/debug/_ext/1664057780/asn.o
 .rodata.hashSha224hOid
                0x00000000        0xc build/default/debug/_ext/1664057780/asn.o
 .rodata.hashSha256hOid
                0x00000000        0xc build/default/debug/_ext/1664057780/asn.o
 .rodata.hmacSha224Oid
                0x00000000        0x8 build/default/debug/_ext/1664057780/asn.o
 .rodata.hmacSha256Oid
                0x00000000        0x8 build/default/debug/_ext/1664057780/asn.o
 .rodata.keyEcdsaOid
                0x00000000        0x8 build/default/debug/_ext/1664057780/asn.o
 .rodata.keyRsaOid
                0x00000000        0xc build/default/debug/_ext/1664057780/asn.o
 .rodata.pbeSha1Des
                0x00000000        0xc build/default/debug/_ext/1664057780/asn.o
 .rodata.pbeSha1Des3
                0x00000000        0xc build/default/debug/_ext/1664057780/asn.o
 .rodata.pbes2  0x00000000        0xc build/default/debug/_ext/1664057780/asn.o
 .rodata.pbkdf2Oid
                0x00000000        0xc build/default/debug/_ext/1664057780/asn.o
 .rodata.pem_struct_min_sz
                0x00000000        0x4 build/default/debug/_ext/1664057780/asn.o
 .rodata.sigMd5wRsaName
                0x00000000       0x18 build/default/debug/_ext/1664057780/asn.o
 .rodata.sigMd5wRsaOid
                0x00000000        0xc build/default/debug/_ext/1664057780/asn.o
 .rodata.sigSha1wEcdsaName
                0x00000000        0xc build/default/debug/_ext/1664057780/asn.o
 .rodata.sigSha1wEcdsaOid
                0x00000000        0x8 build/default/debug/_ext/1664057780/asn.o
 .rodata.sigSha1wRsaName
                0x00000000       0x18 build/default/debug/_ext/1664057780/asn.o
 .rodata.sigSha1wRsaOid
                0x00000000        0xc build/default/debug/_ext/1664057780/asn.o
 .rodata.sigSha224wEcdsaName
                0x00000000       0x10 build/default/debug/_ext/1664057780/asn.o
 .rodata.sigSha224wEcdsaOid
                0x00000000        0x8 build/default/debug/_ext/1664057780/asn.o
 .rodata.sigSha224wRsaName
                0x00000000       0x18 build/default/debug/_ext/1664057780/asn.o
 .rodata.sigSha224wRsaOid
                0x00000000        0xc build/default/debug/_ext/1664057780/asn.o
 .rodata.sigSha256wEcdsaName
                0x00000000       0x10 build/default/debug/_ext/1664057780/asn.o
 .rodata.sigSha256wEcdsaOid
                0x00000000        0x8 build/default/debug/_ext/1664057780/asn.o
 .rodata.sigSha256wRsaName
                0x00000000       0x18 build/default/debug/_ext/1664057780/asn.o
 .rodata.sigSha256wRsaOid
                0x00000000        0xc build/default/debug/_ext/1664057780/asn.o
 .rodata.sigUnknownName
                0x00000000        0x8 build/default/debug/_ext/1664057780/asn.o
 .rodata.wrapAes128Oid
                0x00000000        0xc build/default/debug/_ext/1664057780/asn.o
 .rodata.wrapAes192Oid
                0x00000000        0xc build/default/debug/_ext/1664057780/asn.o
 .rodata.wrapAes256Oid
                0x00000000        0xc build/default/debug/_ext/1664057780/asn.o
 .debug_info    0x00000000     0xfd64 build/default/debug/_ext/1664057780/asn.o
 .debug_abbrev  0x00000000      0x698 build/default/debug/_ext/1664057780/asn.o
 .debug_loc     0x00000000     0xd5ab build/default/debug/_ext/1664057780/asn.o
 .debug_aranges
                0x00000000      0x358 build/default/debug/_ext/1664057780/asn.o
 .debug_ranges  0x00000000      0x990 build/default/debug/_ext/1664057780/asn.o
 .debug_line    0x00000000     0x5a91 build/default/debug/_ext/1664057780/asn.o
 .debug_str     0x00000000      0x401 build/default/debug/_ext/1664057780/asn.o
 .comment       0x00000000       0x2c build/default/debug/_ext/1664057780/asn.o
 .debug_frame   0x00000000      0xe74 build/default/debug/_ext/1664057780/asn.o
 .ARM.attributes
                0x00000000       0x34 build/default/debug/_ext/1664057780/asn.o
 .text          0x00000000        0x0 build/default/debug/_ext/1664057780/blake2b.o
 .data          0x00000000        0x0 build/default/debug/_ext/1664057780/blake2b.o
 .bss           0x00000000        0x0 build/default/debug/_ext/1664057780/blake2b.o
 .debug_info    0x00000000      0x2ff build/default/debug/_ext/1664057780/blake2b.o
 .debug_abbrev  0x00000000       0x1b build/default/debug/_ext/1664057780/blake2b.o
 .debug_aranges
                0x00000000       0x18 build/default/debug/_ext/1664057780/blake2b.o
 .debug_line    0x00000000       0x1d build/default/debug/_ext/1664057780/blake2b.o
 .debug_str     0x00000000        0x0 build/default/debug/_ext/1664057780/blake2b.o
 .comment       0x00000000       0x2c build/default/debug/_ext/1664057780/blake2b.o
 .ARM.attributes
                0x00000000       0x39 build/default/debug/_ext/1664057780/blake2b.o
 .text          0x00000000        0x0 build/default/debug/_ext/1664057780/blake2s.o
 .data          0x00000000        0x0 build/default/debug/_ext/1664057780/blake2s.o
 .bss           0x00000000        0x0 build/default/debug/_ext/1664057780/blake2s.o
 .debug_info    0x00000000      0x2ff build/default/debug/_ext/1664057780/blake2s.o
 .debug_abbrev  0x00000000       0x1b build/default/debug/_ext/1664057780/blake2s.o
 .debug_aranges
                0x00000000       0x18 build/default/debug/_ext/1664057780/blake2s.o
 .debug_line    0x00000000       0x1d build/default/debug/_ext/1664057780/blake2s.o
 .debug_str     0x00000000        0x0 build/default/debug/_ext/1664057780/blake2s.o
 .comment       0x00000000       0x2c build/default/debug/_ext/1664057780/blake2s.o
 .ARM.attributes
                0x00000000       0x39 build/default/debug/_ext/1664057780/blake2s.o
 .text          0x00000000        0x0 build/default/debug/_ext/1664057780/camellia.o
 .data          0x00000000        0x0 build/default/debug/_ext/1664057780/camellia.o
 .bss           0x00000000        0x0 build/default/debug/_ext/1664057780/camellia.o
 .debug_info    0x00000000      0x300 build/default/debug/_ext/1664057780/camellia.o
 .debug_abbrev  0x00000000       0x1b build/default/debug/_ext/1664057780/camellia.o
 .debug_aranges
                0x00000000       0x18 build/default/debug/_ext/1664057780/camellia.o
 .debug_line    0x00000000       0x1d build/default/debug/_ext/1664057780/camellia.o
 .debug_str     0x00000000        0x0 build/default/debug/_ext/1664057780/camellia.o
 .comment       0x00000000       0x2c build/default/debug/_ext/1664057780/camellia.o
 .ARM.attributes
                0x00000000       0x39 build/default/debug/_ext/1664057780/camellia.o
 .text          0x00000000        0x0 build/default/debug/_ext/1664057780/chacha.o
 .data          0x00000000        0x0 build/default/debug/_ext/1664057780/chacha.o
 .bss           0x00000000        0x0 build/default/debug/_ext/1664057780/chacha.o
 .debug_info    0x00000000      0x2fe build/default/debug/_ext/1664057780/chacha.o
 .debug_abbrev  0x00000000       0x1b build/default/debug/_ext/1664057780/chacha.o
 .debug_aranges
                0x00000000       0x18 build/default/debug/_ext/1664057780/chacha.o
 .debug_line    0x00000000       0x1d build/default/debug/_ext/1664057780/chacha.o
 .debug_str     0x00000000        0x0 build/default/debug/_ext/1664057780/chacha.o
 .comment       0x00000000       0x2c build/default/debug/_ext/1664057780/chacha.o
 .ARM.attributes
                0x00000000       0x39 build/default/debug/_ext/1664057780/chacha.o
 .text          0x00000000        0x0 build/default/debug/_ext/1664057780/chacha20_poly1305.o
 .data          0x00000000        0x0 build/default/debug/_ext/1664057780/chacha20_poly1305.o
 .bss           0x00000000        0x0 build/default/debug/_ext/1664057780/chacha20_poly1305.o
 .debug_info    0x00000000      0x309 build/default/debug/_ext/1664057780/chacha20_poly1305.o
 .debug_abbrev  0x00000000       0x1b build/default/debug/_ext/1664057780/chacha20_poly1305.o
 .debug_aranges
                0x00000000       0x18 build/default/debug/_ext/1664057780/chacha20_poly1305.o
 .debug_line    0x00000000       0x1d build/default/debug/_ext/1664057780/chacha20_poly1305.o
 .debug_str     0x00000000        0x0 build/default/debug/_ext/1664057780/chacha20_poly1305.o
 .comment       0x00000000       0x2c build/default/debug/_ext/1664057780/chacha20_poly1305.o
 .ARM.attributes
                0x00000000       0x39 build/default/debug/_ext/1664057780/chacha20_poly1305.o
 .text          0x00000000        0x0 build/default/debug/_ext/1664057780/cmac.o
 .data          0x00000000        0x0 build/default/debug/_ext/1664057780/cmac.o
 .bss           0x00000000        0x0 build/default/debug/_ext/1664057780/cmac.o
 .debug_info    0x00000000      0x2fc build/default/debug/_ext/1664057780/cmac.o
 .debug_abbrev  0x00000000       0x1b build/default/debug/_ext/1664057780/cmac.o
 .debug_aranges
                0x00000000       0x18 build/default/debug/_ext/1664057780/cmac.o
 .debug_line    0x00000000       0x1d build/default/debug/_ext/1664057780/cmac.o
 .debug_str     0x00000000        0x0 build/default/debug/_ext/1664057780/cmac.o
 .comment       0x00000000       0x2c build/default/debug/_ext/1664057780/cmac.o
 .ARM.attributes
                0x00000000       0x39 build/default/debug/_ext/1664057780/cmac.o
 .text          0x00000000        0x0 build/default/debug/_ext/1664057780/coding.o
 .data          0x00000000        0x0 build/default/debug/_ext/1664057780/coding.o
 .bss           0x00000000        0x0 build/default/debug/_ext/1664057780/coding.o
 .text.Base64_Decode
                0x00000000      0x45c build/default/debug/_ext/1664057780/coding.o
 .rodata.base64Decode
                0x00000000       0x50 build/default/debug/_ext/1664057780/coding.o
 .debug_info    0x00000000     0x1bbc build/default/debug/_ext/1664057780/coding.o
 .debug_abbrev  0x00000000      0x1ea build/default/debug/_ext/1664057780/coding.o
 .debug_loc     0x00000000     0x1cbd build/default/debug/_ext/1664057780/coding.o
 .debug_aranges
                0x00000000       0x20 build/default/debug/_ext/1664057780/coding.o
 .debug_ranges  0x00000000      0x1c8 build/default/debug/_ext/1664057780/coding.o
 .debug_line    0x00000000      0x625 build/default/debug/_ext/1664057780/coding.o
 .debug_str     0x00000000        0x0 build/default/debug/_ext/1664057780/coding.o
 .comment       0x00000000       0x2c build/default/debug/_ext/1664057780/coding.o
 .debug_frame   0x00000000       0x40 build/default/debug/_ext/1664057780/coding.o
 .ARM.attributes
                0x00000000       0x34 build/default/debug/_ext/1664057780/coding.o
 .text          0x00000000        0x0 build/default/debug/_ext/1664057780/compress.o
 .data          0x00000000        0x0 build/default/debug/_ext/1664057780/compress.o
 .bss           0x00000000        0x0 build/default/debug/_ext/1664057780/compress.o
 .debug_info    0x00000000      0x300 build/default/debug/_ext/1664057780/compress.o
 .debug_abbrev  0x00000000       0x1b build/default/debug/_ext/1664057780/compress.o
 .debug_aranges
                0x00000000       0x18 build/default/debug/_ext/1664057780/compress.o
 .debug_line    0x00000000       0x1d build/default/debug/_ext/1664057780/compress.o
 .debug_str     0x00000000        0x0 build/default/debug/_ext/1664057780/compress.o
 .comment       0x00000000       0x2c build/default/debug/_ext/1664057780/compress.o
 .ARM.attributes
                0x00000000       0x39 build/default/debug/_ext/1664057780/compress.o
 .text          0x00000000        0x0 build/default/debug/_ext/1664057780/cpuid.o
 .data          0x00000000        0x0 build/default/debug/_ext/1664057780/cpuid.o
 .bss           0x00000000        0x0 build/default/debug/_ext/1664057780/cpuid.o
 .debug_info    0x00000000      0x2fd build/default/debug/_ext/1664057780/cpuid.o
 .debug_abbrev  0x00000000       0x1b build/default/debug/_ext/1664057780/cpuid.o
 .debug_aranges
                0x00000000       0x18 build/default/debug/_ext/1664057780/cpuid.o
 .debug_line    0x00000000       0x1d build/default/debug/_ext/1664057780/cpuid.o
 .debug_str     0x00000000        0x0 build/default/debug/_ext/1664057780/cpuid.o
 .comment       0x00000000       0x2c build/default/debug/_ext/1664057780/cpuid.o
 .ARM.attributes
                0x00000000       0x39 build/default/debug/_ext/1664057780/cpuid.o
 .text          0x00000000        0x0 build/default/debug/_ext/1664057780/cryptocb.o
 .data          0x00000000        0x0 build/default/debug/_ext/1664057780/cryptocb.o
 .bss           0x00000000        0x0 build/default/debug/_ext/1664057780/cryptocb.o
 .text.wc_CryptoCb_Init
                0x00000000       0x1c build/default/debug/_ext/1664057780/cryptocb.o
 .text.wc_CryptoCb_GetDevIdAtIndex
                0x00000000       0x12 build/default/debug/_ext/1664057780/cryptocb.o
 .text.wc_CryptoCb_UnRegisterDevice
                0x00000000       0x16 build/default/debug/_ext/1664057780/cryptocb.o
 .text.wc_CryptoCb_Rsa
                0x00000000       0x78 build/default/debug/_ext/1664057780/cryptocb.o
 .text.wc_CryptoCb_RsaCheckPrivKey
                0x00000000       0x60 build/default/debug/_ext/1664057780/cryptocb.o
 .text.wc_CryptoCb_MakeEccKey
                0x00000000       0x68 build/default/debug/_ext/1664057780/cryptocb.o
 .text.wc_CryptoCb_Ecdh
                0x00000000       0x66 build/default/debug/_ext/1664057780/cryptocb.o
 .text.wc_CryptoCb_EccSign
                0x00000000       0x72 build/default/debug/_ext/1664057780/cryptocb.o
 .text.wc_CryptoCb_EccVerify
                0x00000000       0x72 build/default/debug/_ext/1664057780/cryptocb.o
 .text.wc_CryptoCb_EccCheckPrivKey
                0x00000000       0x5e build/default/debug/_ext/1664057780/cryptocb.o
 .text.wc_CryptoCb_AesGcmEncrypt
                0x00000000       0x8e build/default/debug/_ext/1664057780/cryptocb.o
 .text.wc_CryptoCb_AesGcmDecrypt
                0x00000000       0x8a build/default/debug/_ext/1664057780/cryptocb.o
 .text.wc_CryptoCb_AesCbcEncrypt
                0x00000000       0x6e build/default/debug/_ext/1664057780/cryptocb.o
 .text.wc_CryptoCb_AesCbcDecrypt
                0x00000000       0x6a build/default/debug/_ext/1664057780/cryptocb.o
 .text.wc_CryptoCb_Des3Encrypt
                0x00000000       0x70 build/default/debug/_ext/1664057780/cryptocb.o
 .text.wc_CryptoCb_Des3Decrypt
                0x00000000       0x6c build/default/debug/_ext/1664057780/cryptocb.o
 .text.wc_CryptoCb_ShaHash
                0x00000000       0x6a build/default/debug/_ext/1664057780/cryptocb.o
 .text.wc_CryptoCb_Hmac
                0x00000000       0x68 build/default/debug/_ext/1664057780/cryptocb.o
 .text.wc_CryptoCb_RandomSeed
                0x00000000       0x50 build/default/debug/_ext/1664057780/cryptocb.o
 .text          0x00000000        0x0 build/default/debug/_ext/1664057780/curve25519.o
 .data          0x00000000        0x0 build/default/debug/_ext/1664057780/curve25519.o
 .bss           0x00000000        0x0 build/default/debug/_ext/1664057780/curve25519.o
 .debug_info    0x00000000      0x302 build/default/debug/_ext/1664057780/curve25519.o
 .debug_abbrev  0x00000000       0x1b build/default/debug/_ext/1664057780/curve25519.o
 .debug_aranges
                0x00000000       0x18 build/default/debug/_ext/1664057780/curve25519.o
 .debug_line    0x00000000       0x1d build/default/debug/_ext/1664057780/curve25519.o
 .debug_str     0x00000000        0x0 build/default/debug/_ext/1664057780/curve25519.o
 .comment       0x00000000       0x2c build/default/debug/_ext/1664057780/curve25519.o
 .ARM.attributes
                0x00000000       0x39 build/default/debug/_ext/1664057780/curve25519.o
 .text          0x00000000        0x0 build/default/debug/_ext/1664057780/curve448.o
 .data          0x00000000        0x0 build/default/debug/_ext/1664057780/curve448.o
 .bss           0x00000000        0x0 build/default/debug/_ext/1664057780/curve448.o
 .debug_info    0x00000000      0x300 build/default/debug/_ext/1664057780/curve448.o
 .debug_abbrev  0x00000000       0x1b build/default/debug/_ext/1664057780/curve448.o
 .debug_aranges
                0x00000000       0x18 build/default/debug/_ext/1664057780/curve448.o
 .debug_line    0x00000000       0x1d build/default/debug/_ext/1664057780/curve448.o
 .debug_str     0x00000000        0x0 build/default/debug/_ext/1664057780/curve448.o
 .comment       0x00000000       0x2c build/default/debug/_ext/1664057780/curve448.o
 .ARM.attributes
                0x00000000       0x39 build/default/debug/_ext/1664057780/curve448.o
 .text          0x00000000        0x0 build/default/debug/_ext/1664057780/dh.o
 .data          0x00000000        0x0 build/default/debug/_ext/1664057780/dh.o
 .bss           0x00000000        0x0 build/default/debug/_ext/1664057780/dh.o
 .debug_info    0x00000000      0x2fa build/default/debug/_ext/1664057780/dh.o
 .debug_abbrev  0x00000000       0x1b build/default/debug/_ext/1664057780/dh.o
 .debug_aranges
                0x00000000       0x18 build/default/debug/_ext/1664057780/dh.o
 .debug_line    0x00000000       0x1d build/default/debug/_ext/1664057780/dh.o
 .debug_str     0x00000000        0x0 build/default/debug/_ext/1664057780/dh.o
 .comment       0x00000000       0x2c build/default/debug/_ext/1664057780/dh.o
 .ARM.attributes
                0x00000000       0x39 build/default/debug/_ext/1664057780/dh.o
 .text          0x00000000        0x0 build/default/debug/_ext/1664057780/dsa.o
 .data          0x00000000        0x0 build/default/debug/_ext/1664057780/dsa.o
 .bss           0x00000000        0x0 build/default/debug/_ext/1664057780/dsa.o
 .debug_info    0x00000000      0x2fb build/default/debug/_ext/1664057780/dsa.o
 .debug_abbrev  0x00000000       0x1b build/default/debug/_ext/1664057780/dsa.o
 .debug_aranges
                0x00000000       0x18 build/default/debug/_ext/1664057780/dsa.o
 .debug_line    0x00000000       0x1d build/default/debug/_ext/1664057780/dsa.o
 .debug_str     0x00000000        0x0 build/default/debug/_ext/1664057780/dsa.o
 .comment       0x00000000       0x2c build/default/debug/_ext/1664057780/dsa.o
 .ARM.attributes
                0x00000000       0x39 build/default/debug/_ext/1664057780/dsa.o
 .text          0x00000000        0x0 build/default/debug/_ext/1664057780/ecc_fp.o
 .data          0x00000000        0x0 build/default/debug/_ext/1664057780/ecc_fp.o
 .bss           0x00000000        0x0 build/default/debug/_ext/1664057780/ecc_fp.o
 .debug_line    0x00000000        0x0 build/default/debug/_ext/1664057780/ecc_fp.o
 .debug_str     0x00000000        0x0 build/default/debug/_ext/1664057780/ecc_fp.o
 .comment       0x00000000       0x2c build/default/debug/_ext/1664057780/ecc_fp.o
 .ARM.attributes
                0x00000000       0x39 build/default/debug/_ext/1664057780/ecc_fp.o
 .text          0x00000000        0x0 build/default/debug/_ext/1664057780/ed25519.o
 .data          0x00000000        0x0 build/default/debug/_ext/1664057780/ed25519.o
 .bss           0x00000000        0x0 build/default/debug/_ext/1664057780/ed25519.o
 .debug_info    0x00000000      0x2ff build/default/debug/_ext/1664057780/ed25519.o
 .debug_abbrev  0x00000000       0x1b build/default/debug/_ext/1664057780/ed25519.o
 .debug_aranges
                0x00000000       0x18 build/default/debug/_ext/1664057780/ed25519.o
 .debug_line    0x00000000       0x1d build/default/debug/_ext/1664057780/ed25519.o
 .debug_str     0x00000000        0x0 build/default/debug/_ext/1664057780/ed25519.o
 .comment       0x00000000       0x2c build/default/debug/_ext/1664057780/ed25519.o
 .ARM.attributes
                0x00000000       0x39 build/default/debug/_ext/1664057780/ed25519.o
 .text          0x00000000        0x0 build/default/debug/_ext/1664057780/ed448.o
 .data          0x00000000        0x0 build/default/debug/_ext/1664057780/ed448.o
 .bss           0x00000000        0x0 build/default/debug/_ext/1664057780/ed448.o
 .debug_info    0x00000000      0x2fd build/default/debug/_ext/1664057780/ed448.o
 .debug_abbrev  0x00000000       0x1b build/default/debug/_ext/1664057780/ed448.o
 .debug_aranges
                0x00000000       0x18 build/default/debug/_ext/1664057780/ed448.o
 .debug_line    0x00000000       0x1d build/default/debug/_ext/1664057780/ed448.o
 .debug_str     0x00000000        0x0 build/default/debug/_ext/1664057780/ed448.o
 .comment       0x00000000       0x2c build/default/debug/_ext/1664057780/ed448.o
 .ARM.attributes
                0x00000000       0x39 build/default/debug/_ext/1664057780/ed448.o
 .text          0x00000000        0x0 build/default/debug/_ext/1664057780/error.o
 .data          0x00000000        0x0 build/default/debug/_ext/1664057780/error.o
 .bss           0x00000000        0x0 build/default/debug/_ext/1664057780/error.o
 .debug_info    0x00000000      0x2fd build/default/debug/_ext/1664057780/error.o
 .debug_abbrev  0x00000000       0x1b build/default/debug/_ext/1664057780/error.o
 .debug_aranges
                0x00000000       0x18 build/default/debug/_ext/1664057780/error.o
 .debug_line    0x00000000       0x1d build/default/debug/_ext/1664057780/error.o
 .debug_str     0x00000000        0x0 build/default/debug/_ext/1664057780/error.o
 .comment       0x00000000       0x2c build/default/debug/_ext/1664057780/error.o
 .ARM.attributes
                0x00000000       0x39 build/default/debug/_ext/1664057780/error.o
 .text          0x00000000        0x0 build/default/debug/_ext/1664057780/fe_448.o
 .data          0x00000000        0x0 build/default/debug/_ext/1664057780/fe_448.o
 .bss           0x00000000        0x0 build/default/debug/_ext/1664057780/fe_448.o
 .debug_info    0x00000000      0x2fe build/default/debug/_ext/1664057780/fe_448.o
 .debug_abbrev  0x00000000       0x1b build/default/debug/_ext/1664057780/fe_448.o
 .debug_aranges
                0x00000000       0x18 build/default/debug/_ext/1664057780/fe_448.o
 .debug_line    0x00000000       0x1d build/default/debug/_ext/1664057780/fe_448.o
 .debug_str     0x00000000        0x0 build/default/debug/_ext/1664057780/fe_448.o
 .comment       0x00000000       0x2c build/default/debug/_ext/1664057780/fe_448.o
 .ARM.attributes
                0x00000000       0x39 build/default/debug/_ext/1664057780/fe_448.o
 .text          0x00000000        0x0 build/default/debug/_ext/1664057780/fe_low_mem.o
 .data          0x00000000        0x0 build/default/debug/_ext/1664057780/fe_low_mem.o
 .bss           0x00000000        0x0 build/default/debug/_ext/1664057780/fe_low_mem.o
 .debug_info    0x00000000      0x302 build/default/debug/_ext/1664057780/fe_low_mem.o
 .debug_abbrev  0x00000000       0x1b build/default/debug/_ext/1664057780/fe_low_mem.o
 .debug_aranges
                0x00000000       0x18 build/default/debug/_ext/1664057780/fe_low_mem.o
 .debug_line    0x00000000       0x1d build/default/debug/_ext/1664057780/fe_low_mem.o
 .debug_str     0x00000000        0x0 build/default/debug/_ext/1664057780/fe_low_mem.o
 .comment       0x00000000       0x2c build/default/debug/_ext/1664057780/fe_low_mem.o
 .ARM.attributes
                0x00000000       0x39 build/default/debug/_ext/1664057780/fe_low_mem.o
 .text          0x00000000        0x0 build/default/debug/_ext/1664057780/fe_operations.o
 .data          0x00000000        0x0 build/default/debug/_ext/1664057780/fe_operations.o
 .bss           0x00000000        0x0 build/default/debug/_ext/1664057780/fe_operations.o
 .debug_info    0x00000000      0x305 build/default/debug/_ext/1664057780/fe_operations.o
 .debug_abbrev  0x00000000       0x1b build/default/debug/_ext/1664057780/fe_operations.o
 .debug_aranges
                0x00000000       0x18 build/default/debug/_ext/1664057780/fe_operations.o
 .debug_line    0x00000000       0x1d build/default/debug/_ext/1664057780/fe_operations.o
 .debug_str     0x00000000        0x0 build/default/debug/_ext/1664057780/fe_operations.o
 .comment       0x00000000       0x2c build/default/debug/_ext/1664057780/fe_operations.o
 .ARM.attributes
                0x00000000       0x39 build/default/debug/_ext/1664057780/fe_operations.o
 .text          0x00000000        0x0 build/default/debug/_ext/1664057780/ge_448.o
 .data          0x00000000        0x0 build/default/debug/_ext/1664057780/ge_448.o
 .bss           0x00000000        0x0 build/default/debug/_ext/1664057780/ge_448.o
 .debug_info    0x00000000      0x2fe build/default/debug/_ext/1664057780/ge_448.o
 .debug_abbrev  0x00000000       0x1b build/default/debug/_ext/1664057780/ge_448.o
 .debug_aranges
                0x00000000       0x18 build/default/debug/_ext/1664057780/ge_448.o
 .debug_line    0x00000000       0x1d build/default/debug/_ext/1664057780/ge_448.o
 .debug_str     0x00000000        0x0 build/default/debug/_ext/1664057780/ge_448.o
 .comment       0x00000000       0x2c build/default/debug/_ext/1664057780/ge_448.o
 .ARM.attributes
                0x00000000       0x39 build/default/debug/_ext/1664057780/ge_448.o
 .text          0x00000000        0x0 build/default/debug/_ext/1664057780/ge_low_mem.o
 .data          0x00000000        0x0 build/default/debug/_ext/1664057780/ge_low_mem.o
 .bss           0x00000000        0x0 build/default/debug/_ext/1664057780/ge_low_mem.o
 .debug_info    0x00000000      0x302 build/default/debug/_ext/1664057780/ge_low_mem.o
 .debug_abbrev  0x00000000       0x1b build/default/debug/_ext/1664057780/ge_low_mem.o
 .debug_aranges
                0x00000000       0x18 build/default/debug/_ext/1664057780/ge_low_mem.o
 .debug_line    0x00000000       0x1d build/default/debug/_ext/1664057780/ge_low_mem.o
 .debug_str     0x00000000        0x0 build/default/debug/_ext/1664057780/ge_low_mem.o
 .comment       0x00000000       0x2c build/default/debug/_ext/1664057780/ge_low_mem.o
 .ARM.attributes
                0x00000000       0x39 build/default/debug/_ext/1664057780/ge_low_mem.o
 .text          0x00000000        0x0 build/default/debug/_ext/1664057780/ge_operations.o
 .data          0x00000000        0x0 build/default/debug/_ext/1664057780/ge_operations.o
 .bss           0x00000000        0x0 build/default/debug/_ext/1664057780/ge_operations.o
 .debug_info    0x00000000      0x305 build/default/debug/_ext/1664057780/ge_operations.o
 .debug_abbrev  0x00000000       0x1b build/default/debug/_ext/1664057780/ge_operations.o
 .debug_aranges
                0x00000000       0x18 build/default/debug/_ext/1664057780/ge_operations.o
 .debug_line    0x00000000       0x1d build/default/debug/_ext/1664057780/ge_operations.o
 .debug_str     0x00000000        0x0 build/default/debug/_ext/1664057780/ge_operations.o
 .comment       0x00000000       0x2c build/default/debug/_ext/1664057780/ge_operations.o
 .ARM.attributes
                0x00000000       0x39 build/default/debug/_ext/1664057780/ge_operations.o
 .text          0x00000000        0x0 build/default/debug/_ext/1664057780/hash.o
 .data          0x00000000        0x0 build/default/debug/_ext/1664057780/hash.o
 .bss           0x00000000        0x0 build/default/debug/_ext/1664057780/hash.o
 .text.wc_HashTypeConvert
                0x00000000        0xc build/default/debug/_ext/1664057780/hash.o
 .text.wc_HashGetOID
                0x00000000       0x3a build/default/debug/_ext/1664057780/hash.o
 .text.wc_OidGetHash
                0x00000000       0x30 build/default/debug/_ext/1664057780/hash.o
 .text.wc_HashGetDigestSize
                0x00000000       0x3a build/default/debug/_ext/1664057780/hash.o
 .text.wc_HashGetBlockSize
                0x00000000       0x2e build/default/debug/_ext/1664057780/hash.o
 .text.wc_HashInit_ex
                0x00000000       0x56 build/default/debug/_ext/1664057780/hash.o
 .text.wc_HashInit
                0x00000000        0xe build/default/debug/_ext/1664057780/hash.o
 .text.wc_HashUpdate
                0x00000000       0x66 build/default/debug/_ext/1664057780/hash.o
 .text.wc_HashFinal
                0x00000000       0x54 build/default/debug/_ext/1664057780/hash.o
 .text.wc_HashFree
                0x00000000       0x4c build/default/debug/_ext/1664057780/hash.o
 .text.wc_HashSetFlags
                0x00000000       0x4c build/default/debug/_ext/1664057780/hash.o
 .text.wc_HashGetFlags
                0x00000000       0x4c build/default/debug/_ext/1664057780/hash.o
 .text.wc_Md5Hash
                0x00000000       0x3c build/default/debug/_ext/1664057780/hash.o
 .text.wc_ShaHash
                0x00000000       0x56 build/default/debug/_ext/1664057780/hash.o
 .text.wc_Sha224Hash
                0x00000000       0x3c build/default/debug/_ext/1664057780/hash.o
 .text.wc_Sha256Hash
                0x00000000       0x56 build/default/debug/_ext/1664057780/hash.o
 .text.wc_Hash  0x00000000       0x94 build/default/debug/_ext/1664057780/hash.o
 .debug_info    0x00000000     0x22f6 build/default/debug/_ext/1664057780/hash.o
 .debug_abbrev  0x00000000      0x26c build/default/debug/_ext/1664057780/hash.o
 .debug_loc     0x00000000     0x1af2 build/default/debug/_ext/1664057780/hash.o
 .debug_aranges
                0x00000000       0xa0 build/default/debug/_ext/1664057780/hash.o
 .debug_ranges  0x00000000       0x90 build/default/debug/_ext/1664057780/hash.o
 .debug_line    0x00000000      0x6e9 build/default/debug/_ext/1664057780/hash.o
 .debug_str     0x00000000      0x1e7 build/default/debug/_ext/1664057780/hash.o
 .comment       0x00000000       0x2c build/default/debug/_ext/1664057780/hash.o
 .debug_frame   0x00000000      0x1e4 build/default/debug/_ext/1664057780/hash.o
 .ARM.attributes
                0x00000000       0x34 build/default/debug/_ext/1664057780/hash.o
 .text          0x00000000        0x0 build/default/debug/_ext/1664057780/hc128.o
 .data          0x00000000        0x0 build/default/debug/_ext/1664057780/hc128.o
 .bss           0x00000000        0x0 build/default/debug/_ext/1664057780/hc128.o
 .debug_info    0x00000000      0x2fd build/default/debug/_ext/1664057780/hc128.o
 .debug_abbrev  0x00000000       0x1b build/default/debug/_ext/1664057780/hc128.o
 .debug_aranges
                0x00000000       0x18 build/default/debug/_ext/1664057780/hc128.o
 .debug_line    0x00000000       0x1d build/default/debug/_ext/1664057780/hc128.o
 .debug_str     0x00000000        0x0 build/default/debug/_ext/1664057780/hc128.o
 .comment       0x00000000       0x2c build/default/debug/_ext/1664057780/hc128.o
 .ARM.attributes
                0x00000000       0x39 build/default/debug/_ext/1664057780/hc128.o
 .text          0x00000000        0x0 build/default/debug/_ext/1664057780/hmac.o
 .data          0x00000000        0x0 build/default/debug/_ext/1664057780/hmac.o
 .bss           0x00000000        0x0 build/default/debug/_ext/1664057780/hmac.o
 .text.HmacKeyInnerHash
                0x00000000       0x50 build/default/debug/_ext/1664057780/hmac.o
 .text.wc_HmacSizeByType
                0x00000000       0x30 build/default/debug/_ext/1664057780/hmac.o
 .text._InitHmac
                0x00000000       0x36 build/default/debug/_ext/1664057780/hmac.o
 .text.wc_HmacUpdate
                0x00000000       0xb0 build/default/debug/_ext/1664057780/hmac.o
 .text.wc_HmacFinal
                0x00000000      0x17a build/default/debug/_ext/1664057780/hmac.o
 .text.wc_HmacInit
                0x00000000       0x2a build/default/debug/_ext/1664057780/hmac.o
 .text.wc_HmacFree
                0x00000000       0x90 build/default/debug/_ext/1664057780/hmac.o
 .text.wc_HmacSetKey
                0x00000000      0x190 build/default/debug/_ext/1664057780/hmac.o
 .text.wolfSSL_GetHmacMaxSize
                0x00000000        0x4 build/default/debug/_ext/1664057780/hmac.o
 .debug_info    0x00000000     0x209d build/default/debug/_ext/1664057780/hmac.o
 .debug_abbrev  0x00000000      0x2f1 build/default/debug/_ext/1664057780/hmac.o
 .debug_loc     0x00000000      0xf06 build/default/debug/_ext/1664057780/hmac.o
 .debug_aranges
                0x00000000       0x60 build/default/debug/_ext/1664057780/hmac.o
 .debug_ranges  0x00000000       0x50 build/default/debug/_ext/1664057780/hmac.o
 .debug_line    0x00000000      0x6e7 build/default/debug/_ext/1664057780/hmac.o
 .debug_str     0x00000000      0x11c build/default/debug/_ext/1664057780/hmac.o
 .comment       0x00000000       0x2c build/default/debug/_ext/1664057780/hmac.o
 .debug_frame   0x00000000      0x134 build/default/debug/_ext/1664057780/hmac.o
 .ARM.attributes
                0x00000000       0x34 build/default/debug/_ext/1664057780/hmac.o
 .text          0x00000000        0x0 build/default/debug/_ext/1664057780/idea.o
 .data          0x00000000        0x0 build/default/debug/_ext/1664057780/idea.o
 .bss           0x00000000        0x0 build/default/debug/_ext/1664057780/idea.o
 .debug_info    0x00000000      0x2fc build/default/debug/_ext/1664057780/idea.o
 .debug_abbrev  0x00000000       0x1b build/default/debug/_ext/1664057780/idea.o
 .debug_aranges
                0x00000000       0x18 build/default/debug/_ext/1664057780/idea.o
 .debug_line    0x00000000       0x1d build/default/debug/_ext/1664057780/idea.o
 .debug_str     0x00000000        0x0 build/default/debug/_ext/1664057780/idea.o
 .comment       0x00000000       0x2c build/default/debug/_ext/1664057780/idea.o
 .ARM.attributes
                0x00000000       0x39 build/default/debug/_ext/1664057780/idea.o
 .text          0x00000000        0x0 build/default/debug/_ext/1664057780/integer.o
 .data          0x00000000        0x0 build/default/debug/_ext/1664057780/integer.o
 .bss           0x00000000        0x0 build/default/debug/_ext/1664057780/integer.o
 .debug_info    0x00000000      0x2ff build/default/debug/_ext/1664057780/integer.o
 .debug_abbrev  0x00000000       0x1b build/default/debug/_ext/1664057780/integer.o
 .debug_aranges
                0x00000000       0x18 build/default/debug/_ext/1664057780/integer.o
 .debug_line    0x00000000       0x1d build/default/debug/_ext/1664057780/integer.o
 .debug_str     0x00000000        0x0 build/default/debug/_ext/1664057780/integer.o
 .comment       0x00000000       0x2c build/default/debug/_ext/1664057780/integer.o
 .ARM.attributes
                0x00000000       0x39 build/default/debug/_ext/1664057780/integer.o
 .text          0x00000000        0x0 build/default/debug/_ext/1664057780/logging.o
 .data          0x00000000        0x0 build/default/debug/_ext/1664057780/logging.o
 .bss           0x00000000        0x0 build/default/debug/_ext/1664057780/logging.o
 .text.wolfSSL_SetLoggingCb
                0x00000000        0x6 build/default/debug/_ext/1664057780/logging.o
 .text.wolfSSL_GetLoggingCb
                0x00000000        0x4 build/default/debug/_ext/1664057780/logging.o
 .text.wolfSSL_Debugging_ON
                0x00000000        0x6 build/default/debug/_ext/1664057780/logging.o
 .text.wolfSSL_Debugging_OFF
                0x00000000        0x2 build/default/debug/_ext/1664057780/logging.o
 .debug_info    0x00000000      0xf2a build/default/debug/_ext/1664057780/logging.o
 .debug_abbrev  0x00000000       0xd2 build/default/debug/_ext/1664057780/logging.o
 .debug_loc     0x00000000       0x25 build/default/debug/_ext/1664057780/logging.o
 .debug_aranges
                0x00000000       0x38 build/default/debug/_ext/1664057780/logging.o
 .debug_ranges  0x00000000       0x28 build/default/debug/_ext/1664057780/logging.o
 .debug_line    0x00000000      0x106 build/default/debug/_ext/1664057780/logging.o
 .debug_str     0x00000000        0x0 build/default/debug/_ext/1664057780/logging.o
 .comment       0x00000000       0x2c build/default/debug/_ext/1664057780/logging.o
 .debug_frame   0x00000000       0x50 build/default/debug/_ext/1664057780/logging.o
 .ARM.attributes
                0x00000000       0x34 build/default/debug/_ext/1664057780/logging.o
 .text          0x00000000        0x0 build/default/debug/_ext/1664057780/md2.o
 .data          0x00000000        0x0 build/default/debug/_ext/1664057780/md2.o
 .bss           0x00000000        0x0 build/default/debug/_ext/1664057780/md2.o
 .debug_info    0x00000000      0x2fb build/default/debug/_ext/1664057780/md2.o
 .debug_abbrev  0x00000000       0x1b build/default/debug/_ext/1664057780/md2.o
 .debug_aranges
                0x00000000       0x18 build/default/debug/_ext/1664057780/md2.o
 .debug_line    0x00000000       0x1d build/default/debug/_ext/1664057780/md2.o
 .debug_str     0x00000000        0x0 build/default/debug/_ext/1664057780/md2.o
 .comment       0x00000000       0x2c build/default/debug/_ext/1664057780/md2.o
 .ARM.attributes
                0x00000000       0x39 build/default/debug/_ext/1664057780/md2.o
 .text          0x00000000        0x0 build/default/debug/_ext/1664057780/md4.o
 .data          0x00000000        0x0 build/default/debug/_ext/1664057780/md4.o
 .bss           0x00000000        0x0 build/default/debug/_ext/1664057780/md4.o
 .debug_info    0x00000000      0x2fb build/default/debug/_ext/1664057780/md4.o
 .debug_abbrev  0x00000000       0x1b build/default/debug/_ext/1664057780/md4.o
 .debug_aranges
                0x00000000       0x18 build/default/debug/_ext/1664057780/md4.o
 .debug_line    0x00000000       0x1d build/default/debug/_ext/1664057780/md4.o
 .debug_str     0x00000000        0x0 build/default/debug/_ext/1664057780/md4.o
 .comment       0x00000000       0x2c build/default/debug/_ext/1664057780/md4.o
 .ARM.attributes
                0x00000000       0x39 build/default/debug/_ext/1664057780/md4.o
 .text          0x00000000        0x0 build/default/debug/_ext/1664057780/md5.o
 .data          0x00000000        0x0 build/default/debug/_ext/1664057780/md5.o
 .bss           0x00000000        0x0 build/default/debug/_ext/1664057780/md5.o
 .text.wc_Md5Free
                0x00000000        0x2 build/default/debug/_ext/1664057780/md5.o
 .text.wc_Md5Copy
                0x00000000       0x2a build/default/debug/_ext/1664057780/md5.o
 .text.wc_Md5GetHash
                0x00000000       0x34 build/default/debug/_ext/1664057780/md5.o
 .text.wc_Md5SetFlags
                0x00000000        0x8 build/default/debug/_ext/1664057780/md5.o
 .text.wc_Md5GetFlags
                0x00000000        0xc build/default/debug/_ext/1664057780/md5.o
 .text          0x00000000        0x0 build/default/debug/_ext/1664057780/memory.o
 .data          0x00000000        0x0 build/default/debug/_ext/1664057780/memory.o
 .bss           0x00000000        0x0 build/default/debug/_ext/1664057780/memory.o
 .debug_info    0x00000000      0x2fe build/default/debug/_ext/1664057780/memory.o
 .debug_abbrev  0x00000000       0x1b build/default/debug/_ext/1664057780/memory.o
 .debug_aranges
                0x00000000       0x18 build/default/debug/_ext/1664057780/memory.o
 .debug_line    0x00000000       0x1d build/default/debug/_ext/1664057780/memory.o
 .debug_str     0x00000000        0x0 build/default/debug/_ext/1664057780/memory.o
 .comment       0x00000000       0x2c build/default/debug/_ext/1664057780/memory.o
 .ARM.attributes
                0x00000000       0x39 build/default/debug/_ext/1664057780/memory.o
 .text          0x00000000        0x0 build/default/debug/_ext/1664057780/pkcs12.o
 .data          0x00000000        0x0 build/default/debug/_ext/1664057780/pkcs12.o
 .bss           0x00000000        0x0 build/default/debug/_ext/1664057780/pkcs12.o
 .debug_info    0x00000000      0x2fe build/default/debug/_ext/1664057780/pkcs12.o
 .debug_abbrev  0x00000000       0x1b build/default/debug/_ext/1664057780/pkcs12.o
 .debug_aranges
                0x00000000       0x18 build/default/debug/_ext/1664057780/pkcs12.o
 .debug_line    0x00000000       0x1d build/default/debug/_ext/1664057780/pkcs12.o
 .debug_str     0x00000000        0x0 build/default/debug/_ext/1664057780/pkcs12.o
 .comment       0x00000000       0x2c build/default/debug/_ext/1664057780/pkcs12.o
 .ARM.attributes
                0x00000000       0x39 build/default/debug/_ext/1664057780/pkcs12.o
 .text          0x00000000        0x0 build/default/debug/_ext/1664057780/pkcs7.o
 .data          0x00000000        0x0 build/default/debug/_ext/1664057780/pkcs7.o
 .bss           0x00000000        0x0 build/default/debug/_ext/1664057780/pkcs7.o
 .debug_info    0x00000000      0x2fd build/default/debug/_ext/1664057780/pkcs7.o
 .debug_abbrev  0x00000000       0x1b build/default/debug/_ext/1664057780/pkcs7.o
 .debug_aranges
                0x00000000       0x18 build/default/debug/_ext/1664057780/pkcs7.o
 .debug_line    0x00000000       0x1d build/default/debug/_ext/1664057780/pkcs7.o
 .debug_str     0x00000000        0x0 build/default/debug/_ext/1664057780/pkcs7.o
 .comment       0x00000000       0x2c build/default/debug/_ext/1664057780/pkcs7.o
 .ARM.attributes
                0x00000000       0x39 build/default/debug/_ext/1664057780/pkcs7.o
 .text          0x00000000        0x0 build/default/debug/_ext/1664057780/poly1305.o
 .data          0x00000000        0x0 build/default/debug/_ext/1664057780/poly1305.o
 .bss           0x00000000        0x0 build/default/debug/_ext/1664057780/poly1305.o
 .debug_info    0x00000000      0x300 build/default/debug/_ext/1664057780/poly1305.o
 .debug_abbrev  0x00000000       0x1b build/default/debug/_ext/1664057780/poly1305.o
 .debug_aranges
                0x00000000       0x18 build/default/debug/_ext/1664057780/poly1305.o
 .debug_line    0x00000000       0x1d build/default/debug/_ext/1664057780/poly1305.o
 .debug_str     0x00000000        0x0 build/default/debug/_ext/1664057780/poly1305.o
 .comment       0x00000000       0x2c build/default/debug/_ext/1664057780/poly1305.o
 .ARM.attributes
                0x00000000       0x39 build/default/debug/_ext/1664057780/poly1305.o
 .text          0x00000000        0x0 build/default/debug/_ext/1664057780/pwdbased.o
 .data          0x00000000        0x0 build/default/debug/_ext/1664057780/pwdbased.o
 .bss           0x00000000        0x0 build/default/debug/_ext/1664057780/pwdbased.o
 .debug_info    0x00000000      0x300 build/default/debug/_ext/1664057780/pwdbased.o
 .debug_abbrev  0x00000000       0x1b build/default/debug/_ext/1664057780/pwdbased.o
 .debug_aranges
                0x00000000       0x18 build/default/debug/_ext/1664057780/pwdbased.o
 .debug_line    0x00000000       0x1d build/default/debug/_ext/1664057780/pwdbased.o
 .debug_str     0x00000000        0x0 build/default/debug/_ext/1664057780/pwdbased.o
 .comment       0x00000000       0x2c build/default/debug/_ext/1664057780/pwdbased.o
 .ARM.attributes
                0x00000000       0x39 build/default/debug/_ext/1664057780/pwdbased.o
 .text          0x00000000        0x0 build/default/debug/_ext/1664057780/rabbit.o
 .data          0x00000000        0x0 build/default/debug/_ext/1664057780/rabbit.o
 .bss           0x00000000        0x0 build/default/debug/_ext/1664057780/rabbit.o
 .debug_info    0x00000000      0x2fe build/default/debug/_ext/1664057780/rabbit.o
 .debug_abbrev  0x00000000       0x1b build/default/debug/_ext/1664057780/rabbit.o
 .debug_aranges
                0x00000000       0x18 build/default/debug/_ext/1664057780/rabbit.o
 .debug_line    0x00000000       0x1d build/default/debug/_ext/1664057780/rabbit.o
 .debug_str     0x00000000        0x0 build/default/debug/_ext/1664057780/rabbit.o
 .comment       0x00000000       0x2c build/default/debug/_ext/1664057780/rabbit.o
 .ARM.attributes
                0x00000000       0x39 build/default/debug/_ext/1664057780/rabbit.o
 .text          0x00000000        0x0 build/default/debug/_ext/1664057780/rc2.o
 .data          0x00000000        0x0 build/default/debug/_ext/1664057780/rc2.o
 .bss           0x00000000        0x0 build/default/debug/_ext/1664057780/rc2.o
 .debug_info    0x00000000      0x2fb build/default/debug/_ext/1664057780/rc2.o
 .debug_abbrev  0x00000000       0x1b build/default/debug/_ext/1664057780/rc2.o
 .debug_aranges
                0x00000000       0x18 build/default/debug/_ext/1664057780/rc2.o
 .debug_line    0x00000000       0x1d build/default/debug/_ext/1664057780/rc2.o
 .debug_str     0x00000000        0x0 build/default/debug/_ext/1664057780/rc2.o
 .comment       0x00000000       0x2c build/default/debug/_ext/1664057780/rc2.o
 .ARM.attributes
                0x00000000       0x39 build/default/debug/_ext/1664057780/rc2.o
 .text          0x00000000        0x0 build/default/debug/_ext/1664057780/ripemd.o
 .data          0x00000000        0x0 build/default/debug/_ext/1664057780/ripemd.o
 .bss           0x00000000        0x0 build/default/debug/_ext/1664057780/ripemd.o
 .debug_info    0x00000000      0x2fe build/default/debug/_ext/1664057780/ripemd.o
 .debug_abbrev  0x00000000       0x1b build/default/debug/_ext/1664057780/ripemd.o
 .debug_aranges
                0x00000000       0x18 build/default/debug/_ext/1664057780/ripemd.o
 .debug_line    0x00000000       0x1d build/default/debug/_ext/1664057780/ripemd.o
 .debug_str     0x00000000        0x0 build/default/debug/_ext/1664057780/ripemd.o
 .comment       0x00000000       0x2c build/default/debug/_ext/1664057780/ripemd.o
 .ARM.attributes
                0x00000000       0x39 build/default/debug/_ext/1664057780/ripemd.o
 .text          0x00000000        0x0 build/default/debug/_ext/1664057780/rsa.o
 .data          0x00000000        0x0 build/default/debug/_ext/1664057780/rsa.o
 .bss           0x00000000        0x0 build/default/debug/_ext/1664057780/rsa.o
 .text.wc_RsaCleanup
                0x00000000       0x66 build/default/debug/_ext/1664057780/rsa.o
 .text.RsaMGF1  0x00000000       0xf2 build/default/debug/_ext/1664057780/rsa.o
 .text.RsaMGF   0x00000000       0x4a build/default/debug/_ext/1664057780/rsa.o
 .text.RsaGetValue
                0x00000000       0x2c build/default/debug/_ext/1664057780/rsa.o
 .text.wc_InitRsaKey_ex
                0x00000000       0x8c build/default/debug/_ext/1664057780/rsa.o
 .text.wc_InitRsaKey
                0x00000000        0xc build/default/debug/_ext/1664057780/rsa.o
 .text.wc_InitRsaKey_Id
                0x00000000       0x46 build/default/debug/_ext/1664057780/rsa.o
 .text.wc_InitRsaKey_Label
                0x00000000       0x60 build/default/debug/_ext/1664057780/rsa.o
 .text.wc_FreeRsaKey
                0x00000000       0x90 build/default/debug/_ext/1664057780/rsa.o
 .text.wc_RsaPad_ex
                0x00000000      0x272 build/default/debug/_ext/1664057780/rsa.o
 .text.wc_RsaUnPad_ex
                0x00000000      0x272 build/default/debug/_ext/1664057780/rsa.o
 .text.wc_hash2mgf
                0x00000000       0x1a build/default/debug/_ext/1664057780/rsa.o
 .text.wc_RsaEncryptSize
                0x00000000       0x2c build/default/debug/_ext/1664057780/rsa.o
 .text.wc_RsaFunction
                0x00000000      0x2c4 build/default/debug/_ext/1664057780/rsa.o
 .text.RsaPrivateDecryptEx
                0x00000000      0x206 build/default/debug/_ext/1664057780/rsa.o
 .text.wc_RsaPrivateDecryptInline
                0x00000000       0x2c build/default/debug/_ext/1664057780/rsa.o
 .text.wc_RsaPrivateDecryptInline_ex
                0x00000000       0x38 build/default/debug/_ext/1664057780/rsa.o
 .text.wc_RsaPrivateDecrypt
                0x00000000       0x2a build/default/debug/_ext/1664057780/rsa.o
 .text.wc_RsaPrivateDecrypt_ex
                0x00000000       0x36 build/default/debug/_ext/1664057780/rsa.o
 .text.wc_RsaSSL_VerifyInline
                0x00000000       0x2a build/default/debug/_ext/1664057780/rsa.o
 .text.wc_RsaSSL_Verify_ex2
                0x00000000       0x54 build/default/debug/_ext/1664057780/rsa.o
 .text.wc_RsaSSL_Verify_ex
                0x00000000       0x18 build/default/debug/_ext/1664057780/rsa.o
 .text.wc_RsaSSL_Verify
                0x00000000       0x14 build/default/debug/_ext/1664057780/rsa.o
 .text.RsaPublicEncryptEx
                0x00000000      0x12a build/default/debug/_ext/1664057780/rsa.o
 .text.wc_RsaPublicEncrypt
                0x00000000       0x28 build/default/debug/_ext/1664057780/rsa.o
 .text.wc_RsaPublicEncrypt_ex
                0x00000000       0x34 build/default/debug/_ext/1664057780/rsa.o
 .text.wc_RsaSSL_Sign
                0x00000000       0x2a build/default/debug/_ext/1664057780/rsa.o
 .text.wc_RsaFlattenPublicKey
                0x00000000       0x8a build/default/debug/_ext/1664057780/rsa.o
 .text.wc_RsaExportKey
                0x00000000       0xd0 build/default/debug/_ext/1664057780/rsa.o
 .debug_info    0x00000000     0x4f0b build/default/debug/_ext/1664057780/rsa.o
 .debug_abbrev  0x00000000      0x425 build/default/debug/_ext/1664057780/rsa.o
 .debug_loc     0x00000000     0x4bf1 build/default/debug/_ext/1664057780/rsa.o
 .debug_aranges
                0x00000000      0x100 build/default/debug/_ext/1664057780/rsa.o
 .debug_ranges  0x00000000      0x438 build/default/debug/_ext/1664057780/rsa.o
 .debug_line    0x00000000     0x1497 build/default/debug/_ext/1664057780/rsa.o
 .debug_str     0x00000000      0x192 build/default/debug/_ext/1664057780/rsa.o
 .comment       0x00000000       0x2c build/default/debug/_ext/1664057780/rsa.o
 .debug_frame   0x00000000      0x40c build/default/debug/_ext/1664057780/rsa.o
 .ARM.attributes
                0x00000000       0x34 build/default/debug/_ext/1664057780/rsa.o
 .text          0x00000000        0x0 build/default/debug/_ext/1664057780/sha3.o
 .data          0x00000000        0x0 build/default/debug/_ext/1664057780/sha3.o
 .bss           0x00000000        0x0 build/default/debug/_ext/1664057780/sha3.o
 .debug_info    0x00000000      0x2fc build/default/debug/_ext/1664057780/sha3.o
 .debug_abbrev  0x00000000       0x1b build/default/debug/_ext/1664057780/sha3.o
 .debug_aranges
                0x00000000       0x18 build/default/debug/_ext/1664057780/sha3.o
 .debug_line    0x00000000       0x1d build/default/debug/_ext/1664057780/sha3.o
 .debug_str     0x00000000        0x0 build/default/debug/_ext/1664057780/sha3.o
 .comment       0x00000000       0x2c build/default/debug/_ext/1664057780/sha3.o
 .ARM.attributes
                0x00000000       0x39 build/default/debug/_ext/1664057780/sha3.o
 .text          0x00000000        0x0 build/default/debug/_ext/1664057780/signature.o
 .data          0x00000000        0x0 build/default/debug/_ext/1664057780/signature.o
 .bss           0x00000000        0x0 build/default/debug/_ext/1664057780/signature.o
 .debug_info    0x00000000      0x301 build/default/debug/_ext/1664057780/signature.o
 .debug_abbrev  0x00000000       0x1b build/default/debug/_ext/1664057780/signature.o
 .debug_aranges
                0x00000000       0x18 build/default/debug/_ext/1664057780/signature.o
 .debug_line    0x00000000       0x1d build/default/debug/_ext/1664057780/signature.o
 .debug_str     0x00000000        0x0 build/default/debug/_ext/1664057780/signature.o
 .comment       0x00000000       0x2c build/default/debug/_ext/1664057780/signature.o
 .ARM.attributes
                0x00000000       0x39 build/default/debug/_ext/1664057780/signature.o
 .text          0x00000000        0x0 build/default/debug/_ext/1664057780/sp_arm32.o
 .data          0x00000000        0x0 build/default/debug/_ext/1664057780/sp_arm32.o
 .bss           0x00000000        0x0 build/default/debug/_ext/1664057780/sp_arm32.o
 .debug_info    0x00000000      0x300 build/default/debug/_ext/1664057780/sp_arm32.o
 .debug_abbrev  0x00000000       0x1b build/default/debug/_ext/1664057780/sp_arm32.o
 .debug_aranges
                0x00000000       0x18 build/default/debug/_ext/1664057780/sp_arm32.o
 .debug_line    0x00000000       0x1d build/default/debug/_ext/1664057780/sp_arm32.o
 .debug_str     0x00000000        0x0 build/default/debug/_ext/1664057780/sp_arm32.o
 .comment       0x00000000       0x2c build/default/debug/_ext/1664057780/sp_arm32.o
 .ARM.attributes
                0x00000000       0x39 build/default/debug/_ext/1664057780/sp_arm32.o
 .text          0x00000000        0x0 build/default/debug/_ext/1664057780/sp_arm64.o
 .data          0x00000000        0x0 build/default/debug/_ext/1664057780/sp_arm64.o
 .bss           0x00000000        0x0 build/default/debug/_ext/1664057780/sp_arm64.o
 .debug_info    0x00000000      0x300 build/default/debug/_ext/1664057780/sp_arm64.o
 .debug_abbrev  0x00000000       0x1b build/default/debug/_ext/1664057780/sp_arm64.o
 .debug_aranges
                0x00000000       0x18 build/default/debug/_ext/1664057780/sp_arm64.o
 .debug_line    0x00000000       0x1d build/default/debug/_ext/1664057780/sp_arm64.o
 .debug_str     0x00000000        0x0 build/default/debug/_ext/1664057780/sp_arm64.o
 .comment       0x00000000       0x2c build/default/debug/_ext/1664057780/sp_arm64.o
 .ARM.attributes
                0x00000000       0x39 build/default/debug/_ext/1664057780/sp_arm64.o
 .text          0x00000000        0x0 build/default/debug/_ext/1664057780/sp_armthumb.o
 .data          0x00000000        0x0 build/default/debug/_ext/1664057780/sp_armthumb.o
 .bss           0x00000000        0x0 build/default/debug/_ext/1664057780/sp_armthumb.o
 .debug_info    0x00000000      0x303 build/default/debug/_ext/1664057780/sp_armthumb.o
 .debug_abbrev  0x00000000       0x1b build/default/debug/_ext/1664057780/sp_armthumb.o
 .debug_aranges
                0x00000000       0x18 build/default/debug/_ext/1664057780/sp_armthumb.o
 .debug_line    0x00000000       0x1d build/default/debug/_ext/1664057780/sp_armthumb.o
 .debug_str     0x00000000        0x0 build/default/debug/_ext/1664057780/sp_armthumb.o
 .comment       0x00000000       0x2c build/default/debug/_ext/1664057780/sp_armthumb.o
 .ARM.attributes
                0x00000000       0x39 build/default/debug/_ext/1664057780/sp_armthumb.o
 .text          0x00000000        0x0 build/default/debug/_ext/1664057780/sp_c32.o
 .data          0x00000000        0x0 build/default/debug/_ext/1664057780/sp_c32.o
 .bss           0x00000000        0x0 build/default/debug/_ext/1664057780/sp_c32.o
 .debug_info    0x00000000      0x2fe build/default/debug/_ext/1664057780/sp_c32.o
 .debug_abbrev  0x00000000       0x1b build/default/debug/_ext/1664057780/sp_c32.o
 .debug_aranges
                0x00000000       0x18 build/default/debug/_ext/1664057780/sp_c32.o
 .debug_line    0x00000000       0x1d build/default/debug/_ext/1664057780/sp_c32.o
 .debug_str     0x00000000        0x0 build/default/debug/_ext/1664057780/sp_c32.o
 .comment       0x00000000       0x2c build/default/debug/_ext/1664057780/sp_c32.o
 .ARM.attributes
                0x00000000       0x39 build/default/debug/_ext/1664057780/sp_c32.o
 .text          0x00000000        0x0 build/default/debug/_ext/1664057780/sp_c64.o
 .data          0x00000000        0x0 build/default/debug/_ext/1664057780/sp_c64.o
 .bss           0x00000000        0x0 build/default/debug/_ext/1664057780/sp_c64.o
 .debug_info    0x00000000      0x2fe build/default/debug/_ext/1664057780/sp_c64.o
 .debug_abbrev  0x00000000       0x1b build/default/debug/_ext/1664057780/sp_c64.o
 .debug_aranges
                0x00000000       0x18 build/default/debug/_ext/1664057780/sp_c64.o
 .debug_line    0x00000000       0x1d build/default/debug/_ext/1664057780/sp_c64.o
 .debug_str     0x00000000        0x0 build/default/debug/_ext/1664057780/sp_c64.o
 .comment       0x00000000       0x2c build/default/debug/_ext/1664057780/sp_c64.o
 .ARM.attributes
                0x00000000       0x39 build/default/debug/_ext/1664057780/sp_c64.o
 .text          0x00000000        0x0 build/default/debug/_ext/1664057780/sp_cortexm.o
 .data          0x00000000        0x0 build/default/debug/_ext/1664057780/sp_cortexm.o
 .bss           0x00000000        0x0 build/default/debug/_ext/1664057780/sp_cortexm.o
 .debug_info    0x00000000      0x302 build/default/debug/_ext/1664057780/sp_cortexm.o
 .debug_abbrev  0x00000000       0x1b build/default/debug/_ext/1664057780/sp_cortexm.o
 .debug_aranges
                0x00000000       0x18 build/default/debug/_ext/1664057780/sp_cortexm.o
 .debug_line    0x00000000       0x1d build/default/debug/_ext/1664057780/sp_cortexm.o
 .debug_str     0x00000000        0x0 build/default/debug/_ext/1664057780/sp_cortexm.o
 .comment       0x00000000       0x2c build/default/debug/_ext/1664057780/sp_cortexm.o
 .ARM.attributes
                0x00000000       0x39 build/default/debug/_ext/1664057780/sp_cortexm.o
 .text          0x00000000        0x0 build/default/debug/_ext/1664057780/sp_dsp32.o
 .data          0x00000000        0x0 build/default/debug/_ext/1664057780/sp_dsp32.o
 .bss           0x00000000        0x0 build/default/debug/_ext/1664057780/sp_dsp32.o
 .debug_info    0x00000000      0x300 build/default/debug/_ext/1664057780/sp_dsp32.o
 .debug_abbrev  0x00000000       0x1b build/default/debug/_ext/1664057780/sp_dsp32.o
 .debug_aranges
                0x00000000       0x18 build/default/debug/_ext/1664057780/sp_dsp32.o
 .debug_line    0x00000000       0x1d build/default/debug/_ext/1664057780/sp_dsp32.o
 .debug_str     0x00000000        0x0 build/default/debug/_ext/1664057780/sp_dsp32.o
 .comment       0x00000000       0x2c build/default/debug/_ext/1664057780/sp_dsp32.o
 .ARM.attributes
                0x00000000       0x39 build/default/debug/_ext/1664057780/sp_dsp32.o
 .text          0x00000000        0x0 build/default/debug/_ext/1664057780/sp_int.o
 .data          0x00000000        0x0 build/default/debug/_ext/1664057780/sp_int.o
 .bss           0x00000000        0x0 build/default/debug/_ext/1664057780/sp_int.o
 .debug_info    0x00000000      0x2fe build/default/debug/_ext/1664057780/sp_int.o
 .debug_abbrev  0x00000000       0x1b build/default/debug/_ext/1664057780/sp_int.o
 .debug_aranges
                0x00000000       0x18 build/default/debug/_ext/1664057780/sp_int.o
 .debug_line    0x00000000       0x1d build/default/debug/_ext/1664057780/sp_int.o
 .debug_str     0x00000000        0x0 build/default/debug/_ext/1664057780/sp_int.o
 .comment       0x00000000       0x2c build/default/debug/_ext/1664057780/sp_int.o
 .ARM.attributes
                0x00000000       0x39 build/default/debug/_ext/1664057780/sp_int.o
 .text          0x00000000        0x0 build/default/debug/_ext/1664057780/sp_x86_64.o
 .data          0x00000000        0x0 build/default/debug/_ext/1664057780/sp_x86_64.o
 .bss           0x00000000        0x0 build/default/debug/_ext/1664057780/sp_x86_64.o
 .debug_info    0x00000000      0x301 build/default/debug/_ext/1664057780/sp_x86_64.o
 .debug_abbrev  0x00000000       0x1b build/default/debug/_ext/1664057780/sp_x86_64.o
 .debug_aranges
                0x00000000       0x18 build/default/debug/_ext/1664057780/sp_x86_64.o
 .debug_line    0x00000000       0x1d build/default/debug/_ext/1664057780/sp_x86_64.o
 .debug_str     0x00000000        0x0 build/default/debug/_ext/1664057780/sp_x86_64.o
 .comment       0x00000000       0x2c build/default/debug/_ext/1664057780/sp_x86_64.o
 .ARM.attributes
                0x00000000       0x39 build/default/debug/_ext/1664057780/sp_x86_64.o
 .text          0x00000000        0x0 build/default/debug/_ext/1664057780/srp.o
 .data          0x00000000        0x0 build/default/debug/_ext/1664057780/srp.o
 .bss           0x00000000        0x0 build/default/debug/_ext/1664057780/srp.o
 .debug_info    0x00000000      0x2fb build/default/debug/_ext/1664057780/srp.o
 .debug_abbrev  0x00000000       0x1b build/default/debug/_ext/1664057780/srp.o
 .debug_aranges
                0x00000000       0x18 build/default/debug/_ext/1664057780/srp.o
 .debug_line    0x00000000       0x1d build/default/debug/_ext/1664057780/srp.o
 .debug_str     0x00000000        0x0 build/default/debug/_ext/1664057780/srp.o
 .comment       0x00000000       0x2c build/default/debug/_ext/1664057780/srp.o
 .ARM.attributes
                0x00000000       0x39 build/default/debug/_ext/1664057780/srp.o
 .text          0x00000000        0x0 build/default/debug/_ext/1664057780/tfm.o
 .data          0x00000000        0x0 build/default/debug/_ext/1664057780/tfm.o
 .bss           0x00000000        0x0 build/default/debug/_ext/1664057780/tfm.o
 .text.fp_cmp_mag_ct
                0x00000000       0x60 build/default/debug/_ext/1664057780/tfm.o
 .text.fp_cond_swap_ct
                0x00000000       0xa4 build/default/debug/_ext/1664057780/tfm.o
 .text.CheckRunTimeSettings
                0x00000000        0x4 build/default/debug/_ext/1664057780/tfm.o
 .text.CheckRunTimeFastMath
                0x00000000        0x4 build/default/debug/_ext/1664057780/tfm.o
 .text.s_fp_add
                0x00000000       0xdc build/default/debug/_ext/1664057780/tfm.o
 .text.s_fp_sub
                0x00000000       0xda build/default/debug/_ext/1664057780/tfm.o
 .text.fp_mul_2
                0x00000000       0x80 build/default/debug/_ext/1664057780/tfm.o
 .text.fp_mul_d
                0x00000000       0xea build/default/debug/_ext/1664057780/tfm.o
 .text.fp_div_2
                0x00000000       0x8a build/default/debug/_ext/1664057780/tfm.o
 .text.fp_div_2_mod_ct
                0x00000000       0xc6 build/default/debug/_ext/1664057780/tfm.o
 .text.fp_submod_ct
                0x00000000       0xe6 build/default/debug/_ext/1664057780/tfm.o
 .text.fp_addmod_ct
                0x00000000       0xc0 build/default/debug/_ext/1664057780/tfm.o
 .text.fp_cmp_d
                0x00000000       0x38 build/default/debug/_ext/1664057780/tfm.o
 .text.fp_cmp_mag
                0x00000000       0x66 build/default/debug/_ext/1664057780/tfm.o
 .text.fp_add   0x00000000       0x4a build/default/debug/_ext/1664057780/tfm.o
 .text.fp_sub   0x00000000       0x48 build/default/debug/_ext/1664057780/tfm.o
 .text.fp_cmp   0x00000000       0x32 build/default/debug/_ext/1664057780/tfm.o
 .text.fp_montgomery_setup
                0x00000000       0x40 build/default/debug/_ext/1664057780/tfm.o
 .text.fp_montgomery_reduce_ex
                0x00000000      0x172 build/default/debug/_ext/1664057780/tfm.o
 .text.fp_montgomery_reduce
                0x00000000        0xa build/default/debug/_ext/1664057780/tfm.o
 .text.fp_to_unsigned_bin_at_pos
                0x00000000       0x58 build/default/debug/_ext/1664057780/tfm.o
 .text.fp_to_unsigned_bin_len
                0x00000000       0x56 build/default/debug/_ext/1664057780/tfm.o
 .text.fp_is_bit_set
                0x00000000       0x2c build/default/debug/_ext/1664057780/tfm.o
 .text.fp_set_bit
                0x00000000       0x36 build/default/debug/_ext/1664057780/tfm.o
 .text.fp_count_bits
                0x00000000       0x1a build/default/debug/_ext/1664057780/tfm.o
 .text.fp_unsigned_bin_size
                0x00000000       0x1c build/default/debug/_ext/1664057780/tfm.o
 .text.fp_leading_bit
                0x00000000       0x22 build/default/debug/_ext/1664057780/tfm.o
 .text.fp_lshd  0x00000000       0x8c build/default/debug/_ext/1664057780/tfm.o
 .text.fp_reverse
                0x00000000       0x32 build/default/debug/_ext/1664057780/tfm.o
 .text.fp_zero  0x00000000       0x14 build/default/debug/_ext/1664057780/tfm.o
 .text.fp_2expt
                0x00000000       0x3c build/default/debug/_ext/1664057780/tfm.o
 .text.fp_read_unsigned_bin
                0x00000000       0x70 build/default/debug/_ext/1664057780/tfm.o
 .text.fp_set   0x00000000       0x16 build/default/debug/_ext/1664057780/tfm.o
 .text.fp_montgomery_calc_normalization
                0x00000000       0x72 build/default/debug/_ext/1664057780/tfm.o
 .text.fp_rshd  0x00000000       0x70 build/default/debug/_ext/1664057780/tfm.o
 .text.fp_rshb  0x00000000       0xa0 build/default/debug/_ext/1664057780/tfm.o
 .text.fp_init  0x00000000        0x8 build/default/debug/_ext/1664057780/tfm.o
 .text.mp_init  0x00000000        0xc build/default/debug/_ext/1664057780/tfm.o
 .text.fp_sub_d
                0x00000000       0x2a build/default/debug/_ext/1664057780/tfm.o
 .text.fp_clear
                0x00000000       0x14 build/default/debug/_ext/1664057780/tfm.o
 .text.fp_forcezero
                0x00000000       0x1e build/default/debug/_ext/1664057780/tfm.o
 .text.mp_forcezero
                0x00000000        0x8 build/default/debug/_ext/1664057780/tfm.o
 .text.fp_free  0x00000000        0x2 build/default/debug/_ext/1664057780/tfm.o
 .text.mp_clear
                0x00000000        0xa build/default/debug/_ext/1664057780/tfm.o
 .text.mp_free  0x00000000        0x2 build/default/debug/_ext/1664057780/tfm.o
 .text.mp_init_multi
                0x00000000       0x3e build/default/debug/_ext/1664057780/tfm.o
 .text.mp_add   0x00000000        0x8 build/default/debug/_ext/1664057780/tfm.o
 .text.mp_sub   0x00000000        0x8 build/default/debug/_ext/1664057780/tfm.o
 .text.mp_mul_d
                0x00000000        0x8 build/default/debug/_ext/1664057780/tfm.o
 .text.mp_submod_ct
                0x00000000        0x8 build/default/debug/_ext/1664057780/tfm.o
 .text.mp_addmod_ct
                0x00000000        0x8 build/default/debug/_ext/1664057780/tfm.o
 .text.mp_cmp   0x00000000        0x8 build/default/debug/_ext/1664057780/tfm.o
 .text.mp_cmp_d
                0x00000000        0x8 build/default/debug/_ext/1664057780/tfm.o
 .text.mp_unsigned_bin_size
                0x00000000        0x8 build/default/debug/_ext/1664057780/tfm.o
 .text.mp_to_unsigned_bin_at_pos
                0x00000000        0x8 build/default/debug/_ext/1664057780/tfm.o
 .text.mp_to_unsigned_bin_len
                0x00000000        0x8 build/default/debug/_ext/1664057780/tfm.o
 .text.mp_read_unsigned_bin
                0x00000000        0x8 build/default/debug/_ext/1664057780/tfm.o
 .text.mp_sub_d
                0x00000000        0x8 build/default/debug/_ext/1664057780/tfm.o
 .text.mp_2expt
                0x00000000        0xa build/default/debug/_ext/1664057780/tfm.o
 .text.fp_copy  0x00000000       0x24 build/default/debug/_ext/1664057780/tfm.o
 .text.fp_mul_2d
                0x00000000       0xba build/default/debug/_ext/1664057780/tfm.o
 .text.fp_set_int
                0x00000000       0x74 build/default/debug/_ext/1664057780/tfm.o
 .text.mp_mul_2d
                0x00000000        0x8 build/default/debug/_ext/1664057780/tfm.o
 .text.fp_mul_comba
                0x00000000      0x14a build/default/debug/_ext/1664057780/tfm.o
 .text.fp_mul   0x00000000       0x48 build/default/debug/_ext/1664057780/tfm.o
 .text.mp_mul   0x00000000        0x8 build/default/debug/_ext/1664057780/tfm.o
 .text.fp_mod_2d
                0x00000000       0xbe build/default/debug/_ext/1664057780/tfm.o
 .text.fp_div_2d
                0x00000000       0xaa build/default/debug/_ext/1664057780/tfm.o
 .text.mp_div_2d
                0x00000000        0xa build/default/debug/_ext/1664057780/tfm.o
 .text.fp_sqr_comba
                0x00000000      0x192 build/default/debug/_ext/1664057780/tfm.o
 .text.fp_sqr   0x00000000       0x38 build/default/debug/_ext/1664057780/tfm.o
 .text.fp_invmod_mont_ct
                0x00000000      0x1a8 build/default/debug/_ext/1664057780/tfm.o
 .text.mp_invmod_mont_ct
                0x00000000        0x8 build/default/debug/_ext/1664057780/tfm.o
 .text.fp_div_d
                0x00000000      0x14c build/default/debug/_ext/1664057780/tfm.o
 .text.fp_init_copy
                0x00000000       0x1a build/default/debug/_ext/1664057780/tfm.o
 .text.fp_div   0x00000000      0x3ba build/default/debug/_ext/1664057780/tfm.o
 .text.fp_mod   0x00000000       0x48 build/default/debug/_ext/1664057780/tfm.o
 .text.fp_mulmod
                0x00000000       0x38 build/default/debug/_ext/1664057780/tfm.o
 .text.mp_mulmod
                0x00000000        0x8 build/default/debug/_ext/1664057780/tfm.o
 .text.fp_submod
                0x00000000       0x38 build/default/debug/_ext/1664057780/tfm.o
 .text.mp_submod
                0x00000000        0x8 build/default/debug/_ext/1664057780/tfm.o
 .text.fp_addmod
                0x00000000       0x38 build/default/debug/_ext/1664057780/tfm.o
 .text.mp_addmod
                0x00000000        0x8 build/default/debug/_ext/1664057780/tfm.o
 .text._fp_exptmod_ct
                0x00000000      0x148 build/default/debug/_ext/1664057780/tfm.o
 .text._fp_exptmod_nct
                0x00000000      0x34a build/default/debug/_ext/1664057780/tfm.o
 .text.mp_mod   0x00000000        0x8 build/default/debug/_ext/1664057780/tfm.o
 .text.fp_invmod
                0x00000000      0x55e build/default/debug/_ext/1664057780/tfm.o
 .text.mp_invmod
                0x00000000        0x8 build/default/debug/_ext/1664057780/tfm.o
 .text.mp_div   0x00000000        0x8 build/default/debug/_ext/1664057780/tfm.o
 .text.fp_exptmod
                0x00000000      0x24c build/default/debug/_ext/1664057780/tfm.o
 .text.mp_exptmod
                0x00000000        0x8 build/default/debug/_ext/1664057780/tfm.o
 .text.fp_exptmod_ex
                0x00000000       0xa6 build/default/debug/_ext/1664057780/tfm.o
 .text.mp_exptmod_ex
                0x00000000       0x10 build/default/debug/_ext/1664057780/tfm.o
 .text.fp_exptmod_nct
                0x00000000       0x90 build/default/debug/_ext/1664057780/tfm.o
 .text.mp_exptmod_nct
                0x00000000        0x8 build/default/debug/_ext/1664057780/tfm.o
 .text.fp_to_unsigned_bin
                0x00000000       0x2a build/default/debug/_ext/1664057780/tfm.o
 .text.mp_to_unsigned_bin
                0x00000000        0x8 build/default/debug/_ext/1664057780/tfm.o
 .text.mp_init_copy
                0x00000000        0xa build/default/debug/_ext/1664057780/tfm.o
 .text.mp_copy  0x00000000        0xa build/default/debug/_ext/1664057780/tfm.o
 .text.mp_isodd
                0x00000000       0x10 build/default/debug/_ext/1664057780/tfm.o
 .text.mp_iszero
                0x00000000        0xa build/default/debug/_ext/1664057780/tfm.o
 .text.mp_count_bits
                0x00000000        0x8 build/default/debug/_ext/1664057780/tfm.o
 .text.mp_leading_bit
                0x00000000        0x8 build/default/debug/_ext/1664057780/tfm.o
 .text.mp_rshb  0x00000000        0x8 build/default/debug/_ext/1664057780/tfm.o
 .text.mp_rshd  0x00000000        0x8 build/default/debug/_ext/1664057780/tfm.o
 .text.mp_set_int
                0x00000000        0x8 build/default/debug/_ext/1664057780/tfm.o
 .text.mp_is_bit_set
                0x00000000        0x8 build/default/debug/_ext/1664057780/tfm.o
 .text.mp_set_bit
                0x00000000        0x8 build/default/debug/_ext/1664057780/tfm.o
 .text.fp_sqrmod
                0x00000000       0x34 build/default/debug/_ext/1664057780/tfm.o
 .text.mp_sqrmod
                0x00000000        0x8 build/default/debug/_ext/1664057780/tfm.o
 .text.mp_montgomery_calc_normalization
                0x00000000        0x8 build/default/debug/_ext/1664057780/tfm.o
 .text.fp_cnt_lsb
                0x00000000       0x5c build/default/debug/_ext/1664057780/tfm.o
 .text.fp_prime_miller_rabin_ex
                0x00000000       0xcc build/default/debug/_ext/1664057780/tfm.o
 .text.fp_isprime_ex
                0x00000000      0x10c build/default/debug/_ext/1664057780/tfm.o
 .text.mp_mod_d
                0x00000000        0xc build/default/debug/_ext/1664057780/tfm.o
 .text.mp_prime_is_prime
                0x00000000        0x8 build/default/debug/_ext/1664057780/tfm.o
 .text.mp_prime_is_prime_ex
                0x00000000      0x1a8 build/default/debug/_ext/1664057780/tfm.o
 .text.mp_cond_swap_ct
                0x00000000        0x8 build/default/debug/_ext/1664057780/tfm.o
 .text.fp_add_d
                0x00000000       0x2a build/default/debug/_ext/1664057780/tfm.o
 .text.mp_add_d
                0x00000000        0x8 build/default/debug/_ext/1664057780/tfm.o
 .text.mp_read_radix
                0x00000000      0x178 build/default/debug/_ext/1664057780/tfm.o
 .text.mp_sqr   0x00000000        0x8 build/default/debug/_ext/1664057780/tfm.o
 .text.mp_montgomery_reduce
                0x00000000        0x8 build/default/debug/_ext/1664057780/tfm.o
 .text.mp_montgomery_reduce_ex
                0x00000000        0x8 build/default/debug/_ext/1664057780/tfm.o
 .text.mp_montgomery_setup
                0x00000000        0x8 build/default/debug/_ext/1664057780/tfm.o
 .text.mp_div_2
                0x00000000        0xa build/default/debug/_ext/1664057780/tfm.o
 .text.mp_div_2_mod_ct
                0x00000000        0x8 build/default/debug/_ext/1664057780/tfm.o
 .text.mp_set   0x00000000        0xa build/default/debug/_ext/1664057780/tfm.o
 .text.mp_radix_size
                0x00000000       0xc8 build/default/debug/_ext/1664057780/tfm.o
 .text.mp_toradix
                0x00000000       0xcc build/default/debug/_ext/1664057780/tfm.o
 .text.mp_abs   0x00000000        0xe build/default/debug/_ext/1664057780/tfm.o
 .text.mp_lshd  0x00000000        0x8 build/default/debug/_ext/1664057780/tfm.o
 .rodata        0x00000000       0x44 build/default/debug/_ext/1664057780/tfm.o
 .rodata.lnz    0x00000000       0x40 build/default/debug/_ext/1664057780/tfm.o
 .rodata.primes
                0x00000000      0x400 build/default/debug/_ext/1664057780/tfm.o
 .debug_info    0x00000000     0x8a8f build/default/debug/_ext/1664057780/tfm.o
 .debug_abbrev  0x00000000      0x527 build/default/debug/_ext/1664057780/tfm.o
 .debug_loc     0x00000000     0xada3 build/default/debug/_ext/1664057780/tfm.o
 .debug_aranges
                0x00000000      0x438 build/default/debug/_ext/1664057780/tfm.o
 .debug_ranges  0x00000000      0x578 build/default/debug/_ext/1664057780/tfm.o
 .debug_line    0x00000000     0x3f8c build/default/debug/_ext/1664057780/tfm.o
 .debug_str     0x00000000       0x44 build/default/debug/_ext/1664057780/tfm.o
 .comment       0x00000000       0x2c build/default/debug/_ext/1664057780/tfm.o
 .debug_frame   0x00000000      0xfe4 build/default/debug/_ext/1664057780/tfm.o
 .ARM.attributes
                0x00000000       0x34 build/default/debug/_ext/1664057780/tfm.o
 .text          0x00000000        0x0 build/default/debug/_ext/1664057780/wc_dsp.o
 .data          0x00000000        0x0 build/default/debug/_ext/1664057780/wc_dsp.o
 .bss           0x00000000        0x0 build/default/debug/_ext/1664057780/wc_dsp.o
 .debug_info    0x00000000      0x2fe build/default/debug/_ext/1664057780/wc_dsp.o
 .debug_abbrev  0x00000000       0x1b build/default/debug/_ext/1664057780/wc_dsp.o
 .debug_aranges
                0x00000000       0x18 build/default/debug/_ext/1664057780/wc_dsp.o
 .debug_line    0x00000000       0x1d build/default/debug/_ext/1664057780/wc_dsp.o
 .debug_str     0x00000000        0x0 build/default/debug/_ext/1664057780/wc_dsp.o
 .comment       0x00000000       0x2c build/default/debug/_ext/1664057780/wc_dsp.o
 .ARM.attributes
                0x00000000       0x39 build/default/debug/_ext/1664057780/wc_dsp.o
 .text          0x00000000        0x0 build/default/debug/_ext/1664057780/wc_encrypt.o
 .data          0x00000000        0x0 build/default/debug/_ext/1664057780/wc_encrypt.o
 .bss           0x00000000        0x0 build/default/debug/_ext/1664057780/wc_encrypt.o
 .text.wc_AesCbcDecryptWithKey
                0x00000000       0x74 build/default/debug/_ext/1664057780/wc_encrypt.o
 .text.wc_AesCbcEncryptWithKey
                0x00000000       0x52 build/default/debug/_ext/1664057780/wc_encrypt.o
 .text.wc_Des_CbcEncryptWithKey
                0x00000000       0x30 build/default/debug/_ext/1664057780/wc_encrypt.o
 .text.wc_Des_CbcDecryptWithKey
                0x00000000       0x30 build/default/debug/_ext/1664057780/wc_encrypt.o
 .text.wc_Des3_CbcEncryptWithKey
                0x00000000       0x4e build/default/debug/_ext/1664057780/wc_encrypt.o
 .text.wc_Des3_CbcDecryptWithKey
                0x00000000       0x4e build/default/debug/_ext/1664057780/wc_encrypt.o
 .debug_info    0x00000000     0x1a33 build/default/debug/_ext/1664057780/wc_encrypt.o
 .debug_abbrev  0x00000000      0x174 build/default/debug/_ext/1664057780/wc_encrypt.o
 .debug_loc     0x00000000      0x97d build/default/debug/_ext/1664057780/wc_encrypt.o
 .debug_aranges
                0x00000000       0x48 build/default/debug/_ext/1664057780/wc_encrypt.o
 .debug_ranges  0x00000000       0x38 build/default/debug/_ext/1664057780/wc_encrypt.o
 .debug_line    0x00000000      0x2be build/default/debug/_ext/1664057780/wc_encrypt.o
 .debug_str     0x00000000       0xc4 build/default/debug/_ext/1664057780/wc_encrypt.o
 .comment       0x00000000       0x2c build/default/debug/_ext/1664057780/wc_encrypt.o
 .debug_frame   0x00000000      0x110 build/default/debug/_ext/1664057780/wc_encrypt.o
 .ARM.attributes
                0x00000000       0x34 build/default/debug/_ext/1664057780/wc_encrypt.o
 .text          0x00000000        0x0 build/default/debug/_ext/1664057780/wc_pkcs11.o
 .data          0x00000000        0x0 build/default/debug/_ext/1664057780/wc_pkcs11.o
 .bss           0x00000000        0x0 build/default/debug/_ext/1664057780/wc_pkcs11.o
 .debug_info    0x00000000      0x301 build/default/debug/_ext/1664057780/wc_pkcs11.o
 .debug_abbrev  0x00000000       0x1b build/default/debug/_ext/1664057780/wc_pkcs11.o
 .debug_aranges
                0x00000000       0x18 build/default/debug/_ext/1664057780/wc_pkcs11.o
 .debug_line    0x00000000       0x1d build/default/debug/_ext/1664057780/wc_pkcs11.o
 .debug_str     0x00000000        0x0 build/default/debug/_ext/1664057780/wc_pkcs11.o
 .comment       0x00000000       0x2c build/default/debug/_ext/1664057780/wc_pkcs11.o
 .ARM.attributes
                0x00000000       0x39 build/default/debug/_ext/1664057780/wc_pkcs11.o
 .text          0x00000000        0x0 build/default/debug/_ext/1664057780/wc_port.o
 .data          0x00000000        0x0 build/default/debug/_ext/1664057780/wc_port.o
 .bss           0x00000000        0x0 build/default/debug/_ext/1664057780/wc_port.o
 .text.wolfCrypt_Init
                0x00000000       0x20 build/default/debug/_ext/1664057780/wc_port.o
 .text.wolfCrypt_Cleanup
                0x00000000       0x24 build/default/debug/_ext/1664057780/wc_port.o
 .text.wc_InitAndAllocMutex
                0x00000000        0xa build/default/debug/_ext/1664057780/wc_port.o
 .text.wc_strtok
                0x00000000       0x84 build/default/debug/_ext/1664057780/wc_port.o
 .text.wc_strsep
                0x00000000       0x40 build/default/debug/_ext/1664057780/wc_port.o
 .text.wc_InitMutex
                0x00000000        0x4 build/default/debug/_ext/1664057780/wc_port.o
 .text.wc_FreeMutex
                0x00000000        0x4 build/default/debug/_ext/1664057780/wc_port.o
 .text.wc_LockMutex
                0x00000000        0x4 build/default/debug/_ext/1664057780/wc_port.o
 .text.wc_UnLockMutex
                0x00000000        0x4 build/default/debug/_ext/1664057780/wc_port.o
 .text.mystrnstr
                0x00000000       0x5c build/default/debug/_ext/1664057780/wc_port.o
 .bss.initRefCount
                0x00000000        0x4 build/default/debug/_ext/1664057780/wc_port.o
 .debug_info    0x00000000      0xf13 build/default/debug/_ext/1664057780/wc_port.o
 .debug_abbrev  0x00000000      0x217 build/default/debug/_ext/1664057780/wc_port.o
 .debug_loc     0x00000000      0x4f4 build/default/debug/_ext/1664057780/wc_port.o
 .debug_aranges
                0x00000000       0x68 build/default/debug/_ext/1664057780/wc_port.o
 .debug_ranges  0x00000000       0x58 build/default/debug/_ext/1664057780/wc_port.o
 .debug_line    0x00000000      0x426 build/default/debug/_ext/1664057780/wc_port.o
 .debug_str     0x00000000       0x11 build/default/debug/_ext/1664057780/wc_port.o
 .comment       0x00000000       0x2c build/default/debug/_ext/1664057780/wc_port.o
 .debug_frame   0x00000000      0x120 build/default/debug/_ext/1664057780/wc_port.o
 .ARM.attributes
                0x00000000       0x34 build/default/debug/_ext/1664057780/wc_port.o
 .text          0x00000000        0x0 build/default/debug/_ext/1664057780/wolfevent.o
 .data          0x00000000        0x0 build/default/debug/_ext/1664057780/wolfevent.o
 .bss           0x00000000        0x0 build/default/debug/_ext/1664057780/wolfevent.o
 .debug_info    0x00000000      0x301 build/default/debug/_ext/1664057780/wolfevent.o
 .debug_abbrev  0x00000000       0x1b build/default/debug/_ext/1664057780/wolfevent.o
 .debug_aranges
                0x00000000       0x18 build/default/debug/_ext/1664057780/wolfevent.o
 .debug_line    0x00000000       0x1d build/default/debug/_ext/1664057780/wolfevent.o
 .debug_str     0x00000000        0x0 build/default/debug/_ext/1664057780/wolfevent.o
 .comment       0x00000000       0x2c build/default/debug/_ext/1664057780/wolfevent.o
 .ARM.attributes
                0x00000000       0x39 build/default/debug/_ext/1664057780/wolfevent.o
 .text          0x00000000        0x0 build/default/debug/_ext/1664057780/wolfmath.o
 .data          0x00000000        0x0 build/default/debug/_ext/1664057780/wolfmath.o
 .bss           0x00000000        0x0 build/default/debug/_ext/1664057780/wolfmath.o
 .text.get_digit_count
                0x00000000        0xa build/default/debug/_ext/1664057780/wolfmath.o
 .text.get_digit
                0x00000000       0x20 build/default/debug/_ext/1664057780/wolfmath.o
 .text.mp_cond_copy
                0x00000000       0xb6 build/default/debug/_ext/1664057780/wolfmath.o
 .text.get_rand_digit
                0x00000000        0xa build/default/debug/_ext/1664057780/wolfmath.o
 .text.wc_export_int
                0x00000000       0x4e build/default/debug/_ext/1664057780/wolfmath.o
 .rodata.wc_off_on_addr
                0x00000000        0x8 build/default/debug/_ext/1664057780/wolfmath.o
 .debug_info    0x00000000     0x158d build/default/debug/_ext/1664057780/wolfmath.o
 .debug_abbrev  0x00000000      0x1e4 build/default/debug/_ext/1664057780/wolfmath.o
 .debug_loc     0x00000000      0x4a1 build/default/debug/_ext/1664057780/wolfmath.o
 .debug_aranges
                0x00000000       0x40 build/default/debug/_ext/1664057780/wolfmath.o
 .debug_ranges  0x00000000       0x30 build/default/debug/_ext/1664057780/wolfmath.o
 .debug_line    0x00000000      0x276 build/default/debug/_ext/1664057780/wolfmath.o
 .debug_str     0x00000000       0x48 build/default/debug/_ext/1664057780/wolfmath.o
 .comment       0x00000000       0x2c build/default/debug/_ext/1664057780/wolfmath.o
 .debug_frame   0x00000000       0xb0 build/default/debug/_ext/1664057780/wolfmath.o
 .ARM.attributes
                0x00000000       0x34 build/default/debug/_ext/1664057780/wolfmath.o
 .text          0x00000000        0x0 build/default/debug/_ext/1664057780/aes.o
 .data          0x00000000        0x0 build/default/debug/_ext/1664057780/aes.o
 .bss           0x00000000        0x0 build/default/debug/_ext/1664057780/aes.o
 .text.col_mul  0x00000000       0x3a build/default/debug/_ext/1664057780/aes.o
 .text.inv_col_mul
                0x00000000       0x66 build/default/debug/_ext/1664057780/aes.o
 .text.wc_AesEncrypt
                0x00000000      0x3a0 build/default/debug/_ext/1664057780/aes.o
 .text.wc_AesDecrypt
                0x00000000      0x3a4 build/default/debug/_ext/1664057780/aes.o
 .text.GMULT    0x00000000       0xb8 build/default/debug/_ext/1664057780/aes.o
 .text.roll_x   0x00000000       0xcc build/default/debug/_ext/1664057780/aes.o
 .text.roll_auth
                0x00000000       0xf0 build/default/debug/_ext/1664057780/aes.o
 .text.wc_AesSetIV
                0x00000000       0x40 build/default/debug/_ext/1664057780/aes.o
 .text.wc_AesSetKeyLocal
                0x00000000      0x2a8 build/default/debug/_ext/1664057780/aes.o
 .text.wc_AesSetKey
                0x00000000       0x26 build/default/debug/_ext/1664057780/aes.o
 .text.wc_AesSetKeyDirect
                0x00000000       0x26 build/default/debug/_ext/1664057780/aes.o
 .text.wc_AesEncryptDirect
                0x00000000        0xe build/default/debug/_ext/1664057780/aes.o
 .text.wc_AesDecryptDirect
                0x00000000        0xe build/default/debug/_ext/1664057780/aes.o
 .text.wc_AesCbcEncrypt
                0x00000000       0xd0 build/default/debug/_ext/1664057780/aes.o
 .text.wc_AesCbcDecrypt
                0x00000000       0xf6 build/default/debug/_ext/1664057780/aes.o
 .text.wc_AesCtrEncrypt
                0x00000000      0x1b8 build/default/debug/_ext/1664057780/aes.o
 .text.wc_AesGcmSetKey
                0x00000000       0x5e build/default/debug/_ext/1664057780/aes.o
 .text.GHASH    0x00000000      0x38e build/default/debug/_ext/1664057780/aes.o
 .text.wc_AesGcmSetExtIV
                0x00000000       0x4a build/default/debug/_ext/1664057780/aes.o
 .text.wc_AesGcmSetIV
                0x00000000       0x86 build/default/debug/_ext/1664057780/aes.o
 .text.wc_GmacSetKey
                0x00000000       0x18 build/default/debug/_ext/1664057780/aes.o
 .text.wc_AesCcmSetKey
                0x00000000       0x24 build/default/debug/_ext/1664057780/aes.o
 .text.wc_AesCcmCheckTagSize
                0x00000000       0x24 build/default/debug/_ext/1664057780/aes.o
 .text.wc_AesCcmEncrypt
                0x00000000      0x312 build/default/debug/_ext/1664057780/aes.o
 .text.wc_AesCcmDecrypt
                0x00000000      0x39e build/default/debug/_ext/1664057780/aes.o
 .text.wc_AesCcmSetNonce
                0x00000000       0x3c build/default/debug/_ext/1664057780/aes.o
 .text.wc_AesCcmEncrypt_ex
                0x00000000       0xda build/default/debug/_ext/1664057780/aes.o
 .text.wc_AesInit
                0x00000000       0x1a build/default/debug/_ext/1664057780/aes.o
 .text.wc_AesFree
                0x00000000       0x1a build/default/debug/_ext/1664057780/aes.o
 .text.wc_AesGetKeySize
                0x00000000       0x42 build/default/debug/_ext/1664057780/aes.o
 .text.wc_AesEcbEncrypt
                0x00000000       0x40 build/default/debug/_ext/1664057780/aes.o
 .text.wc_AesGcmEncrypt
                0x00000000      0x34a build/default/debug/_ext/1664057780/aes.o
 .text.wc_AesGcmEncrypt_ex
                0x00000000       0xf4 build/default/debug/_ext/1664057780/aes.o
 .text.wc_Gmac  0x00000000       0xc4 build/default/debug/_ext/1664057780/aes.o
 .text.wc_GmacUpdate
                0x00000000       0x24 build/default/debug/_ext/1664057780/aes.o
 .text.wc_AesGcmDecrypt
                0x00000000      0x386 build/default/debug/_ext/1664057780/aes.o
 .text.wc_GmacVerify
                0x00000000       0xa4 build/default/debug/_ext/1664057780/aes.o
 .text.wc_AesEcbDecrypt
                0x00000000       0x40 build/default/debug/_ext/1664057780/aes.o
 .text.wc_AesOfbEncrypt
                0x00000000      0x176 build/default/debug/_ext/1664057780/aes.o
 .text.wc_AesOfbDecrypt
                0x00000000      0x180 build/default/debug/_ext/1664057780/aes.o
 .rodata.Td4    0x00000000      0x100 build/default/debug/_ext/1664057780/aes.o
 .rodata.Tsbox  0x00000000      0x100 build/default/debug/_ext/1664057780/aes.o
 .rodata.rcon   0x00000000       0x28 build/default/debug/_ext/1664057780/aes.o
 .debug_info    0x00000000     0x7829 build/default/debug/_ext/1664057780/aes.o
 .debug_abbrev  0x00000000      0x563 build/default/debug/_ext/1664057780/aes.o
 .debug_loc     0x00000000     0x9991 build/default/debug/_ext/1664057780/aes.o
 .debug_aranges
                0x00000000      0x158 build/default/debug/_ext/1664057780/aes.o
 .debug_ranges  0x00000000      0xb50 build/default/debug/_ext/1664057780/aes.o
 .debug_line    0x00000000     0x3160 build/default/debug/_ext/1664057780/aes.o
 .debug_str     0x00000000       0xfa build/default/debug/_ext/1664057780/aes.o
 .comment       0x00000000       0x2c build/default/debug/_ext/1664057780/aes.o
 .debug_frame   0x00000000      0x69c build/default/debug/_ext/1664057780/aes.o
 .ARM.attributes
                0x00000000       0x34 build/default/debug/_ext/1664057780/aes.o
 .text          0x00000000        0x0 build/default/debug/_ext/1664057780/des3.o
 .data          0x00000000        0x0 build/default/debug/_ext/1664057780/des3.o
 .bss           0x00000000        0x0 build/default/debug/_ext/1664057780/des3.o
 .text.DesRawProcessBlock
                0x00000000      0x130 build/default/debug/_ext/1664057780/des3.o
 .text.Des3ProcessBlock
                0x00000000      0x12a build/default/debug/_ext/1664057780/des3.o
 .text.DesSetKey
                0x00000000      0x160 build/default/debug/_ext/1664057780/des3.o
 .text.DesProcessBlock
                0x00000000      0x112 build/default/debug/_ext/1664057780/des3.o
 .text.wc_Des_CbcEncrypt
                0x00000000       0x78 build/default/debug/_ext/1664057780/des3.o
 .text.wc_Des_CbcDecrypt
                0x00000000       0x7e build/default/debug/_ext/1664057780/des3.o
 .text.wc_Des3_CbcEncrypt
                0x00000000       0xbc build/default/debug/_ext/1664057780/des3.o
 .text.wc_Des3_CbcDecrypt
                0x00000000       0xca build/default/debug/_ext/1664057780/des3.o
 .text.wc_Des_SetIV
                0x00000000       0x18 build/default/debug/_ext/1664057780/des3.o
 .text.wc_Des_SetKey
                0x00000000       0x1c build/default/debug/_ext/1664057780/des3.o
 .text.wc_Des3_SetIV
                0x00000000       0x28 build/default/debug/_ext/1664057780/des3.o
 .text.wc_Des3_SetKey
                0x00000000       0xb8 build/default/debug/_ext/1664057780/des3.o
 .text.wc_Des3Init
                0x00000000       0x1a build/default/debug/_ext/1664057780/des3.o
 .text.wc_Des3Free
                0x00000000       0x1a build/default/debug/_ext/1664057780/des3.o
 .rodata.Spbox  0x00000000      0x800 build/default/debug/_ext/1664057780/des3.o
 .rodata.bytebit
                0x00000000       0x20 build/default/debug/_ext/1664057780/des3.o
 .rodata.pc1    0x00000000       0x38 build/default/debug/_ext/1664057780/des3.o
 .rodata.pc2    0x00000000       0x30 build/default/debug/_ext/1664057780/des3.o
 .rodata.totrot
                0x00000000       0x10 build/default/debug/_ext/1664057780/des3.o
 .debug_info    0x00000000     0x2ee5 build/default/debug/_ext/1664057780/des3.o
 .debug_abbrev  0x00000000      0x357 build/default/debug/_ext/1664057780/des3.o
 .debug_loc     0x00000000     0x73b7 build/default/debug/_ext/1664057780/des3.o
 .debug_aranges
                0x00000000       0x88 build/default/debug/_ext/1664057780/des3.o
 .debug_ranges  0x00000000      0x450 build/default/debug/_ext/1664057780/des3.o
 .debug_line    0x00000000      0xed3 build/default/debug/_ext/1664057780/des3.o
 .debug_str     0x00000000       0x37 build/default/debug/_ext/1664057780/des3.o
 .comment       0x00000000       0x2c build/default/debug/_ext/1664057780/des3.o
 .debug_frame   0x00000000      0x1d4 build/default/debug/_ext/1664057780/des3.o
 .ARM.attributes
                0x00000000       0x34 build/default/debug/_ext/1664057780/des3.o
 .text          0x00000000        0x0 build/default/debug/_ext/1664057780/random.o
 .data          0x00000000        0x0 build/default/debug/_ext/1664057780/random.o
 .bss           0x00000000        0x0 build/default/debug/_ext/1664057780/random.o
 .text.wc_RNG_DRBG_Reseed
                0x00000000       0x1a build/default/debug/_ext/1664057780/random.o
 .text.wc_FreeRng
                0x00000000       0x34 build/default/debug/_ext/1664057780/random.o
 .text.wc_rng_free
                0x00000000       0x28 build/default/debug/_ext/1664057780/random.o
 .text.wc_rng_new
                0x00000000       0x36 build/default/debug/_ext/1664057780/random.o
 .text.wc_InitRng_ex
                0x00000000       0x16 build/default/debug/_ext/1664057780/random.o
 .text.wc_InitRngNonce
                0x00000000       0x16 build/default/debug/_ext/1664057780/random.o
 .text.wc_InitRngNonce_ex
                0x00000000       0x10 build/default/debug/_ext/1664057780/random.o
 .text.wc_RNG_GenerateByte
                0x00000000        0xa build/default/debug/_ext/1664057780/random.o
 .text          0x00000000        0x0 build/default/debug/_ext/1664057780/sha.o
 .data          0x00000000        0x0 build/default/debug/_ext/1664057780/sha.o
 .bss           0x00000000        0x0 build/default/debug/_ext/1664057780/sha.o
 .text.Transform
                0x00000000      0xdb8 build/default/debug/_ext/1664057780/sha.o
 .text.wc_InitSha_ex
                0x00000000       0x44 build/default/debug/_ext/1664057780/sha.o
 .text.wc_ShaUpdate
                0x00000000      0x15a build/default/debug/_ext/1664057780/sha.o
 .text.wc_ShaFinalRaw
                0x00000000       0x54 build/default/debug/_ext/1664057780/sha.o
 .text.wc_ShaFinal
                0x00000000      0x15c build/default/debug/_ext/1664057780/sha.o
 .text.wc_InitSha
                0x00000000        0xe build/default/debug/_ext/1664057780/sha.o
 .text.wc_ShaFree
                0x00000000        0x2 build/default/debug/_ext/1664057780/sha.o
 .text.wc_ShaCopy
                0x00000000       0x2a build/default/debug/_ext/1664057780/sha.o
 .text.wc_ShaGetHash
                0x00000000       0x34 build/default/debug/_ext/1664057780/sha.o
 .text.wc_ShaSetFlags
                0x00000000        0x8 build/default/debug/_ext/1664057780/sha.o
 .text.wc_ShaGetFlags
                0x00000000        0xc build/default/debug/_ext/1664057780/sha.o
 .debug_info    0x00000000     0x4b1f build/default/debug/_ext/1664057780/sha.o
 .debug_abbrev  0x00000000      0x313 build/default/debug/_ext/1664057780/sha.o
 .debug_loc     0x00000000     0x69a4 build/default/debug/_ext/1664057780/sha.o
 .debug_aranges
                0x00000000       0x70 build/default/debug/_ext/1664057780/sha.o
 .debug_ranges  0x00000000      0x6d8 build/default/debug/_ext/1664057780/sha.o
 .debug_line    0x00000000     0x1da1 build/default/debug/_ext/1664057780/sha.o
 .debug_str     0x00000000       0x14 build/default/debug/_ext/1664057780/sha.o
 .comment       0x00000000       0x2c build/default/debug/_ext/1664057780/sha.o
 .debug_frame   0x00000000      0x154 build/default/debug/_ext/1664057780/sha.o
 .ARM.attributes
                0x00000000       0x34 build/default/debug/_ext/1664057780/sha.o
 .text          0x00000000        0x0 build/default/debug/_ext/1664057780/sha256.o
 .data          0x00000000        0x0 build/default/debug/_ext/1664057780/sha256.o
 .bss           0x00000000        0x0 build/default/debug/_ext/1664057780/sha256.o
 .text.wc_Sha256FinalRaw
                0x00000000       0x5a build/default/debug/_ext/1664057780/sha256.o
 .text.wc_InitSha224_ex
                0x00000000       0x64 build/default/debug/_ext/1664057780/sha256.o
 .text.wc_Sha224Update
                0x00000000      0x12e build/default/debug/_ext/1664057780/sha256.o
 .text.wc_Sha224Final
                0x00000000      0x16c build/default/debug/_ext/1664057780/sha256.o
 .text.wc_InitSha224
                0x00000000        0xe build/default/debug/_ext/1664057780/sha256.o
 .text.wc_Sha224Free
                0x00000000        0x2 build/default/debug/_ext/1664057780/sha256.o
 .text.wc_InitSha256
                0x00000000        0xe build/default/debug/_ext/1664057780/sha256.o
 .text.wc_Sha224Copy
                0x00000000       0x2a build/default/debug/_ext/1664057780/sha256.o
 .text.wc_Sha224GetHash
                0x00000000       0x34 build/default/debug/_ext/1664057780/sha256.o
 .text.wc_Sha224SetFlags
                0x00000000        0x8 build/default/debug/_ext/1664057780/sha256.o
 .text.wc_Sha224GetFlags
                0x00000000        0xc build/default/debug/_ext/1664057780/sha256.o
 .text.wc_Sha256Copy
                0x00000000       0x2a build/default/debug/_ext/1664057780/sha256.o
 .text.wc_Sha256GetHash
                0x00000000       0x34 build/default/debug/_ext/1664057780/sha256.o
 .text.wc_Sha256SetFlags
                0x00000000        0x8 build/default/debug/_ext/1664057780/sha256.o
 .text.wc_Sha256GetFlags
                0x00000000        0xc build/default/debug/_ext/1664057780/sha256.o
 .text          0x00000000        0x0 build/default/debug/_ext/1664057780/sha512.o
 .data          0x00000000        0x0 build/default/debug/_ext/1664057780/sha512.o
 .bss           0x00000000        0x0 build/default/debug/_ext/1664057780/sha512.o
 .debug_info    0x00000000      0x2fe build/default/debug/_ext/1664057780/sha512.o
 .debug_abbrev  0x00000000       0x1b build/default/debug/_ext/1664057780/sha512.o
 .debug_aranges
                0x00000000       0x18 build/default/debug/_ext/1664057780/sha512.o
 .debug_line    0x00000000       0x1d build/default/debug/_ext/1664057780/sha512.o
 .debug_str     0x00000000        0x0 build/default/debug/_ext/1664057780/sha512.o
 .comment       0x00000000       0x2c build/default/debug/_ext/1664057780/sha512.o
 .ARM.attributes
                0x00000000       0x39 build/default/debug/_ext/1664057780/sha512.o
 .text          0x00000000        0x0 build/default/debug/_ext/1664057780/ecc.o
 .data          0x00000000        0x0 build/default/debug/_ext/1664057780/ecc.o
 .bss           0x00000000        0x0 build/default/debug/_ext/1664057780/ecc.o
 .text.ecc_point_to_mont
                0x00000000       0xa8 build/default/debug/_ext/1664057780/ecc.o
 .text.wc_ecc_cmp_param
                0x00000000       0x84 build/default/debug/_ext/1664057780/ecc.o
 .text.wc_ecc_curve_cache_load_item
                0x00000000       0x50 build/default/debug/_ext/1664057780/ecc.o
 .text.wc_ecc_curve_free
                0x00000000       0xa8 build/default/debug/_ext/1664057780/ecc.o
 .text.wc_ecc_curve_load
                0x00000000       0xbe build/default/debug/_ext/1664057780/ecc.o
 .text.wc_ecc_get_curve_order_bit_count
                0x00000000       0x46 build/default/debug/_ext/1664057780/ecc.o
 .text.wc_ecc_set_curve
                0x00000000       0x6c build/default/debug/_ext/1664057780/ecc.o
 .text.wc_ecc_import_raw_private
                0x00000000      0x142 build/default/debug/_ext/1664057780/ecc.o
 .text.ecc_projective_dbl_point
                0x00000000      0x27a build/default/debug/_ext/1664057780/ecc.o
 .text.ecc_projective_add_point
                0x00000000      0x46c build/default/debug/_ext/1664057780/ecc.o
 .text.ecc_map_ex
                0x00000000      0x13a build/default/debug/_ext/1664057780/ecc.o
 .text.ecc_map  0x00000000        0xa build/default/debug/_ext/1664057780/ecc.o
 .text.wc_ecc_new_point_h
                0x00000000       0x40 build/default/debug/_ext/1664057780/ecc.o
 .text.wc_ecc_new_point
                0x00000000        0xa build/default/debug/_ext/1664057780/ecc.o
 .text.wc_ecc_del_point_h
                0x00000000       0x24 build/default/debug/_ext/1664057780/ecc.o
 .text.wc_ecc_del_point
                0x00000000        0xa build/default/debug/_ext/1664057780/ecc.o
 .text.wc_ecc_copy_point
                0x00000000       0x44 build/default/debug/_ext/1664057780/ecc.o
 .text.wc_ecc_cmp_point
                0x00000000       0x44 build/default/debug/_ext/1664057780/ecc.o
 .text.wc_ecc_is_valid_idx
                0x00000000       0x14 build/default/debug/_ext/1664057780/ecc.o
 .text.wc_ecc_get_curve_idx
                0x00000000       0x28 build/default/debug/_ext/1664057780/ecc.o
 .text.wc_ecc_get_name
                0x00000000       0x20 build/default/debug/_ext/1664057780/ecc.o
 .text.wc_ecc_get_curve_id
                0x00000000       0x20 build/default/debug/_ext/1664057780/ecc.o
 .text.wc_ecc_get_curve_size_from_id
                0x00000000       0x24 build/default/debug/_ext/1664057780/ecc.o
 .text.wc_ecc_get_curve_idx_from_name
                0x00000000       0x50 build/default/debug/_ext/1664057780/ecc.o
 .text.wc_ecc_get_curve_size_from_name
                0x00000000       0x24 build/default/debug/_ext/1664057780/ecc.o
 .text.wc_ecc_get_curve_id_from_name
                0x00000000       0x24 build/default/debug/_ext/1664057780/ecc.o
 .text.wc_ecc_get_curve_id_from_params
                0x00000000       0xf4 build/default/debug/_ext/1664057780/ecc.o
 .text.wc_ecc_get_curve_id_from_dp_params
                0x00000000      0x138 build/default/debug/_ext/1664057780/ecc.o
 .text.wc_ecc_get_curve_id_from_oid
                0x00000000       0x58 build/default/debug/_ext/1664057780/ecc.o
 .text.wc_ecc_get_curve_params
                0x00000000       0x14 build/default/debug/_ext/1664057780/ecc.o
 .text.wc_ecc_point_is_at_infinity
                0x00000000       0x26 build/default/debug/_ext/1664057780/ecc.o
 .text.wc_ecc_gen_k
                0x00000000       0x72 build/default/debug/_ext/1664057780/ecc.o
 .text.wc_ecc_init_ex
                0x00000000       0x4e build/default/debug/_ext/1664057780/ecc.o
 .text.wc_ecc_key_new
                0x00000000       0x2a build/default/debug/_ext/1664057780/ecc.o
 .text.wc_ecc_init
                0x00000000        0xe build/default/debug/_ext/1664057780/ecc.o
 .text.wc_ecc_init_id
                0x00000000       0x42 build/default/debug/_ext/1664057780/ecc.o
 .text.wc_ecc_init_label
                0x00000000       0x5a build/default/debug/_ext/1664057780/ecc.o
 .text.wc_ecc_set_flags
                0x00000000       0x12 build/default/debug/_ext/1664057780/ecc.o
 .text.wc_ecc_free
                0x00000000       0x2c build/default/debug/_ext/1664057780/ecc.o
 .text.wc_ecc_key_free
                0x00000000       0x28 build/default/debug/_ext/1664057780/ecc.o
 .text.ecc_projective_add_point_safe
                0x00000000      0x14c build/default/debug/_ext/1664057780/ecc.o
 .text.ecc_projective_dbl_point_safe
                0x00000000       0x3a build/default/debug/_ext/1664057780/ecc.o
 .text.ecc_mulmod
                0x00000000      0x256 build/default/debug/_ext/1664057780/ecc.o
 .text.wc_ecc_mulmod_ex
                0x00000000       0xfa build/default/debug/_ext/1664057780/ecc.o
 .text.wc_ecc_mulmod
                0x00000000       0x18 build/default/debug/_ext/1664057780/ecc.o
 .text.wc_ecc_mulmod_ex2
                0x00000000      0x100 build/default/debug/_ext/1664057780/ecc.o
 .text.wc_ecc_shared_secret_gen
                0x00000000      0x12a build/default/debug/_ext/1664057780/ecc.o
 .text.wc_ecc_shared_secret_ex
                0x00000000       0x94 build/default/debug/_ext/1664057780/ecc.o
 .text.wc_ecc_shared_secret
                0x00000000       0x90 build/default/debug/_ext/1664057780/ecc.o
 .text.ecc_make_pub_ex
                0x00000000      0x196 build/default/debug/_ext/1664057780/ecc.o
 .text.wc_ecc_make_pub
                0x00000000        0xe build/default/debug/_ext/1664057780/ecc.o
 .text.wc_ecc_make_pub_ex
                0x00000000        0xe build/default/debug/_ext/1664057780/ecc.o
 .text.wc_ecc_make_key_ex2
                0x00000000       0xd6 build/default/debug/_ext/1664057780/ecc.o
 .text.wc_ecc_make_key_ex
                0x00000000       0x10 build/default/debug/_ext/1664057780/ecc.o
 .text.wc_ecc_make_key
                0x00000000        0xa build/default/debug/_ext/1664057780/ecc.o
 .text.wc_ecc_sign_hash_ex
                0x00000000      0x2b6 build/default/debug/_ext/1664057780/ecc.o
 .text.wc_ecc_sign_hash
                0x00000000       0xe0 build/default/debug/_ext/1664057780/ecc.o
 .text.wc_ecc_verify_hash_ex
                0x00000000      0x494 build/default/debug/_ext/1664057780/ecc.o
 .text.wc_ecc_verify_hash
                0x00000000       0xee build/default/debug/_ext/1664057780/ecc.o
 .text.wc_ecc_import_point_der_ex
                0x00000000       0xcc build/default/debug/_ext/1664057780/ecc.o
 .text.wc_ecc_import_point_der
                0x00000000       0x10 build/default/debug/_ext/1664057780/ecc.o
 .text.wc_ecc_export_point_der
                0x00000000       0xe8 build/default/debug/_ext/1664057780/ecc.o
 .text.wc_ecc_export_point_der_ex
                0x00000000       0x12 build/default/debug/_ext/1664057780/ecc.o
 .text.wc_ecc_export_x963
                0x00000000      0x11c build/default/debug/_ext/1664057780/ecc.o
 .text.wc_ecc_export_x963_ex
                0x00000000       0x10 build/default/debug/_ext/1664057780/ecc.o
 .text.wc_ecc_is_point
                0x00000000      0x110 build/default/debug/_ext/1664057780/ecc.o
 .text.wc_ecc_check_key
                0x00000000      0x29a build/default/debug/_ext/1664057780/ecc.o
 .text.wc_ecc_import_x963_ex
                0x00000000       0xd6 build/default/debug/_ext/1664057780/ecc.o
 .text.wc_ecc_import_x963
                0x00000000        0xa build/default/debug/_ext/1664057780/ecc.o
 .text.wc_ecc_export_ex
                0x00000000       0xca build/default/debug/_ext/1664057780/ecc.o
 .text.wc_ecc_export_private_only
                0x00000000       0x30 build/default/debug/_ext/1664057780/ecc.o
 .text.wc_ecc_export_public_raw
                0x00000000       0x3a build/default/debug/_ext/1664057780/ecc.o
 .text.wc_ecc_export_private_raw
                0x00000000       0x1c build/default/debug/_ext/1664057780/ecc.o
 .text.wc_ecc_import_private_key_ex
                0x00000000       0x70 build/default/debug/_ext/1664057780/ecc.o
 .text.wc_ecc_import_private_key
                0x00000000       0x14 build/default/debug/_ext/1664057780/ecc.o
 .text.wc_ecc_rs_to_sig
                0x00000000       0xb2 build/default/debug/_ext/1664057780/ecc.o
 .text.wc_ecc_rs_raw_to_sig
                0x00000000       0x40 build/default/debug/_ext/1664057780/ecc.o
 .text.wc_ecc_sig_to_rs
                0x00000000       0x3c build/default/debug/_ext/1664057780/ecc.o
 .text.wc_ecc_import_raw_ex
                0x00000000       0x14 build/default/debug/_ext/1664057780/ecc.o
 .text.wc_ecc_import_unsigned
                0x00000000       0x14 build/default/debug/_ext/1664057780/ecc.o
 .text.wc_ecc_import_raw
                0x00000000       0x88 build/default/debug/_ext/1664057780/ecc.o
 .text.wc_ecc_size
                0x00000000        0xc build/default/debug/_ext/1664057780/ecc.o
 .text.wc_ecc_sig_size_calc
                0x00000000       0x10 build/default/debug/_ext/1664057780/ecc.o
 .text.wc_ecc_sig_size
                0x00000000       0x3a build/default/debug/_ext/1664057780/ecc.o
 .text.wc_ecc_get_oid
                0x00000000       0x5c build/default/debug/_ext/1664057780/ecc.o
 .rodata        0x00000000      0xa2c build/default/debug/_ext/1664057780/ecc.o
 .rodata.ecc_oid_prime239v1
                0x00000000        0x8 build/default/debug/_ext/1664057780/ecc.o
 .rodata.ecc_oid_secp224r1
                0x00000000        0x8 build/default/debug/_ext/1664057780/ecc.o
 .rodata.ecc_oid_secp256r1
                0x00000000        0x8 build/default/debug/_ext/1664057780/ecc.o
 .rodata.ecc_oid_secp384r1
                0x00000000        0x8 build/default/debug/_ext/1664057780/ecc.o
 .rodata.ecc_oid_secp521r1
                0x00000000        0x8 build/default/debug/_ext/1664057780/ecc.o
 .rodata.ecc_sets
                0x00000000      0x138 build/default/debug/_ext/1664057780/ecc.o
 .rodata.ecc_sets_count
                0x00000000        0x4 build/default/debug/_ext/1664057780/ecc.o
 .debug_info    0x00000000     0xa8c1 build/default/debug/_ext/1664057780/ecc.o
 .debug_abbrev  0x00000000      0x4a2 build/default/debug/_ext/1664057780/ecc.o
 .debug_loc     0x00000000     0x9d21 build/default/debug/_ext/1664057780/ecc.o
 .debug_aranges
                0x00000000      0x2c0 build/default/debug/_ext/1664057780/ecc.o
 .debug_ranges  0x00000000      0x458 build/default/debug/_ext/1664057780/ecc.o
 .debug_line    0x00000000     0x3889 build/default/debug/_ext/1664057780/ecc.o
 .debug_str     0x00000000      0x318 build/default/debug/_ext/1664057780/ecc.o
 .comment       0x00000000       0x2c build/default/debug/_ext/1664057780/ecc.o
 .debug_frame   0x00000000      0xc20 build/default/debug/_ext/1664057780/ecc.o
 .ARM.attributes
                0x00000000       0x34 build/default/debug/_ext/1664057780/ecc.o
 .text          0x00000000        0x0 build/default/debug/_ext/1360937237/main.o
 .data          0x00000000        0x0 build/default/debug/_ext/1360937237/main.o
 .bss           0x00000000        0x0 build/default/debug/_ext/1360937237/main.o
 .text          0x00000000        0x0 build/default/debug/_ext/1360937237/custom_snmp_app.o
 .data          0x00000000        0x0 build/default/debug/_ext/1360937237/custom_snmp_app.o
 .bss           0x00000000        0x0 build/default/debug/_ext/1360937237/custom_snmp_app.o
 .text.SNMPSendNotification
                0x00000000      0x12c build/default/debug/_ext/1360937237/custom_snmp_app.o
 .text.TCPIP_SNMP_SendTrapToSelctedInterface
                0x00000000       0x22 build/default/debug/_ext/1360937237/custom_snmp_app.o
 .text.SNMPV2TrapDemo
                0x00000000      0x1b0 build/default/debug/_ext/1360937237/custom_snmp_app.o
 .text.SNMPTrapDemo
                0x00000000      0x39c build/default/debug/_ext/1360937237/custom_snmp_app.o
 .text.TCPIP_SNMP_SendFailureTrap
                0x00000000      0x1a4 build/default/debug/_ext/1360937237/custom_snmp_app.o
 .rodata        0x00000000       0x10 build/default/debug/_ext/1360937237/custom_snmp_app.o
 .bss.TimerRead.14679
                0x00000000        0x4 build/default/debug/_ext/1360937237/custom_snmp_app.o
 .bss.TimerRead.14710
                0x00000000        0x4 build/default/debug/_ext/1360937237/custom_snmp_app.o
 .bss.anaPotNotfyCntr.14683
                0x00000000        0x1 build/default/debug/_ext/1360937237/custom_snmp_app.o
 .bss.analogPotNotify.14680
                0x00000000        0x1 build/default/debug/_ext/1360937237/custom_snmp_app.o
 .bss.analogPotVal.14662
                0x00000000        0x4 build/default/debug/_ext/1360937237/custom_snmp_app.o
 .bss.analogPotVal.14686
                0x00000000        0x4 build/default/debug/_ext/1360937237/custom_snmp_app.o
 .bss.asciiStrNotify.14682
                0x00000000        0x1 build/default/debug/_ext/1360937237/custom_snmp_app.o
 .bss.buttonLock.14688
                0x00000000        0x1 build/default/debug/_ext/1360937237/custom_snmp_app.o
 .bss.buttonPushNotfyCntr.14684
                0x00000000        0x1 build/default/debug/_ext/1360937237/custom_snmp_app.o
 .bss.buttonPushNotify.14681
                0x00000000        0x1 build/default/debug/_ext/1360937237/custom_snmp_app.o
 .bss.buttonPushval.14685
                0x00000000        0x4 build/default/debug/_ext/1360937237/custom_snmp_app.o
 .bss.gSendTrapSMstate
                0x00000000        0x1 build/default/debug/_ext/1360937237/custom_snmp_app.o
 .bss.gtrapSMStateUpdate
                0x00000000        0x1 build/default/debug/_ext/1360937237/custom_snmp_app.o
 .bss.netIx.14669
                0x00000000        0x4 build/default/debug/_ext/1360937237/custom_snmp_app.o
 .bss.netIx.14693
                0x00000000        0x4 build/default/debug/_ext/1360937237/custom_snmp_app.o
 .bss.netIx.14717
                0x00000000        0x4 build/default/debug/_ext/1360937237/custom_snmp_app.o
 .bss.potReadLock.14663
                0x00000000        0x1 build/default/debug/_ext/1360937237/custom_snmp_app.o
 .bss.potReadLock.14687
                0x00000000        0x1 build/default/debug/_ext/1360937237/custom_snmp_app.o
 .bss.receiverIndex.14706
                0x00000000        0x1 build/default/debug/_ext/1360937237/custom_snmp_app.o
 .bss.smState.14648
                0x00000000        0x1 build/default/debug/_ext/1360937237/custom_snmp_app.o
 .bss.smState.14716
                0x00000000        0x1 build/default/debug/_ext/1360937237/custom_snmp_app.o
 .bss.tempIpAddress.14651
                0x00000000        0x4 build/default/debug/_ext/1360937237/custom_snmp_app.o
 .bss.tempRxIndex.14650
                0x00000000        0x1 build/default/debug/_ext/1360937237/custom_snmp_app.o
 .bss.tempTimerRead.14660
                0x00000000        0x4 build/default/debug/_ext/1360937237/custom_snmp_app.o
 .bss.timeLock.14664
                0x00000000        0x1 build/default/debug/_ext/1360937237/custom_snmp_app.o
 .bss.timeLock.14689
                0x00000000        0x1 build/default/debug/_ext/1360937237/custom_snmp_app.o
 .bss.timeLock.14705
                0x00000000        0x1 build/default/debug/_ext/1360937237/custom_snmp_app.o
 .bss.trapIndex.14661
                0x00000000        0x1 build/default/debug/_ext/1360937237/custom_snmp_app.o
 .bss.trapIndex.14692
                0x00000000        0x1 build/default/debug/_ext/1360937237/custom_snmp_app.o
 .data.netStartForTrap.14667
                0x00000000        0x1 build/default/debug/_ext/1360937237/custom_snmp_app.o
 .data.netStartForTrap.14695
                0x00000000        0x1 build/default/debug/_ext/1360937237/custom_snmp_app.o
 .data.netStartForTrap.14719
                0x00000000        0x1 build/default/debug/_ext/1360937237/custom_snmp_app.o
 .text          0x00000000        0x0 build/default/debug/_ext/1360937237/app.o
 .data          0x00000000        0x0 build/default/debug/_ext/1360937237/app.o
 .bss           0x00000000        0x0 build/default/debug/_ext/1360937237/app.o
 .bss.LEDstate  0x00000000        0x1 build/default/debug/_ext/1360937237/app.o
 .text          0x00000000        0x0 build/default/debug/_ext/1360937237/mpfs_img2.o
 .data          0x00000000        0x0 build/default/debug/_ext/1360937237/mpfs_img2.o
 .bss           0x00000000        0x0 build/default/debug/_ext/1360937237/mpfs_img2.o
 .rodata        0x00000000        0x8 build/default/debug/_ext/1360937237/mpfs_img2.o
 .data.MPFS_IMAGE_PARTITION_INFO
                0x00000000        0xc build/default/debug/_ext/1360937237/mpfs_img2.o
 .text          0x00000000        0x0 build/default/debug/_ext/1360937237/http_print.o
 .data          0x00000000        0x0 build/default/debug/_ext/1360937237/http_print.o
 .bss           0x00000000        0x0 build/default/debug/_ext/1360937237/http_print.o
 .text          0x00000000        0x0 build/default/debug/_ext/1360937237/custom_http_app.o
 .data          0x00000000        0x0 build/default/debug/_ext/1360937237/custom_http_app.o
 .bss           0x00000000        0x0 build/default/debug/_ext/1360937237/custom_http_app.o
 .text.TCPIP_HTTP_Print_smtps_en
                0x00000000       0x14 build/default/debug/_ext/1360937237/custom_http_app.o
 .text          0x00000000        0x0 build/default/debug/_ext/1664057780/misc.o
 .data          0x00000000        0x0 build/default/debug/_ext/1664057780/misc.o
 .bss           0x00000000        0x0 build/default/debug/_ext/1664057780/misc.o
 .debug_info    0x00000000      0x2fc build/default/debug/_ext/1664057780/misc.o
 .debug_abbrev  0x00000000       0x1b build/default/debug/_ext/1664057780/misc.o
 .debug_aranges
                0x00000000       0x18 build/default/debug/_ext/1664057780/misc.o
 .debug_line    0x00000000       0x1d build/default/debug/_ext/1664057780/misc.o
 .debug_str     0x00000000        0x0 build/default/debug/_ext/1664057780/misc.o
 .comment       0x00000000       0x2c build/default/debug/_ext/1664057780/misc.o
 .ARM.attributes
                0x00000000       0x39 build/default/debug/_ext/1664057780/misc.o
 .text          0x00000000        0x0 build/default/debug/_ext/1664057780/evp.o
 .data          0x00000000        0x0 build/default/debug/_ext/1664057780/evp.o
 .bss           0x00000000        0x0 build/default/debug/_ext/1664057780/evp.o
 .debug_info    0x00000000      0x2fb build/default/debug/_ext/1664057780/evp.o
 .debug_abbrev  0x00000000       0x1b build/default/debug/_ext/1664057780/evp.o
 .debug_aranges
                0x00000000       0x18 build/default/debug/_ext/1664057780/evp.o
 .debug_line    0x00000000       0x1d build/default/debug/_ext/1664057780/evp.o
 .debug_str     0x00000000        0x0 build/default/debug/_ext/1664057780/evp.o
 .comment       0x00000000       0x2c build/default/debug/_ext/1664057780/evp.o
 .ARM.attributes
                0x00000000       0x39 build/default/debug/_ext/1664057780/evp.o
 .text          0x00000000        0x0 d:/microchip/bin/bin/../../lib/gcc/pic32c/8.3.1/../../../../pic32c/lib/thumb/v7e-m+fp/hard\libpic32c.a(data_init.o)
 .data          0x00000000        0x0 d:/microchip/bin/bin/../../lib/gcc/pic32c/8.3.1/../../../../pic32c/lib/thumb/v7e-m+fp/hard\libpic32c.a(data_init.o)
 .xc_stack_usage
                0x00000000       0x4a d:/microchip/bin/bin/../../lib/gcc/pic32c/8.3.1/../../../../pic32c/lib/thumb/v7e-m+fp/hard\libpic32c.a(data_init.o)
 .xc_stack_usage.hdr
                0x00000000        0xe d:/microchip/bin/bin/../../lib/gcc/pic32c/8.3.1/../../../../pic32c/lib/thumb/v7e-m+fp/hard\libpic32c.a(data_init.o)
 .xc_stack_usage.hdr
                0x00000000        0xe d:/microchip/bin/bin/../../lib/gcc/pic32c/8.3.1/../../../../pic32c/lib/thumb/v7e-m+fp/hard\libm-fast-emfloat.a(__aeabi_dadd.o)
 .xc_stack_usage
                0x00000000       0x1a d:/microchip/bin/bin/../../lib/gcc/pic32c/8.3.1/../../../../pic32c/lib/thumb/v7e-m+fp/hard\libm-fast-emfloat.a(__aeabi_dadd.o)
 .xc_stack_usage.hdr
                0x00000000        0xe d:/microchip/bin/bin/../../lib/gcc/pic32c/8.3.1/../../../../pic32c/lib/thumb/v7e-m+fp/hard\libm-fast-emfloat.a(__aeabi_dsub.o)
 .xc_stack_usage
                0x00000000       0x1a d:/microchip/bin/bin/../../lib/gcc/pic32c/8.3.1/../../../../pic32c/lib/thumb/v7e-m+fp/hard\libm-fast-emfloat.a(__aeabi_dsub.o)
 .xc_stack_usage.hdr
                0x00000000        0xe d:/microchip/bin/bin/../../lib/gcc/pic32c/8.3.1/../../../../pic32c/lib/thumb/v7e-m+fp/hard\libm-fast-emfloat.a(__aeabi_dmul.o)
 .xc_stack_usage
                0x00000000       0x1a d:/microchip/bin/bin/../../lib/gcc/pic32c/8.3.1/../../../../pic32c/lib/thumb/v7e-m+fp/hard\libm-fast-emfloat.a(__aeabi_dmul.o)
 .xc_stack_usage.hdr
                0x00000000        0xe d:/microchip/bin/bin/../../lib/gcc/pic32c/8.3.1/../../../../pic32c/lib/thumb/v7e-m+fp/hard\libm-fast-emfloat.a(__aeabi_ddiv.o)
 .xc_stack_usage
                0x00000000       0x1a d:/microchip/bin/bin/../../lib/gcc/pic32c/8.3.1/../../../../pic32c/lib/thumb/v7e-m+fp/hard\libm-fast-emfloat.a(__aeabi_ddiv.o)
 .xc_stack_usage.hdr
                0x00000000        0xe d:/microchip/bin/bin/../../lib/gcc/pic32c/8.3.1/../../../../pic32c/lib/thumb/v7e-m+fp/hard\libm-fast-emfloat.a(__aeabi_dcmpgt.o)
 .xc_stack_usage
                0x00000000       0x1c d:/microchip/bin/bin/../../lib/gcc/pic32c/8.3.1/../../../../pic32c/lib/thumb/v7e-m+fp/hard\libm-fast-emfloat.a(__aeabi_dcmpgt.o)
 .xc_stack_usage.hdr
                0x00000000        0xe d:/microchip/bin/bin/../../lib/gcc/pic32c/8.3.1/../../../../pic32c/lib/thumb/v7e-m+fp/hard\libm-fast-emfloat.a(__aeabi_d2uiz.o)
 .xc_stack_usage
                0x00000000       0x1b d:/microchip/bin/bin/../../lib/gcc/pic32c/8.3.1/../../../../pic32c/lib/thumb/v7e-m+fp/hard\libm-fast-emfloat.a(__aeabi_d2uiz.o)
 .xc_stack_usage.hdr
                0x00000000        0xe d:/microchip/bin/bin/../../lib/gcc/pic32c/8.3.1/../../../../pic32c/lib/thumb/v7e-m+fp/hard\libm-fast-emfloat.a(__aeabi_i2d.o)
 .xc_stack_usage
                0x00000000       0x19 d:/microchip/bin/bin/../../lib/gcc/pic32c/8.3.1/../../../../pic32c/lib/thumb/v7e-m+fp/hard\libm-fast-emfloat.a(__aeabi_i2d.o)
 .xc_stack_usage.hdr
                0x00000000        0xe d:/microchip/bin/bin/../../lib/gcc/pic32c/8.3.1/../../../../pic32c/lib/thumb/v7e-m+fp/hard\libm-fast-emfloat.a(__aeabi_ui2d.o)
 .xc_stack_usage
                0x00000000       0x1a d:/microchip/bin/bin/../../lib/gcc/pic32c/8.3.1/../../../../pic32c/lib/thumb/v7e-m+fp/hard\libm-fast-emfloat.a(__aeabi_ui2d.o)
 .text          0x00000000        0x0 d:/microchip/bin/bin/../../lib/gcc/pic32c/8.3.1/../../../../pic32c/lib/thumb/v7e-m+fp/hard\libg-musl.a(isalnum.o)
 .data          0x00000000        0x0 d:/microchip/bin/bin/../../lib/gcc/pic32c/8.3.1/../../../../pic32c/lib/thumb/v7e-m+fp/hard\libg-musl.a(isalnum.o)
 .bss           0x00000000        0x0 d:/microchip/bin/bin/../../lib/gcc/pic32c/8.3.1/../../../../pic32c/lib/thumb/v7e-m+fp/hard\libg-musl.a(isalnum.o)
 .xc_stack_usage
                0x00000000       0x2e d:/microchip/bin/bin/../../lib/gcc/pic32c/8.3.1/../../../../pic32c/lib/thumb/v7e-m+fp/hard\libg-musl.a(isalnum.o)
 .text.__isalnum_l
                0x00000000        0x4 d:/microchip/bin/bin/../../lib/gcc/pic32c/8.3.1/../../../../pic32c/lib/thumb/v7e-m+fp/hard\libg-musl.a(isalnum.o)
 .xc_stack_usage.hdr
                0x00000000        0xe d:/microchip/bin/bin/../../lib/gcc/pic32c/8.3.1/../../../../pic32c/lib/thumb/v7e-m+fp/hard\libg-musl.a(isalnum.o)
 .text          0x00000000        0x0 d:/microchip/bin/bin/../../lib/gcc/pic32c/8.3.1/../../../../pic32c/lib/thumb/v7e-m+fp/hard\libg-musl.a(isxdigit.o)
 .data          0x00000000        0x0 d:/microchip/bin/bin/../../lib/gcc/pic32c/8.3.1/../../../../pic32c/lib/thumb/v7e-m+fp/hard\libg-musl.a(isxdigit.o)
 .bss           0x00000000        0x0 d:/microchip/bin/bin/../../lib/gcc/pic32c/8.3.1/../../../../pic32c/lib/thumb/v7e-m+fp/hard\libg-musl.a(isxdigit.o)
 .xc_stack_usage
                0x00000000       0x30 d:/microchip/bin/bin/../../lib/gcc/pic32c/8.3.1/../../../../pic32c/lib/thumb/v7e-m+fp/hard\libg-musl.a(isxdigit.o)
 .text.__isxdigit_l
                0x00000000        0x4 d:/microchip/bin/bin/../../lib/gcc/pic32c/8.3.1/../../../../pic32c/lib/thumb/v7e-m+fp/hard\libg-musl.a(isxdigit.o)
 .xc_stack_usage.hdr
                0x00000000        0xe d:/microchip/bin/bin/../../lib/gcc/pic32c/8.3.1/../../../../pic32c/lib/thumb/v7e-m+fp/hard\libg-musl.a(isxdigit.o)
 .text          0x00000000        0x0 d:/microchip/bin/bin/../../lib/gcc/pic32c/8.3.1/../../../../pic32c/lib/thumb/v7e-m+fp/hard\libg-musl.a(tolower.o)
 .data          0x00000000        0x0 d:/microchip/bin/bin/../../lib/gcc/pic32c/8.3.1/../../../../pic32c/lib/thumb/v7e-m+fp/hard\libg-musl.a(tolower.o)
 .bss           0x00000000        0x0 d:/microchip/bin/bin/../../lib/gcc/pic32c/8.3.1/../../../../pic32c/lib/thumb/v7e-m+fp/hard\libg-musl.a(tolower.o)
 .xc_stack_usage
                0x00000000       0x2e d:/microchip/bin/bin/../../lib/gcc/pic32c/8.3.1/../../../../pic32c/lib/thumb/v7e-m+fp/hard\libg-musl.a(tolower.o)
 .text.__tolower_l
                0x00000000        0x4 d:/microchip/bin/bin/../../lib/gcc/pic32c/8.3.1/../../../../pic32c/lib/thumb/v7e-m+fp/hard\libg-musl.a(tolower.o)
 .xc_stack_usage.hdr
                0x00000000        0xe d:/microchip/bin/bin/../../lib/gcc/pic32c/8.3.1/../../../../pic32c/lib/thumb/v7e-m+fp/hard\libg-musl.a(tolower.o)
 .text          0x00000000        0x0 d:/microchip/bin/bin/../../lib/gcc/pic32c/8.3.1/../../../../pic32c/lib/thumb/v7e-m+fp/hard\libg-musl.a(toupper.o)
 .data          0x00000000        0x0 d:/microchip/bin/bin/../../lib/gcc/pic32c/8.3.1/../../../../pic32c/lib/thumb/v7e-m+fp/hard\libg-musl.a(toupper.o)
 .bss           0x00000000        0x0 d:/microchip/bin/bin/../../lib/gcc/pic32c/8.3.1/../../../../pic32c/lib/thumb/v7e-m+fp/hard\libg-musl.a(toupper.o)
 .xc_stack_usage
                0x00000000       0x2e d:/microchip/bin/bin/../../lib/gcc/pic32c/8.3.1/../../../../pic32c/lib/thumb/v7e-m+fp/hard\libg-musl.a(toupper.o)
 .text.__toupper_l
                0x00000000        0x4 d:/microchip/bin/bin/../../lib/gcc/pic32c/8.3.1/../../../../pic32c/lib/thumb/v7e-m+fp/hard\libg-musl.a(toupper.o)
 .xc_stack_usage.hdr
                0x00000000        0xe d:/microchip/bin/bin/../../lib/gcc/pic32c/8.3.1/../../../../pic32c/lib/thumb/v7e-m+fp/hard\libg-musl.a(toupper.o)
 .text          0x00000000        0x0 d:/microchip/bin/bin/../../lib/gcc/pic32c/8.3.1/../../../../pic32c/lib/thumb/v7e-m+fp/hard\libg-musl.a(__libc_start_main.o)
 .data          0x00000000        0x0 d:/microchip/bin/bin/../../lib/gcc/pic32c/8.3.1/../../../../pic32c/lib/thumb/v7e-m+fp/hard\libg-musl.a(__libc_start_main.o)
 .bss           0x00000000        0x0 d:/microchip/bin/bin/../../lib/gcc/pic32c/8.3.1/../../../../pic32c/lib/thumb/v7e-m+fp/hard\libg-musl.a(__libc_start_main.o)
 .xc_stack_usage
                0x00000000       0x34 d:/microchip/bin/bin/../../lib/gcc/pic32c/8.3.1/../../../../pic32c/lib/thumb/v7e-m+fp/hard\libg-musl.a(__libc_start_main.o)
 .xc_stack_usage.hdr
                0x00000000        0xe d:/microchip/bin/bin/../../lib/gcc/pic32c/8.3.1/../../../../pic32c/lib/thumb/v7e-m+fp/hard\libg-musl.a(__libc_start_main.o)
 .text          0x00000000        0x0 d:/microchip/bin/bin/../../lib/gcc/pic32c/8.3.1/../../../../pic32c/lib/thumb/v7e-m+fp/hard\libg-musl.a(libc.o)
 .data          0x00000000        0x0 d:/microchip/bin/bin/../../lib/gcc/pic32c/8.3.1/../../../../pic32c/lib/thumb/v7e-m+fp/hard\libg-musl.a(libc.o)
 .xc_stack_usage.hdr
                0x00000000        0xe d:/microchip/bin/bin/../../lib/gcc/pic32c/8.3.1/../../../../pic32c/lib/thumb/v7e-m+fp/hard\libg-musl.a(libc.o)
 .text          0x00000000        0x0 d:/microchip/bin/bin/../../lib/gcc/pic32c/8.3.1/../../../../pic32c/lib/thumb/v7e-m+fp/hard\libg-musl.a(calloc.o)
 .data          0x00000000        0x0 d:/microchip/bin/bin/../../lib/gcc/pic32c/8.3.1/../../../../pic32c/lib/thumb/v7e-m+fp/hard\libg-musl.a(calloc.o)
 .bss           0x00000000        0x0 d:/microchip/bin/bin/../../lib/gcc/pic32c/8.3.1/../../../../pic32c/lib/thumb/v7e-m+fp/hard\libg-musl.a(calloc.o)
 .xc_stack_usage
                0x00000000       0x14 d:/microchip/bin/bin/../../lib/gcc/pic32c/8.3.1/../../../../pic32c/lib/thumb/v7e-m+fp/hard\libg-musl.a(calloc.o)
 .xc_stack_usage.hdr
                0x00000000        0xe d:/microchip/bin/bin/../../lib/gcc/pic32c/8.3.1/../../../../pic32c/lib/thumb/v7e-m+fp/hard\libg-musl.a(calloc.o)
 .text          0x00000000        0x0 d:/microchip/bin/bin/../../lib/gcc/pic32c/8.3.1/../../../../pic32c/lib/thumb/v7e-m+fp/hard\libg-musl.a(malloc.o)
 .data          0x00000000        0x0 d:/microchip/bin/bin/../../lib/gcc/pic32c/8.3.1/../../../../pic32c/lib/thumb/v7e-m+fp/hard\libg-musl.a(malloc.o)
 .xc_stack_usage
                0x00000000       0xeb d:/microchip/bin/bin/../../lib/gcc/pic32c/8.3.1/../../../../pic32c/lib/thumb/v7e-m+fp/hard\libg-musl.a(malloc.o)
 .text.realloc  0x00000000       0x90 d:/microchip/bin/bin/../../lib/gcc/pic32c/8.3.1/../../../../pic32c/lib/thumb/v7e-m+fp/hard\libg-musl.a(malloc.o)
 .xc_stack_usage.hdr
                0x00000000        0xe d:/microchip/bin/bin/../../lib/gcc/pic32c/8.3.1/../../../../pic32c/lib/thumb/v7e-m+fp/hard\libg-musl.a(malloc.o)
 .text          0x00000000        0x0 d:/microchip/bin/bin/../../lib/gcc/pic32c/8.3.1/../../../../pic32c/lib/thumb/v7e-m+fp/hard\libg-musl.a(expand_heap.o)
 .data          0x00000000        0x0 d:/microchip/bin/bin/../../lib/gcc/pic32c/8.3.1/../../../../pic32c/lib/thumb/v7e-m+fp/hard\libg-musl.a(expand_heap.o)
 .bss           0x00000000        0x0 d:/microchip/bin/bin/../../lib/gcc/pic32c/8.3.1/../../../../pic32c/lib/thumb/v7e-m+fp/hard\libg-musl.a(expand_heap.o)
 .xc_stack_usage
                0x00000000       0x1b d:/microchip/bin/bin/../../lib/gcc/pic32c/8.3.1/../../../../pic32c/lib/thumb/v7e-m+fp/hard\libg-musl.a(expand_heap.o)
 .xc_stack_usage.hdr
                0x00000000        0xe d:/microchip/bin/bin/../../lib/gcc/pic32c/8.3.1/../../../../pic32c/lib/thumb/v7e-m+fp/hard\libg-musl.a(expand_heap.o)
 .text          0x00000000        0x0 d:/microchip/bin/bin/../../lib/gcc/pic32c/8.3.1/../../../../pic32c/lib/thumb/v7e-m+fp/hard\libg-musl.a(rand.o)
 .data          0x00000000        0x0 d:/microchip/bin/bin/../../lib/gcc/pic32c/8.3.1/../../../../pic32c/lib/thumb/v7e-m+fp/hard\libg-musl.a(rand.o)
 .xc_stack_usage
                0x00000000       0x25 d:/microchip/bin/bin/../../lib/gcc/pic32c/8.3.1/../../../../pic32c/lib/thumb/v7e-m+fp/hard\libg-musl.a(rand.o)
 .xc_stack_usage.hdr
                0x00000000        0xe d:/microchip/bin/bin/../../lib/gcc/pic32c/8.3.1/../../../../pic32c/lib/thumb/v7e-m+fp/hard\libg-musl.a(rand.o)
 .text          0x00000000        0x0 d:/microchip/bin/bin/../../lib/gcc/pic32c/8.3.1/../../../../pic32c/lib/thumb/v7e-m+fp/hard\libg-musl.a(vsnprintf.o)
 .data          0x00000000        0x0 d:/microchip/bin/bin/../../lib/gcc/pic32c/8.3.1/../../../../pic32c/lib/thumb/v7e-m+fp/hard\libg-musl.a(vsnprintf.o)
 .bss           0x00000000        0x0 d:/microchip/bin/bin/../../lib/gcc/pic32c/8.3.1/../../../../pic32c/lib/thumb/v7e-m+fp/hard\libg-musl.a(vsnprintf.o)
 .xc_stack_usage
                0x00000000       0x17 d:/microchip/bin/bin/../../lib/gcc/pic32c/8.3.1/../../../../pic32c/lib/thumb/v7e-m+fp/hard\libg-musl.a(vsnprintf.o)
 .xc_stack_usage.hdr
                0x00000000        0xe d:/microchip/bin/bin/../../lib/gcc/pic32c/8.3.1/../../../../pic32c/lib/thumb/v7e-m+fp/hard\libg-musl.a(vsnprintf.o)
 .text          0x00000000        0x0 d:/microchip/bin/bin/../../lib/gcc/pic32c/8.3.1/../../../../pic32c/lib/thumb/v7e-m+fp/hard\libg-musl.a(snprintf.o)
 .data          0x00000000        0x0 d:/microchip/bin/bin/../../lib/gcc/pic32c/8.3.1/../../../../pic32c/lib/thumb/v7e-m+fp/hard\libg-musl.a(snprintf.o)
 .bss           0x00000000        0x0 d:/microchip/bin/bin/../../lib/gcc/pic32c/8.3.1/../../../../pic32c/lib/thumb/v7e-m+fp/hard\libg-musl.a(snprintf.o)
 .xc_stack_usage
                0x00000000       0x16 d:/microchip/bin/bin/../../lib/gcc/pic32c/8.3.1/../../../../pic32c/lib/thumb/v7e-m+fp/hard\libg-musl.a(snprintf.o)
 .xc_stack_usage.hdr
                0x00000000        0xe d:/microchip/bin/bin/../../lib/gcc/pic32c/8.3.1/../../../../pic32c/lib/thumb/v7e-m+fp/hard\libg-musl.a(snprintf.o)
 .text          0x00000000        0x0 d:/microchip/bin/bin/../../lib/gcc/pic32c/8.3.1/../../../../pic32c/lib/thumb/v7e-m+fp/hard\libg-musl.a(sprintf.o)
 .data          0x00000000        0x0 d:/microchip/bin/bin/../../lib/gcc/pic32c/8.3.1/../../../../pic32c/lib/thumb/v7e-m+fp/hard\libg-musl.a(sprintf.o)
 .bss           0x00000000        0x0 d:/microchip/bin/bin/../../lib/gcc/pic32c/8.3.1/../../../../pic32c/lib/thumb/v7e-m+fp/hard\libg-musl.a(sprintf.o)
 .xc_stack_usage
                0x00000000       0x15 d:/microchip/bin/bin/../../lib/gcc/pic32c/8.3.1/../../../../pic32c/lib/thumb/v7e-m+fp/hard\libg-musl.a(sprintf.o)
 .xc_stack_usage.hdr
                0x00000000        0xe d:/microchip/bin/bin/../../lib/gcc/pic32c/8.3.1/../../../../pic32c/lib/thumb/v7e-m+fp/hard\libg-musl.a(sprintf.o)
 .text          0x00000000        0x0 d:/microchip/bin/bin/../../lib/gcc/pic32c/8.3.1/../../../../pic32c/lib/thumb/v7e-m+fp/hard\libg-musl.a(vsprintf.o)
 .data          0x00000000        0x0 d:/microchip/bin/bin/../../lib/gcc/pic32c/8.3.1/../../../../pic32c/lib/thumb/v7e-m+fp/hard\libg-musl.a(vsprintf.o)
 .bss           0x00000000        0x0 d:/microchip/bin/bin/../../lib/gcc/pic32c/8.3.1/../../../../pic32c/lib/thumb/v7e-m+fp/hard\libg-musl.a(vsprintf.o)
 .xc_stack_usage
                0x00000000       0x16 d:/microchip/bin/bin/../../lib/gcc/pic32c/8.3.1/../../../../pic32c/lib/thumb/v7e-m+fp/hard\libg-musl.a(vsprintf.o)
 .xc_stack_usage.hdr
                0x00000000        0xe d:/microchip/bin/bin/../../lib/gcc/pic32c/8.3.1/../../../../pic32c/lib/thumb/v7e-m+fp/hard\libg-musl.a(vsprintf.o)
 .text          0x00000000        0x0 d:/microchip/bin/bin/../../lib/gcc/pic32c/8.3.1/../../../../pic32c/lib/thumb/v7e-m+fp/hard\libg-musl.a(atoi.o)
 .data          0x00000000        0x0 d:/microchip/bin/bin/../../lib/gcc/pic32c/8.3.1/../../../../pic32c/lib/thumb/v7e-m+fp/hard\libg-musl.a(atoi.o)
 .bss           0x00000000        0x0 d:/microchip/bin/bin/../../lib/gcc/pic32c/8.3.1/../../../../pic32c/lib/thumb/v7e-m+fp/hard\libg-musl.a(atoi.o)
 .xc_stack_usage
                0x00000000       0x12 d:/microchip/bin/bin/../../lib/gcc/pic32c/8.3.1/../../../../pic32c/lib/thumb/v7e-m+fp/hard\libg-musl.a(atoi.o)
 .xc_stack_usage.hdr
                0x00000000        0xe d:/microchip/bin/bin/../../lib/gcc/pic32c/8.3.1/../../../../pic32c/lib/thumb/v7e-m+fp/hard\libg-musl.a(atoi.o)
 .text          0x00000000        0x0 d:/microchip/bin/bin/../../lib/gcc/pic32c/8.3.1/../../../../pic32c/lib/thumb/v7e-m+fp/hard\libg-musl.a(atol.o)
 .data          0x00000000        0x0 d:/microchip/bin/bin/../../lib/gcc/pic32c/8.3.1/../../../../pic32c/lib/thumb/v7e-m+fp/hard\libg-musl.a(atol.o)
 .bss           0x00000000        0x0 d:/microchip/bin/bin/../../lib/gcc/pic32c/8.3.1/../../../../pic32c/lib/thumb/v7e-m+fp/hard\libg-musl.a(atol.o)
 .xc_stack_usage
                0x00000000       0x12 d:/microchip/bin/bin/../../lib/gcc/pic32c/8.3.1/../../../../pic32c/lib/thumb/v7e-m+fp/hard\libg-musl.a(atol.o)
 .xc_stack_usage.hdr
                0x00000000        0xe d:/microchip/bin/bin/../../lib/gcc/pic32c/8.3.1/../../../../pic32c/lib/thumb/v7e-m+fp/hard\libg-musl.a(atol.o)
 .text          0x00000000        0x0 d:/microchip/bin/bin/../../lib/gcc/pic32c/8.3.1/../../../../pic32c/lib/thumb/v7e-m+fp/hard\libg-musl.a(strtol.o)
 .data          0x00000000        0x0 d:/microchip/bin/bin/../../lib/gcc/pic32c/8.3.1/../../../../pic32c/lib/thumb/v7e-m+fp/hard\libg-musl.a(strtol.o)
 .bss           0x00000000        0x0 d:/microchip/bin/bin/../../lib/gcc/pic32c/8.3.1/../../../../pic32c/lib/thumb/v7e-m+fp/hard\libg-musl.a(strtol.o)
 .xc_stack_usage
                0x00000000       0x96 d:/microchip/bin/bin/../../lib/gcc/pic32c/8.3.1/../../../../pic32c/lib/thumb/v7e-m+fp/hard\libg-musl.a(strtol.o)
 .text.strtoull
                0x00000000       0x16 d:/microchip/bin/bin/../../lib/gcc/pic32c/8.3.1/../../../../pic32c/lib/thumb/v7e-m+fp/hard\libg-musl.a(strtol.o)
 .text.strtoll  0x00000000       0x14 d:/microchip/bin/bin/../../lib/gcc/pic32c/8.3.1/../../../../pic32c/lib/thumb/v7e-m+fp/hard\libg-musl.a(strtol.o)
 .text.strtoul  0x00000000       0x14 d:/microchip/bin/bin/../../lib/gcc/pic32c/8.3.1/../../../../pic32c/lib/thumb/v7e-m+fp/hard\libg-musl.a(strtol.o)
 .text.strtoimax
                0x00000000        0x4 d:/microchip/bin/bin/../../lib/gcc/pic32c/8.3.1/../../../../pic32c/lib/thumb/v7e-m+fp/hard\libg-musl.a(strtol.o)
 .text.strtoumax
                0x00000000        0x4 d:/microchip/bin/bin/../../lib/gcc/pic32c/8.3.1/../../../../pic32c/lib/thumb/v7e-m+fp/hard\libg-musl.a(strtol.o)
 .xc_stack_usage.hdr
                0x00000000        0xe d:/microchip/bin/bin/../../lib/gcc/pic32c/8.3.1/../../../../pic32c/lib/thumb/v7e-m+fp/hard\libg-musl.a(strtol.o)
 .text          0x00000000        0x0 d:/microchip/bin/bin/../../lib/gcc/pic32c/8.3.1/../../../../pic32c/lib/thumb/v7e-m+fp/hard\libg-musl.a(memcmp.o)
 .data          0x00000000        0x0 d:/microchip/bin/bin/../../lib/gcc/pic32c/8.3.1/../../../../pic32c/lib/thumb/v7e-m+fp/hard\libg-musl.a(memcmp.o)
 .bss           0x00000000        0x0 d:/microchip/bin/bin/../../lib/gcc/pic32c/8.3.1/../../../../pic32c/lib/thumb/v7e-m+fp/hard\libg-musl.a(memcmp.o)
 .xc_stack_usage
                0x00000000       0x14 d:/microchip/bin/bin/../../lib/gcc/pic32c/8.3.1/../../../../pic32c/lib/thumb/v7e-m+fp/hard\libg-musl.a(memcmp.o)
 .xc_stack_usage.hdr
                0x00000000        0xe d:/microchip/bin/bin/../../lib/gcc/pic32c/8.3.1/../../../../pic32c/lib/thumb/v7e-m+fp/hard\libg-musl.a(memcmp.o)
 .text          0x00000000        0x0 d:/microchip/bin/bin/../../lib/gcc/pic32c/8.3.1/../../../../pic32c/lib/thumb/v7e-m+fp/hard\libg-musl.a(memcpy.o)
 .data          0x00000000        0x0 d:/microchip/bin/bin/../../lib/gcc/pic32c/8.3.1/../../../../pic32c/lib/thumb/v7e-m+fp/hard\libg-musl.a(memcpy.o)
 .bss           0x00000000        0x0 d:/microchip/bin/bin/../../lib/gcc/pic32c/8.3.1/../../../../pic32c/lib/thumb/v7e-m+fp/hard\libg-musl.a(memcpy.o)
 .xc_stack_usage
                0x00000000       0x14 d:/microchip/bin/bin/../../lib/gcc/pic32c/8.3.1/../../../../pic32c/lib/thumb/v7e-m+fp/hard\libg-musl.a(memcpy.o)
 .xc_stack_usage.hdr
                0x00000000        0xe d:/microchip/bin/bin/../../lib/gcc/pic32c/8.3.1/../../../../pic32c/lib/thumb/v7e-m+fp/hard\libg-musl.a(memcpy.o)
 .text          0x00000000        0x0 d:/microchip/bin/bin/../../lib/gcc/pic32c/8.3.1/../../../../pic32c/lib/thumb/v7e-m+fp/hard\libg-musl.a(memmove.o)
 .data          0x00000000        0x0 d:/microchip/bin/bin/../../lib/gcc/pic32c/8.3.1/../../../../pic32c/lib/thumb/v7e-m+fp/hard\libg-musl.a(memmove.o)
 .bss           0x00000000        0x0 d:/microchip/bin/bin/../../lib/gcc/pic32c/8.3.1/../../../../pic32c/lib/thumb/v7e-m+fp/hard\libg-musl.a(memmove.o)
 .xc_stack_usage
                0x00000000       0x15 d:/microchip/bin/bin/../../lib/gcc/pic32c/8.3.1/../../../../pic32c/lib/thumb/v7e-m+fp/hard\libg-musl.a(memmove.o)
 .text.memmove  0x00000000       0x40 d:/microchip/bin/bin/../../lib/gcc/pic32c/8.3.1/../../../../pic32c/lib/thumb/v7e-m+fp/hard\libg-musl.a(memmove.o)
 .xc_stack_usage.hdr
                0x00000000        0xe d:/microchip/bin/bin/../../lib/gcc/pic32c/8.3.1/../../../../pic32c/lib/thumb/v7e-m+fp/hard\libg-musl.a(memmove.o)
 .debug_info    0x00000000      0x2fa d:/microchip/bin/bin/../../lib/gcc/pic32c/8.3.1/../../../../pic32c/lib/thumb/v7e-m+fp/hard\libg-musl.a(memmove.o)
 .debug_abbrev  0x00000000       0xa3 d:/microchip/bin/bin/../../lib/gcc/pic32c/8.3.1/../../../../pic32c/lib/thumb/v7e-m+fp/hard\libg-musl.a(memmove.o)
 .debug_loc     0x00000000      0x169 d:/microchip/bin/bin/../../lib/gcc/pic32c/8.3.1/../../../../pic32c/lib/thumb/v7e-m+fp/hard\libg-musl.a(memmove.o)
 .debug_aranges
                0x00000000       0x20 d:/microchip/bin/bin/../../lib/gcc/pic32c/8.3.1/../../../../pic32c/lib/thumb/v7e-m+fp/hard\libg-musl.a(memmove.o)
 .debug_ranges  0x00000000       0x10 d:/microchip/bin/bin/../../lib/gcc/pic32c/8.3.1/../../../../pic32c/lib/thumb/v7e-m+fp/hard\libg-musl.a(memmove.o)
 .debug_line    0x00000000      0x121 d:/microchip/bin/bin/../../lib/gcc/pic32c/8.3.1/../../../../pic32c/lib/thumb/v7e-m+fp/hard\libg-musl.a(memmove.o)
 .debug_str     0x00000000        0x0 d:/microchip/bin/bin/../../lib/gcc/pic32c/8.3.1/../../../../pic32c/lib/thumb/v7e-m+fp/hard\libg-musl.a(memmove.o)
 .comment       0x00000000       0x2c d:/microchip/bin/bin/../../lib/gcc/pic32c/8.3.1/../../../../pic32c/lib/thumb/v7e-m+fp/hard\libg-musl.a(memmove.o)
 .note.GNU-stack
                0x00000000        0x0 d:/microchip/bin/bin/../../lib/gcc/pic32c/8.3.1/../../../../pic32c/lib/thumb/v7e-m+fp/hard\libg-musl.a(memmove.o)
 .debug_frame   0x00000000       0x30 d:/microchip/bin/bin/../../lib/gcc/pic32c/8.3.1/../../../../pic32c/lib/thumb/v7e-m+fp/hard\libg-musl.a(memmove.o)
 .ARM.attributes
                0x00000000       0x36 d:/microchip/bin/bin/../../lib/gcc/pic32c/8.3.1/../../../../pic32c/lib/thumb/v7e-m+fp/hard\libg-musl.a(memmove.o)
 .text          0x00000000        0x0 d:/microchip/bin/bin/../../lib/gcc/pic32c/8.3.1/../../../../pic32c/lib/thumb/v7e-m+fp/hard\libg-musl.a(memset.o)
 .data          0x00000000        0x0 d:/microchip/bin/bin/../../lib/gcc/pic32c/8.3.1/../../../../pic32c/lib/thumb/v7e-m+fp/hard\libg-musl.a(memset.o)
 .bss           0x00000000        0x0 d:/microchip/bin/bin/../../lib/gcc/pic32c/8.3.1/../../../../pic32c/lib/thumb/v7e-m+fp/hard\libg-musl.a(memset.o)
 .xc_stack_usage
                0x00000000       0x14 d:/microchip/bin/bin/../../lib/gcc/pic32c/8.3.1/../../../../pic32c/lib/thumb/v7e-m+fp/hard\libg-musl.a(memset.o)
 .xc_stack_usage.hdr
                0x00000000        0xe d:/microchip/bin/bin/../../lib/gcc/pic32c/8.3.1/../../../../pic32c/lib/thumb/v7e-m+fp/hard\libg-musl.a(memset.o)
 .text          0x00000000        0x0 d:/microchip/bin/bin/../../lib/gcc/pic32c/8.3.1/../../../../pic32c/lib/thumb/v7e-m+fp/hard\libg-musl.a(strlen.o)
 .data          0x00000000        0x0 d:/microchip/bin/bin/../../lib/gcc/pic32c/8.3.1/../../../../pic32c/lib/thumb/v7e-m+fp/hard\libg-musl.a(strlen.o)
 .bss           0x00000000        0x0 d:/microchip/bin/bin/../../lib/gcc/pic32c/8.3.1/../../../../pic32c/lib/thumb/v7e-m+fp/hard\libg-musl.a(strlen.o)
 .xc_stack_usage
                0x00000000       0x14 d:/microchip/bin/bin/../../lib/gcc/pic32c/8.3.1/../../../../pic32c/lib/thumb/v7e-m+fp/hard\libg-musl.a(strlen.o)
 .xc_stack_usage.hdr
                0x00000000        0xe d:/microchip/bin/bin/../../lib/gcc/pic32c/8.3.1/../../../../pic32c/lib/thumb/v7e-m+fp/hard\libg-musl.a(strlen.o)
 .text          0x00000000        0x0 d:/microchip/bin/bin/../../lib/gcc/pic32c/8.3.1/../../../../pic32c/lib/thumb/v7e-m+fp/hard\libg-musl.a(strstr.o)
 .data          0x00000000        0x0 d:/microchip/bin/bin/../../lib/gcc/pic32c/8.3.1/../../../../pic32c/lib/thumb/v7e-m+fp/hard\libg-musl.a(strstr.o)
 .bss           0x00000000        0x0 d:/microchip/bin/bin/../../lib/gcc/pic32c/8.3.1/../../../../pic32c/lib/thumb/v7e-m+fp/hard\libg-musl.a(strstr.o)
 .xc_stack_usage
                0x00000000       0x14 d:/microchip/bin/bin/../../lib/gcc/pic32c/8.3.1/../../../../pic32c/lib/thumb/v7e-m+fp/hard\libg-musl.a(strstr.o)
 .xc_stack_usage.hdr
                0x00000000        0xe d:/microchip/bin/bin/../../lib/gcc/pic32c/8.3.1/../../../../pic32c/lib/thumb/v7e-m+fp/hard\libg-musl.a(strstr.o)
 .text          0x00000000        0x0 d:/microchip/bin/bin/../../lib/gcc/pic32c/8.3.1/../../../../pic32c/lib/thumb/v7e-m+fp/hard\libg-musl.a(strchr.o)
 .data          0x00000000        0x0 d:/microchip/bin/bin/../../lib/gcc/pic32c/8.3.1/../../../../pic32c/lib/thumb/v7e-m+fp/hard\libg-musl.a(strchr.o)
 .bss           0x00000000        0x0 d:/microchip/bin/bin/../../lib/gcc/pic32c/8.3.1/../../../../pic32c/lib/thumb/v7e-m+fp/hard\libg-musl.a(strchr.o)
 .xc_stack_usage
                0x00000000       0x14 d:/microchip/bin/bin/../../lib/gcc/pic32c/8.3.1/../../../../pic32c/lib/thumb/v7e-m+fp/hard\libg-musl.a(strchr.o)
 .xc_stack_usage.hdr
                0x00000000        0xe d:/microchip/bin/bin/../../lib/gcc/pic32c/8.3.1/../../../../pic32c/lib/thumb/v7e-m+fp/hard\libg-musl.a(strchr.o)
 .text          0x00000000        0x0 d:/microchip/bin/bin/../../lib/gcc/pic32c/8.3.1/../../../../pic32c/lib/thumb/v7e-m+fp/hard\libg-musl.a(strchrnul.o)
 .data          0x00000000        0x0 d:/microchip/bin/bin/../../lib/gcc/pic32c/8.3.1/../../../../pic32c/lib/thumb/v7e-m+fp/hard\libg-musl.a(strchrnul.o)
 .bss           0x00000000        0x0 d:/microchip/bin/bin/../../lib/gcc/pic32c/8.3.1/../../../../pic32c/lib/thumb/v7e-m+fp/hard\libg-musl.a(strchrnul.o)
 .xc_stack_usage
                0x00000000       0x19 d:/microchip/bin/bin/../../lib/gcc/pic32c/8.3.1/../../../../pic32c/lib/thumb/v7e-m+fp/hard\libg-musl.a(strchrnul.o)
 .xc_stack_usage.hdr
                0x00000000        0xe d:/microchip/bin/bin/../../lib/gcc/pic32c/8.3.1/../../../../pic32c/lib/thumb/v7e-m+fp/hard\libg-musl.a(strchrnul.o)
 .text          0x00000000        0x0 d:/microchip/bin/bin/../../lib/gcc/pic32c/8.3.1/../../../../pic32c/lib/thumb/v7e-m+fp/hard\libg-musl.a(strcmp.o)
 .data          0x00000000        0x0 d:/microchip/bin/bin/../../lib/gcc/pic32c/8.3.1/../../../../pic32c/lib/thumb/v7e-m+fp/hard\libg-musl.a(strcmp.o)
 .bss           0x00000000        0x0 d:/microchip/bin/bin/../../lib/gcc/pic32c/8.3.1/../../../../pic32c/lib/thumb/v7e-m+fp/hard\libg-musl.a(strcmp.o)
 .xc_stack_usage
                0x00000000       0x14 d:/microchip/bin/bin/../../lib/gcc/pic32c/8.3.1/../../../../pic32c/lib/thumb/v7e-m+fp/hard\libg-musl.a(strcmp.o)
 .xc_stack_usage.hdr
                0x00000000        0xe d:/microchip/bin/bin/../../lib/gcc/pic32c/8.3.1/../../../../pic32c/lib/thumb/v7e-m+fp/hard\libg-musl.a(strcmp.o)
 .text          0x00000000        0x0 d:/microchip/bin/bin/../../lib/gcc/pic32c/8.3.1/../../../../pic32c/lib/thumb/v7e-m+fp/hard\libg-musl.a(strcpy.o)
 .data          0x00000000        0x0 d:/microchip/bin/bin/../../lib/gcc/pic32c/8.3.1/../../../../pic32c/lib/thumb/v7e-m+fp/hard\libg-musl.a(strcpy.o)
 .bss           0x00000000        0x0 d:/microchip/bin/bin/../../lib/gcc/pic32c/8.3.1/../../../../pic32c/lib/thumb/v7e-m+fp/hard\libg-musl.a(strcpy.o)
 .xc_stack_usage
                0x00000000       0x14 d:/microchip/bin/bin/../../lib/gcc/pic32c/8.3.1/../../../../pic32c/lib/thumb/v7e-m+fp/hard\libg-musl.a(strcpy.o)
 .xc_stack_usage.hdr
                0x00000000        0xe d:/microchip/bin/bin/../../lib/gcc/pic32c/8.3.1/../../../../pic32c/lib/thumb/v7e-m+fp/hard\libg-musl.a(strcpy.o)
 .text          0x00000000        0x0 d:/microchip/bin/bin/../../lib/gcc/pic32c/8.3.1/../../../../pic32c/lib/thumb/v7e-m+fp/hard\libg-musl.a(strncmp.o)
 .data          0x00000000        0x0 d:/microchip/bin/bin/../../lib/gcc/pic32c/8.3.1/../../../../pic32c/lib/thumb/v7e-m+fp/hard\libg-musl.a(strncmp.o)
 .bss           0x00000000        0x0 d:/microchip/bin/bin/../../lib/gcc/pic32c/8.3.1/../../../../pic32c/lib/thumb/v7e-m+fp/hard\libg-musl.a(strncmp.o)
 .xc_stack_usage
                0x00000000       0x15 d:/microchip/bin/bin/../../lib/gcc/pic32c/8.3.1/../../../../pic32c/lib/thumb/v7e-m+fp/hard\libg-musl.a(strncmp.o)
 .xc_stack_usage.hdr
                0x00000000        0xe d:/microchip/bin/bin/../../lib/gcc/pic32c/8.3.1/../../../../pic32c/lib/thumb/v7e-m+fp/hard\libg-musl.a(strncmp.o)
 .text          0x00000000        0x0 d:/microchip/bin/bin/../../lib/gcc/pic32c/8.3.1/../../../../pic32c/lib/thumb/v7e-m+fp/hard\libg-musl.a(strncpy.o)
 .data          0x00000000        0x0 d:/microchip/bin/bin/../../lib/gcc/pic32c/8.3.1/../../../../pic32c/lib/thumb/v7e-m+fp/hard\libg-musl.a(strncpy.o)
 .bss           0x00000000        0x0 d:/microchip/bin/bin/../../lib/gcc/pic32c/8.3.1/../../../../pic32c/lib/thumb/v7e-m+fp/hard\libg-musl.a(strncpy.o)
 .xc_stack_usage
                0x00000000       0x15 d:/microchip/bin/bin/../../lib/gcc/pic32c/8.3.1/../../../../pic32c/lib/thumb/v7e-m+fp/hard\libg-musl.a(strncpy.o)
 .xc_stack_usage.hdr
                0x00000000        0xe d:/microchip/bin/bin/../../lib/gcc/pic32c/8.3.1/../../../../pic32c/lib/thumb/v7e-m+fp/hard\libg-musl.a(strncpy.o)
 .text          0x00000000        0x0 d:/microchip/bin/bin/../../lib/gcc/pic32c/8.3.1/../../../../pic32c/lib/thumb/v7e-m+fp/hard\libg-musl.a(strtok.o)
 .data          0x00000000        0x0 d:/microchip/bin/bin/../../lib/gcc/pic32c/8.3.1/../../../../pic32c/lib/thumb/v7e-m+fp/hard\libg-musl.a(strtok.o)
 .xc_stack_usage
                0x00000000       0x14 d:/microchip/bin/bin/../../lib/gcc/pic32c/8.3.1/../../../../pic32c/lib/thumb/v7e-m+fp/hard\libg-musl.a(strtok.o)
 .xc_stack_usage.hdr
                0x00000000        0xe d:/microchip/bin/bin/../../lib/gcc/pic32c/8.3.1/../../../../pic32c/lib/thumb/v7e-m+fp/hard\libg-musl.a(strtok.o)
 .text          0x00000000        0x0 d:/microchip/bin/bin/../../lib/gcc/pic32c/8.3.1/../../../../pic32c/lib/thumb/v7e-m+fp/hard\libg-musl.a(gmtime.o)
 .data          0x00000000        0x0 d:/microchip/bin/bin/../../lib/gcc/pic32c/8.3.1/../../../../pic32c/lib/thumb/v7e-m+fp/hard\libg-musl.a(gmtime.o)
 .bss           0x00000000       0x2c d:/microchip/bin/bin/../../lib/gcc/pic32c/8.3.1/../../../../pic32c/lib/thumb/v7e-m+fp/hard\libg-musl.a(gmtime.o)
 .xc_stack_usage
                0x00000000       0x14 d:/microchip/bin/bin/../../lib/gcc/pic32c/8.3.1/../../../../pic32c/lib/thumb/v7e-m+fp/hard\libg-musl.a(gmtime.o)
 .text.gmtime   0x00000000        0xc d:/microchip/bin/bin/../../lib/gcc/pic32c/8.3.1/../../../../pic32c/lib/thumb/v7e-m+fp/hard\libg-musl.a(gmtime.o)
 .xc_stack_usage.hdr
                0x00000000        0xe d:/microchip/bin/bin/../../lib/gcc/pic32c/8.3.1/../../../../pic32c/lib/thumb/v7e-m+fp/hard\libg-musl.a(gmtime.o)
 .debug_info    0x00000000      0x3d0 d:/microchip/bin/bin/../../lib/gcc/pic32c/8.3.1/../../../../pic32c/lib/thumb/v7e-m+fp/hard\libg-musl.a(gmtime.o)
 .debug_abbrev  0x00000000       0xd3 d:/microchip/bin/bin/../../lib/gcc/pic32c/8.3.1/../../../../pic32c/lib/thumb/v7e-m+fp/hard\libg-musl.a(gmtime.o)
 .debug_loc     0x00000000       0x25 d:/microchip/bin/bin/../../lib/gcc/pic32c/8.3.1/../../../../pic32c/lib/thumb/v7e-m+fp/hard\libg-musl.a(gmtime.o)
 .debug_aranges
                0x00000000       0x20 d:/microchip/bin/bin/../../lib/gcc/pic32c/8.3.1/../../../../pic32c/lib/thumb/v7e-m+fp/hard\libg-musl.a(gmtime.o)
 .debug_ranges  0x00000000       0x10 d:/microchip/bin/bin/../../lib/gcc/pic32c/8.3.1/../../../../pic32c/lib/thumb/v7e-m+fp/hard\libg-musl.a(gmtime.o)
 .debug_line    0x00000000      0x131 d:/microchip/bin/bin/../../lib/gcc/pic32c/8.3.1/../../../../pic32c/lib/thumb/v7e-m+fp/hard\libg-musl.a(gmtime.o)
 .debug_str     0x00000000        0xb d:/microchip/bin/bin/../../lib/gcc/pic32c/8.3.1/../../../../pic32c/lib/thumb/v7e-m+fp/hard\libg-musl.a(gmtime.o)
 .comment       0x00000000       0x2c d:/microchip/bin/bin/../../lib/gcc/pic32c/8.3.1/../../../../pic32c/lib/thumb/v7e-m+fp/hard\libg-musl.a(gmtime.o)
 .note.GNU-stack
                0x00000000        0x0 d:/microchip/bin/bin/../../lib/gcc/pic32c/8.3.1/../../../../pic32c/lib/thumb/v7e-m+fp/hard\libg-musl.a(gmtime.o)
 .debug_frame   0x00000000       0x20 d:/microchip/bin/bin/../../lib/gcc/pic32c/8.3.1/../../../../pic32c/lib/thumb/v7e-m+fp/hard\libg-musl.a(gmtime.o)
 .ARM.attributes
                0x00000000       0x36 d:/microchip/bin/bin/../../lib/gcc/pic32c/8.3.1/../../../../pic32c/lib/thumb/v7e-m+fp/hard\libg-musl.a(gmtime.o)
 .text          0x00000000        0x0 d:/microchip/bin/bin/../../lib/gcc/pic32c/8.3.1/../../../../pic32c/lib/thumb/v7e-m+fp/hard\libg-musl.a(gmtime_r.o)
 .data          0x00000000        0x0 d:/microchip/bin/bin/../../lib/gcc/pic32c/8.3.1/../../../../pic32c/lib/thumb/v7e-m+fp/hard\libg-musl.a(gmtime_r.o)
 .bss           0x00000000        0x0 d:/microchip/bin/bin/../../lib/gcc/pic32c/8.3.1/../../../../pic32c/lib/thumb/v7e-m+fp/hard\libg-musl.a(gmtime_r.o)
 .xc_stack_usage
                0x00000000       0x18 d:/microchip/bin/bin/../../lib/gcc/pic32c/8.3.1/../../../../pic32c/lib/thumb/v7e-m+fp/hard\libg-musl.a(gmtime_r.o)
 .text.__gmtime_r
                0x00000000       0x34 d:/microchip/bin/bin/../../lib/gcc/pic32c/8.3.1/../../../../pic32c/lib/thumb/v7e-m+fp/hard\libg-musl.a(gmtime_r.o)
 .rodata        0x00000000        0x4 d:/microchip/bin/bin/../../lib/gcc/pic32c/8.3.1/../../../../pic32c/lib/thumb/v7e-m+fp/hard\libg-musl.a(gmtime_r.o)
 .xc_stack_usage.hdr
                0x00000000        0xe d:/microchip/bin/bin/../../lib/gcc/pic32c/8.3.1/../../../../pic32c/lib/thumb/v7e-m+fp/hard\libg-musl.a(gmtime_r.o)
 .debug_info    0x00000000      0x3fa d:/microchip/bin/bin/../../lib/gcc/pic32c/8.3.1/../../../../pic32c/lib/thumb/v7e-m+fp/hard\libg-musl.a(gmtime_r.o)
 .debug_abbrev  0x00000000       0xd2 d:/microchip/bin/bin/../../lib/gcc/pic32c/8.3.1/../../../../pic32c/lib/thumb/v7e-m+fp/hard\libg-musl.a(gmtime_r.o)
 .debug_loc     0x00000000       0x84 d:/microchip/bin/bin/../../lib/gcc/pic32c/8.3.1/../../../../pic32c/lib/thumb/v7e-m+fp/hard\libg-musl.a(gmtime_r.o)
 .debug_aranges
                0x00000000       0x20 d:/microchip/bin/bin/../../lib/gcc/pic32c/8.3.1/../../../../pic32c/lib/thumb/v7e-m+fp/hard\libg-musl.a(gmtime_r.o)
 .debug_ranges  0x00000000       0x10 d:/microchip/bin/bin/../../lib/gcc/pic32c/8.3.1/../../../../pic32c/lib/thumb/v7e-m+fp/hard\libg-musl.a(gmtime_r.o)
 .debug_line    0x00000000      0x257 d:/microchip/bin/bin/../../lib/gcc/pic32c/8.3.1/../../../../pic32c/lib/thumb/v7e-m+fp/hard\libg-musl.a(gmtime_r.o)
 .debug_str     0x00000000        0xd d:/microchip/bin/bin/../../lib/gcc/pic32c/8.3.1/../../../../pic32c/lib/thumb/v7e-m+fp/hard\libg-musl.a(gmtime_r.o)
 .comment       0x00000000       0x2c d:/microchip/bin/bin/../../lib/gcc/pic32c/8.3.1/../../../../pic32c/lib/thumb/v7e-m+fp/hard\libg-musl.a(gmtime_r.o)
 .note.GNU-stack
                0x00000000        0x0 d:/microchip/bin/bin/../../lib/gcc/pic32c/8.3.1/../../../../pic32c/lib/thumb/v7e-m+fp/hard\libg-musl.a(gmtime_r.o)
 .debug_frame   0x00000000       0x2c d:/microchip/bin/bin/../../lib/gcc/pic32c/8.3.1/../../../../pic32c/lib/thumb/v7e-m+fp/hard\libg-musl.a(gmtime_r.o)
 .ARM.attributes
                0x00000000       0x36 d:/microchip/bin/bin/../../lib/gcc/pic32c/8.3.1/../../../../pic32c/lib/thumb/v7e-m+fp/hard\libg-musl.a(gmtime_r.o)
 .text          0x00000000        0x0 d:/microchip/bin/bin/../../lib/gcc/pic32c/8.3.1/../../../../pic32c/lib/thumb/v7e-m+fp/hard\libg-musl.a(time.o)
 .data          0x00000000        0x0 d:/microchip/bin/bin/../../lib/gcc/pic32c/8.3.1/../../../../pic32c/lib/thumb/v7e-m+fp/hard\libg-musl.a(time.o)
 .bss           0x00000000        0x0 d:/microchip/bin/bin/../../lib/gcc/pic32c/8.3.1/../../../../pic32c/lib/thumb/v7e-m+fp/hard\libg-musl.a(time.o)
 .xc_stack_usage
                0x00000000       0x12 d:/microchip/bin/bin/../../lib/gcc/pic32c/8.3.1/../../../../pic32c/lib/thumb/v7e-m+fp/hard\libg-musl.a(time.o)
 .text.time     0x00000000       0x16 d:/microchip/bin/bin/../../lib/gcc/pic32c/8.3.1/../../../../pic32c/lib/thumb/v7e-m+fp/hard\libg-musl.a(time.o)
 .xc_stack_usage.hdr
                0x00000000        0xe d:/microchip/bin/bin/../../lib/gcc/pic32c/8.3.1/../../../../pic32c/lib/thumb/v7e-m+fp/hard\libg-musl.a(time.o)
 .debug_info    0x00000000      0x318 d:/microchip/bin/bin/../../lib/gcc/pic32c/8.3.1/../../../../pic32c/lib/thumb/v7e-m+fp/hard\libg-musl.a(time.o)
 .debug_abbrev  0x00000000       0xc9 d:/microchip/bin/bin/../../lib/gcc/pic32c/8.3.1/../../../../pic32c/lib/thumb/v7e-m+fp/hard\libg-musl.a(time.o)
 .debug_loc     0x00000000       0x4e d:/microchip/bin/bin/../../lib/gcc/pic32c/8.3.1/../../../../pic32c/lib/thumb/v7e-m+fp/hard\libg-musl.a(time.o)
 .debug_aranges
                0x00000000       0x20 d:/microchip/bin/bin/../../lib/gcc/pic32c/8.3.1/../../../../pic32c/lib/thumb/v7e-m+fp/hard\libg-musl.a(time.o)
 .debug_ranges  0x00000000       0x10 d:/microchip/bin/bin/../../lib/gcc/pic32c/8.3.1/../../../../pic32c/lib/thumb/v7e-m+fp/hard\libg-musl.a(time.o)
 .debug_line    0x00000000       0xdd d:/microchip/bin/bin/../../lib/gcc/pic32c/8.3.1/../../../../pic32c/lib/thumb/v7e-m+fp/hard\libg-musl.a(time.o)
 .debug_str     0x00000000       0x10 d:/microchip/bin/bin/../../lib/gcc/pic32c/8.3.1/../../../../pic32c/lib/thumb/v7e-m+fp/hard\libg-musl.a(time.o)
 .comment       0x00000000       0x2c d:/microchip/bin/bin/../../lib/gcc/pic32c/8.3.1/../../../../pic32c/lib/thumb/v7e-m+fp/hard\libg-musl.a(time.o)
 .note.GNU-stack
                0x00000000        0x0 d:/microchip/bin/bin/../../lib/gcc/pic32c/8.3.1/../../../../pic32c/lib/thumb/v7e-m+fp/hard\libg-musl.a(time.o)
 .debug_frame   0x00000000       0x2c d:/microchip/bin/bin/../../lib/gcc/pic32c/8.3.1/../../../../pic32c/lib/thumb/v7e-m+fp/hard\libg-musl.a(time.o)
 .ARM.attributes
                0x00000000       0x36 d:/microchip/bin/bin/../../lib/gcc/pic32c/8.3.1/../../../../pic32c/lib/thumb/v7e-m+fp/hard\libg-musl.a(time.o)
 .text          0x00000000        0x0 d:/microchip/bin/bin/../../lib/gcc/pic32c/8.3.1/../../../../pic32c/lib/thumb/v7e-m+fp/hard\libg-musl.a(__environ.o)
 .data          0x00000000        0x0 d:/microchip/bin/bin/../../lib/gcc/pic32c/8.3.1/../../../../pic32c/lib/thumb/v7e-m+fp/hard\libg-musl.a(__environ.o)
 .xc_stack_usage.hdr
                0x00000000        0xe d:/microchip/bin/bin/../../lib/gcc/pic32c/8.3.1/../../../../pic32c/lib/thumb/v7e-m+fp/hard\libg-musl.a(__environ.o)
 .text          0x00000000        0x0 d:/microchip/bin/bin/../../lib/gcc/pic32c/8.3.1/../../../../pic32c/lib/thumb/v7e-m+fp/hard\libg-musl.a(__errno_location.o)
 .data          0x00000000        0x0 d:/microchip/bin/bin/../../lib/gcc/pic32c/8.3.1/../../../../pic32c/lib/thumb/v7e-m+fp/hard\libg-musl.a(__errno_location.o)
 .xc_stack_usage.hdr
                0x00000000        0xe d:/microchip/bin/bin/../../lib/gcc/pic32c/8.3.1/../../../../pic32c/lib/thumb/v7e-m+fp/hard\libg-musl.a(__errno_location.o)
 .text          0x00000000        0x0 d:/microchip/bin/bin/../../lib/gcc/pic32c/8.3.1/../../../../pic32c/lib/thumb/v7e-m+fp/hard\libg-musl.a(intscan.o)
 .data          0x00000000        0x0 d:/microchip/bin/bin/../../lib/gcc/pic32c/8.3.1/../../../../pic32c/lib/thumb/v7e-m+fp/hard\libg-musl.a(intscan.o)
 .bss           0x00000000        0x0 d:/microchip/bin/bin/../../lib/gcc/pic32c/8.3.1/../../../../pic32c/lib/thumb/v7e-m+fp/hard\libg-musl.a(intscan.o)
 .xc_stack_usage
                0x00000000       0x17 d:/microchip/bin/bin/../../lib/gcc/pic32c/8.3.1/../../../../pic32c/lib/thumb/v7e-m+fp/hard\libg-musl.a(intscan.o)
 .xc_stack_usage.hdr
                0x00000000        0xe d:/microchip/bin/bin/../../lib/gcc/pic32c/8.3.1/../../../../pic32c/lib/thumb/v7e-m+fp/hard\libg-musl.a(intscan.o)
 .text          0x00000000        0x0 d:/microchip/bin/bin/../../lib/gcc/pic32c/8.3.1/../../../../pic32c/lib/thumb/v7e-m+fp/hard\libg-musl.a(shgetc.o)
 .data          0x00000000        0x0 d:/microchip/bin/bin/../../lib/gcc/pic32c/8.3.1/../../../../pic32c/lib/thumb/v7e-m+fp/hard\libg-musl.a(shgetc.o)
 .bss           0x00000000        0x0 d:/microchip/bin/bin/../../lib/gcc/pic32c/8.3.1/../../../../pic32c/lib/thumb/v7e-m+fp/hard\libg-musl.a(shgetc.o)
 .xc_stack_usage
                0x00000000       0x2b d:/microchip/bin/bin/../../lib/gcc/pic32c/8.3.1/../../../../pic32c/lib/thumb/v7e-m+fp/hard\libg-musl.a(shgetc.o)
 .xc_stack_usage.hdr
                0x00000000        0xe d:/microchip/bin/bin/../../lib/gcc/pic32c/8.3.1/../../../../pic32c/lib/thumb/v7e-m+fp/hard\libg-musl.a(shgetc.o)
 .text          0x00000000        0x0 d:/microchip/bin/bin/../../lib/gcc/pic32c/8.3.1/../../../../pic32c/lib/thumb/v7e-m+fp/hard\libg-musl.a(__uflow.o)
 .data          0x00000000        0x0 d:/microchip/bin/bin/../../lib/gcc/pic32c/8.3.1/../../../../pic32c/lib/thumb/v7e-m+fp/hard\libg-musl.a(__uflow.o)
 .bss           0x00000000        0x0 d:/microchip/bin/bin/../../lib/gcc/pic32c/8.3.1/../../../../pic32c/lib/thumb/v7e-m+fp/hard\libg-musl.a(__uflow.o)
 .xc_stack_usage
                0x00000000       0x15 d:/microchip/bin/bin/../../lib/gcc/pic32c/8.3.1/../../../../pic32c/lib/thumb/v7e-m+fp/hard\libg-musl.a(__uflow.o)
 .xc_stack_usage.hdr
                0x00000000        0xe d:/microchip/bin/bin/../../lib/gcc/pic32c/8.3.1/../../../../pic32c/lib/thumb/v7e-m+fp/hard\libg-musl.a(__uflow.o)
 .text          0x00000000        0x0 d:/microchip/bin/bin/../../lib/gcc/pic32c/8.3.1/../../../../pic32c/lib/thumb/v7e-m+fp/hard\libg-musl.a(vfprintf.o)
 .data          0x00000000        0x0 d:/microchip/bin/bin/../../lib/gcc/pic32c/8.3.1/../../../../pic32c/lib/thumb/v7e-m+fp/hard\libg-musl.a(vfprintf.o)
 .bss           0x00000000        0x0 d:/microchip/bin/bin/../../lib/gcc/pic32c/8.3.1/../../../../pic32c/lib/thumb/v7e-m+fp/hard\libg-musl.a(vfprintf.o)
 .xc_stack_usage
                0x00000000       0x38 d:/microchip/bin/bin/../../lib/gcc/pic32c/8.3.1/../../../../pic32c/lib/thumb/v7e-m+fp/hard\libg-musl.a(vfprintf.o)
 .xc_stack_usage.hdr
                0x00000000        0xe d:/microchip/bin/bin/../../lib/gcc/pic32c/8.3.1/../../../../pic32c/lib/thumb/v7e-m+fp/hard\libg-musl.a(vfprintf.o)
 .text          0x00000000        0x0 d:/microchip/bin/bin/../../lib/gcc/pic32c/8.3.1/../../../../pic32c/lib/thumb/v7e-m+fp/hard\libg-musl.a(stpcpy.o)
 .data          0x00000000        0x0 d:/microchip/bin/bin/../../lib/gcc/pic32c/8.3.1/../../../../pic32c/lib/thumb/v7e-m+fp/hard\libg-musl.a(stpcpy.o)
 .bss           0x00000000        0x0 d:/microchip/bin/bin/../../lib/gcc/pic32c/8.3.1/../../../../pic32c/lib/thumb/v7e-m+fp/hard\libg-musl.a(stpcpy.o)
 .xc_stack_usage
                0x00000000       0x14 d:/microchip/bin/bin/../../lib/gcc/pic32c/8.3.1/../../../../pic32c/lib/thumb/v7e-m+fp/hard\libg-musl.a(stpcpy.o)
 .xc_stack_usage.hdr
                0x00000000        0xe d:/microchip/bin/bin/../../lib/gcc/pic32c/8.3.1/../../../../pic32c/lib/thumb/v7e-m+fp/hard\libg-musl.a(stpcpy.o)
 .text          0x00000000        0x0 d:/microchip/bin/bin/../../lib/gcc/pic32c/8.3.1/../../../../pic32c/lib/thumb/v7e-m+fp/hard\libg-musl.a(stpncpy.o)
 .data          0x00000000        0x0 d:/microchip/bin/bin/../../lib/gcc/pic32c/8.3.1/../../../../pic32c/lib/thumb/v7e-m+fp/hard\libg-musl.a(stpncpy.o)
 .bss           0x00000000        0x0 d:/microchip/bin/bin/../../lib/gcc/pic32c/8.3.1/../../../../pic32c/lib/thumb/v7e-m+fp/hard\libg-musl.a(stpncpy.o)
 .xc_stack_usage
                0x00000000       0x15 d:/microchip/bin/bin/../../lib/gcc/pic32c/8.3.1/../../../../pic32c/lib/thumb/v7e-m+fp/hard\libg-musl.a(stpncpy.o)
 .xc_stack_usage.hdr
                0x00000000        0xe d:/microchip/bin/bin/../../lib/gcc/pic32c/8.3.1/../../../../pic32c/lib/thumb/v7e-m+fp/hard\libg-musl.a(stpncpy.o)
 .text          0x00000000        0x0 d:/microchip/bin/bin/../../lib/gcc/pic32c/8.3.1/../../../../pic32c/lib/thumb/v7e-m+fp/hard\libg-musl.a(strcspn.o)
 .data          0x00000000        0x0 d:/microchip/bin/bin/../../lib/gcc/pic32c/8.3.1/../../../../pic32c/lib/thumb/v7e-m+fp/hard\libg-musl.a(strcspn.o)
 .bss           0x00000000        0x0 d:/microchip/bin/bin/../../lib/gcc/pic32c/8.3.1/../../../../pic32c/lib/thumb/v7e-m+fp/hard\libg-musl.a(strcspn.o)
 .xc_stack_usage
                0x00000000       0x15 d:/microchip/bin/bin/../../lib/gcc/pic32c/8.3.1/../../../../pic32c/lib/thumb/v7e-m+fp/hard\libg-musl.a(strcspn.o)
 .xc_stack_usage.hdr
                0x00000000        0xe d:/microchip/bin/bin/../../lib/gcc/pic32c/8.3.1/../../../../pic32c/lib/thumb/v7e-m+fp/hard\libg-musl.a(strcspn.o)
 .text          0x00000000        0x0 d:/microchip/bin/bin/../../lib/gcc/pic32c/8.3.1/../../../../pic32c/lib/thumb/v7e-m+fp/hard\libg-musl.a(strspn.o)
 .data          0x00000000        0x0 d:/microchip/bin/bin/../../lib/gcc/pic32c/8.3.1/../../../../pic32c/lib/thumb/v7e-m+fp/hard\libg-musl.a(strspn.o)
 .bss           0x00000000        0x0 d:/microchip/bin/bin/../../lib/gcc/pic32c/8.3.1/../../../../pic32c/lib/thumb/v7e-m+fp/hard\libg-musl.a(strspn.o)
 .xc_stack_usage
                0x00000000       0x14 d:/microchip/bin/bin/../../lib/gcc/pic32c/8.3.1/../../../../pic32c/lib/thumb/v7e-m+fp/hard\libg-musl.a(strspn.o)
 .xc_stack_usage.hdr
                0x00000000        0xe d:/microchip/bin/bin/../../lib/gcc/pic32c/8.3.1/../../../../pic32c/lib/thumb/v7e-m+fp/hard\libg-musl.a(strspn.o)
 .text          0x00000000        0x0 d:/microchip/bin/bin/../../lib/gcc/pic32c/8.3.1/../../../../pic32c/lib/thumb/v7e-m+fp/hard\libg-musl.a(__secs_to_tm.o)
 .data          0x00000000        0x0 d:/microchip/bin/bin/../../lib/gcc/pic32c/8.3.1/../../../../pic32c/lib/thumb/v7e-m+fp/hard\libg-musl.a(__secs_to_tm.o)
 .bss           0x00000000        0x0 d:/microchip/bin/bin/../../lib/gcc/pic32c/8.3.1/../../../../pic32c/lib/thumb/v7e-m+fp/hard\libg-musl.a(__secs_to_tm.o)
 .xc_stack_usage
                0x00000000       0x1a d:/microchip/bin/bin/../../lib/gcc/pic32c/8.3.1/../../../../pic32c/lib/thumb/v7e-m+fp/hard\libg-musl.a(__secs_to_tm.o)
 .text.__secs_to_tm
                0x00000000      0x1c8 d:/microchip/bin/bin/../../lib/gcc/pic32c/8.3.1/../../../../pic32c/lib/thumb/v7e-m+fp/hard\libg-musl.a(__secs_to_tm.o)
 .rodata        0x00000000        0xc d:/microchip/bin/bin/../../lib/gcc/pic32c/8.3.1/../../../../pic32c/lib/thumb/v7e-m+fp/hard\libg-musl.a(__secs_to_tm.o)
 .xc_stack_usage.hdr
                0x00000000        0xe d:/microchip/bin/bin/../../lib/gcc/pic32c/8.3.1/../../../../pic32c/lib/thumb/v7e-m+fp/hard\libg-musl.a(__secs_to_tm.o)
 .debug_info    0x00000000      0x528 d:/microchip/bin/bin/../../lib/gcc/pic32c/8.3.1/../../../../pic32c/lib/thumb/v7e-m+fp/hard\libg-musl.a(__secs_to_tm.o)
 .debug_abbrev  0x00000000       0xbc d:/microchip/bin/bin/../../lib/gcc/pic32c/8.3.1/../../../../pic32c/lib/thumb/v7e-m+fp/hard\libg-musl.a(__secs_to_tm.o)
 .debug_loc     0x00000000      0x301 d:/microchip/bin/bin/../../lib/gcc/pic32c/8.3.1/../../../../pic32c/lib/thumb/v7e-m+fp/hard\libg-musl.a(__secs_to_tm.o)
 .debug_aranges
                0x00000000       0x20 d:/microchip/bin/bin/../../lib/gcc/pic32c/8.3.1/../../../../pic32c/lib/thumb/v7e-m+fp/hard\libg-musl.a(__secs_to_tm.o)
 .debug_ranges  0x00000000       0x10 d:/microchip/bin/bin/../../lib/gcc/pic32c/8.3.1/../../../../pic32c/lib/thumb/v7e-m+fp/hard\libg-musl.a(__secs_to_tm.o)
 .debug_line    0x00000000      0x2f0 d:/microchip/bin/bin/../../lib/gcc/pic32c/8.3.1/../../../../pic32c/lib/thumb/v7e-m+fp/hard\libg-musl.a(__secs_to_tm.o)
 .debug_str     0x00000000        0x0 d:/microchip/bin/bin/../../lib/gcc/pic32c/8.3.1/../../../../pic32c/lib/thumb/v7e-m+fp/hard\libg-musl.a(__secs_to_tm.o)
 .comment       0x00000000       0x2c d:/microchip/bin/bin/../../lib/gcc/pic32c/8.3.1/../../../../pic32c/lib/thumb/v7e-m+fp/hard\libg-musl.a(__secs_to_tm.o)
 .note.GNU-stack
                0x00000000        0x0 d:/microchip/bin/bin/../../lib/gcc/pic32c/8.3.1/../../../../pic32c/lib/thumb/v7e-m+fp/hard\libg-musl.a(__secs_to_tm.o)
 .debug_frame   0x00000000       0x38 d:/microchip/bin/bin/../../lib/gcc/pic32c/8.3.1/../../../../pic32c/lib/thumb/v7e-m+fp/hard\libg-musl.a(__secs_to_tm.o)
 .ARM.attributes
                0x00000000       0x36 d:/microchip/bin/bin/../../lib/gcc/pic32c/8.3.1/../../../../pic32c/lib/thumb/v7e-m+fp/hard\libg-musl.a(__secs_to_tm.o)
 .text          0x00000000        0x0 d:/microchip/bin/bin/../../lib/gcc/pic32c/8.3.1/../../../../pic32c/lib/thumb/v7e-m+fp/hard\libg-musl.a(clock_gettime.o)
 .data          0x00000000        0x0 d:/microchip/bin/bin/../../lib/gcc/pic32c/8.3.1/../../../../pic32c/lib/thumb/v7e-m+fp/hard\libg-musl.a(clock_gettime.o)
 .bss           0x00000000        0x0 d:/microchip/bin/bin/../../lib/gcc/pic32c/8.3.1/../../../../pic32c/lib/thumb/v7e-m+fp/hard\libg-musl.a(clock_gettime.o)
 .xc_stack_usage
                0x00000000       0x1d d:/microchip/bin/bin/../../lib/gcc/pic32c/8.3.1/../../../../pic32c/lib/thumb/v7e-m+fp/hard\libg-musl.a(clock_gettime.o)
 .text.__clock_gettime
                0x00000000       0x2c d:/microchip/bin/bin/../../lib/gcc/pic32c/8.3.1/../../../../pic32c/lib/thumb/v7e-m+fp/hard\libg-musl.a(clock_gettime.o)
 .xc_stack_usage.hdr
                0x00000000        0xe d:/microchip/bin/bin/../../lib/gcc/pic32c/8.3.1/../../../../pic32c/lib/thumb/v7e-m+fp/hard\libg-musl.a(clock_gettime.o)
 .debug_info    0x00000000      0x43d d:/microchip/bin/bin/../../lib/gcc/pic32c/8.3.1/../../../../pic32c/lib/thumb/v7e-m+fp/hard\libg-musl.a(clock_gettime.o)
 .debug_abbrev  0x00000000      0x102 d:/microchip/bin/bin/../../lib/gcc/pic32c/8.3.1/../../../../pic32c/lib/thumb/v7e-m+fp/hard\libg-musl.a(clock_gettime.o)
 .debug_loc     0x00000000       0xbb d:/microchip/bin/bin/../../lib/gcc/pic32c/8.3.1/../../../../pic32c/lib/thumb/v7e-m+fp/hard\libg-musl.a(clock_gettime.o)
 .debug_aranges
                0x00000000       0x20 d:/microchip/bin/bin/../../lib/gcc/pic32c/8.3.1/../../../../pic32c/lib/thumb/v7e-m+fp/hard\libg-musl.a(clock_gettime.o)
 .debug_ranges  0x00000000       0x10 d:/microchip/bin/bin/../../lib/gcc/pic32c/8.3.1/../../../../pic32c/lib/thumb/v7e-m+fp/hard\libg-musl.a(clock_gettime.o)
 .debug_line    0x00000000      0x1f2 d:/microchip/bin/bin/../../lib/gcc/pic32c/8.3.1/../../../../pic32c/lib/thumb/v7e-m+fp/hard\libg-musl.a(clock_gettime.o)
 .debug_str     0x00000000       0x1b d:/microchip/bin/bin/../../lib/gcc/pic32c/8.3.1/../../../../pic32c/lib/thumb/v7e-m+fp/hard\libg-musl.a(clock_gettime.o)
 .comment       0x00000000       0x2c d:/microchip/bin/bin/../../lib/gcc/pic32c/8.3.1/../../../../pic32c/lib/thumb/v7e-m+fp/hard\libg-musl.a(clock_gettime.o)
 .note.GNU-stack
                0x00000000        0x0 d:/microchip/bin/bin/../../lib/gcc/pic32c/8.3.1/../../../../pic32c/lib/thumb/v7e-m+fp/hard\libg-musl.a(clock_gettime.o)
 .debug_frame   0x00000000       0x30 d:/microchip/bin/bin/../../lib/gcc/pic32c/8.3.1/../../../../pic32c/lib/thumb/v7e-m+fp/hard\libg-musl.a(clock_gettime.o)
 .ARM.attributes
                0x00000000       0x36 d:/microchip/bin/bin/../../lib/gcc/pic32c/8.3.1/../../../../pic32c/lib/thumb/v7e-m+fp/hard\libg-musl.a(clock_gettime.o)
 .text          0x00000000        0x0 d:/microchip/bin/bin/../../lib/gcc/pic32c/8.3.1/../../../../pic32c/lib/thumb/v7e-m+fp/hard\libg-musl.a(gettimeofday.o)
 .data          0x00000000        0x0 d:/microchip/bin/bin/../../lib/gcc/pic32c/8.3.1/../../../../pic32c/lib/thumb/v7e-m+fp/hard\libg-musl.a(gettimeofday.o)
 .bss           0x00000000        0x0 d:/microchip/bin/bin/../../lib/gcc/pic32c/8.3.1/../../../../pic32c/lib/thumb/v7e-m+fp/hard\libg-musl.a(gettimeofday.o)
 .xc_stack_usage
                0x00000000       0x1c d:/microchip/bin/bin/../../lib/gcc/pic32c/8.3.1/../../../../pic32c/lib/thumb/v7e-m+fp/hard\libg-musl.a(gettimeofday.o)
 .text.__gettimeofday
                0x00000000        0x6 d:/microchip/bin/bin/../../lib/gcc/pic32c/8.3.1/../../../../pic32c/lib/thumb/v7e-m+fp/hard\libg-musl.a(gettimeofday.o)
 .xc_stack_usage.hdr
                0x00000000        0xe d:/microchip/bin/bin/../../lib/gcc/pic32c/8.3.1/../../../../pic32c/lib/thumb/v7e-m+fp/hard\libg-musl.a(gettimeofday.o)
 .debug_info    0x00000000      0x31f d:/microchip/bin/bin/../../lib/gcc/pic32c/8.3.1/../../../../pic32c/lib/thumb/v7e-m+fp/hard\libg-musl.a(gettimeofday.o)
 .debug_abbrev  0x00000000       0xa3 d:/microchip/bin/bin/../../lib/gcc/pic32c/8.3.1/../../../../pic32c/lib/thumb/v7e-m+fp/hard\libg-musl.a(gettimeofday.o)
 .debug_loc     0x00000000       0x25 d:/microchip/bin/bin/../../lib/gcc/pic32c/8.3.1/../../../../pic32c/lib/thumb/v7e-m+fp/hard\libg-musl.a(gettimeofday.o)
 .debug_aranges
                0x00000000       0x20 d:/microchip/bin/bin/../../lib/gcc/pic32c/8.3.1/../../../../pic32c/lib/thumb/v7e-m+fp/hard\libg-musl.a(gettimeofday.o)
 .debug_ranges  0x00000000       0x10 d:/microchip/bin/bin/../../lib/gcc/pic32c/8.3.1/../../../../pic32c/lib/thumb/v7e-m+fp/hard\libg-musl.a(gettimeofday.o)
 .debug_line    0x00000000       0xce d:/microchip/bin/bin/../../lib/gcc/pic32c/8.3.1/../../../../pic32c/lib/thumb/v7e-m+fp/hard\libg-musl.a(gettimeofday.o)
 .debug_str     0x00000000        0x0 d:/microchip/bin/bin/../../lib/gcc/pic32c/8.3.1/../../../../pic32c/lib/thumb/v7e-m+fp/hard\libg-musl.a(gettimeofday.o)
 .comment       0x00000000       0x2c d:/microchip/bin/bin/../../lib/gcc/pic32c/8.3.1/../../../../pic32c/lib/thumb/v7e-m+fp/hard\libg-musl.a(gettimeofday.o)
 .note.GNU-stack
                0x00000000        0x0 d:/microchip/bin/bin/../../lib/gcc/pic32c/8.3.1/../../../../pic32c/lib/thumb/v7e-m+fp/hard\libg-musl.a(gettimeofday.o)
 .debug_frame   0x00000000       0x20 d:/microchip/bin/bin/../../lib/gcc/pic32c/8.3.1/../../../../pic32c/lib/thumb/v7e-m+fp/hard\libg-musl.a(gettimeofday.o)
 .ARM.attributes
                0x00000000       0x36 d:/microchip/bin/bin/../../lib/gcc/pic32c/8.3.1/../../../../pic32c/lib/thumb/v7e-m+fp/hard\libg-musl.a(gettimeofday.o)
 .text          0x00000000        0x0 d:/microchip/bin/bin/../../lib/gcc/pic32c/8.3.1/../../../../pic32c/lib/thumb/v7e-m+fp/hard\libg-musl.a(syscall_ret.o)
 .data          0x00000000        0x0 d:/microchip/bin/bin/../../lib/gcc/pic32c/8.3.1/../../../../pic32c/lib/thumb/v7e-m+fp/hard\libg-musl.a(syscall_ret.o)
 .bss           0x00000000        0x0 d:/microchip/bin/bin/../../lib/gcc/pic32c/8.3.1/../../../../pic32c/lib/thumb/v7e-m+fp/hard\libg-musl.a(syscall_ret.o)
 .xc_stack_usage
                0x00000000       0x1b d:/microchip/bin/bin/../../lib/gcc/pic32c/8.3.1/../../../../pic32c/lib/thumb/v7e-m+fp/hard\libg-musl.a(syscall_ret.o)
 .text.__syscall_ret
                0x00000000       0x18 d:/microchip/bin/bin/../../lib/gcc/pic32c/8.3.1/../../../../pic32c/lib/thumb/v7e-m+fp/hard\libg-musl.a(syscall_ret.o)
 .xc_stack_usage.hdr
                0x00000000        0xe d:/microchip/bin/bin/../../lib/gcc/pic32c/8.3.1/../../../../pic32c/lib/thumb/v7e-m+fp/hard\libg-musl.a(syscall_ret.o)
 .debug_info    0x00000000      0x2c7 d:/microchip/bin/bin/../../lib/gcc/pic32c/8.3.1/../../../../pic32c/lib/thumb/v7e-m+fp/hard\libg-musl.a(syscall_ret.o)
 .debug_abbrev  0x00000000       0x66 d:/microchip/bin/bin/../../lib/gcc/pic32c/8.3.1/../../../../pic32c/lib/thumb/v7e-m+fp/hard\libg-musl.a(syscall_ret.o)
 .debug_loc     0x00000000       0x25 d:/microchip/bin/bin/../../lib/gcc/pic32c/8.3.1/../../../../pic32c/lib/thumb/v7e-m+fp/hard\libg-musl.a(syscall_ret.o)
 .debug_aranges
                0x00000000       0x20 d:/microchip/bin/bin/../../lib/gcc/pic32c/8.3.1/../../../../pic32c/lib/thumb/v7e-m+fp/hard\libg-musl.a(syscall_ret.o)
 .debug_ranges  0x00000000       0x10 d:/microchip/bin/bin/../../lib/gcc/pic32c/8.3.1/../../../../pic32c/lib/thumb/v7e-m+fp/hard\libg-musl.a(syscall_ret.o)
 .debug_line    0x00000000      0x13c d:/microchip/bin/bin/../../lib/gcc/pic32c/8.3.1/../../../../pic32c/lib/thumb/v7e-m+fp/hard\libg-musl.a(syscall_ret.o)
 .debug_str     0x00000000        0x0 d:/microchip/bin/bin/../../lib/gcc/pic32c/8.3.1/../../../../pic32c/lib/thumb/v7e-m+fp/hard\libg-musl.a(syscall_ret.o)
 .comment       0x00000000       0x2c d:/microchip/bin/bin/../../lib/gcc/pic32c/8.3.1/../../../../pic32c/lib/thumb/v7e-m+fp/hard\libg-musl.a(syscall_ret.o)
 .note.GNU-stack
                0x00000000        0x0 d:/microchip/bin/bin/../../lib/gcc/pic32c/8.3.1/../../../../pic32c/lib/thumb/v7e-m+fp/hard\libg-musl.a(syscall_ret.o)
 .debug_frame   0x00000000       0x20 d:/microchip/bin/bin/../../lib/gcc/pic32c/8.3.1/../../../../pic32c/lib/thumb/v7e-m+fp/hard\libg-musl.a(syscall_ret.o)
 .ARM.attributes
                0x00000000       0x36 d:/microchip/bin/bin/../../lib/gcc/pic32c/8.3.1/../../../../pic32c/lib/thumb/v7e-m+fp/hard\libg-musl.a(syscall_ret.o)
 .text          0x00000000        0x0 d:/microchip/bin/bin/../../lib/gcc/pic32c/8.3.1/../../../../pic32c/lib/thumb/v7e-m+fp/hard\libg-musl.a(__toread.o)
 .data          0x00000000        0x0 d:/microchip/bin/bin/../../lib/gcc/pic32c/8.3.1/../../../../pic32c/lib/thumb/v7e-m+fp/hard\libg-musl.a(__toread.o)
 .bss           0x00000000        0x0 d:/microchip/bin/bin/../../lib/gcc/pic32c/8.3.1/../../../../pic32c/lib/thumb/v7e-m+fp/hard\libg-musl.a(__toread.o)
 .xc_stack_usage
                0x00000000       0x3d d:/microchip/bin/bin/../../lib/gcc/pic32c/8.3.1/../../../../pic32c/lib/thumb/v7e-m+fp/hard\libg-musl.a(__toread.o)
 .text.__toread_needs_stdio_exit
                0x00000000        0x4 d:/microchip/bin/bin/../../lib/gcc/pic32c/8.3.1/../../../../pic32c/lib/thumb/v7e-m+fp/hard\libg-musl.a(__toread.o)
 .xc_stack_usage.hdr
                0x00000000        0xe d:/microchip/bin/bin/../../lib/gcc/pic32c/8.3.1/../../../../pic32c/lib/thumb/v7e-m+fp/hard\libg-musl.a(__toread.o)
 .text          0x00000000        0x0 d:/microchip/bin/bin/../../lib/gcc/pic32c/8.3.1/../../../../pic32c/lib/thumb/v7e-m+fp/hard\libg-musl.a(__io_fmt_needed.o)
 .data          0x00000000        0x0 d:/microchip/bin/bin/../../lib/gcc/pic32c/8.3.1/../../../../pic32c/lib/thumb/v7e-m+fp/hard\libg-musl.a(__io_fmt_needed.o)
 .bss           0x00000000        0x0 d:/microchip/bin/bin/../../lib/gcc/pic32c/8.3.1/../../../../pic32c/lib/thumb/v7e-m+fp/hard\libg-musl.a(__io_fmt_needed.o)
 .xc_stack_usage
                0x00000000       0x1d d:/microchip/bin/bin/../../lib/gcc/pic32c/8.3.1/../../../../pic32c/lib/thumb/v7e-m+fp/hard\libg-musl.a(__io_fmt_needed.o)
 .xc_stack_usage.hdr
                0x00000000        0xe d:/microchip/bin/bin/../../lib/gcc/pic32c/8.3.1/../../../../pic32c/lib/thumb/v7e-m+fp/hard\libg-musl.a(__io_fmt_needed.o)
 .debug_info    0x00000000      0x3f0 d:/microchip/bin/bin/../../lib/gcc/pic32c/8.3.1/../../../../pic32c/lib/thumb/v7e-m+fp/hard\libg-musl.a(__io_fmt_needed.o)
 .debug_abbrev  0x00000000       0x6a d:/microchip/bin/bin/../../lib/gcc/pic32c/8.3.1/../../../../pic32c/lib/thumb/v7e-m+fp/hard\libg-musl.a(__io_fmt_needed.o)
 .debug_loc     0x00000000       0x2c d:/microchip/bin/bin/../../lib/gcc/pic32c/8.3.1/../../../../pic32c/lib/thumb/v7e-m+fp/hard\libg-musl.a(__io_fmt_needed.o)
 .debug_aranges
                0x00000000       0x20 d:/microchip/bin/bin/../../lib/gcc/pic32c/8.3.1/../../../../pic32c/lib/thumb/v7e-m+fp/hard\libg-musl.a(__io_fmt_needed.o)
 .debug_ranges  0x00000000       0x10 d:/microchip/bin/bin/../../lib/gcc/pic32c/8.3.1/../../../../pic32c/lib/thumb/v7e-m+fp/hard\libg-musl.a(__io_fmt_needed.o)
 .debug_line    0x00000000       0xc8 d:/microchip/bin/bin/../../lib/gcc/pic32c/8.3.1/../../../../pic32c/lib/thumb/v7e-m+fp/hard\libg-musl.a(__io_fmt_needed.o)
 .debug_str     0x00000000       0x9e d:/microchip/bin/bin/../../lib/gcc/pic32c/8.3.1/../../../../pic32c/lib/thumb/v7e-m+fp/hard\libg-musl.a(__io_fmt_needed.o)
 .comment       0x00000000       0x2c d:/microchip/bin/bin/../../lib/gcc/pic32c/8.3.1/../../../../pic32c/lib/thumb/v7e-m+fp/hard\libg-musl.a(__io_fmt_needed.o)
 .note.GNU-stack
                0x00000000        0x0 d:/microchip/bin/bin/../../lib/gcc/pic32c/8.3.1/../../../../pic32c/lib/thumb/v7e-m+fp/hard\libg-musl.a(__io_fmt_needed.o)
 .debug_frame   0x00000000       0x2c d:/microchip/bin/bin/../../lib/gcc/pic32c/8.3.1/../../../../pic32c/lib/thumb/v7e-m+fp/hard\libg-musl.a(__io_fmt_needed.o)
 .ARM.attributes
                0x00000000       0x36 d:/microchip/bin/bin/../../lib/gcc/pic32c/8.3.1/../../../../pic32c/lib/thumb/v7e-m+fp/hard\libg-musl.a(__io_fmt_needed.o)
 .text          0x00000000        0x0 d:/microchip/bin/bin/../../lib/gcc/pic32c/8.3.1/../../../../pic32c/lib/thumb/v7e-m+fp/hard\libg-musl.a(__pop_float.o)
 .data          0x00000000        0x0 d:/microchip/bin/bin/../../lib/gcc/pic32c/8.3.1/../../../../pic32c/lib/thumb/v7e-m+fp/hard\libg-musl.a(__pop_float.o)
 .bss           0x00000000        0x0 d:/microchip/bin/bin/../../lib/gcc/pic32c/8.3.1/../../../../pic32c/lib/thumb/v7e-m+fp/hard\libg-musl.a(__pop_float.o)
 .xc_stack_usage
                0x00000000       0x19 d:/microchip/bin/bin/../../lib/gcc/pic32c/8.3.1/../../../../pic32c/lib/thumb/v7e-m+fp/hard\libg-musl.a(__pop_float.o)
 .xc_stack_usage.hdr
                0x00000000        0xe d:/microchip/bin/bin/../../lib/gcc/pic32c/8.3.1/../../../../pic32c/lib/thumb/v7e-m+fp/hard\libg-musl.a(__pop_float.o)
 .text          0x00000000        0x0 d:/microchip/bin/bin/../../lib/gcc/pic32c/8.3.1/../../../../pic32c/lib/thumb/v7e-m+fp/hard\libg-musl.a(__pop_int.o)
 .data          0x00000000        0x0 d:/microchip/bin/bin/../../lib/gcc/pic32c/8.3.1/../../../../pic32c/lib/thumb/v7e-m+fp/hard\libg-musl.a(__pop_int.o)
 .bss           0x00000000        0x0 d:/microchip/bin/bin/../../lib/gcc/pic32c/8.3.1/../../../../pic32c/lib/thumb/v7e-m+fp/hard\libg-musl.a(__pop_int.o)
 .xc_stack_usage
                0x00000000       0x17 d:/microchip/bin/bin/../../lib/gcc/pic32c/8.3.1/../../../../pic32c/lib/thumb/v7e-m+fp/hard\libg-musl.a(__pop_int.o)
 .xc_stack_usage.hdr
                0x00000000        0xe d:/microchip/bin/bin/../../lib/gcc/pic32c/8.3.1/../../../../pic32c/lib/thumb/v7e-m+fp/hard\libg-musl.a(__pop_int.o)
 .text          0x00000000        0x0 d:/microchip/bin/bin/../../lib/gcc/pic32c/8.3.1/../../../../pic32c/lib/thumb/v7e-m+fp/hard\libg-musl.a(__pop_ptr.o)
 .data          0x00000000        0x0 d:/microchip/bin/bin/../../lib/gcc/pic32c/8.3.1/../../../../pic32c/lib/thumb/v7e-m+fp/hard\libg-musl.a(__pop_ptr.o)
 .bss           0x00000000        0x0 d:/microchip/bin/bin/../../lib/gcc/pic32c/8.3.1/../../../../pic32c/lib/thumb/v7e-m+fp/hard\libg-musl.a(__pop_ptr.o)
 .xc_stack_usage
                0x00000000       0x17 d:/microchip/bin/bin/../../lib/gcc/pic32c/8.3.1/../../../../pic32c/lib/thumb/v7e-m+fp/hard\libg-musl.a(__pop_ptr.o)
 .xc_stack_usage.hdr
                0x00000000        0xe d:/microchip/bin/bin/../../lib/gcc/pic32c/8.3.1/../../../../pic32c/lib/thumb/v7e-m+fp/hard\libg-musl.a(__pop_ptr.o)
 .text          0x00000000        0x0 d:/microchip/bin/bin/../../lib/gcc/pic32c/8.3.1/../../../../pic32c/lib/thumb/v7e-m+fp/hard\libg-musl.a(__printf_core.o)
 .data          0x00000000        0x0 d:/microchip/bin/bin/../../lib/gcc/pic32c/8.3.1/../../../../pic32c/lib/thumb/v7e-m+fp/hard\libg-musl.a(__printf_core.o)
 .bss           0x00000000        0x0 d:/microchip/bin/bin/../../lib/gcc/pic32c/8.3.1/../../../../pic32c/lib/thumb/v7e-m+fp/hard\libg-musl.a(__printf_core.o)
 .xc_stack_usage
                0x00000000       0xaf d:/microchip/bin/bin/../../lib/gcc/pic32c/8.3.1/../../../../pic32c/lib/thumb/v7e-m+fp/hard\libg-musl.a(__printf_core.o)
 .text.__dummy_fmt3
                0x00000000        0x4 d:/microchip/bin/bin/../../lib/gcc/pic32c/8.3.1/../../../../pic32c/lib/thumb/v7e-m+fp/hard\libg-musl.a(__printf_core.o)
 .text.__dummy_fmt4
                0x00000000        0x4 d:/microchip/bin/bin/../../lib/gcc/pic32c/8.3.1/../../../../pic32c/lib/thumb/v7e-m+fp/hard\libg-musl.a(__printf_core.o)
 .text.__dummy_fmts
                0x00000000        0x4 d:/microchip/bin/bin/../../lib/gcc/pic32c/8.3.1/../../../../pic32c/lib/thumb/v7e-m+fp/hard\libg-musl.a(__printf_core.o)
 .xc_stack_usage.hdr
                0x00000000        0xe d:/microchip/bin/bin/../../lib/gcc/pic32c/8.3.1/../../../../pic32c/lib/thumb/v7e-m+fp/hard\libg-musl.a(__printf_core.o)
 .text          0x00000000        0x0 d:/microchip/bin/bin/../../lib/gcc/pic32c/8.3.1/../../../../pic32c/lib/thumb/v7e-m+fp/hard\libg-musl.a(__stdio_exit.o)
 .data          0x00000000        0x0 d:/microchip/bin/bin/../../lib/gcc/pic32c/8.3.1/../../../../pic32c/lib/thumb/v7e-m+fp/hard\libg-musl.a(__stdio_exit.o)
 .bss           0x00000000        0x4 d:/microchip/bin/bin/../../lib/gcc/pic32c/8.3.1/../../../../pic32c/lib/thumb/v7e-m+fp/hard\libg-musl.a(__stdio_exit.o)
 .xc_stack_usage
                0x00000000       0x45 d:/microchip/bin/bin/../../lib/gcc/pic32c/8.3.1/../../../../pic32c/lib/thumb/v7e-m+fp/hard\libg-musl.a(__stdio_exit.o)
 .text.__dummy  0x00000000        0x2 d:/microchip/bin/bin/../../lib/gcc/pic32c/8.3.1/../../../../pic32c/lib/thumb/v7e-m+fp/hard\libg-musl.a(__stdio_exit.o)
 .text.__dummy1
                0x00000000        0x4 d:/microchip/bin/bin/../../lib/gcc/pic32c/8.3.1/../../../../pic32c/lib/thumb/v7e-m+fp/hard\libg-musl.a(__stdio_exit.o)
 .text.__stdio_exit
                0x00000000       0x34 d:/microchip/bin/bin/../../lib/gcc/pic32c/8.3.1/../../../../pic32c/lib/thumb/v7e-m+fp/hard\libg-musl.a(__stdio_exit.o)
 .xc_stack_usage.hdr
                0x00000000        0xe d:/microchip/bin/bin/../../lib/gcc/pic32c/8.3.1/../../../../pic32c/lib/thumb/v7e-m+fp/hard\libg-musl.a(__stdio_exit.o)
 .debug_info    0x00000000      0x58b d:/microchip/bin/bin/../../lib/gcc/pic32c/8.3.1/../../../../pic32c/lib/thumb/v7e-m+fp/hard\libg-musl.a(__stdio_exit.o)
 .debug_abbrev  0x00000000      0x157 d:/microchip/bin/bin/../../lib/gcc/pic32c/8.3.1/../../../../pic32c/lib/thumb/v7e-m+fp/hard\libg-musl.a(__stdio_exit.o)
 .debug_loc     0x00000000       0x45 d:/microchip/bin/bin/../../lib/gcc/pic32c/8.3.1/../../../../pic32c/lib/thumb/v7e-m+fp/hard\libg-musl.a(__stdio_exit.o)
 .debug_aranges
                0x00000000       0x30 d:/microchip/bin/bin/../../lib/gcc/pic32c/8.3.1/../../../../pic32c/lib/thumb/v7e-m+fp/hard\libg-musl.a(__stdio_exit.o)
 .debug_ranges  0x00000000       0x20 d:/microchip/bin/bin/../../lib/gcc/pic32c/8.3.1/../../../../pic32c/lib/thumb/v7e-m+fp/hard\libg-musl.a(__stdio_exit.o)
 .debug_line    0x00000000      0x17e d:/microchip/bin/bin/../../lib/gcc/pic32c/8.3.1/../../../../pic32c/lib/thumb/v7e-m+fp/hard\libg-musl.a(__stdio_exit.o)
 .debug_str     0x00000000        0x0 d:/microchip/bin/bin/../../lib/gcc/pic32c/8.3.1/../../../../pic32c/lib/thumb/v7e-m+fp/hard\libg-musl.a(__stdio_exit.o)
 .comment       0x00000000       0x2c d:/microchip/bin/bin/../../lib/gcc/pic32c/8.3.1/../../../../pic32c/lib/thumb/v7e-m+fp/hard\libg-musl.a(__stdio_exit.o)
 .note.GNU-stack
                0x00000000        0x0 d:/microchip/bin/bin/../../lib/gcc/pic32c/8.3.1/../../../../pic32c/lib/thumb/v7e-m+fp/hard\libg-musl.a(__stdio_exit.o)
 .debug_frame   0x00000000       0x48 d:/microchip/bin/bin/../../lib/gcc/pic32c/8.3.1/../../../../pic32c/lib/thumb/v7e-m+fp/hard\libg-musl.a(__stdio_exit.o)
 .ARM.attributes
                0x00000000       0x36 d:/microchip/bin/bin/../../lib/gcc/pic32c/8.3.1/../../../../pic32c/lib/thumb/v7e-m+fp/hard\libg-musl.a(__stdio_exit.o)
 .text          0x00000000        0x0 d:/microchip/bin/bin/../../lib/gcc/pic32c/8.3.1/../../../../pic32c/lib/thumb/v7e-m+fp/hard\libg-musl.a(__fmt_a.o)
 .data          0x00000000        0x0 d:/microchip/bin/bin/../../lib/gcc/pic32c/8.3.1/../../../../pic32c/lib/thumb/v7e-m+fp/hard\libg-musl.a(__fmt_a.o)
 .bss           0x00000000        0x0 d:/microchip/bin/bin/../../lib/gcc/pic32c/8.3.1/../../../../pic32c/lib/thumb/v7e-m+fp/hard\libg-musl.a(__fmt_a.o)
 .xc_stack_usage
                0x00000000       0x15 d:/microchip/bin/bin/../../lib/gcc/pic32c/8.3.1/../../../../pic32c/lib/thumb/v7e-m+fp/hard\libg-musl.a(__fmt_a.o)
 .xc_stack_usage.hdr
                0x00000000        0xe d:/microchip/bin/bin/../../lib/gcc/pic32c/8.3.1/../../../../pic32c/lib/thumb/v7e-m+fp/hard\libg-musl.a(__fmt_a.o)
 .text          0x00000000        0x0 d:/microchip/bin/bin/../../lib/gcc/pic32c/8.3.1/../../../../pic32c/lib/thumb/v7e-m+fp/hard\libg-musl.a(__fmt_d.o)
 .data          0x00000000        0x0 d:/microchip/bin/bin/../../lib/gcc/pic32c/8.3.1/../../../../pic32c/lib/thumb/v7e-m+fp/hard\libg-musl.a(__fmt_d.o)
 .bss           0x00000000        0x0 d:/microchip/bin/bin/../../lib/gcc/pic32c/8.3.1/../../../../pic32c/lib/thumb/v7e-m+fp/hard\libg-musl.a(__fmt_d.o)
 .xc_stack_usage
                0x00000000       0x15 d:/microchip/bin/bin/../../lib/gcc/pic32c/8.3.1/../../../../pic32c/lib/thumb/v7e-m+fp/hard\libg-musl.a(__fmt_d.o)
 .xc_stack_usage.hdr
                0x00000000        0xe d:/microchip/bin/bin/../../lib/gcc/pic32c/8.3.1/../../../../pic32c/lib/thumb/v7e-m+fp/hard\libg-musl.a(__fmt_d.o)
 .text          0x00000000        0x0 d:/microchip/bin/bin/../../lib/gcc/pic32c/8.3.1/../../../../pic32c/lib/thumb/v7e-m+fp/hard\libg-musl.a(__fmt_fp.o)
 .data          0x00000000        0x0 d:/microchip/bin/bin/../../lib/gcc/pic32c/8.3.1/../../../../pic32c/lib/thumb/v7e-m+fp/hard\libg-musl.a(__fmt_fp.o)
 .bss           0x00000000        0x0 d:/microchip/bin/bin/../../lib/gcc/pic32c/8.3.1/../../../../pic32c/lib/thumb/v7e-m+fp/hard\libg-musl.a(__fmt_fp.o)
 .xc_stack_usage
                0x00000000       0x16 d:/microchip/bin/bin/../../lib/gcc/pic32c/8.3.1/../../../../pic32c/lib/thumb/v7e-m+fp/hard\libg-musl.a(__fmt_fp.o)
 .xc_stack_usage.hdr
                0x00000000        0xe d:/microchip/bin/bin/../../lib/gcc/pic32c/8.3.1/../../../../pic32c/lib/thumb/v7e-m+fp/hard\libg-musl.a(__fmt_fp.o)
 .text          0x00000000        0x0 d:/microchip/bin/bin/../../lib/gcc/pic32c/8.3.1/../../../../pic32c/lib/thumb/v7e-m+fp/hard\libg-musl.a(__fmt_o.o)
 .data          0x00000000        0x0 d:/microchip/bin/bin/../../lib/gcc/pic32c/8.3.1/../../../../pic32c/lib/thumb/v7e-m+fp/hard\libg-musl.a(__fmt_o.o)
 .bss           0x00000000        0x0 d:/microchip/bin/bin/../../lib/gcc/pic32c/8.3.1/../../../../pic32c/lib/thumb/v7e-m+fp/hard\libg-musl.a(__fmt_o.o)
 .xc_stack_usage
                0x00000000       0x15 d:/microchip/bin/bin/../../lib/gcc/pic32c/8.3.1/../../../../pic32c/lib/thumb/v7e-m+fp/hard\libg-musl.a(__fmt_o.o)
 .xc_stack_usage.hdr
                0x00000000        0xe d:/microchip/bin/bin/../../lib/gcc/pic32c/8.3.1/../../../../pic32c/lib/thumb/v7e-m+fp/hard\libg-musl.a(__fmt_o.o)
 .text          0x00000000        0x0 d:/microchip/bin/bin/../../lib/gcc/pic32c/8.3.1/../../../../pic32c/lib/thumb/v7e-m+fp/hard\libg-musl.a(__fmt_s.o)
 .data          0x00000000        0x0 d:/microchip/bin/bin/../../lib/gcc/pic32c/8.3.1/../../../../pic32c/lib/thumb/v7e-m+fp/hard\libg-musl.a(__fmt_s.o)
 .bss           0x00000000        0x0 d:/microchip/bin/bin/../../lib/gcc/pic32c/8.3.1/../../../../pic32c/lib/thumb/v7e-m+fp/hard\libg-musl.a(__fmt_s.o)
 .xc_stack_usage
                0x00000000       0x15 d:/microchip/bin/bin/../../lib/gcc/pic32c/8.3.1/../../../../pic32c/lib/thumb/v7e-m+fp/hard\libg-musl.a(__fmt_s.o)
 .xc_stack_usage.hdr
                0x00000000        0xe d:/microchip/bin/bin/../../lib/gcc/pic32c/8.3.1/../../../../pic32c/lib/thumb/v7e-m+fp/hard\libg-musl.a(__fmt_s.o)
 .text          0x00000000        0x0 d:/microchip/bin/bin/../../lib/gcc/pic32c/8.3.1/../../../../pic32c/lib/thumb/v7e-m+fp/hard\libg-musl.a(__fmt_u.o)
 .data          0x00000000        0x0 d:/microchip/bin/bin/../../lib/gcc/pic32c/8.3.1/../../../../pic32c/lib/thumb/v7e-m+fp/hard\libg-musl.a(__fmt_u.o)
 .bss           0x00000000        0x0 d:/microchip/bin/bin/../../lib/gcc/pic32c/8.3.1/../../../../pic32c/lib/thumb/v7e-m+fp/hard\libg-musl.a(__fmt_u.o)
 .xc_stack_usage
                0x00000000       0x15 d:/microchip/bin/bin/../../lib/gcc/pic32c/8.3.1/../../../../pic32c/lib/thumb/v7e-m+fp/hard\libg-musl.a(__fmt_u.o)
 .xc_stack_usage.hdr
                0x00000000        0xe d:/microchip/bin/bin/../../lib/gcc/pic32c/8.3.1/../../../../pic32c/lib/thumb/v7e-m+fp/hard\libg-musl.a(__fmt_u.o)
 .text          0x00000000        0x0 d:/microchip/bin/bin/../../lib/gcc/pic32c/8.3.1/../../../../pic32c/lib/thumb/v7e-m+fp/hard\libg-musl.a(__fmt_x.o)
 .data          0x00000000        0x0 d:/microchip/bin/bin/../../lib/gcc/pic32c/8.3.1/../../../../pic32c/lib/thumb/v7e-m+fp/hard\libg-musl.a(__fmt_x.o)
 .bss           0x00000000        0x0 d:/microchip/bin/bin/../../lib/gcc/pic32c/8.3.1/../../../../pic32c/lib/thumb/v7e-m+fp/hard\libg-musl.a(__fmt_x.o)
 .xc_stack_usage
                0x00000000       0x15 d:/microchip/bin/bin/../../lib/gcc/pic32c/8.3.1/../../../../pic32c/lib/thumb/v7e-m+fp/hard\libg-musl.a(__fmt_x.o)
 .xc_stack_usage.hdr
                0x00000000        0xe d:/microchip/bin/bin/../../lib/gcc/pic32c/8.3.1/../../../../pic32c/lib/thumb/v7e-m+fp/hard\libg-musl.a(__fmt_x.o)
 .text          0x00000000        0x0 d:/microchip/bin/bin/../../lib/gcc/pic32c/8.3.1/../../../../pic32c/lib/thumb/v7e-m+fp/hard\libg-musl.a(__cvt_u.o)
 .data          0x00000000        0x0 d:/microchip/bin/bin/../../lib/gcc/pic32c/8.3.1/../../../../pic32c/lib/thumb/v7e-m+fp/hard\libg-musl.a(__cvt_u.o)
 .bss           0x00000000        0x0 d:/microchip/bin/bin/../../lib/gcc/pic32c/8.3.1/../../../../pic32c/lib/thumb/v7e-m+fp/hard\libg-musl.a(__cvt_u.o)
 .xc_stack_usage
                0x00000000       0x15 d:/microchip/bin/bin/../../lib/gcc/pic32c/8.3.1/../../../../pic32c/lib/thumb/v7e-m+fp/hard\libg-musl.a(__cvt_u.o)
 .xc_stack_usage.hdr
                0x00000000        0xe d:/microchip/bin/bin/../../lib/gcc/pic32c/8.3.1/../../../../pic32c/lib/thumb/v7e-m+fp/hard\libg-musl.a(__cvt_u.o)
 .xc_stack_usage.hdr
                0x00000000        0xe d:/microchip/bin/bin/../../lib/gcc/pic32c/8.3.1/../../../../pic32c/lib/thumb/v7e-m+fp/hard\libm-fast-emfloat.a(fma.o)
 .xc_stack_usage
                0x00000000       0x11 d:/microchip/bin/bin/../../lib/gcc/pic32c/8.3.1/../../../../pic32c/lib/thumb/v7e-m+fp/hard\libm-fast-emfloat.a(fma.o)
 .xc_stack_usage.hdr
                0x00000000        0xe d:/microchip/bin/bin/../../lib/gcc/pic32c/8.3.1/../../../../pic32c/lib/thumb/v7e-m+fp/hard\libm-fast-emfloat.a(floor.o)
 .xc_stack_usage
                0x00000000       0x13 d:/microchip/bin/bin/../../lib/gcc/pic32c/8.3.1/../../../../pic32c/lib/thumb/v7e-m+fp/hard\libm-fast-emfloat.a(floor.o)
 .xc_stack_usage.hdr
                0x00000000        0xe d:/microchip/bin/bin/../../lib/gcc/pic32c/8.3.1/../../../../pic32c/lib/thumb/v7e-m+fp/hard\libm-fast-emfloat.a(__aeabi_dcmple.o)
 .xc_stack_usage
                0x00000000       0x1c d:/microchip/bin/bin/../../lib/gcc/pic32c/8.3.1/../../../../pic32c/lib/thumb/v7e-m+fp/hard\libm-fast-emfloat.a(__aeabi_dcmple.o)
 .xc_stack_usage.hdr
                0x00000000        0xe d:/microchip/bin/bin/../../lib/gcc/pic32c/8.3.1/../../../../pic32c/lib/thumb/v7e-m+fp/hard\libm-fast-emfloat.a(__aeabi_dcmpeq.o)
 .xc_stack_usage
                0x00000000       0x1c d:/microchip/bin/bin/../../lib/gcc/pic32c/8.3.1/../../../../pic32c/lib/thumb/v7e-m+fp/hard\libm-fast-emfloat.a(__aeabi_dcmpeq.o)
 .xc_stack_usage.hdr
                0x00000000        0xe d:/microchip/bin/bin/../../lib/gcc/pic32c/8.3.1/../../../../pic32c/lib/thumb/v7e-m+fp/hard\libm-fast-emfloat.a(__aeabi_dcmplt.o)
 .xc_stack_usage
                0x00000000       0x1c d:/microchip/bin/bin/../../lib/gcc/pic32c/8.3.1/../../../../pic32c/lib/thumb/v7e-m+fp/hard\libm-fast-emfloat.a(__aeabi_dcmplt.o)
 .xc_stack_usage.hdr
                0x00000000        0xe d:/microchip/bin/bin/../../lib/gcc/pic32c/8.3.1/../../../../pic32c/lib/thumb/v7e-m+fp/hard\libm-fast-emfloat.a(__aeabi_d2iz.o)
 .xc_stack_usage
                0x00000000       0x1a d:/microchip/bin/bin/../../lib/gcc/pic32c/8.3.1/../../../../pic32c/lib/thumb/v7e-m+fp/hard\libm-fast-emfloat.a(__aeabi_d2iz.o)
 .text          0x00000000       0xa0 d:/microchip/bin/bin/../../lib/gcc/pic32c/8.3.1/thumb/v7e-m+fp/hard\libgcc.a(_aeabi_ldivmod.o)
 .data          0x00000000        0x0 d:/microchip/bin/bin/../../lib/gcc/pic32c/8.3.1/thumb/v7e-m+fp/hard\libgcc.a(_aeabi_ldivmod.o)
 .bss           0x00000000        0x0 d:/microchip/bin/bin/../../lib/gcc/pic32c/8.3.1/thumb/v7e-m+fp/hard\libgcc.a(_aeabi_ldivmod.o)
 .xc_stack_usage.hdr
                0x00000000        0xe d:/microchip/bin/bin/../../lib/gcc/pic32c/8.3.1/thumb/v7e-m+fp/hard\libgcc.a(_aeabi_ldivmod.o)
 .xc_stack_usage
                0x00000000       0x1d d:/microchip/bin/bin/../../lib/gcc/pic32c/8.3.1/thumb/v7e-m+fp/hard\libgcc.a(_aeabi_ldivmod.o)
 .debug_line    0x00000000       0xb2 d:/microchip/bin/bin/../../lib/gcc/pic32c/8.3.1/thumb/v7e-m+fp/hard\libgcc.a(_aeabi_ldivmod.o)
 .debug_info    0x00000000       0x26 d:/microchip/bin/bin/../../lib/gcc/pic32c/8.3.1/thumb/v7e-m+fp/hard\libgcc.a(_aeabi_ldivmod.o)
 .debug_abbrev  0x00000000       0x14 d:/microchip/bin/bin/../../lib/gcc/pic32c/8.3.1/thumb/v7e-m+fp/hard\libgcc.a(_aeabi_ldivmod.o)
 .debug_aranges
                0x00000000       0x20 d:/microchip/bin/bin/../../lib/gcc/pic32c/8.3.1/thumb/v7e-m+fp/hard\libgcc.a(_aeabi_ldivmod.o)
 .debug_str     0x00000000       0xe8 d:/microchip/bin/bin/../../lib/gcc/pic32c/8.3.1/thumb/v7e-m+fp/hard\libgcc.a(_aeabi_ldivmod.o)
 .debug_frame   0x00000000       0x44 d:/microchip/bin/bin/../../lib/gcc/pic32c/8.3.1/thumb/v7e-m+fp/hard\libgcc.a(_aeabi_ldivmod.o)
 .ARM.attributes
                0x00000000       0x1e d:/microchip/bin/bin/../../lib/gcc/pic32c/8.3.1/thumb/v7e-m+fp/hard\libgcc.a(_aeabi_ldivmod.o)
 .data          0x00000000        0x0 d:/microchip/bin/bin/../../lib/gcc/pic32c/8.3.1/thumb/v7e-m+fp/hard\libgcc.a(_aeabi_uldivmod.o)
 .bss           0x00000000        0x0 d:/microchip/bin/bin/../../lib/gcc/pic32c/8.3.1/thumb/v7e-m+fp/hard\libgcc.a(_aeabi_uldivmod.o)
 .xc_stack_usage.hdr
                0x00000000        0xe d:/microchip/bin/bin/../../lib/gcc/pic32c/8.3.1/thumb/v7e-m+fp/hard\libgcc.a(_aeabi_uldivmod.o)
 .xc_stack_usage
                0x00000000       0x1e d:/microchip/bin/bin/../../lib/gcc/pic32c/8.3.1/thumb/v7e-m+fp/hard\libgcc.a(_aeabi_uldivmod.o)
 .data          0x00000000        0x0 d:/microchip/bin/bin/../../lib/gcc/pic32c/8.3.1/thumb/v7e-m+fp/hard\libgcc.a(_udivmoddi4.o)
 .bss           0x00000000        0x0 d:/microchip/bin/bin/../../lib/gcc/pic32c/8.3.1/thumb/v7e-m+fp/hard\libgcc.a(_udivmoddi4.o)
 .xc_stack_usage
                0x00000000       0x1a d:/microchip/bin/bin/../../lib/gcc/pic32c/8.3.1/thumb/v7e-m+fp/hard\libgcc.a(_udivmoddi4.o)
 .ARM.extab     0x00000000        0x0 d:/microchip/bin/bin/../../lib/gcc/pic32c/8.3.1/thumb/v7e-m+fp/hard\libgcc.a(_udivmoddi4.o)
 .xc_stack_usage.hdr
                0x00000000        0xe d:/microchip/bin/bin/../../lib/gcc/pic32c/8.3.1/thumb/v7e-m+fp/hard\libgcc.a(_udivmoddi4.o)
 .data          0x00000000        0x0 d:/microchip/bin/bin/../../lib/gcc/pic32c/8.3.1/thumb/v7e-m+fp/hard\libgcc.a(_dvmd_tls.o)
 .bss           0x00000000        0x0 d:/microchip/bin/bin/../../lib/gcc/pic32c/8.3.1/thumb/v7e-m+fp/hard\libgcc.a(_dvmd_tls.o)
 .xc_stack_usage.hdr
                0x00000000        0xe d:/microchip/bin/bin/../../lib/gcc/pic32c/8.3.1/thumb/v7e-m+fp/hard\libgcc.a(_dvmd_tls.o)
 .xc_stack_usage
                0x00000000       0x36 d:/microchip/bin/bin/../../lib/gcc/pic32c/8.3.1/thumb/v7e-m+fp/hard\libgcc.a(_dvmd_tls.o)
 .text          0x00000000        0x0 d:/microchip/bin/bin/../../lib/gcc/pic32c/8.3.1/../../../../pic32c/lib/thumb/v7e-m+fp/hard\libpic32c.a(sbrk.o)
 .data          0x00000000        0x0 d:/microchip/bin/bin/../../lib/gcc/pic32c/8.3.1/../../../../pic32c/lib/thumb/v7e-m+fp/hard\libpic32c.a(sbrk.o)
 .xc_stack_usage
                0x00000000       0x13 d:/microchip/bin/bin/../../lib/gcc/pic32c/8.3.1/../../../../pic32c/lib/thumb/v7e-m+fp/hard\libpic32c.a(sbrk.o)
 .xc_stack_usage.hdr
                0x00000000        0xe d:/microchip/bin/bin/../../lib/gcc/pic32c/8.3.1/../../../../pic32c/lib/thumb/v7e-m+fp/hard\libpic32c.a(sbrk.o)
 .text          0x00000000        0x0 d:/microchip/bin/bin/../../lib/gcc/pic32c/8.3.1/thumb/v7e-m+fp/hard/crtend.o
 .data          0x00000000        0x0 d:/microchip/bin/bin/../../lib/gcc/pic32c/8.3.1/thumb/v7e-m+fp/hard/crtend.o
 .bss           0x00000000        0x0 d:/microchip/bin/bin/../../lib/gcc/pic32c/8.3.1/thumb/v7e-m+fp/hard/crtend.o
 .eh_frame      0x00000000        0x4 d:/microchip/bin/bin/../../lib/gcc/pic32c/8.3.1/thumb/v7e-m+fp/hard/crtend.o
 .xc_stack_usage.hdr
                0x00000000        0xe d:/microchip/bin/bin/../../lib/gcc/pic32c/8.3.1/thumb/v7e-m+fp/hard/crtend.o
 .comment       0x00000000       0x2c d:/microchip/bin/bin/../../lib/gcc/pic32c/8.3.1/thumb/v7e-m+fp/hard/crtend.o
 .ARM.attributes
                0x00000000       0x32 d:/microchip/bin/bin/../../lib/gcc/pic32c/8.3.1/thumb/v7e-m+fp/hard/crtend.o
 .text          0x00000000        0x0 d:/microchip/bin/bin/../../lib/gcc/pic32c/8.3.1/thumb/v7e-m+fp/hard/crtn.o
 .data          0x00000000        0x0 d:/microchip/bin/bin/../../lib/gcc/pic32c/8.3.1/thumb/v7e-m+fp/hard/crtn.o
 .bss           0x00000000        0x0 d:/microchip/bin/bin/../../lib/gcc/pic32c/8.3.1/thumb/v7e-m+fp/hard/crtn.o
 .xc_stack_usage.hdr
                0x00000000        0xe d:/microchip/bin/bin/../../lib/gcc/pic32c/8.3.1/thumb/v7e-m+fp/hard/crtn.o
 .text          0x00000000        0x0 d:/microchip/bin/bin/../../lib/gcc/pic32c/8.3.1/../../../../pic32c/lib/thumb/v7e-m+fp/hard\libpic32c.a(pic32_data_init_clear.o)
 .data          0x00000000        0x0 d:/microchip/bin/bin/../../lib/gcc/pic32c/8.3.1/../../../../pic32c/lib/thumb/v7e-m+fp/hard\libpic32c.a(pic32_data_init_clear.o)
 .bss           0x00000000        0x0 d:/microchip/bin/bin/../../lib/gcc/pic32c/8.3.1/../../../../pic32c/lib/thumb/v7e-m+fp/hard\libpic32c.a(pic32_data_init_clear.o)
 .xc_stack_usage
                0x00000000       0x1b d:/microchip/bin/bin/../../lib/gcc/pic32c/8.3.1/../../../../pic32c/lib/thumb/v7e-m+fp/hard\libpic32c.a(pic32_data_init_clear.o)
 .xc_stack_usage.hdr
                0x00000000        0xe d:/microchip/bin/bin/../../lib/gcc/pic32c/8.3.1/../../../../pic32c/lib/thumb/v7e-m+fp/hard\libpic32c.a(pic32_data_init_clear.o)
 .text          0x00000000        0x0 d:/microchip/bin/bin/../../lib/gcc/pic32c/8.3.1/../../../../pic32c/lib/thumb/v7e-m+fp/hard\libpic32c.a(pic32_data_init_copy_emb.o)
 .data          0x00000000        0x0 d:/microchip/bin/bin/../../lib/gcc/pic32c/8.3.1/../../../../pic32c/lib/thumb/v7e-m+fp/hard\libpic32c.a(pic32_data_init_copy_emb.o)
 .bss           0x00000000        0x0 d:/microchip/bin/bin/../../lib/gcc/pic32c/8.3.1/../../../../pic32c/lib/thumb/v7e-m+fp/hard\libpic32c.a(pic32_data_init_copy_emb.o)
 .xc_stack_usage
                0x00000000       0x1e d:/microchip/bin/bin/../../lib/gcc/pic32c/8.3.1/../../../../pic32c/lib/thumb/v7e-m+fp/hard\libpic32c.a(pic32_data_init_copy_emb.o)
 .xc_stack_usage.hdr
                0x00000000        0xe d:/microchip/bin/bin/../../lib/gcc/pic32c/8.3.1/../../../../pic32c/lib/thumb/v7e-m+fp/hard\libpic32c.a(pic32_data_init_copy_emb.o)
 .text          0x00000000        0x0 d:/microchip/bin/bin/../../lib/gcc/pic32c/8.3.1/../../../../pic32c/lib/thumb/v7e-m+fp/hard\libpic32c.a(pic32_data_init_copy.o)
 .data          0x00000000        0x0 d:/microchip/bin/bin/../../lib/gcc/pic32c/8.3.1/../../../../pic32c/lib/thumb/v7e-m+fp/hard\libpic32c.a(pic32_data_init_copy.o)
 .bss           0x00000000        0x0 d:/microchip/bin/bin/../../lib/gcc/pic32c/8.3.1/../../../../pic32c/lib/thumb/v7e-m+fp/hard\libpic32c.a(pic32_data_init_copy.o)
 .xc_stack_usage
                0x00000000       0x1a d:/microchip/bin/bin/../../lib/gcc/pic32c/8.3.1/../../../../pic32c/lib/thumb/v7e-m+fp/hard\libpic32c.a(pic32_data_init_copy.o)
 .xc_stack_usage.hdr
                0x00000000        0xe d:/microchip/bin/bin/../../lib/gcc/pic32c/8.3.1/../../../../pic32c/lib/thumb/v7e-m+fp/hard\libpic32c.a(pic32_data_init_copy.o)

Memory Configuration

Name             Origin             Length             Attributes
rom              0x00000000         0x00100000         xrl
ram              0x20000000         0x00040000         xw !r
tcm              0x03000000         0x00000000         xw
bkupram          0x47000000         0x00002000
config_00804000  0x00804000         0x00000004
config_00804008  0x00804008         0x00000004
config_00804004  0x00804004         0x00000004
*default*        0x00000000         0xffffffff

Linker script and memory map

LOAD d:/microchip/bin/bin/../../lib/gcc/pic32c/8.3.1/thumb/v7e-m+fp/hard/crti.o
LOAD d:/microchip/bin/bin/../../lib/gcc/pic32c/8.3.1/thumb/v7e-m+fp/hard/crtbegin.o
LOAD build/default/debug/_ext/1645245335/crypto.o
LOAD build/default/debug/_ext/444070925/drv_ethphy.o
LOAD build/default/debug/_ext/444070925/drv_extphy_ksz8081.o
LOAD build/default/debug/_ext/1546807373/drv_gmac.o
LOAD build/default/debug/_ext/1546807373/drv_gmac_lib_samE5x.o
LOAD build/default/debug/_ext/992804092/drv_memory.o
LOAD build/default/debug/_ext/992804092/drv_memory_file_system.o
LOAD build/default/debug/_ext/992804092/drv_memory_nvmctrl.o
LOAD build/default/debug/_ext/438849557/drv_miim.o
LOAD build/default/debug/_ext/1751889202/sys_fs_shell.o
LOAD build/default/debug/_ext/1033058136/helpers.o
LOAD build/default/debug/_ext/1033058136/snmp.o
LOAD build/default/debug/_ext/1033058136/icmp.o
LOAD build/default/debug/_ext/1033058136/tcp.o
LOAD build/default/debug/_ext/1033058136/arp.o
LOAD build/default/debug/_ext/1033058136/tcpip_commands.o
LOAD build/default/debug/_ext/1033058136/http.o
LOAD build/default/debug/_ext/1033058136/iperf.o
LOAD build/default/debug/_ext/1033058136/ipv4.o
LOAD build/default/debug/_ext/1033058136/tcpip_heap_alloc.o
LOAD build/default/debug/_ext/1033058136/tcpip_heap_internal.o
LOAD build/default/debug/_ext/1033058136/dhcp.o
LOAD build/default/debug/_ext/1033058136/dns.o
LOAD build/default/debug/_ext/1033058136/hash_fnv.o
LOAD build/default/debug/_ext/1033058136/oahash.o
LOAD build/default/debug/_ext/1033058136/tcpip_helpers.o
LOAD build/default/debug/_ext/1033058136/tcpip_manager.o
LOAD build/default/debug/_ext/1033058136/tcpip_notify.o
LOAD build/default/debug/_ext/1033058136/tcpip_packet.o
LOAD build/default/debug/_ext/1033058136/udp.o
LOAD build/default/debug/_ext/1529399856/osal_freertos.o
LOAD build/default/debug/_ext/1984496892/plib_clock.o
LOAD build/default/debug/_ext/1865131932/plib_cmcc.o
LOAD build/default/debug/_ext/1986646378/plib_evsys.o
LOAD build/default/debug/_ext/1865468468/plib_nvic.o
LOAD build/default/debug/_ext/1593096446/plib_nvmctrl.o
LOAD build/default/debug/_ext/1865521619/plib_port.o
LOAD build/default/debug/_ext/504274921/plib_sercom1_usart.o
LOAD build/default/debug/_ext/829342655/plib_tc0.o
LOAD build/default/debug/_ext/163028504/xc32_monitor.o
LOAD build/default/debug/_ext/1014039709/sys_cache.o
LOAD build/default/debug/_ext/1376093119/sys_command.o
LOAD build/default/debug/_ext/1832805299/sys_console_uart.o
LOAD build/default/debug/_ext/1832805299/sys_console.o
LOAD build/default/debug/_ext/944882569/sys_debug.o
LOAD build/default/debug/_ext/699575981/mpfs.o
LOAD build/default/debug/_ext/1269487135/sys_fs.o
LOAD build/default/debug/_ext/1269487135/sys_fs_media_manager.o
LOAD build/default/debug/_ext/1881668453/sys_int.o
LOAD build/default/debug/_ext/1000052432/sys_reset.o
LOAD build/default/debug/_ext/101884895/sys_time.o
LOAD build/default/debug/_ext/753841488/sys_time_h2_adapter.o
LOAD build/default/debug/_ext/753841488/sys_random_h2_adapter.o
LOAD build/default/debug/_ext/1171490990/initialization.o
LOAD build/default/debug/_ext/1171490990/interrupts.o
LOAD build/default/debug/_ext/1171490990/exceptions.o
LOAD build/default/debug/_ext/1171490990/startup_xc32.o
LOAD build/default/debug/_ext/1171490990/libc_syscalls.o
LOAD build/default/debug/_ext/1171490990/tasks.o
LOAD build/default/debug/_ext/1171490990/freertos_hooks.o
LOAD build/default/debug/_ext/246609638/port.o
LOAD build/default/debug/_ext/1665200909/heap_1.o
LOAD build/default/debug/_ext/404212886/croutine.o
LOAD build/default/debug/_ext/404212886/list.o
LOAD build/default/debug/_ext/404212886/queue.o
LOAD build/default/debug/_ext/404212886/FreeRTOS_tasks.o
LOAD build/default/debug/_ext/404212886/timers.o
LOAD build/default/debug/_ext/404212886/event_groups.o
LOAD build/default/debug/_ext/404212886/stream_buffer.o
LOAD build/default/debug/_ext/172253694/pic32mz-crypt.o
LOAD build/default/debug/_ext/172253694/crypt_aes_sam6149.o
LOAD build/default/debug/_ext/172253694/crypt_aes_u2238.o
LOAD build/default/debug/_ext/172253694/crypt_ecc_ba414e.o
LOAD build/default/debug/_ext/172253694/crypt_ecc_pukcl.o
LOAD build/default/debug/_ext/172253694/crypt_pukcl_functions.o
LOAD build/default/debug/_ext/172253694/crypt_rng_sam6334.o
LOAD build/default/debug/_ext/172253694/crypt_rng_u2242.o
LOAD build/default/debug/_ext/172253694/crypt_rsa_pukcl.o
LOAD build/default/debug/_ext/172253694/crypt_sam_u2803.o
LOAD build/default/debug/_ext/172253694/crypt_sha1_sam11105.o
LOAD build/default/debug/_ext/172253694/crypt_sha1_sam6156.o
LOAD build/default/debug/_ext/172253694/crypt_sha224_sam11105.o
LOAD build/default/debug/_ext/172253694/crypt_sha224_sam6156.o
LOAD build/default/debug/_ext/172253694/crypt_sha256_sam11105.o
LOAD build/default/debug/_ext/172253694/crypt_sha256_sam6156.o
LOAD build/default/debug/_ext/172253694/crypt_sha384_sam6156.o
LOAD build/default/debug/_ext/172253694/crypt_sha512_sam6156.o
LOAD build/default/debug/_ext/172253694/crypt_tdes_sam6150.o
LOAD build/default/debug/_ext/172253694/crypt_wolfcryptcb.o
LOAD build/default/debug/_ext/1664057780/arc4.o
LOAD build/default/debug/_ext/1664057780/asm.o
LOAD build/default/debug/_ext/1664057780/asn.o
LOAD build/default/debug/_ext/1664057780/blake2b.o
LOAD build/default/debug/_ext/1664057780/blake2s.o
LOAD build/default/debug/_ext/1664057780/camellia.o
LOAD build/default/debug/_ext/1664057780/chacha.o
LOAD build/default/debug/_ext/1664057780/chacha20_poly1305.o
LOAD build/default/debug/_ext/1664057780/cmac.o
LOAD build/default/debug/_ext/1664057780/coding.o
LOAD build/default/debug/_ext/1664057780/compress.o
LOAD build/default/debug/_ext/1664057780/cpuid.o
LOAD build/default/debug/_ext/1664057780/cryptocb.o
LOAD build/default/debug/_ext/1664057780/curve25519.o
LOAD build/default/debug/_ext/1664057780/curve448.o
LOAD build/default/debug/_ext/1664057780/dh.o
LOAD build/default/debug/_ext/1664057780/dsa.o
LOAD build/default/debug/_ext/1664057780/ecc_fp.o
LOAD build/default/debug/_ext/1664057780/ed25519.o
LOAD build/default/debug/_ext/1664057780/ed448.o
LOAD build/default/debug/_ext/1664057780/error.o
LOAD build/default/debug/_ext/1664057780/fe_448.o
LOAD build/default/debug/_ext/1664057780/fe_low_mem.o
LOAD build/default/debug/_ext/1664057780/fe_operations.o
LOAD build/default/debug/_ext/1664057780/ge_448.o
LOAD build/default/debug/_ext/1664057780/ge_low_mem.o
LOAD build/default/debug/_ext/1664057780/ge_operations.o
LOAD build/default/debug/_ext/1664057780/hash.o
LOAD build/default/debug/_ext/1664057780/hc128.o
LOAD build/default/debug/_ext/1664057780/hmac.o
LOAD build/default/debug/_ext/1664057780/idea.o
LOAD build/default/debug/_ext/1664057780/integer.o
LOAD build/default/debug/_ext/1664057780/logging.o
LOAD build/default/debug/_ext/1664057780/md2.o
LOAD build/default/debug/_ext/1664057780/md4.o
LOAD build/default/debug/_ext/1664057780/md5.o
LOAD build/default/debug/_ext/1664057780/memory.o
LOAD build/default/debug/_ext/1664057780/pkcs12.o
LOAD build/default/debug/_ext/1664057780/pkcs7.o
LOAD build/default/debug/_ext/1664057780/poly1305.o
LOAD build/default/debug/_ext/1664057780/pwdbased.o
LOAD build/default/debug/_ext/1664057780/rabbit.o
LOAD build/default/debug/_ext/1664057780/rc2.o
LOAD build/default/debug/_ext/1664057780/ripemd.o
LOAD build/default/debug/_ext/1664057780/rsa.o
LOAD build/default/debug/_ext/1664057780/sha3.o
LOAD build/default/debug/_ext/1664057780/signature.o
LOAD build/default/debug/_ext/1664057780/sp_arm32.o
LOAD build/default/debug/_ext/1664057780/sp_arm64.o
LOAD build/default/debug/_ext/1664057780/sp_armthumb.o
LOAD build/default/debug/_ext/1664057780/sp_c32.o
LOAD build/default/debug/_ext/1664057780/sp_c64.o
LOAD build/default/debug/_ext/1664057780/sp_cortexm.o
LOAD build/default/debug/_ext/1664057780/sp_dsp32.o
LOAD build/default/debug/_ext/1664057780/sp_int.o
LOAD build/default/debug/_ext/1664057780/sp_x86_64.o
LOAD build/default/debug/_ext/1664057780/srp.o
LOAD build/default/debug/_ext/1664057780/tfm.o
LOAD build/default/debug/_ext/1664057780/wc_dsp.o
LOAD build/default/debug/_ext/1664057780/wc_encrypt.o
LOAD build/default/debug/_ext/1664057780/wc_pkcs11.o
LOAD build/default/debug/_ext/1664057780/wc_port.o
LOAD build/default/debug/_ext/1664057780/wolfevent.o
LOAD build/default/debug/_ext/1664057780/wolfmath.o
LOAD build/default/debug/_ext/1664057780/aes.o
LOAD build/default/debug/_ext/1664057780/des3.o
LOAD build/default/debug/_ext/1664057780/random.o
LOAD build/default/debug/_ext/1664057780/sha.o
LOAD build/default/debug/_ext/1664057780/sha256.o
LOAD build/default/debug/_ext/1664057780/sha512.o
LOAD build/default/debug/_ext/1664057780/ecc.o
LOAD build/default/debug/_ext/1360937237/main.o
LOAD build/default/debug/_ext/1360937237/custom_snmp_app.o
LOAD build/default/debug/_ext/1360937237/app.o
LOAD build/default/debug/_ext/1360937237/mpfs_img2.o
LOAD build/default/debug/_ext/1360937237/http_print.o
LOAD build/default/debug/_ext/1360937237/custom_http_app.o
LOAD build/default/debug/_ext/1664057780/misc.o
LOAD build/default/debug/_ext/1664057780/evp.o
                0x00000001                __MPLAB_BUILD = 0x1
                0x00100000                __rom_end = (ORIGIN (rom) + LENGTH (rom))
                0x20040000                __ram_end = (ORIGIN (ram) + LENGTH (ram))

.config_00804000
 *(.config_00804000)

.config_00804008
 *(.config_00804008)

.config_00804004
 *(.config_00804004)

.vectors        0x00000000      0x264
                0x00000000                . = ALIGN (0x4)
                0x00000000                _sfixed = .
 *(.vectors .vectors.* .vectors_default .vectors_default.*)
 .vectors.exception_table
                0x00000000      0x264 build/default/debug/_ext/1171490990/interrupts.o
                0x00000000                exception_table
 *(.isr_vector)
 *(.reset*)
 *(.after_vectors)

.text           0x00000264       0x20
                0x00000264                . = ALIGN (0x4)
 *(.glue_7t)
 .glue_7t       0x00000264        0x0 linker stubs
 *(.glue_7)
 .glue_7        0x00000264        0x0 linker stubs
 *(.gnu.linkonce.r.*)
 *(.ARM.extab* .gnu.linkonce.armextab.*)
                0x00000264                . = ALIGN (0x4)
 *(.init)
 .init          0x00000264        0x4 d:/microchip/bin/bin/../../lib/gcc/pic32c/8.3.1/thumb/v7e-m+fp/hard/crti.o
                0x00000264                _init
 .init          0x00000268        0x8 d:/microchip/bin/bin/../../lib/gcc/pic32c/8.3.1/thumb/v7e-m+fp/hard/crtn.o
                0x00000270                . = ALIGN (0x4)
                0x00000270                __preinit_array_start = .
 *(.preinit_array)
                0x00000270                __preinit_array_end = .
                0x00000270                . = ALIGN (0x4)
                0x00000270                __init_array_start = .
 *(SORT_BY_NAME(.init_array.*))
 *(.init_array)
 .init_array    0x00000270        0x4 d:/microchip/bin/bin/../../lib/gcc/pic32c/8.3.1/thumb/v7e-m+fp/hard/crtbegin.o
                0x00000274                __init_array_end = .
                0x00000274                . = ALIGN (0x4)
 *crtbegin.o(.ctors)
 *(EXCLUDE_FILE(*crtend.o) .ctors)
 *(SORT_BY_NAME(.ctors.*))
 *crtend.o(.ctors)
                0x00000274                . = ALIGN (0x4)
 *(.fini)
 .fini          0x00000274        0x4 d:/microchip/bin/bin/../../lib/gcc/pic32c/8.3.1/thumb/v7e-m+fp/hard/crti.o
                0x00000274                _fini
 .fini          0x00000278        0x8 d:/microchip/bin/bin/../../lib/gcc/pic32c/8.3.1/thumb/v7e-m+fp/hard/crtn.o
                0x00000280                . = ALIGN (0x4)
                0x00000280                __fini_array_start = .
 *(.fini_array)
 .fini_array    0x00000280        0x4 d:/microchip/bin/bin/../../lib/gcc/pic32c/8.3.1/thumb/v7e-m+fp/hard/crtbegin.o
 *(SORT_BY_NAME(.fini_array.*))
                0x00000284                __fini_array_end = .
 *crtbegin.o(.dtors)
 *(EXCLUDE_FILE(*crtend.o) .dtors)
 *(SORT_BY_NAME(.dtors.*))
 *crtend.o(.dtors)
                0x00000284                . = ALIGN (0x4)
                0x00000284                _efixed = .
                [!provide]                PROVIDE (__exidx_start = .)

.ARM.exidx      0x00000284        0x8
 *(.ARM.exidx* .gnu.linkonce.armexidx.*)
 .ARM.exidx     0x00000284        0x8 d:/microchip/bin/bin/../../lib/gcc/pic32c/8.3.1/thumb/v7e-m+fp/hard\libgcc.a(_udivmoddi4.o)
                [!provide]                PROVIDE (__exidx_end = .)
                0x0000028c                . = ALIGN (0x4)
                0x0000028c                _etext = .

.bss            0x20000000        0x0
                0x20000000                . = ALIGN (0x4)
                0x20000000                __bss_start__ = .
                0x20000000                _sbss = .
                0x20000000                _szero = .
 *(COMMON)
                0x20000000                . = ALIGN (0x4)
                0x20000000                __bss_end__ = .
                0x20000000                _ebss = .
                0x20000000                _ezero = .
                0x20000000                . = ALIGN (0x4)
                0x20000000                _end = .
                0x2003ffff                _ram_end_ = ((ORIGIN (ram) + LENGTH (ram)) - 0x1)

.bkupram_bss
 *(.bkupram_bss .bkupram_bss.*)
 *(.pbss .pbss.*)
                0x00000001                __ICD2RAM = 0x1
                0x00000001                __MPLAB_DEBUG = 0x1
                0x00000001                __DEBUG = 0x1
                0x00017ac0                _min_heap_size = 0x17ac0
START GROUP
LOAD d:/microchip/bin/bin/../../lib/gcc/pic32c/8.3.1/../../../../pic32c/lib/thumb/v7e-m+fp/hard\libpic32c.a
LOAD d:/microchip/bin/bin/../../lib/gcc/pic32c/8.3.1/../../../../pic32c/lib/thumb/v7e-m+fp/hard\libm-fast-emfloat.a
LOAD d:/microchip/bin/bin/../../lib/gcc/pic32c/8.3.1/../../../../pic32c/lib/thumb/v7e-m+fp/hard\libg-musl.a
LOAD d:/microchip/bin/bin/../../lib/gcc/pic32c/8.3.1/../../../../pic32c/lib/thumb/v7e-m+fp/hard\libc-musl.a
LOAD d:/microchip/bin/bin/../../lib/gcc/pic32c/8.3.1/../../../../pic32c/lib/thumb/v7e-m+fp/hard\libm-fast-emfloat.a
LOAD d:/microchip/bin/bin/../../lib/gcc/pic32c/8.3.1/thumb/v7e-m+fp/hard\libgcc.a
END GROUP
LOAD d:/microchip/bin/bin/../../lib/gcc/pic32c/8.3.1/thumb/v7e-m+fp/hard/crtend.o
LOAD d:/microchip/bin/bin/../../lib/gcc/pic32c/8.3.1/thumb/v7e-m+fp/hard/crtn.o
OUTPUT(dist/default/debug/RackGerenciavel.X.debug.elf elf32-littlearm)
LOAD data_init
LOAD stack

.ARM.attributes
                0x00000000       0x32
 .ARM.attributes
                0x00000000       0x1e d:/microchip/bin/bin/../../lib/gcc/pic32c/8.3.1/thumb/v7e-m+fp/hard/crti.o
 .ARM.attributes
                0x0000001e       0x34 d:/microchip/bin/bin/../../lib/gcc/pic32c/8.3.1/thumb/v7e-m+fp/hard/crtbegin.o
 .ARM.attributes
                0x00000052       0x34 build/default/debug/_ext/1645245335/crypto.o
 .ARM.attributes
                0x00000086       0x34 build/default/debug/_ext/444070925/drv_ethphy.o
 .ARM.attributes
                0x000000ba       0x34 build/default/debug/_ext/444070925/drv_extphy_ksz8081.o
 .ARM.attributes
                0x000000ee       0x34 build/default/debug/_ext/1546807373/drv_gmac.o
 .ARM.attributes
                0x00000122       0x34 build/default/debug/_ext/1546807373/drv_gmac_lib_samE5x.o
 .ARM.attributes
                0x00000156       0x34 build/default/debug/_ext/992804092/drv_memory.o
 .ARM.attributes
                0x0000018a       0x34 build/default/debug/_ext/992804092/drv_memory_file_system.o
 .ARM.attributes
                0x000001be       0x34 build/default/debug/_ext/992804092/drv_memory_nvmctrl.o
 .ARM.attributes
                0x000001f2       0x34 build/default/debug/_ext/438849557/drv_miim.o
 .ARM.attributes
                0x00000226       0x34 build/default/debug/_ext/1751889202/sys_fs_shell.o
 .ARM.attributes
                0x0000025a       0x34 build/default/debug/_ext/1033058136/helpers.o
 .ARM.attributes
                0x0000028e       0x34 build/default/debug/_ext/1033058136/snmp.o
 .ARM.attributes
                0x000002c2       0x34 build/default/debug/_ext/1033058136/icmp.o
 .ARM.attributes
                0x000002f6       0x34 build/default/debug/_ext/1033058136/tcp.o
 .ARM.attributes
                0x0000032a       0x34 build/default/debug/_ext/1033058136/arp.o
 .ARM.attributes
                0x0000035e       0x34 build/default/debug/_ext/1033058136/tcpip_commands.o
 .ARM.attributes
                0x00000392       0x34 build/default/debug/_ext/1033058136/http.o
 .ARM.attributes
                0x000003c6       0x34 build/default/debug/_ext/1033058136/iperf.o
 .ARM.attributes
                0x000003fa       0x34 build/default/debug/_ext/1033058136/ipv4.o
 .ARM.attributes
                0x0000042e       0x34 build/default/debug/_ext/1033058136/tcpip_heap_alloc.o
 .ARM.attributes
                0x00000462       0x34 build/default/debug/_ext/1033058136/tcpip_heap_internal.o
 .ARM.attributes
                0x00000496       0x34 build/default/debug/_ext/1033058136/dhcp.o
 .ARM.attributes
                0x000004ca       0x34 build/default/debug/_ext/1033058136/dns.o
 .ARM.attributes
                0x000004fe       0x34 build/default/debug/_ext/1033058136/hash_fnv.o
 .ARM.attributes
                0x00000532       0x34 build/default/debug/_ext/1033058136/oahash.o
 .ARM.attributes
                0x00000566       0x34 build/default/debug/_ext/1033058136/tcpip_helpers.o
 .ARM.attributes
                0x0000059a       0x34 build/default/debug/_ext/1033058136/tcpip_manager.o
 .ARM.attributes
                0x000005ce       0x34 build/default/debug/_ext/1033058136/tcpip_notify.o
 .ARM.attributes
                0x00000602       0x34 build/default/debug/_ext/1033058136/tcpip_packet.o
 .ARM.attributes
                0x00000636       0x34 build/default/debug/_ext/1033058136/udp.o
 .ARM.attributes
                0x0000066a       0x34 build/default/debug/_ext/1529399856/osal_freertos.o
 .ARM.attributes
                0x0000069e       0x34 build/default/debug/_ext/1984496892/plib_clock.o
 .ARM.attributes
                0x000006d2       0x34 build/default/debug/_ext/1986646378/plib_evsys.o
 .ARM.attributes
                0x00000706       0x34 build/default/debug/_ext/1865468468/plib_nvic.o
 .ARM.attributes
                0x0000073a       0x34 build/default/debug/_ext/1593096446/plib_nvmctrl.o
 .ARM.attributes
                0x0000076e       0x34 build/default/debug/_ext/1865521619/plib_port.o
 .ARM.attributes
                0x000007a2       0x34 build/default/debug/_ext/504274921/plib_sercom1_usart.o
 .ARM.attributes
                0x000007d6       0x34 build/default/debug/_ext/829342655/plib_tc0.o
 .ARM.attributes
                0x0000080a       0x34 build/default/debug/_ext/1376093119/sys_command.o
 .ARM.attributes
                0x0000083e       0x34 build/default/debug/_ext/1832805299/sys_console_uart.o
 .ARM.attributes
                0x00000872       0x34 build/default/debug/_ext/1832805299/sys_console.o
 .ARM.attributes
                0x000008a6       0x34 build/default/debug/_ext/944882569/sys_debug.o
 .ARM.attributes
                0x000008da       0x34 build/default/debug/_ext/699575981/mpfs.o
 .ARM.attributes
                0x0000090e       0x34 build/default/debug/_ext/1269487135/sys_fs.o
 .ARM.attributes
                0x00000942       0x34 build/default/debug/_ext/1269487135/sys_fs_media_manager.o
 .ARM.attributes
                0x00000976       0x34 build/default/debug/_ext/1881668453/sys_int.o
 .ARM.attributes
                0x000009aa       0x34 build/default/debug/_ext/1000052432/sys_reset.o
 .ARM.attributes
                0x000009de       0x34 build/default/debug/_ext/101884895/sys_time.o
 .ARM.attributes
                0x00000a12       0x34 build/default/debug/_ext/753841488/sys_time_h2_adapter.o
 .ARM.attributes
                0x00000a46       0x34 build/default/debug/_ext/753841488/sys_random_h2_adapter.o
 .ARM.attributes
                0x00000a7a       0x34 build/default/debug/_ext/1171490990/initialization.o
 .ARM.attributes
                0x00000aae       0x34 build/default/debug/_ext/1171490990/interrupts.o
 .ARM.attributes
                0x00000ae2       0x34 build/default/debug/_ext/1171490990/exceptions.o
 .ARM.attributes
                0x00000b16       0x34 build/default/debug/_ext/1171490990/startup_xc32.o
 .ARM.attributes
                0x00000b4a       0x34 build/default/debug/_ext/1171490990/tasks.o
 .ARM.attributes
                0x00000b7e       0x34 build/default/debug/_ext/1171490990/freertos_hooks.o
 .ARM.attributes
                0x00000bb2       0x34 build/default/debug/_ext/246609638/port.o
 .ARM.attributes
                0x00000be6       0x34 build/default/debug/_ext/1665200909/heap_1.o
 .ARM.attributes
                0x00000c1a       0x34 build/default/debug/_ext/404212886/list.o
 .ARM.attributes
                0x00000c4e       0x34 build/default/debug/_ext/404212886/queue.o
 .ARM.attributes
                0x00000c82       0x34 build/default/debug/_ext/404212886/FreeRTOS_tasks.o
 .ARM.attributes
                0x00000cb6       0x34 build/default/debug/_ext/172253694/crypt_wolfcryptcb.o
 .ARM.attributes
                0x00000cea       0x34 build/default/debug/_ext/1664057780/cryptocb.o
 .ARM.attributes
                0x00000d1e       0x34 build/default/debug/_ext/1664057780/md5.o
 .ARM.attributes
                0x00000d52       0x34 build/default/debug/_ext/1664057780/random.o
 .ARM.attributes
                0x00000d86       0x34 build/default/debug/_ext/1664057780/sha256.o
 .ARM.attributes
                0x00000dba       0x34 build/default/debug/_ext/1360937237/main.o
 .ARM.attributes
                0x00000dee       0x34 build/default/debug/_ext/1360937237/custom_snmp_app.o
 .ARM.attributes
                0x00000e22       0x34 build/default/debug/_ext/1360937237/app.o
 .ARM.attributes
                0x00000e56       0x39 build/default/debug/_ext/1360937237/mpfs_img2.o
 .ARM.attributes
                0x00000e8f       0x34 build/default/debug/_ext/1360937237/http_print.o
 .ARM.attributes
                0x00000ec3       0x34 build/default/debug/_ext/1360937237/custom_http_app.o
 .ARM.attributes
                0x00000ef7       0x34 d:/microchip/bin/bin/../../lib/gcc/pic32c/8.3.1/../../../../pic32c/lib/thumb/v7e-m+fp/hard\libpic32c.a(data_init.o)
 .ARM.attributes
                0x00000f2b       0x20 d:/microchip/bin/bin/../../lib/gcc/pic32c/8.3.1/../../../../pic32c/lib/thumb/v7e-m+fp/hard\libm-fast-emfloat.a(__aeabi_dadd.o)
 .ARM.attributes
                0x00000f4b       0x20 d:/microchip/bin/bin/../../lib/gcc/pic32c/8.3.1/../../../../pic32c/lib/thumb/v7e-m+fp/hard\libm-fast-emfloat.a(__aeabi_dsub.o)
 .ARM.attributes
                0x00000f6b       0x20 d:/microchip/bin/bin/../../lib/gcc/pic32c/8.3.1/../../../../pic32c/lib/thumb/v7e-m+fp/hard\libm-fast-emfloat.a(__aeabi_dmul.o)
 .ARM.attributes
                0x00000f8b       0x20 d:/microchip/bin/bin/../../lib/gcc/pic32c/8.3.1/../../../../pic32c/lib/thumb/v7e-m+fp/hard\libm-fast-emfloat.a(__aeabi_ddiv.o)
 .ARM.attributes
                0x00000fab       0x20 d:/microchip/bin/bin/../../lib/gcc/pic32c/8.3.1/../../../../pic32c/lib/thumb/v7e-m+fp/hard\libm-fast-emfloat.a(__aeabi_dcmpgt.o)
 .ARM.attributes
                0x00000fcb       0x20 d:/microchip/bin/bin/../../lib/gcc/pic32c/8.3.1/../../../../pic32c/lib/thumb/v7e-m+fp/hard\libm-fast-emfloat.a(__aeabi_d2uiz.o)
 .ARM.attributes
                0x00000feb       0x20 d:/microchip/bin/bin/../../lib/gcc/pic32c/8.3.1/../../../../pic32c/lib/thumb/v7e-m+fp/hard\libm-fast-emfloat.a(__aeabi_i2d.o)
 .ARM.attributes
                0x0000100b       0x20 d:/microchip/bin/bin/../../lib/gcc/pic32c/8.3.1/../../../../pic32c/lib/thumb/v7e-m+fp/hard\libm-fast-emfloat.a(__aeabi_ui2d.o)
 .ARM.attributes
                0x0000102b       0x36 d:/microchip/bin/bin/../../lib/gcc/pic32c/8.3.1/../../../../pic32c/lib/thumb/v7e-m+fp/hard\libg-musl.a(isalnum.o)
 .ARM.attributes
                0x00001061       0x36 d:/microchip/bin/bin/../../lib/gcc/pic32c/8.3.1/../../../../pic32c/lib/thumb/v7e-m+fp/hard\libg-musl.a(isxdigit.o)
 .ARM.attributes
                0x00001097       0x36 d:/microchip/bin/bin/../../lib/gcc/pic32c/8.3.1/../../../../pic32c/lib/thumb/v7e-m+fp/hard\libg-musl.a(tolower.o)
 .ARM.attributes
                0x000010cd       0x36 d:/microchip/bin/bin/../../lib/gcc/pic32c/8.3.1/../../../../pic32c/lib/thumb/v7e-m+fp/hard\libg-musl.a(toupper.o)
 .ARM.attributes
                0x00001103       0x36 d:/microchip/bin/bin/../../lib/gcc/pic32c/8.3.1/../../../../pic32c/lib/thumb/v7e-m+fp/hard\libg-musl.a(__libc_start_main.o)
 .ARM.attributes
                0x00001139       0x34 d:/microchip/bin/bin/../../lib/gcc/pic32c/8.3.1/../../../../pic32c/lib/thumb/v7e-m+fp/hard\libg-musl.a(libc.o)
 .ARM.attributes
                0x0000116d       0x36 d:/microchip/bin/bin/../../lib/gcc/pic32c/8.3.1/../../../../pic32c/lib/thumb/v7e-m+fp/hard\libg-musl.a(calloc.o)
 .ARM.attributes
                0x000011a3       0x36 d:/microchip/bin/bin/../../lib/gcc/pic32c/8.3.1/../../../../pic32c/lib/thumb/v7e-m+fp/hard\libg-musl.a(malloc.o)
 .ARM.attributes
                0x000011d9       0x36 d:/microchip/bin/bin/../../lib/gcc/pic32c/8.3.1/../../../../pic32c/lib/thumb/v7e-m+fp/hard\libg-musl.a(expand_heap.o)
 .ARM.attributes
                0x0000120f       0x36 d:/microchip/bin/bin/../../lib/gcc/pic32c/8.3.1/../../../../pic32c/lib/thumb/v7e-m+fp/hard\libg-musl.a(rand.o)
 .ARM.attributes
                0x00001245       0x36 d:/microchip/bin/bin/../../lib/gcc/pic32c/8.3.1/../../../../pic32c/lib/thumb/v7e-m+fp/hard\libg-musl.a(vsnprintf.o)
 .ARM.attributes
                0x0000127b       0x36 d:/microchip/bin/bin/../../lib/gcc/pic32c/8.3.1/../../../../pic32c/lib/thumb/v7e-m+fp/hard\libg-musl.a(snprintf.o)
 .ARM.attributes
                0x000012b1       0x36 d:/microchip/bin/bin/../../lib/gcc/pic32c/8.3.1/../../../../pic32c/lib/thumb/v7e-m+fp/hard\libg-musl.a(sprintf.o)
 .ARM.attributes
                0x000012e7       0x36 d:/microchip/bin/bin/../../lib/gcc/pic32c/8.3.1/../../../../pic32c/lib/thumb/v7e-m+fp/hard\libg-musl.a(vsprintf.o)
 .ARM.attributes
                0x0000131d       0x36 d:/microchip/bin/bin/../../lib/gcc/pic32c/8.3.1/../../../../pic32c/lib/thumb/v7e-m+fp/hard\libg-musl.a(atoi.o)
 .ARM.attributes
                0x00001353       0x36 d:/microchip/bin/bin/../../lib/gcc/pic32c/8.3.1/../../../../pic32c/lib/thumb/v7e-m+fp/hard\libg-musl.a(atol.o)
 .ARM.attributes
                0x00001389       0x36 d:/microchip/bin/bin/../../lib/gcc/pic32c/8.3.1/../../../../pic32c/lib/thumb/v7e-m+fp/hard\libg-musl.a(strtol.o)
 .ARM.attributes
                0x000013bf       0x36 d:/microchip/bin/bin/../../lib/gcc/pic32c/8.3.1/../../../../pic32c/lib/thumb/v7e-m+fp/hard\libg-musl.a(memcmp.o)
 .ARM.attributes
                0x000013f5       0x36 d:/microchip/bin/bin/../../lib/gcc/pic32c/8.3.1/../../../../pic32c/lib/thumb/v7e-m+fp/hard\libg-musl.a(memcpy.o)
 .ARM.attributes
                0x0000142b       0x36 d:/microchip/bin/bin/../../lib/gcc/pic32c/8.3.1/../../../../pic32c/lib/thumb/v7e-m+fp/hard\libg-musl.a(memset.o)
 .ARM.attributes
                0x00001461       0x36 d:/microchip/bin/bin/../../lib/gcc/pic32c/8.3.1/../../../../pic32c/lib/thumb/v7e-m+fp/hard\libg-musl.a(strlen.o)
 .ARM.attributes
                0x00001497       0x36 d:/microchip/bin/bin/../../lib/gcc/pic32c/8.3.1/../../../../pic32c/lib/thumb/v7e-m+fp/hard\libg-musl.a(strstr.o)
 .ARM.attributes
                0x000014cd       0x36 d:/microchip/bin/bin/../../lib/gcc/pic32c/8.3.1/../../../../pic32c/lib/thumb/v7e-m+fp/hard\libg-musl.a(strchr.o)
 .ARM.attributes
                0x00001503       0x36 d:/microchip/bin/bin/../../lib/gcc/pic32c/8.3.1/../../../../pic32c/lib/thumb/v7e-m+fp/hard\libg-musl.a(strchrnul.o)
 .ARM.attributes
                0x00001539       0x36 d:/microchip/bin/bin/../../lib/gcc/pic32c/8.3.1/../../../../pic32c/lib/thumb/v7e-m+fp/hard\libg-musl.a(strcmp.o)
 .ARM.attributes
                0x0000156f       0x36 d:/microchip/bin/bin/../../lib/gcc/pic32c/8.3.1/../../../../pic32c/lib/thumb/v7e-m+fp/hard\libg-musl.a(strcpy.o)
 .ARM.attributes
                0x000015a5       0x36 d:/microchip/bin/bin/../../lib/gcc/pic32c/8.3.1/../../../../pic32c/lib/thumb/v7e-m+fp/hard\libg-musl.a(strncmp.o)
 .ARM.attributes
                0x000015db       0x36 d:/microchip/bin/bin/../../lib/gcc/pic32c/8.3.1/../../../../pic32c/lib/thumb/v7e-m+fp/hard\libg-musl.a(strncpy.o)
 .ARM.attributes
                0x00001611       0x36 d:/microchip/bin/bin/../../lib/gcc/pic32c/8.3.1/../../../../pic32c/lib/thumb/v7e-m+fp/hard\libg-musl.a(strtok.o)
 .ARM.attributes
                0x00001647       0x34 d:/microchip/bin/bin/../../lib/gcc/pic32c/8.3.1/../../../../pic32c/lib/thumb/v7e-m+fp/hard\libg-musl.a(__environ.o)
 .ARM.attributes
                0x0000167b       0x34 d:/microchip/bin/bin/../../lib/gcc/pic32c/8.3.1/../../../../pic32c/lib/thumb/v7e-m+fp/hard\libg-musl.a(__errno_location.o)
 .ARM.attributes
                0x000016af       0x36 d:/microchip/bin/bin/../../lib/gcc/pic32c/8.3.1/../../../../pic32c/lib/thumb/v7e-m+fp/hard\libg-musl.a(intscan.o)
 .ARM.attributes
                0x000016e5       0x36 d:/microchip/bin/bin/../../lib/gcc/pic32c/8.3.1/../../../../pic32c/lib/thumb/v7e-m+fp/hard\libg-musl.a(shgetc.o)
 .ARM.attributes
                0x0000171b       0x36 d:/microchip/bin/bin/../../lib/gcc/pic32c/8.3.1/../../../../pic32c/lib/thumb/v7e-m+fp/hard\libg-musl.a(__uflow.o)
 .ARM.attributes
                0x00001751       0x36 d:/microchip/bin/bin/../../lib/gcc/pic32c/8.3.1/../../../../pic32c/lib/thumb/v7e-m+fp/hard\libg-musl.a(vfprintf.o)
 .ARM.attributes
                0x00001787       0x36 d:/microchip/bin/bin/../../lib/gcc/pic32c/8.3.1/../../../../pic32c/lib/thumb/v7e-m+fp/hard\libg-musl.a(stpcpy.o)
 .ARM.attributes
                0x000017bd       0x36 d:/microchip/bin/bin/../../lib/gcc/pic32c/8.3.1/../../../../pic32c/lib/thumb/v7e-m+fp/hard\libg-musl.a(stpncpy.o)
 .ARM.attributes
                0x000017f3       0x36 d:/microchip/bin/bin/../../lib/gcc/pic32c/8.3.1/../../../../pic32c/lib/thumb/v7e-m+fp/hard\libg-musl.a(strcspn.o)
 .ARM.attributes
                0x00001829       0x36 d:/microchip/bin/bin/../../lib/gcc/pic32c/8.3.1/../../../../pic32c/lib/thumb/v7e-m+fp/hard\libg-musl.a(strspn.o)
 .ARM.attributes
                0x0000185f       0x36 d:/microchip/bin/bin/../../lib/gcc/pic32c/8.3.1/../../../../pic32c/lib/thumb/v7e-m+fp/hard\libg-musl.a(__toread.o)
 .ARM.attributes
                0x00001895       0x36 d:/microchip/bin/bin/../../lib/gcc/pic32c/8.3.1/../../../../pic32c/lib/thumb/v7e-m+fp/hard\libg-musl.a(__pop_float.o)
 .ARM.attributes
                0x000018cb       0x36 d:/microchip/bin/bin/../../lib/gcc/pic32c/8.3.1/../../../../pic32c/lib/thumb/v7e-m+fp/hard\libg-musl.a(__pop_int.o)
 .ARM.attributes
                0x00001901       0x36 d:/microchip/bin/bin/../../lib/gcc/pic32c/8.3.1/../../../../pic32c/lib/thumb/v7e-m+fp/hard\libg-musl.a(__pop_ptr.o)
 .ARM.attributes
                0x00001937       0x36 d:/microchip/bin/bin/../../lib/gcc/pic32c/8.3.1/../../../../pic32c/lib/thumb/v7e-m+fp/hard\libg-musl.a(__printf_core.o)
 .ARM.attributes
                0x0000196d       0x36 d:/microchip/bin/bin/../../lib/gcc/pic32c/8.3.1/../../../../pic32c/lib/thumb/v7e-m+fp/hard\libg-musl.a(__fmt_a.o)
 .ARM.attributes
                0x000019a3       0x36 d:/microchip/bin/bin/../../lib/gcc/pic32c/8.3.1/../../../../pic32c/lib/thumb/v7e-m+fp/hard\libg-musl.a(__fmt_d.o)
 .ARM.attributes
                0x000019d9       0x36 d:/microchip/bin/bin/../../lib/gcc/pic32c/8.3.1/../../../../pic32c/lib/thumb/v7e-m+fp/hard\libg-musl.a(__fmt_fp.o)
 .ARM.attributes
                0x00001a0f       0x36 d:/microchip/bin/bin/../../lib/gcc/pic32c/8.3.1/../../../../pic32c/lib/thumb/v7e-m+fp/hard\libg-musl.a(__fmt_o.o)
 .ARM.attributes
                0x00001a45       0x36 d:/microchip/bin/bin/../../lib/gcc/pic32c/8.3.1/../../../../pic32c/lib/thumb/v7e-m+fp/hard\libg-musl.a(__fmt_s.o)
 .ARM.attributes
                0x00001a7b       0x36 d:/microchip/bin/bin/../../lib/gcc/pic32c/8.3.1/../../../../pic32c/lib/thumb/v7e-m+fp/hard\libg-musl.a(__fmt_u.o)
 .ARM.attributes
                0x00001ab1       0x36 d:/microchip/bin/bin/../../lib/gcc/pic32c/8.3.1/../../../../pic32c/lib/thumb/v7e-m+fp/hard\libg-musl.a(__fmt_x.o)
 .ARM.attributes
                0x00001ae7       0x36 d:/microchip/bin/bin/../../lib/gcc/pic32c/8.3.1/../../../../pic32c/lib/thumb/v7e-m+fp/hard\libg-musl.a(__cvt_u.o)
 .ARM.attributes
                0x00001b1d       0x34 d:/microchip/bin/bin/../../lib/gcc/pic32c/8.3.1/../../../../pic32c/lib/thumb/v7e-m+fp/hard\libm-fast-emfloat.a(fma.o)
 .ARM.attributes
                0x00001b51       0x34 d:/microchip/bin/bin/../../lib/gcc/pic32c/8.3.1/../../../../pic32c/lib/thumb/v7e-m+fp/hard\libm-fast-emfloat.a(floor.o)
 .ARM.attributes
                0x00001b85       0x20 d:/microchip/bin/bin/../../lib/gcc/pic32c/8.3.1/../../../../pic32c/lib/thumb/v7e-m+fp/hard\libm-fast-emfloat.a(__aeabi_dcmple.o)
 .ARM.attributes
                0x00001ba5       0x20 d:/microchip/bin/bin/../../lib/gcc/pic32c/8.3.1/../../../../pic32c/lib/thumb/v7e-m+fp/hard\libm-fast-emfloat.a(__aeabi_dcmpeq.o)
 .ARM.attributes
                0x00001bc5       0x20 d:/microchip/bin/bin/../../lib/gcc/pic32c/8.3.1/../../../../pic32c/lib/thumb/v7e-m+fp/hard\libm-fast-emfloat.a(__aeabi_dcmplt.o)
 .ARM.attributes
                0x00001be5       0x20 d:/microchip/bin/bin/../../lib/gcc/pic32c/8.3.1/../../../../pic32c/lib/thumb/v7e-m+fp/hard\libm-fast-emfloat.a(__aeabi_d2iz.o)
 .ARM.attributes
                0x00001c05       0x1e d:/microchip/bin/bin/../../lib/gcc/pic32c/8.3.1/thumb/v7e-m+fp/hard\libgcc.a(_aeabi_uldivmod.o)
 .ARM.attributes
                0x00001c23       0x34 d:/microchip/bin/bin/../../lib/gcc/pic32c/8.3.1/thumb/v7e-m+fp/hard\libgcc.a(_udivmoddi4.o)
 .ARM.attributes
                0x00001c57       0x1e d:/microchip/bin/bin/../../lib/gcc/pic32c/8.3.1/thumb/v7e-m+fp/hard\libgcc.a(_dvmd_tls.o)
 .ARM.attributes
                0x00001c75       0x34 d:/microchip/bin/bin/../../lib/gcc/pic32c/8.3.1/../../../../pic32c/lib/thumb/v7e-m+fp/hard\libpic32c.a(sbrk.o)
 .ARM.attributes
                0x00001ca9       0x1e d:/microchip/bin/bin/../../lib/gcc/pic32c/8.3.1/thumb/v7e-m+fp/hard/crtn.o
 .ARM.attributes
                0x00001cc7       0x34 d:/microchip/bin/bin/../../lib/gcc/pic32c/8.3.1/../../../../pic32c/lib/thumb/v7e-m+fp/hard\libpic32c.a(pic32_data_init_clear.o)
 .ARM.attributes
                0x00001cfb       0x34 d:/microchip/bin/bin/../../lib/gcc/pic32c/8.3.1/../../../../pic32c/lib/thumb/v7e-m+fp/hard\libpic32c.a(pic32_data_init_copy_emb.o)
 .ARM.attributes
                0x00001d2f       0x34 d:/microchip/bin/bin/../../lib/gcc/pic32c/8.3.1/../../../../pic32c/lib/thumb/v7e-m+fp/hard\libpic32c.a(pic32_data_init_copy.o)

.comment        0x00000000       0x2b
 .comment       0x00000000       0x2b d:/microchip/bin/bin/../../lib/gcc/pic32c/8.3.1/thumb/v7e-m+fp/hard/crtbegin.o
                                 0x2c (size before relaxing)
 .comment       0x0000002b       0x2c build/default/debug/_ext/1645245335/crypto.o
 .comment       0x0000002b       0x2c build/default/debug/_ext/444070925/drv_ethphy.o
 .comment       0x0000002b       0x2c build/default/debug/_ext/444070925/drv_extphy_ksz8081.o
 .comment       0x0000002b       0x2c build/default/debug/_ext/1546807373/drv_gmac.o
 .comment       0x0000002b       0x2c build/default/debug/_ext/1546807373/drv_gmac_lib_samE5x.o
 .comment       0x0000002b       0x2c build/default/debug/_ext/992804092/drv_memory.o
 .comment       0x0000002b       0x2c build/default/debug/_ext/992804092/drv_memory_file_system.o
 .comment       0x0000002b       0x2c build/default/debug/_ext/992804092/drv_memory_nvmctrl.o
 .comment       0x0000002b       0x2c build/default/debug/_ext/438849557/drv_miim.o
 .comment       0x0000002b       0x2c build/default/debug/_ext/1751889202/sys_fs_shell.o
 .comment       0x0000002b       0x2c build/default/debug/_ext/1033058136/helpers.o
 .comment       0x0000002b       0x2c build/default/debug/_ext/1033058136/snmp.o
 .comment       0x0000002b       0x2c build/default/debug/_ext/1033058136/icmp.o
 .comment       0x0000002b       0x2c build/default/debug/_ext/1033058136/tcp.o
 .comment       0x0000002b       0x2c build/default/debug/_ext/1033058136/arp.o
 .comment       0x0000002b       0x2c build/default/debug/_ext/1033058136/tcpip_commands.o
 .comment       0x0000002b       0x2c build/default/debug/_ext/1033058136/http.o
 .comment       0x0000002b       0x2c build/default/debug/_ext/1033058136/iperf.o
 .comment       0x0000002b       0x2c build/default/debug/_ext/1033058136/ipv4.o
 .comment       0x0000002b       0x2c build/default/debug/_ext/1033058136/tcpip_heap_alloc.o
 .comment       0x0000002b       0x2c build/default/debug/_ext/1033058136/tcpip_heap_internal.o
 .comment       0x0000002b       0x2c build/default/debug/_ext/1033058136/dhcp.o
 .comment       0x0000002b       0x2c build/default/debug/_ext/1033058136/dns.o
 .comment       0x0000002b       0x2c build/default/debug/_ext/1033058136/hash_fnv.o
 .comment       0x0000002b       0x2c build/default/debug/_ext/1033058136/oahash.o
 .comment       0x0000002b       0x2c build/default/debug/_ext/1033058136/tcpip_helpers.o
 .comment       0x0000002b       0x2c build/default/debug/_ext/1033058136/tcpip_manager.o
 .comment       0x0000002b       0x2c build/default/debug/_ext/1033058136/tcpip_notify.o
 .comment       0x0000002b       0x2c build/default/debug/_ext/1033058136/tcpip_packet.o
 .comment       0x0000002b       0x2c build/default/debug/_ext/1033058136/udp.o
 .comment       0x0000002b       0x2c build/default/debug/_ext/1529399856/osal_freertos.o
 .comment       0x0000002b       0x2c build/default/debug/_ext/1984496892/plib_clock.o
 .comment       0x0000002b       0x2c build/default/debug/_ext/1986646378/plib_evsys.o
 .comment       0x0000002b       0x2c build/default/debug/_ext/1865468468/plib_nvic.o
 .comment       0x0000002b       0x2c build/default/debug/_ext/1593096446/plib_nvmctrl.o
 .comment       0x0000002b       0x2c build/default/debug/_ext/1865521619/plib_port.o
 .comment       0x0000002b       0x2c build/default/debug/_ext/504274921/plib_sercom1_usart.o
 .comment       0x0000002b       0x2c build/default/debug/_ext/829342655/plib_tc0.o
 .comment       0x0000002b       0x2c build/default/debug/_ext/1376093119/sys_command.o
 .comment       0x0000002b       0x2c build/default/debug/_ext/1832805299/sys_console_uart.o
 .comment       0x0000002b       0x2c build/default/debug/_ext/1832805299/sys_console.o
 .comment       0x0000002b       0x2c build/default/debug/_ext/944882569/sys_debug.o
 .comment       0x0000002b       0x2c build/default/debug/_ext/699575981/mpfs.o
 .comment       0x0000002b       0x2c build/default/debug/_ext/1269487135/sys_fs.o
 .comment       0x0000002b       0x2c build/default/debug/_ext/1269487135/sys_fs_media_manager.o
 .comment       0x0000002b       0x2c build/default/debug/_ext/1881668453/sys_int.o
 .comment       0x0000002b       0x2c build/default/debug/_ext/1000052432/sys_reset.o
 .comment       0x0000002b       0x2c build/default/debug/_ext/101884895/sys_time.o
 .comment       0x0000002b       0x2c build/default/debug/_ext/753841488/sys_time_h2_adapter.o
 .comment       0x0000002b       0x2c build/default/debug/_ext/753841488/sys_random_h2_adapter.o
 .comment       0x0000002b       0x2c build/default/debug/_ext/1171490990/initialization.o
 .comment       0x0000002b       0x2c build/default/debug/_ext/1171490990/interrupts.o
 .comment       0x0000002b       0x2c build/default/debug/_ext/1171490990/exceptions.o
 .comment       0x0000002b       0x2c build/default/debug/_ext/1171490990/startup_xc32.o
 .comment       0x0000002b       0x2c build/default/debug/_ext/1171490990/tasks.o
 .comment       0x0000002b       0x2c build/default/debug/_ext/1171490990/freertos_hooks.o
 .comment       0x0000002b       0x2c build/default/debug/_ext/246609638/port.o
 .comment       0x0000002b       0x2c build/default/debug/_ext/1665200909/heap_1.o
 .comment       0x0000002b       0x2c build/default/debug/_ext/404212886/list.o
 .comment       0x0000002b       0x2c build/default/debug/_ext/404212886/queue.o
 .comment       0x0000002b       0x2c build/default/debug/_ext/404212886/FreeRTOS_tasks.o
 .comment       0x0000002b       0x2c build/default/debug/_ext/172253694/crypt_wolfcryptcb.o
 .comment       0x0000002b       0x2c build/default/debug/_ext/1664057780/cryptocb.o
 .comment       0x0000002b       0x2c build/default/debug/_ext/1664057780/md5.o
 .comment       0x0000002b       0x2c build/default/debug/_ext/1664057780/random.o
 .comment       0x0000002b       0x2c build/default/debug/_ext/1664057780/sha256.o
 .comment       0x0000002b       0x2c build/default/debug/_ext/1360937237/main.o
 .comment       0x0000002b       0x2c build/default/debug/_ext/1360937237/custom_snmp_app.o
 .comment       0x0000002b       0x2c build/default/debug/_ext/1360937237/app.o
 .comment       0x0000002b       0x2c build/default/debug/_ext/1360937237/mpfs_img2.o
 .comment       0x0000002b       0x2c build/default/debug/_ext/1360937237/http_print.o
 .comment       0x0000002b       0x2c build/default/debug/_ext/1360937237/custom_http_app.o
 .comment       0x0000002b       0x2c d:/microchip/bin/bin/../../lib/gcc/pic32c/8.3.1/../../../../pic32c/lib/thumb/v7e-m+fp/hard\libpic32c.a(data_init.o)
 .comment       0x0000002b       0x2c d:/microchip/bin/bin/../../lib/gcc/pic32c/8.3.1/../../../../pic32c/lib/thumb/v7e-m+fp/hard\libg-musl.a(isalnum.o)
 .comment       0x0000002b       0x2c d:/microchip/bin/bin/../../lib/gcc/pic32c/8.3.1/../../../../pic32c/lib/thumb/v7e-m+fp/hard\libg-musl.a(isxdigit.o)
 .comment       0x0000002b       0x2c d:/microchip/bin/bin/../../lib/gcc/pic32c/8.3.1/../../../../pic32c/lib/thumb/v7e-m+fp/hard\libg-musl.a(tolower.o)
 .comment       0x0000002b       0x2c d:/microchip/bin/bin/../../lib/gcc/pic32c/8.3.1/../../../../pic32c/lib/thumb/v7e-m+fp/hard\libg-musl.a(toupper.o)
 .comment       0x0000002b       0x2c d:/microchip/bin/bin/../../lib/gcc/pic32c/8.3.1/../../../../pic32c/lib/thumb/v7e-m+fp/hard\libg-musl.a(__libc_start_main.o)
 .comment       0x0000002b       0x2c d:/microchip/bin/bin/../../lib/gcc/pic32c/8.3.1/../../../../pic32c/lib/thumb/v7e-m+fp/hard\libg-musl.a(libc.o)
 .comment       0x0000002b       0x2c d:/microchip/bin/bin/../../lib/gcc/pic32c/8.3.1/../../../../pic32c/lib/thumb/v7e-m+fp/hard\libg-musl.a(calloc.o)
 .comment       0x0000002b       0x2c d:/microchip/bin/bin/../../lib/gcc/pic32c/8.3.1/../../../../pic32c/lib/thumb/v7e-m+fp/hard\libg-musl.a(malloc.o)
 .comment       0x0000002b       0x2c d:/microchip/bin/bin/../../lib/gcc/pic32c/8.3.1/../../../../pic32c/lib/thumb/v7e-m+fp/hard\libg-musl.a(expand_heap.o)
 .comment       0x0000002b       0x2c d:/microchip/bin/bin/../../lib/gcc/pic32c/8.3.1/../../../../pic32c/lib/thumb/v7e-m+fp/hard\libg-musl.a(rand.o)
 .comment       0x0000002b       0x2c d:/microchip/bin/bin/../../lib/gcc/pic32c/8.3.1/../../../../pic32c/lib/thumb/v7e-m+fp/hard\libg-musl.a(vsnprintf.o)
 .comment       0x0000002b       0x2c d:/microchip/bin/bin/../../lib/gcc/pic32c/8.3.1/../../../../pic32c/lib/thumb/v7e-m+fp/hard\libg-musl.a(snprintf.o)
 .comment       0x0000002b       0x2c d:/microchip/bin/bin/../../lib/gcc/pic32c/8.3.1/../../../../pic32c/lib/thumb/v7e-m+fp/hard\libg-musl.a(sprintf.o)
 .comment       0x0000002b       0x2c d:/microchip/bin/bin/../../lib/gcc/pic32c/8.3.1/../../../../pic32c/lib/thumb/v7e-m+fp/hard\libg-musl.a(vsprintf.o)
 .comment       0x0000002b       0x2c d:/microchip/bin/bin/../../lib/gcc/pic32c/8.3.1/../../../../pic32c/lib/thumb/v7e-m+fp/hard\libg-musl.a(atoi.o)
 .comment       0x0000002b       0x2c d:/microchip/bin/bin/../../lib/gcc/pic32c/8.3.1/../../../../pic32c/lib/thumb/v7e-m+fp/hard\libg-musl.a(atol.o)
 .comment       0x0000002b       0x2c d:/microchip/bin/bin/../../lib/gcc/pic32c/8.3.1/../../../../pic32c/lib/thumb/v7e-m+fp/hard\libg-musl.a(strtol.o)
 .comment       0x0000002b       0x2c d:/microchip/bin/bin/../../lib/gcc/pic32c/8.3.1/../../../../pic32c/lib/thumb/v7e-m+fp/hard\libg-musl.a(memcmp.o)
 .comment       0x0000002b       0x2c d:/microchip/bin/bin/../../lib/gcc/pic32c/8.3.1/../../../../pic32c/lib/thumb/v7e-m+fp/hard\libg-musl.a(memcpy.o)
 .comment       0x0000002b       0x2c d:/microchip/bin/bin/../../lib/gcc/pic32c/8.3.1/../../../../pic32c/lib/thumb/v7e-m+fp/hard\libg-musl.a(memset.o)
 .comment       0x0000002b       0x2c d:/microchip/bin/bin/../../lib/gcc/pic32c/8.3.1/../../../../pic32c/lib/thumb/v7e-m+fp/hard\libg-musl.a(strlen.o)
 .comment       0x0000002b       0x2c d:/microchip/bin/bin/../../lib/gcc/pic32c/8.3.1/../../../../pic32c/lib/thumb/v7e-m+fp/hard\libg-musl.a(strstr.o)
 .comment       0x0000002b       0x2c d:/microchip/bin/bin/../../lib/gcc/pic32c/8.3.1/../../../../pic32c/lib/thumb/v7e-m+fp/hard\libg-musl.a(strchr.o)
 .comment       0x0000002b       0x2c d:/microchip/bin/bin/../../lib/gcc/pic32c/8.3.1/../../../../pic32c/lib/thumb/v7e-m+fp/hard\libg-musl.a(strchrnul.o)
 .comment       0x0000002b       0x2c d:/microchip/bin/bin/../../lib/gcc/pic32c/8.3.1/../../../../pic32c/lib/thumb/v7e-m+fp/hard\libg-musl.a(strcmp.o)
 .comment       0x0000002b       0x2c d:/microchip/bin/bin/../../lib/gcc/pic32c/8.3.1/../../../../pic32c/lib/thumb/v7e-m+fp/hard\libg-musl.a(strcpy.o)
 .comment       0x0000002b       0x2c d:/microchip/bin/bin/../../lib/gcc/pic32c/8.3.1/../../../../pic32c/lib/thumb/v7e-m+fp/hard\libg-musl.a(strncmp.o)
 .comment       0x0000002b       0x2c d:/microchip/bin/bin/../../lib/gcc/pic32c/8.3.1/../../../../pic32c/lib/thumb/v7e-m+fp/hard\libg-musl.a(strncpy.o)
 .comment       0x0000002b       0x2c d:/microchip/bin/bin/../../lib/gcc/pic32c/8.3.1/../../../../pic32c/lib/thumb/v7e-m+fp/hard\libg-musl.a(strtok.o)
 .comment       0x0000002b       0x2c d:/microchip/bin/bin/../../lib/gcc/pic32c/8.3.1/../../../../pic32c/lib/thumb/v7e-m+fp/hard\libg-musl.a(__environ.o)
 .comment       0x0000002b       0x2c d:/microchip/bin/bin/../../lib/gcc/pic32c/8.3.1/../../../../pic32c/lib/thumb/v7e-m+fp/hard\libg-musl.a(__errno_location.o)
 .comment       0x0000002b       0x2c d:/microchip/bin/bin/../../lib/gcc/pic32c/8.3.1/../../../../pic32c/lib/thumb/v7e-m+fp/hard\libg-musl.a(intscan.o)
 .comment       0x0000002b       0x2c d:/microchip/bin/bin/../../lib/gcc/pic32c/8.3.1/../../../../pic32c/lib/thumb/v7e-m+fp/hard\libg-musl.a(shgetc.o)
 .comment       0x0000002b       0x2c d:/microchip/bin/bin/../../lib/gcc/pic32c/8.3.1/../../../../pic32c/lib/thumb/v7e-m+fp/hard\libg-musl.a(__uflow.o)
 .comment       0x0000002b       0x2c d:/microchip/bin/bin/../../lib/gcc/pic32c/8.3.1/../../../../pic32c/lib/thumb/v7e-m+fp/hard\libg-musl.a(vfprintf.o)
 .comment       0x0000002b       0x2c d:/microchip/bin/bin/../../lib/gcc/pic32c/8.3.1/../../../../pic32c/lib/thumb/v7e-m+fp/hard\libg-musl.a(stpcpy.o)
 .comment       0x0000002b       0x2c d:/microchip/bin/bin/../../lib/gcc/pic32c/8.3.1/../../../../pic32c/lib/thumb/v7e-m+fp/hard\libg-musl.a(stpncpy.o)
 .comment       0x0000002b       0x2c d:/microchip/bin/bin/../../lib/gcc/pic32c/8.3.1/../../../../pic32c/lib/thumb/v7e-m+fp/hard\libg-musl.a(strcspn.o)
 .comment       0x0000002b       0x2c d:/microchip/bin/bin/../../lib/gcc/pic32c/8.3.1/../../../../pic32c/lib/thumb/v7e-m+fp/hard\libg-musl.a(strspn.o)
 .comment       0x0000002b       0x2c d:/microchip/bin/bin/../../lib/gcc/pic32c/8.3.1/../../../../pic32c/lib/thumb/v7e-m+fp/hard\libg-musl.a(__toread.o)
 .comment       0x0000002b       0x2c d:/microchip/bin/bin/../../lib/gcc/pic32c/8.3.1/../../../../pic32c/lib/thumb/v7e-m+fp/hard\libg-musl.a(__pop_float.o)
 .comment       0x0000002b       0x2c d:/microchip/bin/bin/../../lib/gcc/pic32c/8.3.1/../../../../pic32c/lib/thumb/v7e-m+fp/hard\libg-musl.a(__pop_int.o)
 .comment       0x0000002b       0x2c d:/microchip/bin/bin/../../lib/gcc/pic32c/8.3.1/../../../../pic32c/lib/thumb/v7e-m+fp/hard\libg-musl.a(__pop_ptr.o)
 .comment       0x0000002b       0x2c d:/microchip/bin/bin/../../lib/gcc/pic32c/8.3.1/../../../../pic32c/lib/thumb/v7e-m+fp/hard\libg-musl.a(__printf_core.o)
 .comment       0x0000002b       0x2c d:/microchip/bin/bin/../../lib/gcc/pic32c/8.3.1/../../../../pic32c/lib/thumb/v7e-m+fp/hard\libg-musl.a(__fmt_a.o)
 .comment       0x0000002b       0x2c d:/microchip/bin/bin/../../lib/gcc/pic32c/8.3.1/../../../../pic32c/lib/thumb/v7e-m+fp/hard\libg-musl.a(__fmt_d.o)
 .comment       0x0000002b       0x2c d:/microchip/bin/bin/../../lib/gcc/pic32c/8.3.1/../../../../pic32c/lib/thumb/v7e-m+fp/hard\libg-musl.a(__fmt_fp.o)
 .comment       0x0000002b       0x2c d:/microchip/bin/bin/../../lib/gcc/pic32c/8.3.1/../../../../pic32c/lib/thumb/v7e-m+fp/hard\libg-musl.a(__fmt_o.o)
 .comment       0x0000002b       0x2c d:/microchip/bin/bin/../../lib/gcc/pic32c/8.3.1/../../../../pic32c/lib/thumb/v7e-m+fp/hard\libg-musl.a(__fmt_s.o)
 .comment       0x0000002b       0x2c d:/microchip/bin/bin/../../lib/gcc/pic32c/8.3.1/../../../../pic32c/lib/thumb/v7e-m+fp/hard\libg-musl.a(__fmt_u.o)
 .comment       0x0000002b       0x2c d:/microchip/bin/bin/../../lib/gcc/pic32c/8.3.1/../../../../pic32c/lib/thumb/v7e-m+fp/hard\libg-musl.a(__fmt_x.o)
 .comment       0x0000002b       0x2c d:/microchip/bin/bin/../../lib/gcc/pic32c/8.3.1/../../../../pic32c/lib/thumb/v7e-m+fp/hard\libg-musl.a(__cvt_u.o)
 .comment       0x0000002b       0x2c d:/microchip/bin/bin/../../lib/gcc/pic32c/8.3.1/../../../../pic32c/lib/thumb/v7e-m+fp/hard\libm-fast-emfloat.a(fma.o)
 .comment       0x0000002b       0x2c d:/microchip/bin/bin/../../lib/gcc/pic32c/8.3.1/../../../../pic32c/lib/thumb/v7e-m+fp/hard\libm-fast-emfloat.a(floor.o)
 .comment       0x0000002b       0x2c d:/microchip/bin/bin/../../lib/gcc/pic32c/8.3.1/thumb/v7e-m+fp/hard\libgcc.a(_udivmoddi4.o)
 .comment       0x0000002b       0x2c d:/microchip/bin/bin/../../lib/gcc/pic32c/8.3.1/../../../../pic32c/lib/thumb/v7e-m+fp/hard\libpic32c.a(sbrk.o)
 .comment       0x0000002b       0x2c d:/microchip/bin/bin/../../lib/gcc/pic32c/8.3.1/../../../../pic32c/lib/thumb/v7e-m+fp/hard\libpic32c.a(pic32_data_init_clear.o)
 .comment       0x0000002b       0x2c d:/microchip/bin/bin/../../lib/gcc/pic32c/8.3.1/../../../../pic32c/lib/thumb/v7e-m+fp/hard\libpic32c.a(pic32_data_init_copy_emb.o)
 .comment       0x0000002b       0x2c d:/microchip/bin/bin/../../lib/gcc/pic32c/8.3.1/../../../../pic32c/lib/thumb/v7e-m+fp/hard\libpic32c.a(pic32_data_init_copy.o)

.debug_info     0x00000000    0xf8144
 .debug_info    0x00000000     0x3f57 build/default/debug/_ext/1645245335/crypto.o
 .debug_info    0x00003f57     0x7c99 build/default/debug/_ext/444070925/drv_ethphy.o
 .debug_info    0x0000bbf0     0x1d2d build/default/debug/_ext/444070925/drv_extphy_ksz8081.o
 .debug_info    0x0000d91d     0xa102 build/default/debug/_ext/1546807373/drv_gmac.o
 .debug_info    0x00017a1f     0x882c build/default/debug/_ext/1546807373/drv_gmac_lib_samE5x.o
 .debug_info    0x0002024b     0x34cc build/default/debug/_ext/992804092/drv_memory.o
 .debug_info    0x00023717      0xc78 build/default/debug/_ext/992804092/drv_memory_file_system.o
 .debug_info    0x0002438f      0xa1f build/default/debug/_ext/992804092/drv_memory_nvmctrl.o
 .debug_info    0x00024dae     0x44e2 build/default/debug/_ext/438849557/drv_miim.o
 .debug_info    0x00029290     0x215e build/default/debug/_ext/1751889202/sys_fs_shell.o
 .debug_info    0x0002b3ee      0x6e0 build/default/debug/_ext/1033058136/helpers.o
 .debug_info    0x0002bace     0xbd0e build/default/debug/_ext/1033058136/snmp.o
 .debug_info    0x000377dc     0x4bc2 build/default/debug/_ext/1033058136/icmp.o
 .debug_info    0x0003c39e     0xbead build/default/debug/_ext/1033058136/tcp.o
 .debug_info    0x0004824b     0x6f74 build/default/debug/_ext/1033058136/arp.o
 .debug_info    0x0004f1bf     0x9a31 build/default/debug/_ext/1033058136/tcpip_commands.o
 .debug_info    0x00058bf0     0x7baf build/default/debug/_ext/1033058136/http.o
 .debug_info    0x0006079f     0x7ced build/default/debug/_ext/1033058136/iperf.o
 .debug_info    0x0006848c     0x7c72 build/default/debug/_ext/1033058136/ipv4.o
 .debug_info    0x000700fe      0xd82 build/default/debug/_ext/1033058136/tcpip_heap_alloc.o
 .debug_info    0x00070e80     0x17ef build/default/debug/_ext/1033058136/tcpip_heap_internal.o
 .debug_info    0x0007266f     0x9c46 build/default/debug/_ext/1033058136/dhcp.o
 .debug_info    0x0007c2b5     0x7f12 build/default/debug/_ext/1033058136/dns.o
 .debug_info    0x000841c7      0x43d build/default/debug/_ext/1033058136/hash_fnv.o
 .debug_info    0x00084604      0xb89 build/default/debug/_ext/1033058136/oahash.o
 .debug_info    0x0008518d     0x4064 build/default/debug/_ext/1033058136/tcpip_helpers.o
 .debug_info    0x000891f1     0xc4de build/default/debug/_ext/1033058136/tcpip_manager.o
 .debug_info    0x000956cf      0xe21 build/default/debug/_ext/1033058136/tcpip_notify.o
 .debug_info    0x000964f0     0x3845 build/default/debug/_ext/1033058136/tcpip_packet.o
 .debug_info    0x00099d35     0x9310 build/default/debug/_ext/1033058136/udp.o
 .debug_info    0x000a3045      0xbab build/default/debug/_ext/1529399856/osal_freertos.o
 .debug_info    0x000a3bf0      0xb6b build/default/debug/_ext/1984496892/plib_clock.o
 .debug_info    0x000a475b      0x327 build/default/debug/_ext/1986646378/plib_evsys.o
 .debug_info    0x000a4a82     0x15db build/default/debug/_ext/1865468468/plib_nvic.o
 .debug_info    0x000a605d      0xe66 build/default/debug/_ext/1593096446/plib_nvmctrl.o
 .debug_info    0x000a6ec3      0xfb1 build/default/debug/_ext/1865521619/plib_port.o
 .debug_info    0x000a7e74     0x2104 build/default/debug/_ext/504274921/plib_sercom1_usart.o
 .debug_info    0x000a9f78      0xc8d build/default/debug/_ext/829342655/plib_tc0.o
 .debug_info    0x000aac05     0x2792 build/default/debug/_ext/1376093119/sys_command.o
 .debug_info    0x000ad397     0x165b build/default/debug/_ext/1832805299/sys_console_uart.o
 .debug_info    0x000ae9f2     0x141f build/default/debug/_ext/1832805299/sys_console.o
 .debug_info    0x000afe11      0x791 build/default/debug/_ext/944882569/sys_debug.o
 .debug_info    0x000b05a2     0x19e3 build/default/debug/_ext/699575981/mpfs.o
 .debug_info    0x000b1f85     0x3535 build/default/debug/_ext/1269487135/sys_fs.o
 .debug_info    0x000b54ba     0x28d2 build/default/debug/_ext/1269487135/sys_fs_media_manager.o
 .debug_info    0x000b7d8c     0x11a1 build/default/debug/_ext/1881668453/sys_int.o
 .debug_info    0x000b8f2d      0x5b5 build/default/debug/_ext/1000052432/sys_reset.o
 .debug_info    0x000b94e2     0x3049 build/default/debug/_ext/101884895/sys_time.o
 .debug_info    0x000bc52b      0x664 build/default/debug/_ext/753841488/sys_time_h2_adapter.o
 .debug_info    0x000bcb8f      0x678 build/default/debug/_ext/753841488/sys_random_h2_adapter.o
 .debug_info    0x000bd207     0x8498 build/default/debug/_ext/1171490990/initialization.o
 .debug_info    0x000c569f     0x196f build/default/debug/_ext/1171490990/interrupts.o
 .debug_info    0x000c700e      0x3e9 build/default/debug/_ext/1171490990/exceptions.o
 .debug_info    0x000c73f7      0x8a2 build/default/debug/_ext/1171490990/startup_xc32.o
 .debug_info    0x000c7c99      0xa4f build/default/debug/_ext/1171490990/tasks.o
 .debug_info    0x000c86e8      0x539 build/default/debug/_ext/1171490990/freertos_hooks.o
 .debug_info    0x000c8c21      0x794 build/default/debug/_ext/246609638/port.o
 .debug_info    0x000c93b5      0x514 build/default/debug/_ext/1665200909/heap_1.o
 .debug_info    0x000c98c9      0x641 build/default/debug/_ext/404212886/list.o
 .debug_info    0x000c9f0a     0x2153 build/default/debug/_ext/404212886/queue.o
 .debug_info    0x000cc05d     0x2e7b build/default/debug/_ext/404212886/FreeRTOS_tasks.o
 .debug_info    0x000ceed8     0x21b1 build/default/debug/_ext/172253694/crypt_wolfcryptcb.o
 .debug_info    0x000d1089     0x4421 build/default/debug/_ext/1664057780/cryptocb.o
 .debug_info    0x000d54aa     0x248d build/default/debug/_ext/1664057780/md5.o
 .debug_info    0x000d7937     0x3aca build/default/debug/_ext/1664057780/random.o
 .debug_info    0x000db401     0x3aed build/default/debug/_ext/1664057780/sha256.o
 .debug_info    0x000deeee      0x340 build/default/debug/_ext/1360937237/main.o
 .debug_info    0x000df22e     0x1c8a build/default/debug/_ext/1360937237/custom_snmp_app.o
 .debug_info    0x000e0eb8      0xa0a build/default/debug/_ext/1360937237/app.o
 .debug_info    0x000e18c2      0x66c build/default/debug/_ext/1360937237/mpfs_img2.o
 .debug_info    0x000e1f2e      0x8ae build/default/debug/_ext/1360937237/http_print.o
 .debug_info    0x000e27dc     0x4dfe build/default/debug/_ext/1360937237/custom_http_app.o
 .debug_info    0x000e75da      0x2c3 d:/microchip/bin/bin/../../lib/gcc/pic32c/8.3.1/../../../../pic32c/lib/thumb/v7e-m+fp/hard\libpic32c.a(data_init.o)
 .debug_info    0x000e789d      0x350 d:/microchip/bin/bin/../../lib/gcc/pic32c/8.3.1/../../../../pic32c/lib/thumb/v7e-m+fp/hard\libg-musl.a(isalnum.o)
 .debug_info    0x000e7bed      0x353 d:/microchip/bin/bin/../../lib/gcc/pic32c/8.3.1/../../../../pic32c/lib/thumb/v7e-m+fp/hard\libg-musl.a(isxdigit.o)
 .debug_info    0x000e7f40      0x350 d:/microchip/bin/bin/../../lib/gcc/pic32c/8.3.1/../../../../pic32c/lib/thumb/v7e-m+fp/hard\libg-musl.a(tolower.o)
 .debug_info    0x000e8290      0x350 d:/microchip/bin/bin/../../lib/gcc/pic32c/8.3.1/../../../../pic32c/lib/thumb/v7e-m+fp/hard\libg-musl.a(toupper.o)
 .debug_info    0x000e85e0      0x620 d:/microchip/bin/bin/../../lib/gcc/pic32c/8.3.1/../../../../pic32c/lib/thumb/v7e-m+fp/hard\libg-musl.a(__libc_start_main.o)
 .debug_info    0x000e8c00      0x532 d:/microchip/bin/bin/../../lib/gcc/pic32c/8.3.1/../../../../pic32c/lib/thumb/v7e-m+fp/hard\libg-musl.a(libc.o)
 .debug_info    0x000e9132      0x2dc d:/microchip/bin/bin/../../lib/gcc/pic32c/8.3.1/../../../../pic32c/lib/thumb/v7e-m+fp/hard\libg-musl.a(calloc.o)
 .debug_info    0x000e940e     0x13a2 d:/microchip/bin/bin/../../lib/gcc/pic32c/8.3.1/../../../../pic32c/lib/thumb/v7e-m+fp/hard\libg-musl.a(malloc.o)
 .debug_info    0x000ea7b0      0x379 d:/microchip/bin/bin/../../lib/gcc/pic32c/8.3.1/../../../../pic32c/lib/thumb/v7e-m+fp/hard\libg-musl.a(expand_heap.o)
 .debug_info    0x000eab29      0x329 d:/microchip/bin/bin/../../lib/gcc/pic32c/8.3.1/../../../../pic32c/lib/thumb/v7e-m+fp/hard\libg-musl.a(rand.o)
 .debug_info    0x000eae52      0x6fe d:/microchip/bin/bin/../../lib/gcc/pic32c/8.3.1/../../../../pic32c/lib/thumb/v7e-m+fp/hard\libg-musl.a(vsnprintf.o)
 .debug_info    0x000eb550      0x344 d:/microchip/bin/bin/../../lib/gcc/pic32c/8.3.1/../../../../pic32c/lib/thumb/v7e-m+fp/hard\libg-musl.a(snprintf.o)
 .debug_info    0x000eb894      0x31a d:/microchip/bin/bin/../../lib/gcc/pic32c/8.3.1/../../../../pic32c/lib/thumb/v7e-m+fp/hard\libg-musl.a(sprintf.o)
 .debug_info    0x000ebbae      0x314 d:/microchip/bin/bin/../../lib/gcc/pic32c/8.3.1/../../../../pic32c/lib/thumb/v7e-m+fp/hard\libg-musl.a(vsprintf.o)
 .debug_info    0x000ebec2      0x2f8 d:/microchip/bin/bin/../../lib/gcc/pic32c/8.3.1/../../../../pic32c/lib/thumb/v7e-m+fp/hard\libg-musl.a(atoi.o)
 .debug_info    0x000ec1ba      0x2f8 d:/microchip/bin/bin/../../lib/gcc/pic32c/8.3.1/../../../../pic32c/lib/thumb/v7e-m+fp/hard\libg-musl.a(atol.o)
 .debug_info    0x000ec4b2      0x9f0 d:/microchip/bin/bin/../../lib/gcc/pic32c/8.3.1/../../../../pic32c/lib/thumb/v7e-m+fp/hard\libg-musl.a(strtol.o)
 .debug_info    0x000ecea2      0x2df d:/microchip/bin/bin/../../lib/gcc/pic32c/8.3.1/../../../../pic32c/lib/thumb/v7e-m+fp/hard\libg-musl.a(memcmp.o)
 .debug_info    0x000ed181      0x2f8 d:/microchip/bin/bin/../../lib/gcc/pic32c/8.3.1/../../../../pic32c/lib/thumb/v7e-m+fp/hard\libg-musl.a(memcpy.o)
 .debug_info    0x000ed479      0x2bc d:/microchip/bin/bin/../../lib/gcc/pic32c/8.3.1/../../../../pic32c/lib/thumb/v7e-m+fp/hard\libg-musl.a(memset.o)
 .debug_info    0x000ed735      0x2a7 d:/microchip/bin/bin/../../lib/gcc/pic32c/8.3.1/../../../../pic32c/lib/thumb/v7e-m+fp/hard\libg-musl.a(strlen.o)
 .debug_info    0x000ed9dc      0x2c8 d:/microchip/bin/bin/../../lib/gcc/pic32c/8.3.1/../../../../pic32c/lib/thumb/v7e-m+fp/hard\libg-musl.a(strstr.o)
 .debug_info    0x000edca4      0x2c5 d:/microchip/bin/bin/../../lib/gcc/pic32c/8.3.1/../../../../pic32c/lib/thumb/v7e-m+fp/hard\libg-musl.a(strchr.o)
 .debug_info    0x000edf69      0x38d d:/microchip/bin/bin/../../lib/gcc/pic32c/8.3.1/../../../../pic32c/lib/thumb/v7e-m+fp/hard\libg-musl.a(strchrnul.o)
 .debug_info    0x000ee2f6      0x288 d:/microchip/bin/bin/../../lib/gcc/pic32c/8.3.1/../../../../pic32c/lib/thumb/v7e-m+fp/hard\libg-musl.a(strcmp.o)
 .debug_info    0x000ee57e      0x2b1 d:/microchip/bin/bin/../../lib/gcc/pic32c/8.3.1/../../../../pic32c/lib/thumb/v7e-m+fp/hard\libg-musl.a(strcpy.o)
 .debug_info    0x000ee82f      0x2ed d:/microchip/bin/bin/../../lib/gcc/pic32c/8.3.1/../../../../pic32c/lib/thumb/v7e-m+fp/hard\libg-musl.a(strncmp.o)
 .debug_info    0x000eeb1c      0x2d6 d:/microchip/bin/bin/../../lib/gcc/pic32c/8.3.1/../../../../pic32c/lib/thumb/v7e-m+fp/hard\libg-musl.a(strncpy.o)
 .debug_info    0x000eedf2      0x2f3 d:/microchip/bin/bin/../../lib/gcc/pic32c/8.3.1/../../../../pic32c/lib/thumb/v7e-m+fp/hard\libg-musl.a(strtok.o)
 .debug_info    0x000ef0e5      0x2ac d:/microchip/bin/bin/../../lib/gcc/pic32c/8.3.1/../../../../pic32c/lib/thumb/v7e-m+fp/hard\libg-musl.a(__environ.o)
 .debug_info    0x000ef391      0x270 d:/microchip/bin/bin/../../lib/gcc/pic32c/8.3.1/../../../../pic32c/lib/thumb/v7e-m+fp/hard\libg-musl.a(__errno_location.o)
 .debug_info    0x000ef601      0x84a d:/microchip/bin/bin/../../lib/gcc/pic32c/8.3.1/../../../../pic32c/lib/thumb/v7e-m+fp/hard\libg-musl.a(intscan.o)
 .debug_info    0x000efe4b      0x641 d:/microchip/bin/bin/../../lib/gcc/pic32c/8.3.1/../../../../pic32c/lib/thumb/v7e-m+fp/hard\libg-musl.a(shgetc.o)
 .debug_info    0x000f048c      0x612 d:/microchip/bin/bin/../../lib/gcc/pic32c/8.3.1/../../../../pic32c/lib/thumb/v7e-m+fp/hard\libg-musl.a(__uflow.o)
 .debug_info    0x000f0a9e      0x6bf d:/microchip/bin/bin/../../lib/gcc/pic32c/8.3.1/../../../../pic32c/lib/thumb/v7e-m+fp/hard\libg-musl.a(vfprintf.o)
 .debug_info    0x000f115d      0x2b9 d:/microchip/bin/bin/../../lib/gcc/pic32c/8.3.1/../../../../pic32c/lib/thumb/v7e-m+fp/hard\libg-musl.a(stpcpy.o)
 .debug_info    0x000f1416      0x2f5 d:/microchip/bin/bin/../../lib/gcc/pic32c/8.3.1/../../../../pic32c/lib/thumb/v7e-m+fp/hard\libg-musl.a(stpncpy.o)
 .debug_info    0x000f170b      0x318 d:/microchip/bin/bin/../../lib/gcc/pic32c/8.3.1/../../../../pic32c/lib/thumb/v7e-m+fp/hard\libg-musl.a(strcspn.o)
 .debug_info    0x000f1a23      0x2fd d:/microchip/bin/bin/../../lib/gcc/pic32c/8.3.1/../../../../pic32c/lib/thumb/v7e-m+fp/hard\libg-musl.a(strspn.o)
 .debug_info    0x000f1d20      0x62c d:/microchip/bin/bin/../../lib/gcc/pic32c/8.3.1/../../../../pic32c/lib/thumb/v7e-m+fp/hard\libg-musl.a(__toread.o)
 .debug_info    0x000f234c      0x3da d:/microchip/bin/bin/../../lib/gcc/pic32c/8.3.1/../../../../pic32c/lib/thumb/v7e-m+fp/hard\libg-musl.a(__pop_float.o)
 .debug_info    0x000f2726      0x3fe d:/microchip/bin/bin/../../lib/gcc/pic32c/8.3.1/../../../../pic32c/lib/thumb/v7e-m+fp/hard\libg-musl.a(__pop_int.o)
 .debug_info    0x000f2b24      0x404 d:/microchip/bin/bin/../../lib/gcc/pic32c/8.3.1/../../../../pic32c/lib/thumb/v7e-m+fp/hard\libg-musl.a(__pop_ptr.o)
 .debug_info    0x000f2f28      0xd6b d:/microchip/bin/bin/../../lib/gcc/pic32c/8.3.1/../../../../pic32c/lib/thumb/v7e-m+fp/hard\libg-musl.a(__printf_core.o)
 .debug_info    0x000f3c93      0x904 d:/microchip/bin/bin/../../lib/gcc/pic32c/8.3.1/../../../../pic32c/lib/thumb/v7e-m+fp/hard\libg-musl.a(__fmt_a.o)
 .debug_info    0x000f4597      0x5bf d:/microchip/bin/bin/../../lib/gcc/pic32c/8.3.1/../../../../pic32c/lib/thumb/v7e-m+fp/hard\libg-musl.a(__fmt_d.o)
 .debug_info    0x000f4b56      0x948 d:/microchip/bin/bin/../../lib/gcc/pic32c/8.3.1/../../../../pic32c/lib/thumb/v7e-m+fp/hard\libg-musl.a(__fmt_fp.o)
 .debug_info    0x000f549e      0x590 d:/microchip/bin/bin/../../lib/gcc/pic32c/8.3.1/../../../../pic32c/lib/thumb/v7e-m+fp/hard\libg-musl.a(__fmt_o.o)
 .debug_info    0x000f5a2e      0x534 d:/microchip/bin/bin/../../lib/gcc/pic32c/8.3.1/../../../../pic32c/lib/thumb/v7e-m+fp/hard\libg-musl.a(__fmt_s.o)
 .debug_info    0x000f5f62      0x590 d:/microchip/bin/bin/../../lib/gcc/pic32c/8.3.1/../../../../pic32c/lib/thumb/v7e-m+fp/hard\libg-musl.a(__fmt_u.o)
 .debug_info    0x000f64f2      0x5c0 d:/microchip/bin/bin/../../lib/gcc/pic32c/8.3.1/../../../../pic32c/lib/thumb/v7e-m+fp/hard\libg-musl.a(__fmt_x.o)
 .debug_info    0x000f6ab2      0x440 d:/microchip/bin/bin/../../lib/gcc/pic32c/8.3.1/../../../../pic32c/lib/thumb/v7e-m+fp/hard\libg-musl.a(__cvt_u.o)
 .debug_info    0x000f6ef2       0x26 d:/microchip/bin/bin/../../lib/gcc/pic32c/8.3.1/thumb/v7e-m+fp/hard\libgcc.a(_aeabi_uldivmod.o)
 .debug_info    0x000f6f18      0x7a9 d:/microchip/bin/bin/../../lib/gcc/pic32c/8.3.1/thumb/v7e-m+fp/hard\libgcc.a(_udivmoddi4.o)
 .debug_info    0x000f76c1       0x26 d:/microchip/bin/bin/../../lib/gcc/pic32c/8.3.1/thumb/v7e-m+fp/hard\libgcc.a(_dvmd_tls.o)
 .debug_info    0x000f76e7      0x283 d:/microchip/bin/bin/../../lib/gcc/pic32c/8.3.1/../../../../pic32c/lib/thumb/v7e-m+fp/hard\libpic32c.a(sbrk.o)
 .debug_info    0x000f796a      0x29c d:/microchip/bin/bin/../../lib/gcc/pic32c/8.3.1/../../../../pic32c/lib/thumb/v7e-m+fp/hard\libpic32c.a(pic32_data_init_clear.o)
 .debug_info    0x000f7c06      0x2a3 d:/microchip/bin/bin/../../lib/gcc/pic32c/8.3.1/../../../../pic32c/lib/thumb/v7e-m+fp/hard\libpic32c.a(pic32_data_init_copy_emb.o)
 .debug_info    0x000f7ea9      0x29b d:/microchip/bin/bin/../../lib/gcc/pic32c/8.3.1/../../../../pic32c/lib/thumb/v7e-m+fp/hard\libpic32c.a(pic32_data_init_copy.o)

.debug_abbrev   0x00000000    0x123ee
 .debug_abbrev  0x00000000      0x388 build/default/debug/_ext/1645245335/crypto.o
 .debug_abbrev  0x00000388      0x53e build/default/debug/_ext/444070925/drv_ethphy.o
 .debug_abbrev  0x000008c6      0x28c build/default/debug/_ext/444070925/drv_extphy_ksz8081.o
 .debug_abbrev  0x00000b52      0x656 build/default/debug/_ext/1546807373/drv_gmac.o
 .debug_abbrev  0x000011a8      0x614 build/default/debug/_ext/1546807373/drv_gmac_lib_samE5x.o
 .debug_abbrev  0x000017bc      0x4e3 build/default/debug/_ext/992804092/drv_memory.o
 .debug_abbrev  0x00001c9f      0x15c build/default/debug/_ext/992804092/drv_memory_file_system.o
 .debug_abbrev  0x00001dfb      0x173 build/default/debug/_ext/992804092/drv_memory_nvmctrl.o
 .debug_abbrev  0x00001f6e      0x63d build/default/debug/_ext/438849557/drv_miim.o
 .debug_abbrev  0x000025ab      0x373 build/default/debug/_ext/1751889202/sys_fs_shell.o
 .debug_abbrev  0x0000291e      0x1c1 build/default/debug/_ext/1033058136/helpers.o
 .debug_abbrev  0x00002adf      0x6b4 build/default/debug/_ext/1033058136/snmp.o
 .debug_abbrev  0x00003193      0x57d build/default/debug/_ext/1033058136/icmp.o
 .debug_abbrev  0x00003710      0x6ae build/default/debug/_ext/1033058136/tcp.o
 .debug_abbrev  0x00003dbe      0x5f7 build/default/debug/_ext/1033058136/arp.o
 .debug_abbrev  0x000043b5      0x54c build/default/debug/_ext/1033058136/tcpip_commands.o
 .debug_abbrev  0x00004901      0x5d7 build/default/debug/_ext/1033058136/http.o
 .debug_abbrev  0x00004ed8      0x572 build/default/debug/_ext/1033058136/iperf.o
 .debug_abbrev  0x0000544a      0x59b build/default/debug/_ext/1033058136/ipv4.o
 .debug_abbrev  0x000059e5      0x174 build/default/debug/_ext/1033058136/tcpip_heap_alloc.o
 .debug_abbrev  0x00005b59      0x37a build/default/debug/_ext/1033058136/tcpip_heap_internal.o
 .debug_abbrev  0x00005ed3      0x652 build/default/debug/_ext/1033058136/dhcp.o
 .debug_abbrev  0x00006525      0x5a0 build/default/debug/_ext/1033058136/dns.o
 .debug_abbrev  0x00006ac5       0xc7 build/default/debug/_ext/1033058136/hash_fnv.o
 .debug_abbrev  0x00006b8c      0x2f9 build/default/debug/_ext/1033058136/oahash.o
 .debug_abbrev  0x00006e85      0x508 build/default/debug/_ext/1033058136/tcpip_helpers.o
 .debug_abbrev  0x0000738d      0x737 build/default/debug/_ext/1033058136/tcpip_manager.o
 .debug_abbrev  0x00007ac4      0x238 build/default/debug/_ext/1033058136/tcpip_notify.o
 .debug_abbrev  0x00007cfc      0x508 build/default/debug/_ext/1033058136/tcpip_packet.o
 .debug_abbrev  0x00008204      0x639 build/default/debug/_ext/1033058136/udp.o
 .debug_abbrev  0x0000883d      0x1ea build/default/debug/_ext/1529399856/osal_freertos.o
 .debug_abbrev  0x00008a27      0x122 build/default/debug/_ext/1984496892/plib_clock.o
 .debug_abbrev  0x00008b49       0x3b build/default/debug/_ext/1986646378/plib_evsys.o
 .debug_abbrev  0x00008b84      0x20f build/default/debug/_ext/1865468468/plib_nvic.o
 .debug_abbrev  0x00008d93      0x245 build/default/debug/_ext/1593096446/plib_nvmctrl.o
 .debug_abbrev  0x00008fd8      0x1d6 build/default/debug/_ext/1865521619/plib_port.o
 .debug_abbrev  0x000091ae      0x47f build/default/debug/_ext/504274921/plib_sercom1_usart.o
 .debug_abbrev  0x0000962d      0x1e6 build/default/debug/_ext/829342655/plib_tc0.o
 .debug_abbrev  0x00009813      0x491 build/default/debug/_ext/1376093119/sys_command.o
 .debug_abbrev  0x00009ca4      0x347 build/default/debug/_ext/1832805299/sys_console_uart.o
 .debug_abbrev  0x00009feb      0x385 build/default/debug/_ext/1832805299/sys_console.o
 .debug_abbrev  0x0000a370      0x17c build/default/debug/_ext/944882569/sys_debug.o
 .debug_abbrev  0x0000a4ec      0x389 build/default/debug/_ext/699575981/mpfs.o
 .debug_abbrev  0x0000a875      0x4a6 build/default/debug/_ext/1269487135/sys_fs.o
 .debug_abbrev  0x0000ad1b      0x4d5 build/default/debug/_ext/1269487135/sys_fs_media_manager.o
 .debug_abbrev  0x0000b1f0      0x240 build/default/debug/_ext/1881668453/sys_int.o
 .debug_abbrev  0x0000b430       0xef build/default/debug/_ext/1000052432/sys_reset.o
 .debug_abbrev  0x0000b51f      0x557 build/default/debug/_ext/101884895/sys_time.o
 .debug_abbrev  0x0000ba76      0x164 build/default/debug/_ext/753841488/sys_time_h2_adapter.o
 .debug_abbrev  0x0000bbda      0x18d build/default/debug/_ext/753841488/sys_random_h2_adapter.o
 .debug_abbrev  0x0000bd67      0x39c build/default/debug/_ext/1171490990/initialization.o
 .debug_abbrev  0x0000c103       0xda build/default/debug/_ext/1171490990/interrupts.o
 .debug_abbrev  0x0000c1dd       0x3e build/default/debug/_ext/1171490990/exceptions.o
 .debug_abbrev  0x0000c21b      0x1db build/default/debug/_ext/1171490990/startup_xc32.o
 .debug_abbrev  0x0000c3f6      0x146 build/default/debug/_ext/1171490990/tasks.o
 .debug_abbrev  0x0000c53c      0x14e build/default/debug/_ext/1171490990/freertos_hooks.o
 .debug_abbrev  0x0000c68a      0x226 build/default/debug/_ext/246609638/port.o
 .debug_abbrev  0x0000c8b0      0x16c build/default/debug/_ext/1665200909/heap_1.o
 .debug_abbrev  0x0000ca1c      0x15e build/default/debug/_ext/404212886/list.o
 .debug_abbrev  0x0000cb7a      0x399 build/default/debug/_ext/404212886/queue.o
 .debug_abbrev  0x0000cf13      0x466 build/default/debug/_ext/404212886/FreeRTOS_tasks.o
 .debug_abbrev  0x0000d379      0x211 build/default/debug/_ext/172253694/crypt_wolfcryptcb.o
 .debug_abbrev  0x0000d58a      0x3cb build/default/debug/_ext/1664057780/cryptocb.o
 .debug_abbrev  0x0000d955      0x2d4 build/default/debug/_ext/1664057780/md5.o
 .debug_abbrev  0x0000dc29      0x426 build/default/debug/_ext/1664057780/random.o
 .debug_abbrev  0x0000e04f      0x3c1 build/default/debug/_ext/1664057780/sha256.o
 .debug_abbrev  0x0000e410       0x77 build/default/debug/_ext/1360937237/main.o
 .debug_abbrev  0x0000e487      0x348 build/default/debug/_ext/1360937237/custom_snmp_app.o
 .debug_abbrev  0x0000e7cf      0x143 build/default/debug/_ext/1360937237/app.o
 .debug_abbrev  0x0000e912       0xd3 build/default/debug/_ext/1360937237/mpfs_img2.o
 .debug_abbrev  0x0000e9e5       0xfc build/default/debug/_ext/1360937237/http_print.o
 .debug_abbrev  0x0000eae1      0x49e build/default/debug/_ext/1360937237/custom_http_app.o
 .debug_abbrev  0x0000ef7f       0x44 d:/microchip/bin/bin/../../lib/gcc/pic32c/8.3.1/../../../../pic32c/lib/thumb/v7e-m+fp/hard\libpic32c.a(data_init.o)
 .debug_abbrev  0x0000efc3       0xfd d:/microchip/bin/bin/../../lib/gcc/pic32c/8.3.1/../../../../pic32c/lib/thumb/v7e-m+fp/hard\libg-musl.a(isalnum.o)
 .debug_abbrev  0x0000f0c0       0xfd d:/microchip/bin/bin/../../lib/gcc/pic32c/8.3.1/../../../../pic32c/lib/thumb/v7e-m+fp/hard\libg-musl.a(isxdigit.o)
 .debug_abbrev  0x0000f1bd       0xfd d:/microchip/bin/bin/../../lib/gcc/pic32c/8.3.1/../../../../pic32c/lib/thumb/v7e-m+fp/hard\libg-musl.a(tolower.o)
 .debug_abbrev  0x0000f2ba       0xfd d:/microchip/bin/bin/../../lib/gcc/pic32c/8.3.1/../../../../pic32c/lib/thumb/v7e-m+fp/hard\libg-musl.a(toupper.o)
 .debug_abbrev  0x0000f3b7      0x117 d:/microchip/bin/bin/../../lib/gcc/pic32c/8.3.1/../../../../pic32c/lib/thumb/v7e-m+fp/hard\libg-musl.a(__libc_start_main.o)
 .debug_abbrev  0x0000f4ce       0xb8 d:/microchip/bin/bin/../../lib/gcc/pic32c/8.3.1/../../../../pic32c/lib/thumb/v7e-m+fp/hard\libg-musl.a(libc.o)
 .debug_abbrev  0x0000f586       0xaa d:/microchip/bin/bin/../../lib/gcc/pic32c/8.3.1/../../../../pic32c/lib/thumb/v7e-m+fp/hard\libg-musl.a(calloc.o)
 .debug_abbrev  0x0000f630      0x402 d:/microchip/bin/bin/../../lib/gcc/pic32c/8.3.1/../../../../pic32c/lib/thumb/v7e-m+fp/hard\libg-musl.a(malloc.o)
 .debug_abbrev  0x0000fa32       0xa5 d:/microchip/bin/bin/../../lib/gcc/pic32c/8.3.1/../../../../pic32c/lib/thumb/v7e-m+fp/hard\libg-musl.a(expand_heap.o)
 .debug_abbrev  0x0000fad7       0x8b d:/microchip/bin/bin/../../lib/gcc/pic32c/8.3.1/../../../../pic32c/lib/thumb/v7e-m+fp/hard\libg-musl.a(rand.o)
 .debug_abbrev  0x0000fb62      0x168 d:/microchip/bin/bin/../../lib/gcc/pic32c/8.3.1/../../../../pic32c/lib/thumb/v7e-m+fp/hard\libg-musl.a(vsnprintf.o)
 .debug_abbrev  0x0000fcca       0xfb d:/microchip/bin/bin/../../lib/gcc/pic32c/8.3.1/../../../../pic32c/lib/thumb/v7e-m+fp/hard\libg-musl.a(snprintf.o)
 .debug_abbrev  0x0000fdc5       0xfb d:/microchip/bin/bin/../../lib/gcc/pic32c/8.3.1/../../../../pic32c/lib/thumb/v7e-m+fp/hard\libg-musl.a(sprintf.o)
 .debug_abbrev  0x0000fec0       0xc3 d:/microchip/bin/bin/../../lib/gcc/pic32c/8.3.1/../../../../pic32c/lib/thumb/v7e-m+fp/hard\libg-musl.a(vsprintf.o)
 .debug_abbrev  0x0000ff83       0xbb d:/microchip/bin/bin/../../lib/gcc/pic32c/8.3.1/../../../../pic32c/lib/thumb/v7e-m+fp/hard\libg-musl.a(atoi.o)
 .debug_abbrev  0x0001003e       0xbb d:/microchip/bin/bin/../../lib/gcc/pic32c/8.3.1/../../../../pic32c/lib/thumb/v7e-m+fp/hard\libg-musl.a(atol.o)
 .debug_abbrev  0x000100f9      0x1c7 d:/microchip/bin/bin/../../lib/gcc/pic32c/8.3.1/../../../../pic32c/lib/thumb/v7e-m+fp/hard\libg-musl.a(strtol.o)
 .debug_abbrev  0x000102c0       0x8b d:/microchip/bin/bin/../../lib/gcc/pic32c/8.3.1/../../../../pic32c/lib/thumb/v7e-m+fp/hard\libg-musl.a(memcmp.o)
 .debug_abbrev  0x0001034b       0x9c d:/microchip/bin/bin/../../lib/gcc/pic32c/8.3.1/../../../../pic32c/lib/thumb/v7e-m+fp/hard\libg-musl.a(memcpy.o)
 .debug_abbrev  0x000103e7       0x97 d:/microchip/bin/bin/../../lib/gcc/pic32c/8.3.1/../../../../pic32c/lib/thumb/v7e-m+fp/hard\libg-musl.a(memset.o)
 .debug_abbrev  0x0001047e       0x86 d:/microchip/bin/bin/../../lib/gcc/pic32c/8.3.1/../../../../pic32c/lib/thumb/v7e-m+fp/hard\libg-musl.a(strlen.o)
 .debug_abbrev  0x00010504       0x97 d:/microchip/bin/bin/../../lib/gcc/pic32c/8.3.1/../../../../pic32c/lib/thumb/v7e-m+fp/hard\libg-musl.a(strstr.o)
 .debug_abbrev  0x0001059b       0xa2 d:/microchip/bin/bin/../../lib/gcc/pic32c/8.3.1/../../../../pic32c/lib/thumb/v7e-m+fp/hard\libg-musl.a(strchr.o)
 .debug_abbrev  0x0001063d       0xa5 d:/microchip/bin/bin/../../lib/gcc/pic32c/8.3.1/../../../../pic32c/lib/thumb/v7e-m+fp/hard\libg-musl.a(strchrnul.o)
 .debug_abbrev  0x000106e2       0x63 d:/microchip/bin/bin/../../lib/gcc/pic32c/8.3.1/../../../../pic32c/lib/thumb/v7e-m+fp/hard\libg-musl.a(strcmp.o)
 .debug_abbrev  0x00010745       0x8e d:/microchip/bin/bin/../../lib/gcc/pic32c/8.3.1/../../../../pic32c/lib/thumb/v7e-m+fp/hard\libg-musl.a(strcpy.o)
 .debug_abbrev  0x000107d3       0x86 d:/microchip/bin/bin/../../lib/gcc/pic32c/8.3.1/../../../../pic32c/lib/thumb/v7e-m+fp/hard\libg-musl.a(strncmp.o)
 .debug_abbrev  0x00010859       0x9d d:/microchip/bin/bin/../../lib/gcc/pic32c/8.3.1/../../../../pic32c/lib/thumb/v7e-m+fp/hard\libg-musl.a(strncpy.o)
 .debug_abbrev  0x000108f6       0xac d:/microchip/bin/bin/../../lib/gcc/pic32c/8.3.1/../../../../pic32c/lib/thumb/v7e-m+fp/hard\libg-musl.a(strtok.o)
 .debug_abbrev  0x000109a2       0x57 d:/microchip/bin/bin/../../lib/gcc/pic32c/8.3.1/../../../../pic32c/lib/thumb/v7e-m+fp/hard\libg-musl.a(__environ.o)
 .debug_abbrev  0x000109f9       0x2e d:/microchip/bin/bin/../../lib/gcc/pic32c/8.3.1/../../../../pic32c/lib/thumb/v7e-m+fp/hard\libg-musl.a(__errno_location.o)
 .debug_abbrev  0x00010a27      0x1cb d:/microchip/bin/bin/../../lib/gcc/pic32c/8.3.1/../../../../pic32c/lib/thumb/v7e-m+fp/hard\libg-musl.a(intscan.o)
 .debug_abbrev  0x00010bf2      0x14a d:/microchip/bin/bin/../../lib/gcc/pic32c/8.3.1/../../../../pic32c/lib/thumb/v7e-m+fp/hard\libg-musl.a(shgetc.o)
 .debug_abbrev  0x00010d3c      0x125 d:/microchip/bin/bin/../../lib/gcc/pic32c/8.3.1/../../../../pic32c/lib/thumb/v7e-m+fp/hard\libg-musl.a(__uflow.o)
 .debug_abbrev  0x00010e61      0x16d d:/microchip/bin/bin/../../lib/gcc/pic32c/8.3.1/../../../../pic32c/lib/thumb/v7e-m+fp/hard\libg-musl.a(vfprintf.o)
 .debug_abbrev  0x00010fce       0x63 d:/microchip/bin/bin/../../lib/gcc/pic32c/8.3.1/../../../../pic32c/lib/thumb/v7e-m+fp/hard\libg-musl.a(stpcpy.o)
 .debug_abbrev  0x00011031       0x86 d:/microchip/bin/bin/../../lib/gcc/pic32c/8.3.1/../../../../pic32c/lib/thumb/v7e-m+fp/hard\libg-musl.a(stpncpy.o)
 .debug_abbrev  0x000110b7       0xf5 d:/microchip/bin/bin/../../lib/gcc/pic32c/8.3.1/../../../../pic32c/lib/thumb/v7e-m+fp/hard\libg-musl.a(strcspn.o)
 .debug_abbrev  0x000111ac       0xd2 d:/microchip/bin/bin/../../lib/gcc/pic32c/8.3.1/../../../../pic32c/lib/thumb/v7e-m+fp/hard\libg-musl.a(strspn.o)
 .debug_abbrev  0x0001127e      0x12f d:/microchip/bin/bin/../../lib/gcc/pic32c/8.3.1/../../../../pic32c/lib/thumb/v7e-m+fp/hard\libg-musl.a(__toread.o)
 .debug_abbrev  0x000113ad       0xbd d:/microchip/bin/bin/../../lib/gcc/pic32c/8.3.1/../../../../pic32c/lib/thumb/v7e-m+fp/hard\libg-musl.a(__pop_float.o)
 .debug_abbrev  0x0001146a       0xbd d:/microchip/bin/bin/../../lib/gcc/pic32c/8.3.1/../../../../pic32c/lib/thumb/v7e-m+fp/hard\libg-musl.a(__pop_int.o)
 .debug_abbrev  0x00011527       0xce d:/microchip/bin/bin/../../lib/gcc/pic32c/8.3.1/../../../../pic32c/lib/thumb/v7e-m+fp/hard\libg-musl.a(__pop_ptr.o)
 .debug_abbrev  0x000115f5      0x2c5 d:/microchip/bin/bin/../../lib/gcc/pic32c/8.3.1/../../../../pic32c/lib/thumb/v7e-m+fp/hard\libg-musl.a(__printf_core.o)
 .debug_abbrev  0x000118ba      0x194 d:/microchip/bin/bin/../../lib/gcc/pic32c/8.3.1/../../../../pic32c/lib/thumb/v7e-m+fp/hard\libg-musl.a(__fmt_a.o)
 .debug_abbrev  0x00011a4e      0x120 d:/microchip/bin/bin/../../lib/gcc/pic32c/8.3.1/../../../../pic32c/lib/thumb/v7e-m+fp/hard\libg-musl.a(__fmt_d.o)
 .debug_abbrev  0x00011b6e      0x1b3 d:/microchip/bin/bin/../../lib/gcc/pic32c/8.3.1/../../../../pic32c/lib/thumb/v7e-m+fp/hard\libg-musl.a(__fmt_fp.o)
 .debug_abbrev  0x00011d21      0x120 d:/microchip/bin/bin/../../lib/gcc/pic32c/8.3.1/../../../../pic32c/lib/thumb/v7e-m+fp/hard\libg-musl.a(__fmt_o.o)
 .debug_abbrev  0x00011e41      0x10b d:/microchip/bin/bin/../../lib/gcc/pic32c/8.3.1/../../../../pic32c/lib/thumb/v7e-m+fp/hard\libg-musl.a(__fmt_s.o)
 .debug_abbrev  0x00011f4c      0x120 d:/microchip/bin/bin/../../lib/gcc/pic32c/8.3.1/../../../../pic32c/lib/thumb/v7e-m+fp/hard\libg-musl.a(__fmt_u.o)
 .debug_abbrev  0x0001206c      0x10f d:/microchip/bin/bin/../../lib/gcc/pic32c/8.3.1/../../../../pic32c/lib/thumb/v7e-m+fp/hard\libg-musl.a(__fmt_x.o)
 .debug_abbrev  0x0001217b       0xa1 d:/microchip/bin/bin/../../lib/gcc/pic32c/8.3.1/../../../../pic32c/lib/thumb/v7e-m+fp/hard\libg-musl.a(__cvt_u.o)
 .debug_abbrev  0x0001221c       0x14 d:/microchip/bin/bin/../../lib/gcc/pic32c/8.3.1/thumb/v7e-m+fp/hard\libgcc.a(_aeabi_uldivmod.o)
 .debug_abbrev  0x00012230       0xf2 d:/microchip/bin/bin/../../lib/gcc/pic32c/8.3.1/thumb/v7e-m+fp/hard\libgcc.a(_udivmoddi4.o)
 .debug_abbrev  0x00012322       0x14 d:/microchip/bin/bin/../../lib/gcc/pic32c/8.3.1/thumb/v7e-m+fp/hard\libgcc.a(_dvmd_tls.o)
 .debug_abbrev  0x00012336       0x2e d:/microchip/bin/bin/../../lib/gcc/pic32c/8.3.1/../../../../pic32c/lib/thumb/v7e-m+fp/hard\libpic32c.a(sbrk.o)
 .debug_abbrev  0x00012364       0x2e d:/microchip/bin/bin/../../lib/gcc/pic32c/8.3.1/../../../../pic32c/lib/thumb/v7e-m+fp/hard\libpic32c.a(pic32_data_init_clear.o)
 .debug_abbrev  0x00012392       0x2e d:/microchip/bin/bin/../../lib/gcc/pic32c/8.3.1/../../../../pic32c/lib/thumb/v7e-m+fp/hard\libpic32c.a(pic32_data_init_copy_emb.o)
 .debug_abbrev  0x000123c0       0x2e d:/microchip/bin/bin/../../lib/gcc/pic32c/8.3.1/../../../../pic32c/lib/thumb/v7e-m+fp/hard\libpic32c.a(pic32_data_init_copy.o)

.debug_loc      0x00000000    0x7032b
 .debug_loc     0x00000000     0x334c build/default/debug/_ext/1645245335/crypto.o
 .debug_loc     0x0000334c     0x4a04 build/default/debug/_ext/444070925/drv_ethphy.o
 .debug_loc     0x00007d50      0x1ff build/default/debug/_ext/444070925/drv_extphy_ksz8081.o
 .debug_loc     0x00007f4f     0x3003 build/default/debug/_ext/1546807373/drv_gmac.o
 .debug_loc     0x0000af52     0x25af build/default/debug/_ext/1546807373/drv_gmac_lib_samE5x.o
 .debug_loc     0x0000d501     0x1fb3 build/default/debug/_ext/992804092/drv_memory.o
 .debug_loc     0x0000f4b4       0x6a build/default/debug/_ext/992804092/drv_memory_file_system.o
 .debug_loc     0x0000f51e      0x263 build/default/debug/_ext/992804092/drv_memory_nvmctrl.o
 .debug_loc     0x0000f781     0x284a build/default/debug/_ext/438849557/drv_miim.o
 .debug_loc     0x00011fcb     0x1b0d build/default/debug/_ext/1751889202/sys_fs_shell.o
 .debug_loc     0x00013ad8      0x568 build/default/debug/_ext/1033058136/helpers.o
 .debug_loc     0x00014040     0x554c build/default/debug/_ext/1033058136/snmp.o
 .debug_loc     0x0001958c      0xa23 build/default/debug/_ext/1033058136/icmp.o
 .debug_loc     0x00019faf     0x830c build/default/debug/_ext/1033058136/tcp.o
 .debug_loc     0x000222bb     0x3c06 build/default/debug/_ext/1033058136/arp.o
 .debug_loc     0x00025ec1     0x3358 build/default/debug/_ext/1033058136/tcpip_commands.o
 .debug_loc     0x00029219     0x2493 build/default/debug/_ext/1033058136/http.o
 .debug_loc     0x0002b6ac     0x22c8 build/default/debug/_ext/1033058136/iperf.o
 .debug_loc     0x0002d974     0x2ed7 build/default/debug/_ext/1033058136/ipv4.o
 .debug_loc     0x0003084b      0x207 build/default/debug/_ext/1033058136/tcpip_heap_alloc.o
 .debug_loc     0x00030a52     0x1007 build/default/debug/_ext/1033058136/tcpip_heap_internal.o
 .debug_loc     0x00031a59     0x3fbb build/default/debug/_ext/1033058136/dhcp.o
 .debug_loc     0x00035a14     0x4085 build/default/debug/_ext/1033058136/dns.o
 .debug_loc     0x00039a99      0x21b build/default/debug/_ext/1033058136/hash_fnv.o
 .debug_loc     0x00039cb4      0x4ab build/default/debug/_ext/1033058136/oahash.o
 .debug_loc     0x0003a15f     0x3987 build/default/debug/_ext/1033058136/tcpip_helpers.o
 .debug_loc     0x0003dae6     0x7830 build/default/debug/_ext/1033058136/tcpip_manager.o
 .debug_loc     0x00045316      0x458 build/default/debug/_ext/1033058136/tcpip_notify.o
 .debug_loc     0x0004576e      0xbe0 build/default/debug/_ext/1033058136/tcpip_packet.o
 .debug_loc     0x0004634e     0x4c08 build/default/debug/_ext/1033058136/udp.o
 .debug_loc     0x0004af56      0x727 build/default/debug/_ext/1529399856/osal_freertos.o
 .debug_loc     0x0004b67d      0x264 build/default/debug/_ext/1865468468/plib_nvic.o
 .debug_loc     0x0004b8e1      0x868 build/default/debug/_ext/1593096446/plib_nvmctrl.o
 .debug_loc     0x0004c149      0x1bc build/default/debug/_ext/1865521619/plib_port.o
 .debug_loc     0x0004c305      0xd3c build/default/debug/_ext/504274921/plib_sercom1_usart.o
 .debug_loc     0x0004d041       0x5f build/default/debug/_ext/829342655/plib_tc0.o
 .debug_loc     0x0004d0a0     0x19f8 build/default/debug/_ext/1376093119/sys_command.o
 .debug_loc     0x0004ea98      0x852 build/default/debug/_ext/1832805299/sys_console_uart.o
 .debug_loc     0x0004f2ea      0xc61 build/default/debug/_ext/1832805299/sys_console.o
 .debug_loc     0x0004ff4b       0xa1 build/default/debug/_ext/944882569/sys_debug.o
 .debug_loc     0x0004ffec     0x1a1f build/default/debug/_ext/699575981/mpfs.o
 .debug_loc     0x00051a0b     0x31c1 build/default/debug/_ext/1269487135/sys_fs.o
 .debug_loc     0x00054bcc     0x14ee build/default/debug/_ext/1269487135/sys_fs_media_manager.o
 .debug_loc     0x000560ba      0x182 build/default/debug/_ext/1881668453/sys_int.o
 .debug_loc     0x0005623c     0x230c build/default/debug/_ext/101884895/sys_time.o
 .debug_loc     0x00058548      0x152 build/default/debug/_ext/753841488/sys_time_h2_adapter.o
 .debug_loc     0x0005869a      0x1dd build/default/debug/_ext/753841488/sys_random_h2_adapter.o
 .debug_loc     0x00058877       0x7d build/default/debug/_ext/1171490990/initialization.o
 .debug_loc     0x000588f4       0x4a build/default/debug/_ext/1171490990/startup_xc32.o
 .debug_loc     0x0005893e      0x191 build/default/debug/_ext/1171490990/tasks.o
 .debug_loc     0x00058acf       0x82 build/default/debug/_ext/1171490990/freertos_hooks.o
 .debug_loc     0x00058b51      0x13a build/default/debug/_ext/246609638/port.o
 .debug_loc     0x00058c8b      0x116 build/default/debug/_ext/1665200909/heap_1.o
 .debug_loc     0x00058da1       0xb2 build/default/debug/_ext/404212886/list.o
 .debug_loc     0x00058e53     0x16e4 build/default/debug/_ext/404212886/queue.o
 .debug_loc     0x0005a537     0x212d build/default/debug/_ext/404212886/FreeRTOS_tasks.o
 .debug_loc     0x0005c664       0x45 build/default/debug/_ext/172253694/crypt_wolfcryptcb.o
 .debug_loc     0x0005c6a9     0x27ea build/default/debug/_ext/1664057780/cryptocb.o
 .debug_loc     0x0005ee93     0x2df9 build/default/debug/_ext/1664057780/md5.o
 .debug_loc     0x00061c8c     0x29bd build/default/debug/_ext/1664057780/random.o
 .debug_loc     0x00064649     0x287a build/default/debug/_ext/1664057780/sha256.o
 .debug_loc     0x00066ec3       0x20 build/default/debug/_ext/1360937237/main.o
 .debug_loc     0x00066ee3     0x1032 build/default/debug/_ext/1360937237/custom_snmp_app.o
 .debug_loc     0x00067f15      0xb0b build/default/debug/_ext/1360937237/http_print.o
 .debug_loc     0x00068a20     0x12a9 build/default/debug/_ext/1360937237/custom_http_app.o
 .debug_loc     0x00069cc9       0x14 d:/microchip/bin/bin/../../lib/gcc/pic32c/8.3.1/../../../../pic32c/lib/thumb/v7e-m+fp/hard\libpic32c.a(data_init.o)
 .debug_loc     0x00069cdd       0x76 d:/microchip/bin/bin/../../lib/gcc/pic32c/8.3.1/../../../../pic32c/lib/thumb/v7e-m+fp/hard\libg-musl.a(isalnum.o)
 .debug_loc     0x00069d53       0x65 d:/microchip/bin/bin/../../lib/gcc/pic32c/8.3.1/../../../../pic32c/lib/thumb/v7e-m+fp/hard\libg-musl.a(isxdigit.o)
 .debug_loc     0x00069db8       0x4a d:/microchip/bin/bin/../../lib/gcc/pic32c/8.3.1/../../../../pic32c/lib/thumb/v7e-m+fp/hard\libg-musl.a(tolower.o)
 .debug_loc     0x00069e02       0x4a d:/microchip/bin/bin/../../lib/gcc/pic32c/8.3.1/../../../../pic32c/lib/thumb/v7e-m+fp/hard\libg-musl.a(toupper.o)
 .debug_loc     0x00069e4c       0x51 d:/microchip/bin/bin/../../lib/gcc/pic32c/8.3.1/../../../../pic32c/lib/thumb/v7e-m+fp/hard\libg-musl.a(__libc_start_main.o)
 .debug_loc     0x00069e9d       0x74 d:/microchip/bin/bin/../../lib/gcc/pic32c/8.3.1/../../../../pic32c/lib/thumb/v7e-m+fp/hard\libg-musl.a(calloc.o)
 .debug_loc     0x00069f11      0xcef d:/microchip/bin/bin/../../lib/gcc/pic32c/8.3.1/../../../../pic32c/lib/thumb/v7e-m+fp/hard\libg-musl.a(malloc.o)
 .debug_loc     0x0006ac00       0x7c d:/microchip/bin/bin/../../lib/gcc/pic32c/8.3.1/../../../../pic32c/lib/thumb/v7e-m+fp/hard\libg-musl.a(expand_heap.o)
 .debug_loc     0x0006ac7c       0x24 d:/microchip/bin/bin/../../lib/gcc/pic32c/8.3.1/../../../../pic32c/lib/thumb/v7e-m+fp/hard\libg-musl.a(rand.o)
 .debug_loc     0x0006aca0       0xeb d:/microchip/bin/bin/../../lib/gcc/pic32c/8.3.1/../../../../pic32c/lib/thumb/v7e-m+fp/hard\libg-musl.a(vsnprintf.o)
 .debug_loc     0x0006ad8b       0xaf d:/microchip/bin/bin/../../lib/gcc/pic32c/8.3.1/../../../../pic32c/lib/thumb/v7e-m+fp/hard\libg-musl.a(snprintf.o)
 .debug_loc     0x0006ae3a       0x8a d:/microchip/bin/bin/../../lib/gcc/pic32c/8.3.1/../../../../pic32c/lib/thumb/v7e-m+fp/hard\libg-musl.a(sprintf.o)
 .debug_loc     0x0006aec4       0x6c d:/microchip/bin/bin/../../lib/gcc/pic32c/8.3.1/../../../../pic32c/lib/thumb/v7e-m+fp/hard\libg-musl.a(vsprintf.o)
 .debug_loc     0x0006af30       0xd8 d:/microchip/bin/bin/../../lib/gcc/pic32c/8.3.1/../../../../pic32c/lib/thumb/v7e-m+fp/hard\libg-musl.a(atoi.o)
 .debug_loc     0x0006b008       0xd8 d:/microchip/bin/bin/../../lib/gcc/pic32c/8.3.1/../../../../pic32c/lib/thumb/v7e-m+fp/hard\libg-musl.a(atol.o)
 .debug_loc     0x0006b0e0      0x440 d:/microchip/bin/bin/../../lib/gcc/pic32c/8.3.1/../../../../pic32c/lib/thumb/v7e-m+fp/hard\libg-musl.a(strtol.o)
 .debug_loc     0x0006b520      0x10c d:/microchip/bin/bin/../../lib/gcc/pic32c/8.3.1/../../../../pic32c/lib/thumb/v7e-m+fp/hard\libg-musl.a(memcmp.o)
 .debug_loc     0x0006b62c      0x10b d:/microchip/bin/bin/../../lib/gcc/pic32c/8.3.1/../../../../pic32c/lib/thumb/v7e-m+fp/hard\libg-musl.a(memcpy.o)
 .debug_loc     0x0006b737       0x7d d:/microchip/bin/bin/../../lib/gcc/pic32c/8.3.1/../../../../pic32c/lib/thumb/v7e-m+fp/hard\libg-musl.a(memset.o)
 .debug_loc     0x0006b7b4       0x90 d:/microchip/bin/bin/../../lib/gcc/pic32c/8.3.1/../../../../pic32c/lib/thumb/v7e-m+fp/hard\libg-musl.a(strlen.o)
 .debug_loc     0x0006b844       0xfe d:/microchip/bin/bin/../../lib/gcc/pic32c/8.3.1/../../../../pic32c/lib/thumb/v7e-m+fp/hard\libg-musl.a(strstr.o)
 .debug_loc     0x0006b942       0x8c d:/microchip/bin/bin/../../lib/gcc/pic32c/8.3.1/../../../../pic32c/lib/thumb/v7e-m+fp/hard\libg-musl.a(strchr.o)
 .debug_loc     0x0006b9ce      0x11a d:/microchip/bin/bin/../../lib/gcc/pic32c/8.3.1/../../../../pic32c/lib/thumb/v7e-m+fp/hard\libg-musl.a(strchrnul.o)
 .debug_loc     0x0006bae8       0x96 d:/microchip/bin/bin/../../lib/gcc/pic32c/8.3.1/../../../../pic32c/lib/thumb/v7e-m+fp/hard\libg-musl.a(strcmp.o)
 .debug_loc     0x0006bb7e       0x67 d:/microchip/bin/bin/../../lib/gcc/pic32c/8.3.1/../../../../pic32c/lib/thumb/v7e-m+fp/hard\libg-musl.a(strcpy.o)
 .debug_loc     0x0006bbe5      0x1b1 d:/microchip/bin/bin/../../lib/gcc/pic32c/8.3.1/../../../../pic32c/lib/thumb/v7e-m+fp/hard\libg-musl.a(strncmp.o)
 .debug_loc     0x0006bd96       0x8c d:/microchip/bin/bin/../../lib/gcc/pic32c/8.3.1/../../../../pic32c/lib/thumb/v7e-m+fp/hard\libg-musl.a(strncpy.o)
 .debug_loc     0x0006be22       0x71 d:/microchip/bin/bin/../../lib/gcc/pic32c/8.3.1/../../../../pic32c/lib/thumb/v7e-m+fp/hard\libg-musl.a(strtok.o)
 .debug_loc     0x0006be93      0x5df d:/microchip/bin/bin/../../lib/gcc/pic32c/8.3.1/../../../../pic32c/lib/thumb/v7e-m+fp/hard\libg-musl.a(intscan.o)
 .debug_loc     0x0006c472       0x91 d:/microchip/bin/bin/../../lib/gcc/pic32c/8.3.1/../../../../pic32c/lib/thumb/v7e-m+fp/hard\libg-musl.a(shgetc.o)
 .debug_loc     0x0006c503       0x5a d:/microchip/bin/bin/../../lib/gcc/pic32c/8.3.1/../../../../pic32c/lib/thumb/v7e-m+fp/hard\libg-musl.a(__uflow.o)
 .debug_loc     0x0006c55d       0x88 d:/microchip/bin/bin/../../lib/gcc/pic32c/8.3.1/../../../../pic32c/lib/thumb/v7e-m+fp/hard\libg-musl.a(vfprintf.o)
 .debug_loc     0x0006c5e5       0x60 d:/microchip/bin/bin/../../lib/gcc/pic32c/8.3.1/../../../../pic32c/lib/thumb/v7e-m+fp/hard\libg-musl.a(stpcpy.o)
 .debug_loc     0x0006c645      0x13f d:/microchip/bin/bin/../../lib/gcc/pic32c/8.3.1/../../../../pic32c/lib/thumb/v7e-m+fp/hard\libg-musl.a(stpncpy.o)
 .debug_loc     0x0006c784      0x13d d:/microchip/bin/bin/../../lib/gcc/pic32c/8.3.1/../../../../pic32c/lib/thumb/v7e-m+fp/hard\libg-musl.a(strcspn.o)
 .debug_loc     0x0006c8c1      0x13f d:/microchip/bin/bin/../../lib/gcc/pic32c/8.3.1/../../../../pic32c/lib/thumb/v7e-m+fp/hard\libg-musl.a(strspn.o)
 .debug_loc     0x0006ca00       0x42 d:/microchip/bin/bin/../../lib/gcc/pic32c/8.3.1/../../../../pic32c/lib/thumb/v7e-m+fp/hard\libg-musl.a(__toread.o)
 .debug_loc     0x0006ca42       0xa6 d:/microchip/bin/bin/../../lib/gcc/pic32c/8.3.1/../../../../pic32c/lib/thumb/v7e-m+fp/hard\libg-musl.a(__pop_float.o)
 .debug_loc     0x0006cae8      0x2f5 d:/microchip/bin/bin/../../lib/gcc/pic32c/8.3.1/../../../../pic32c/lib/thumb/v7e-m+fp/hard\libg-musl.a(__pop_int.o)
 .debug_loc     0x0006cddd      0x1db d:/microchip/bin/bin/../../lib/gcc/pic32c/8.3.1/../../../../pic32c/lib/thumb/v7e-m+fp/hard\libg-musl.a(__pop_ptr.o)
 .debug_loc     0x0006cfb8      0x5e9 d:/microchip/bin/bin/../../lib/gcc/pic32c/8.3.1/../../../../pic32c/lib/thumb/v7e-m+fp/hard\libg-musl.a(__printf_core.o)
 .debug_loc     0x0006d5a1      0xb2d d:/microchip/bin/bin/../../lib/gcc/pic32c/8.3.1/../../../../pic32c/lib/thumb/v7e-m+fp/hard\libg-musl.a(__fmt_a.o)
 .debug_loc     0x0006e0ce      0x1ef d:/microchip/bin/bin/../../lib/gcc/pic32c/8.3.1/../../../../pic32c/lib/thumb/v7e-m+fp/hard\libg-musl.a(__fmt_d.o)
 .debug_loc     0x0006e2bd      0xa5d d:/microchip/bin/bin/../../lib/gcc/pic32c/8.3.1/../../../../pic32c/lib/thumb/v7e-m+fp/hard\libg-musl.a(__fmt_fp.o)
 .debug_loc     0x0006ed1a      0x10a d:/microchip/bin/bin/../../lib/gcc/pic32c/8.3.1/../../../../pic32c/lib/thumb/v7e-m+fp/hard\libg-musl.a(__fmt_o.o)
 .debug_loc     0x0006ee24      0x157 d:/microchip/bin/bin/../../lib/gcc/pic32c/8.3.1/../../../../pic32c/lib/thumb/v7e-m+fp/hard\libg-musl.a(__fmt_s.o)
 .debug_loc     0x0006ef7b      0x10a d:/microchip/bin/bin/../../lib/gcc/pic32c/8.3.1/../../../../pic32c/lib/thumb/v7e-m+fp/hard\libg-musl.a(__fmt_u.o)
 .debug_loc     0x0006f085      0x26d d:/microchip/bin/bin/../../lib/gcc/pic32c/8.3.1/../../../../pic32c/lib/thumb/v7e-m+fp/hard\libg-musl.a(__fmt_x.o)
 .debug_loc     0x0006f2f2      0x198 d:/microchip/bin/bin/../../lib/gcc/pic32c/8.3.1/../../../../pic32c/lib/thumb/v7e-m+fp/hard\libg-musl.a(__cvt_u.o)
 .debug_loc     0x0006f48a      0xe79 d:/microchip/bin/bin/../../lib/gcc/pic32c/8.3.1/thumb/v7e-m+fp/hard\libgcc.a(_udivmoddi4.o)
 .debug_loc     0x00070303       0x14 d:/microchip/bin/bin/../../lib/gcc/pic32c/8.3.1/../../../../pic32c/lib/thumb/v7e-m+fp/hard\libpic32c.a(pic32_data_init_copy_emb.o)
 .debug_loc     0x00070317       0x14 d:/microchip/bin/bin/../../lib/gcc/pic32c/8.3.1/../../../../pic32c/lib/thumb/v7e-m+fp/hard\libpic32c.a(pic32_data_init_copy.o)

.debug_aranges  0x00000000     0x3d50
 .debug_aranges
                0x00000000      0x1d0 build/default/debug/_ext/1645245335/crypto.o
 .debug_aranges
                0x000001d0      0x248 build/default/debug/_ext/444070925/drv_ethphy.o
 .debug_aranges
                0x00000418       0x30 build/default/debug/_ext/444070925/drv_extphy_ksz8081.o
 .debug_aranges
                0x00000448      0x278 build/default/debug/_ext/1546807373/drv_gmac.o
 .debug_aranges
                0x000006c0      0x140 build/default/debug/_ext/1546807373/drv_gmac_lib_samE5x.o
 .debug_aranges
                0x00000800       0xf0 build/default/debug/_ext/992804092/drv_memory.o
 .debug_aranges
                0x000008f0       0x20 build/default/debug/_ext/992804092/drv_memory_file_system.o
 .debug_aranges
                0x00000910       0x58 build/default/debug/_ext/992804092/drv_memory_nvmctrl.o
 .debug_aranges
                0x00000968       0xe0 build/default/debug/_ext/438849557/drv_miim.o
 .debug_aranges
                0x00000a48       0xc0 build/default/debug/_ext/1751889202/sys_fs_shell.o
 .debug_aranges
                0x00000b08       0x48 build/default/debug/_ext/1033058136/helpers.o
 .debug_aranges
                0x00000b50      0x210 build/default/debug/_ext/1033058136/snmp.o
 .debug_aranges
                0x00000d60       0x70 build/default/debug/_ext/1033058136/icmp.o
 .debug_aranges
                0x00000dd0      0x230 build/default/debug/_ext/1033058136/tcp.o
 .debug_aranges
                0x00001000      0x110 build/default/debug/_ext/1033058136/arp.o
 .debug_aranges
                0x00001110       0xe8 build/default/debug/_ext/1033058136/tcpip_commands.o
 .debug_aranges
                0x000011f8      0x170 build/default/debug/_ext/1033058136/http.o
 .debug_aranges
                0x00001368       0x98 build/default/debug/_ext/1033058136/iperf.o
 .debug_aranges
                0x00001400       0xf0 build/default/debug/_ext/1033058136/ipv4.o
 .debug_aranges
                0x000014f0       0x48 build/default/debug/_ext/1033058136/tcpip_heap_alloc.o
 .debug_aranges
                0x00001538       0x68 build/default/debug/_ext/1033058136/tcpip_heap_internal.o
 .debug_aranges
                0x000015a0      0x188 build/default/debug/_ext/1033058136/dhcp.o
 .debug_aranges
                0x00001728      0x130 build/default/debug/_ext/1033058136/dns.o
 .debug_aranges
                0x00001858       0x28 build/default/debug/_ext/1033058136/hash_fnv.o
 .debug_aranges
                0x00001880       0x50 build/default/debug/_ext/1033058136/oahash.o
 .debug_aranges
                0x000018d0      0x218 build/default/debug/_ext/1033058136/tcpip_helpers.o
 .debug_aranges
                0x00001ae8      0x3a0 build/default/debug/_ext/1033058136/tcpip_manager.o
 .debug_aranges
                0x00001e88       0x48 build/default/debug/_ext/1033058136/tcpip_notify.o
 .debug_aranges
                0x00001ed0       0x88 build/default/debug/_ext/1033058136/tcpip_packet.o
 .debug_aranges
                0x00001f58      0x1c0 build/default/debug/_ext/1033058136/udp.o
 .debug_aranges
                0x00002118       0x90 build/default/debug/_ext/1529399856/osal_freertos.o
 .debug_aranges
                0x000021a8       0x20 build/default/debug/_ext/1984496892/plib_clock.o
 .debug_aranges
                0x000021c8       0x20 build/default/debug/_ext/1986646378/plib_evsys.o
 .debug_aranges
                0x000021e8       0x38 build/default/debug/_ext/1865468468/plib_nvic.o
 .debug_aranges
                0x00002220       0xd8 build/default/debug/_ext/1593096446/plib_nvmctrl.o
 .debug_aranges
                0x000022f8       0x70 build/default/debug/_ext/1865521619/plib_port.o
 .debug_aranges
                0x00002368       0xc0 build/default/debug/_ext/504274921/plib_sercom1_usart.o
 .debug_aranges
                0x00002428       0x78 build/default/debug/_ext/829342655/plib_tc0.o
 .debug_aranges
                0x000024a0       0xd8 build/default/debug/_ext/1376093119/sys_command.o
 .debug_aranges
                0x00002578       0x70 build/default/debug/_ext/1832805299/sys_console_uart.o
 .debug_aranges
                0x000025e8       0x88 build/default/debug/_ext/1832805299/sys_console.o
 .debug_aranges
                0x00002670       0x48 build/default/debug/_ext/944882569/sys_debug.o
 .debug_aranges
                0x000026b8       0xa0 build/default/debug/_ext/699575981/mpfs.o
 .debug_aranges
                0x00002758      0x178 build/default/debug/_ext/1269487135/sys_fs.o
 .debug_aranges
                0x000028d0       0x98 build/default/debug/_ext/1269487135/sys_fs_media_manager.o
 .debug_aranges
                0x00002968       0x40 build/default/debug/_ext/1881668453/sys_int.o
 .debug_aranges
                0x000029a8       0x20 build/default/debug/_ext/1000052432/sys_reset.o
 .debug_aranges
                0x000029c8      0x128 build/default/debug/_ext/101884895/sys_time.o
 .debug_aranges
                0x00002af0       0x40 build/default/debug/_ext/753841488/sys_time_h2_adapter.o
 .debug_aranges
                0x00002b30       0x48 build/default/debug/_ext/753841488/sys_random_h2_adapter.o
 .debug_aranges
                0x00002b78       0x28 build/default/debug/_ext/1171490990/initialization.o
 .debug_aranges
                0x00002ba0       0x20 build/default/debug/_ext/1171490990/interrupts.o
 .debug_aranges
                0x00002bc0       0x48 build/default/debug/_ext/1171490990/exceptions.o
 .debug_aranges
                0x00002c08       0x28 build/default/debug/_ext/1171490990/startup_xc32.o
 .debug_aranges
                0x00002c30       0x48 build/default/debug/_ext/1171490990/tasks.o
 .debug_aranges
                0x00002c78       0x40 build/default/debug/_ext/1171490990/freertos_hooks.o
 .debug_aranges
                0x00002cb8       0x78 build/default/debug/_ext/246609638/port.o
 .debug_aranges
                0x00002d30       0x38 build/default/debug/_ext/1665200909/heap_1.o
 .debug_aranges
                0x00002d68       0x40 build/default/debug/_ext/404212886/list.o
 .debug_aranges
                0x00002da8       0xc8 build/default/debug/_ext/404212886/queue.o
 .debug_aranges
                0x00002e70      0x178 build/default/debug/_ext/404212886/FreeRTOS_tasks.o
 .debug_aranges
                0x00002fe8       0x28 build/default/debug/_ext/172253694/crypt_wolfcryptcb.o
 .debug_aranges
                0x00003010       0xd8 build/default/debug/_ext/1664057780/cryptocb.o
 .debug_aranges
                0x000030e8       0x68 build/default/debug/_ext/1664057780/md5.o
 .debug_aranges
                0x00003150       0xb8 build/default/debug/_ext/1664057780/random.o
 .debug_aranges
                0x00003208       0xb8 build/default/debug/_ext/1664057780/sha256.o
 .debug_aranges
                0x000032c0       0x20 build/default/debug/_ext/1360937237/main.o
 .debug_aranges
                0x000032e0       0x78 build/default/debug/_ext/1360937237/custom_snmp_app.o
 .debug_aranges
                0x00003358       0x28 build/default/debug/_ext/1360937237/app.o
 .debug_aranges
                0x00003380       0x18 build/default/debug/_ext/1360937237/mpfs_img2.o
 .debug_aranges
                0x00003398       0x28 build/default/debug/_ext/1360937237/http_print.o
 .debug_aranges
                0x000033c0      0x128 build/default/debug/_ext/1360937237/custom_http_app.o
 .debug_aranges
                0x000034e8       0x28 d:/microchip/bin/bin/../../lib/gcc/pic32c/8.3.1/../../../../pic32c/lib/thumb/v7e-m+fp/hard\libpic32c.a(data_init.o)
 .debug_aranges
                0x00003510       0x28 d:/microchip/bin/bin/../../lib/gcc/pic32c/8.3.1/../../../../pic32c/lib/thumb/v7e-m+fp/hard\libg-musl.a(isalnum.o)
 .debug_aranges
                0x00003538       0x28 d:/microchip/bin/bin/../../lib/gcc/pic32c/8.3.1/../../../../pic32c/lib/thumb/v7e-m+fp/hard\libg-musl.a(isxdigit.o)
 .debug_aranges
                0x00003560       0x28 d:/microchip/bin/bin/../../lib/gcc/pic32c/8.3.1/../../../../pic32c/lib/thumb/v7e-m+fp/hard\libg-musl.a(tolower.o)
 .debug_aranges
                0x00003588       0x28 d:/microchip/bin/bin/../../lib/gcc/pic32c/8.3.1/../../../../pic32c/lib/thumb/v7e-m+fp/hard\libg-musl.a(toupper.o)
 .debug_aranges
                0x000035b0       0x28 d:/microchip/bin/bin/../../lib/gcc/pic32c/8.3.1/../../../../pic32c/lib/thumb/v7e-m+fp/hard\libg-musl.a(__libc_start_main.o)
 .debug_aranges
                0x000035d8       0x18 d:/microchip/bin/bin/../../lib/gcc/pic32c/8.3.1/../../../../pic32c/lib/thumb/v7e-m+fp/hard\libg-musl.a(libc.o)
 .debug_aranges
                0x000035f0       0x20 d:/microchip/bin/bin/../../lib/gcc/pic32c/8.3.1/../../../../pic32c/lib/thumb/v7e-m+fp/hard\libg-musl.a(calloc.o)
 .debug_aranges
                0x00003610       0x70 d:/microchip/bin/bin/../../lib/gcc/pic32c/8.3.1/../../../../pic32c/lib/thumb/v7e-m+fp/hard\libg-musl.a(malloc.o)
 .debug_aranges
                0x00003680       0x20 d:/microchip/bin/bin/../../lib/gcc/pic32c/8.3.1/../../../../pic32c/lib/thumb/v7e-m+fp/hard\libg-musl.a(expand_heap.o)
 .debug_aranges
                0x000036a0       0x28 d:/microchip/bin/bin/../../lib/gcc/pic32c/8.3.1/../../../../pic32c/lib/thumb/v7e-m+fp/hard\libg-musl.a(rand.o)
 .debug_aranges
                0x000036c8       0x20 d:/microchip/bin/bin/../../lib/gcc/pic32c/8.3.1/../../../../pic32c/lib/thumb/v7e-m+fp/hard\libg-musl.a(vsnprintf.o)
 .debug_aranges
                0x000036e8       0x20 d:/microchip/bin/bin/../../lib/gcc/pic32c/8.3.1/../../../../pic32c/lib/thumb/v7e-m+fp/hard\libg-musl.a(snprintf.o)
 .debug_aranges
                0x00003708       0x20 d:/microchip/bin/bin/../../lib/gcc/pic32c/8.3.1/../../../../pic32c/lib/thumb/v7e-m+fp/hard\libg-musl.a(sprintf.o)
 .debug_aranges
                0x00003728       0x20 d:/microchip/bin/bin/../../lib/gcc/pic32c/8.3.1/../../../../pic32c/lib/thumb/v7e-m+fp/hard\libg-musl.a(vsprintf.o)
 .debug_aranges
                0x00003748       0x20 d:/microchip/bin/bin/../../lib/gcc/pic32c/8.3.1/../../../../pic32c/lib/thumb/v7e-m+fp/hard\libg-musl.a(atoi.o)
 .debug_aranges
                0x00003768       0x20 d:/microchip/bin/bin/../../lib/gcc/pic32c/8.3.1/../../../../pic32c/lib/thumb/v7e-m+fp/hard\libg-musl.a(atol.o)
 .debug_aranges
                0x00003788       0x50 d:/microchip/bin/bin/../../lib/gcc/pic32c/8.3.1/../../../../pic32c/lib/thumb/v7e-m+fp/hard\libg-musl.a(strtol.o)
 .debug_aranges
                0x000037d8       0x20 d:/microchip/bin/bin/../../lib/gcc/pic32c/8.3.1/../../../../pic32c/lib/thumb/v7e-m+fp/hard\libg-musl.a(memcmp.o)
 .debug_aranges
                0x000037f8       0x20 d:/microchip/bin/bin/../../lib/gcc/pic32c/8.3.1/../../../../pic32c/lib/thumb/v7e-m+fp/hard\libg-musl.a(memcpy.o)
 .debug_aranges
                0x00003818       0x20 d:/microchip/bin/bin/../../lib/gcc/pic32c/8.3.1/../../../../pic32c/lib/thumb/v7e-m+fp/hard\libg-musl.a(memset.o)
 .debug_aranges
                0x00003838       0x20 d:/microchip/bin/bin/../../lib/gcc/pic32c/8.3.1/../../../../pic32c/lib/thumb/v7e-m+fp/hard\libg-musl.a(strlen.o)
 .debug_aranges
                0x00003858       0x20 d:/microchip/bin/bin/../../lib/gcc/pic32c/8.3.1/../../../../pic32c/lib/thumb/v7e-m+fp/hard\libg-musl.a(strstr.o)
 .debug_aranges
                0x00003878       0x20 d:/microchip/bin/bin/../../lib/gcc/pic32c/8.3.1/../../../../pic32c/lib/thumb/v7e-m+fp/hard\libg-musl.a(strchr.o)
 .debug_aranges
                0x00003898       0x20 d:/microchip/bin/bin/../../lib/gcc/pic32c/8.3.1/../../../../pic32c/lib/thumb/v7e-m+fp/hard\libg-musl.a(strchrnul.o)
 .debug_aranges
                0x000038b8       0x20 d:/microchip/bin/bin/../../lib/gcc/pic32c/8.3.1/../../../../pic32c/lib/thumb/v7e-m+fp/hard\libg-musl.a(strcmp.o)
 .debug_aranges
                0x000038d8       0x20 d:/microchip/bin/bin/../../lib/gcc/pic32c/8.3.1/../../../../pic32c/lib/thumb/v7e-m+fp/hard\libg-musl.a(strcpy.o)
 .debug_aranges
                0x000038f8       0x20 d:/microchip/bin/bin/../../lib/gcc/pic32c/8.3.1/../../../../pic32c/lib/thumb/v7e-m+fp/hard\libg-musl.a(strncmp.o)
 .debug_aranges
                0x00003918       0x20 d:/microchip/bin/bin/../../lib/gcc/pic32c/8.3.1/../../../../pic32c/lib/thumb/v7e-m+fp/hard\libg-musl.a(strncpy.o)
 .debug_aranges
                0x00003938       0x20 d:/microchip/bin/bin/../../lib/gcc/pic32c/8.3.1/../../../../pic32c/lib/thumb/v7e-m+fp/hard\libg-musl.a(strtok.o)
 .debug_aranges
                0x00003958       0x18 d:/microchip/bin/bin/../../lib/gcc/pic32c/8.3.1/../../../../pic32c/lib/thumb/v7e-m+fp/hard\libg-musl.a(__environ.o)
 .debug_aranges
                0x00003970       0x18 d:/microchip/bin/bin/../../lib/gcc/pic32c/8.3.1/../../../../pic32c/lib/thumb/v7e-m+fp/hard\libg-musl.a(__errno_location.o)
 .debug_aranges
                0x00003988       0x20 d:/microchip/bin/bin/../../lib/gcc/pic32c/8.3.1/../../../../pic32c/lib/thumb/v7e-m+fp/hard\libg-musl.a(intscan.o)
 .debug_aranges
                0x000039a8       0x28 d:/microchip/bin/bin/../../lib/gcc/pic32c/8.3.1/../../../../pic32c/lib/thumb/v7e-m+fp/hard\libg-musl.a(shgetc.o)
 .debug_aranges
                0x000039d0       0x20 d:/microchip/bin/bin/../../lib/gcc/pic32c/8.3.1/../../../../pic32c/lib/thumb/v7e-m+fp/hard\libg-musl.a(__uflow.o)
 .debug_aranges
                0x000039f0       0x28 d:/microchip/bin/bin/../../lib/gcc/pic32c/8.3.1/../../../../pic32c/lib/thumb/v7e-m+fp/hard\libg-musl.a(vfprintf.o)
 .debug_aranges
                0x00003a18       0x20 d:/microchip/bin/bin/../../lib/gcc/pic32c/8.3.1/../../../../pic32c/lib/thumb/v7e-m+fp/hard\libg-musl.a(stpcpy.o)
 .debug_aranges
                0x00003a38       0x20 d:/microchip/bin/bin/../../lib/gcc/pic32c/8.3.1/../../../../pic32c/lib/thumb/v7e-m+fp/hard\libg-musl.a(stpncpy.o)
 .debug_aranges
                0x00003a58       0x20 d:/microchip/bin/bin/../../lib/gcc/pic32c/8.3.1/../../../../pic32c/lib/thumb/v7e-m+fp/hard\libg-musl.a(strcspn.o)
 .debug_aranges
                0x00003a78       0x20 d:/microchip/bin/bin/../../lib/gcc/pic32c/8.3.1/../../../../pic32c/lib/thumb/v7e-m+fp/hard\libg-musl.a(strspn.o)
 .debug_aranges
                0x00003a98       0x28 d:/microchip/bin/bin/../../lib/gcc/pic32c/8.3.1/../../../../pic32c/lib/thumb/v7e-m+fp/hard\libg-musl.a(__toread.o)
 .debug_aranges
                0x00003ac0       0x20 d:/microchip/bin/bin/../../lib/gcc/pic32c/8.3.1/../../../../pic32c/lib/thumb/v7e-m+fp/hard\libg-musl.a(__pop_float.o)
 .debug_aranges
                0x00003ae0       0x20 d:/microchip/bin/bin/../../lib/gcc/pic32c/8.3.1/../../../../pic32c/lib/thumb/v7e-m+fp/hard\libg-musl.a(__pop_int.o)
 .debug_aranges
                0x00003b00       0x20 d:/microchip/bin/bin/../../lib/gcc/pic32c/8.3.1/../../../../pic32c/lib/thumb/v7e-m+fp/hard\libg-musl.a(__pop_ptr.o)
 .debug_aranges
                0x00003b20       0x50 d:/microchip/bin/bin/../../lib/gcc/pic32c/8.3.1/../../../../pic32c/lib/thumb/v7e-m+fp/hard\libg-musl.a(__printf_core.o)
 .debug_aranges
                0x00003b70       0x20 d:/microchip/bin/bin/../../lib/gcc/pic32c/8.3.1/../../../../pic32c/lib/thumb/v7e-m+fp/hard\libg-musl.a(__fmt_a.o)
 .debug_aranges
                0x00003b90       0x20 d:/microchip/bin/bin/../../lib/gcc/pic32c/8.3.1/../../../../pic32c/lib/thumb/v7e-m+fp/hard\libg-musl.a(__fmt_d.o)
 .debug_aranges
                0x00003bb0       0x20 d:/microchip/bin/bin/../../lib/gcc/pic32c/8.3.1/../../../../pic32c/lib/thumb/v7e-m+fp/hard\libg-musl.a(__fmt_fp.o)
 .debug_aranges
                0x00003bd0       0x20 d:/microchip/bin/bin/../../lib/gcc/pic32c/8.3.1/../../../../pic32c/lib/thumb/v7e-m+fp/hard\libg-musl.a(__fmt_o.o)
 .debug_aranges
                0x00003bf0       0x20 d:/microchip/bin/bin/../../lib/gcc/pic32c/8.3.1/../../../../pic32c/lib/thumb/v7e-m+fp/hard\libg-musl.a(__fmt_s.o)
 .debug_aranges
                0x00003c10       0x20 d:/microchip/bin/bin/../../lib/gcc/pic32c/8.3.1/../../../../pic32c/lib/thumb/v7e-m+fp/hard\libg-musl.a(__fmt_u.o)
 .debug_aranges
                0x00003c30       0x20 d:/microchip/bin/bin/../../lib/gcc/pic32c/8.3.1/../../../../pic32c/lib/thumb/v7e-m+fp/hard\libg-musl.a(__fmt_x.o)
 .debug_aranges
                0x00003c50       0x20 d:/microchip/bin/bin/../../lib/gcc/pic32c/8.3.1/../../../../pic32c/lib/thumb/v7e-m+fp/hard\libg-musl.a(__cvt_u.o)
 .debug_aranges
                0x00003c70       0x20 d:/microchip/bin/bin/../../lib/gcc/pic32c/8.3.1/thumb/v7e-m+fp/hard\libgcc.a(_aeabi_uldivmod.o)
 .debug_aranges
                0x00003c90       0x20 d:/microchip/bin/bin/../../lib/gcc/pic32c/8.3.1/thumb/v7e-m+fp/hard\libgcc.a(_udivmoddi4.o)
 .debug_aranges
                0x00003cb0       0x20 d:/microchip/bin/bin/../../lib/gcc/pic32c/8.3.1/thumb/v7e-m+fp/hard\libgcc.a(_dvmd_tls.o)
 .debug_aranges
                0x00003cd0       0x20 d:/microchip/bin/bin/../../lib/gcc/pic32c/8.3.1/../../../../pic32c/lib/thumb/v7e-m+fp/hard\libpic32c.a(sbrk.o)
 .debug_aranges
                0x00003cf0       0x20 d:/microchip/bin/bin/../../lib/gcc/pic32c/8.3.1/../../../../pic32c/lib/thumb/v7e-m+fp/hard\libpic32c.a(pic32_data_init_clear.o)
 .debug_aranges
                0x00003d10       0x20 d:/microchip/bin/bin/../../lib/gcc/pic32c/8.3.1/../../../../pic32c/lib/thumb/v7e-m+fp/hard\libpic32c.a(pic32_data_init_copy_emb.o)
 .debug_aranges
                0x00003d30       0x20 d:/microchip/bin/bin/../../lib/gcc/pic32c/8.3.1/../../../../pic32c/lib/thumb/v7e-m+fp/hard\libpic32c.a(pic32_data_init_copy.o)

.debug_ranges   0x00000000     0x6810
 .debug_ranges  0x00000000      0x1c0 build/default/debug/_ext/1645245335/crypto.o
 .debug_ranges  0x000001c0      0x310 build/default/debug/_ext/444070925/drv_ethphy.o
 .debug_ranges  0x000004d0       0x20 build/default/debug/_ext/444070925/drv_extphy_ksz8081.o
 .debug_ranges  0x000004f0      0x358 build/default/debug/_ext/1546807373/drv_gmac.o
 .debug_ranges  0x00000848      0x270 build/default/debug/_ext/1546807373/drv_gmac_lib_samE5x.o
 .debug_ranges  0x00000ab8      0x100 build/default/debug/_ext/992804092/drv_memory.o
 .debug_ranges  0x00000bb8       0x10 build/default/debug/_ext/992804092/drv_memory_file_system.o
 .debug_ranges  0x00000bc8       0x48 build/default/debug/_ext/992804092/drv_memory_nvmctrl.o
 .debug_ranges  0x00000c10      0x2a8 build/default/debug/_ext/438849557/drv_miim.o
 .debug_ranges  0x00000eb8      0x1e8 build/default/debug/_ext/1751889202/sys_fs_shell.o
 .debug_ranges  0x000010a0       0x38 build/default/debug/_ext/1033058136/helpers.o
 .debug_ranges  0x000010d8      0x338 build/default/debug/_ext/1033058136/snmp.o
 .debug_ranges  0x00001410       0xb8 build/default/debug/_ext/1033058136/icmp.o
 .debug_ranges  0x000014c8      0x6a0 build/default/debug/_ext/1033058136/tcp.o
 .debug_ranges  0x00001b68      0x498 build/default/debug/_ext/1033058136/arp.o
 .debug_ranges  0x00002000      0x210 build/default/debug/_ext/1033058136/tcpip_commands.o
 .debug_ranges  0x00002210      0x260 build/default/debug/_ext/1033058136/http.o
 .debug_ranges  0x00002470      0x290 build/default/debug/_ext/1033058136/iperf.o
 .debug_ranges  0x00002700      0x288 build/default/debug/_ext/1033058136/ipv4.o
 .debug_ranges  0x00002988       0x38 build/default/debug/_ext/1033058136/tcpip_heap_alloc.o
 .debug_ranges  0x000029c0      0x100 build/default/debug/_ext/1033058136/tcpip_heap_internal.o
 .debug_ranges  0x00002ac0      0x560 build/default/debug/_ext/1033058136/dhcp.o
 .debug_ranges  0x00003020      0x308 build/default/debug/_ext/1033058136/dns.o
 .debug_ranges  0x00003328       0x18 build/default/debug/_ext/1033058136/hash_fnv.o
 .debug_ranges  0x00003340       0x40 build/default/debug/_ext/1033058136/oahash.o
 .debug_ranges  0x00003380      0x280 build/default/debug/_ext/1033058136/tcpip_helpers.o
 .debug_ranges  0x00003600      0x9a0 build/default/debug/_ext/1033058136/tcpip_manager.o
 .debug_ranges  0x00003fa0       0x38 build/default/debug/_ext/1033058136/tcpip_notify.o
 .debug_ranges  0x00003fd8       0xd8 build/default/debug/_ext/1033058136/tcpip_packet.o
 .debug_ranges  0x000040b0      0x480 build/default/debug/_ext/1033058136/udp.o
 .debug_ranges  0x00004530       0x80 build/default/debug/_ext/1529399856/osal_freertos.o
 .debug_ranges  0x000045b0       0x10 build/default/debug/_ext/1984496892/plib_clock.o
 .debug_ranges  0x000045c0       0x10 build/default/debug/_ext/1986646378/plib_evsys.o
 .debug_ranges  0x000045d0       0x28 build/default/debug/_ext/1865468468/plib_nvic.o
 .debug_ranges  0x000045f8       0xc8 build/default/debug/_ext/1593096446/plib_nvmctrl.o
 .debug_ranges  0x000046c0       0x60 build/default/debug/_ext/1865521619/plib_port.o
 .debug_ranges  0x00004720      0x1e8 build/default/debug/_ext/504274921/plib_sercom1_usart.o
 .debug_ranges  0x00004908       0x68 build/default/debug/_ext/829342655/plib_tc0.o
 .debug_ranges  0x00004970      0x180 build/default/debug/_ext/1376093119/sys_command.o
 .debug_ranges  0x00004af0       0x60 build/default/debug/_ext/1832805299/sys_console_uart.o
 .debug_ranges  0x00004b50       0x78 build/default/debug/_ext/1832805299/sys_console.o
 .debug_ranges  0x00004bc8       0x38 build/default/debug/_ext/944882569/sys_debug.o
 .debug_ranges  0x00004c00       0xb8 build/default/debug/_ext/699575981/mpfs.o
 .debug_ranges  0x00004cb8      0x180 build/default/debug/_ext/1269487135/sys_fs.o
 .debug_ranges  0x00004e38      0x118 build/default/debug/_ext/1269487135/sys_fs_media_manager.o
 .debug_ranges  0x00004f50       0x30 build/default/debug/_ext/1881668453/sys_int.o
 .debug_ranges  0x00004f80       0x10 build/default/debug/_ext/1000052432/sys_reset.o
 .debug_ranges  0x00004f90      0x160 build/default/debug/_ext/101884895/sys_time.o
 .debug_ranges  0x000050f0       0x30 build/default/debug/_ext/753841488/sys_time_h2_adapter.o
 .debug_ranges  0x00005120       0x50 build/default/debug/_ext/753841488/sys_random_h2_adapter.o
 .debug_ranges  0x00005170       0x18 build/default/debug/_ext/1171490990/initialization.o
 .debug_ranges  0x00005188       0x10 build/default/debug/_ext/1171490990/interrupts.o
 .debug_ranges  0x00005198       0x38 build/default/debug/_ext/1171490990/exceptions.o
 .debug_ranges  0x000051d0       0x18 build/default/debug/_ext/1171490990/startup_xc32.o
 .debug_ranges  0x000051e8       0x38 build/default/debug/_ext/1171490990/tasks.o
 .debug_ranges  0x00005220       0x30 build/default/debug/_ext/1171490990/freertos_hooks.o
 .debug_ranges  0x00005250       0x68 build/default/debug/_ext/246609638/port.o
 .debug_ranges  0x000052b8       0x28 build/default/debug/_ext/1665200909/heap_1.o
 .debug_ranges  0x000052e0       0x30 build/default/debug/_ext/404212886/list.o
 .debug_ranges  0x00005310      0x180 build/default/debug/_ext/404212886/queue.o
 .debug_ranges  0x00005490      0x280 build/default/debug/_ext/404212886/FreeRTOS_tasks.o
 .debug_ranges  0x00005710       0x18 build/default/debug/_ext/172253694/crypt_wolfcryptcb.o
 .debug_ranges  0x00005728      0x1b8 build/default/debug/_ext/1664057780/cryptocb.o
 .debug_ranges  0x000058e0       0x70 build/default/debug/_ext/1664057780/md5.o
 .debug_ranges  0x00005950      0x1e8 build/default/debug/_ext/1664057780/random.o
 .debug_ranges  0x00005b38      0x400 build/default/debug/_ext/1664057780/sha256.o
 .debug_ranges  0x00005f38       0x10 build/default/debug/_ext/1360937237/main.o
 .debug_ranges  0x00005f48       0x88 build/default/debug/_ext/1360937237/custom_snmp_app.o
 .debug_ranges  0x00005fd0       0x18 build/default/debug/_ext/1360937237/app.o
 .debug_ranges  0x00005fe8       0x18 build/default/debug/_ext/1360937237/http_print.o
 .debug_ranges  0x00006000      0x168 build/default/debug/_ext/1360937237/custom_http_app.o
 .debug_ranges  0x00006168       0x18 d:/microchip/bin/bin/../../lib/gcc/pic32c/8.3.1/../../../../pic32c/lib/thumb/v7e-m+fp/hard\libpic32c.a(data_init.o)
 .debug_ranges  0x00006180       0x18 d:/microchip/bin/bin/../../lib/gcc/pic32c/8.3.1/../../../../pic32c/lib/thumb/v7e-m+fp/hard\libg-musl.a(isalnum.o)
 .debug_ranges  0x00006198       0x18 d:/microchip/bin/bin/../../lib/gcc/pic32c/8.3.1/../../../../pic32c/lib/thumb/v7e-m+fp/hard\libg-musl.a(isxdigit.o)
 .debug_ranges  0x000061b0       0x18 d:/microchip/bin/bin/../../lib/gcc/pic32c/8.3.1/../../../../pic32c/lib/thumb/v7e-m+fp/hard\libg-musl.a(tolower.o)
 .debug_ranges  0x000061c8       0x18 d:/microchip/bin/bin/../../lib/gcc/pic32c/8.3.1/../../../../pic32c/lib/thumb/v7e-m+fp/hard\libg-musl.a(toupper.o)
 .debug_ranges  0x000061e0       0x40 d:/microchip/bin/bin/../../lib/gcc/pic32c/8.3.1/../../../../pic32c/lib/thumb/v7e-m+fp/hard\libg-musl.a(__libc_start_main.o)
 .debug_ranges  0x00006220       0x10 d:/microchip/bin/bin/../../lib/gcc/pic32c/8.3.1/../../../../pic32c/lib/thumb/v7e-m+fp/hard\libg-musl.a(calloc.o)
 .debug_ranges  0x00006230      0x1a0 d:/microchip/bin/bin/../../lib/gcc/pic32c/8.3.1/../../../../pic32c/lib/thumb/v7e-m+fp/hard\libg-musl.a(malloc.o)
 .debug_ranges  0x000063d0       0x10 d:/microchip/bin/bin/../../lib/gcc/pic32c/8.3.1/../../../../pic32c/lib/thumb/v7e-m+fp/hard\libg-musl.a(expand_heap.o)
 .debug_ranges  0x000063e0       0x18 d:/microchip/bin/bin/../../lib/gcc/pic32c/8.3.1/../../../../pic32c/lib/thumb/v7e-m+fp/hard\libg-musl.a(rand.o)
 .debug_ranges  0x000063f8       0x10 d:/microchip/bin/bin/../../lib/gcc/pic32c/8.3.1/../../../../pic32c/lib/thumb/v7e-m+fp/hard\libg-musl.a(vsnprintf.o)
 .debug_ranges  0x00006408       0x10 d:/microchip/bin/bin/../../lib/gcc/pic32c/8.3.1/../../../../pic32c/lib/thumb/v7e-m+fp/hard\libg-musl.a(snprintf.o)
 .debug_ranges  0x00006418       0x10 d:/microchip/bin/bin/../../lib/gcc/pic32c/8.3.1/../../../../pic32c/lib/thumb/v7e-m+fp/hard\libg-musl.a(sprintf.o)
 .debug_ranges  0x00006428       0x10 d:/microchip/bin/bin/../../lib/gcc/pic32c/8.3.1/../../../../pic32c/lib/thumb/v7e-m+fp/hard\libg-musl.a(vsprintf.o)
 .debug_ranges  0x00006438       0x10 d:/microchip/bin/bin/../../lib/gcc/pic32c/8.3.1/../../../../pic32c/lib/thumb/v7e-m+fp/hard\libg-musl.a(atoi.o)
 .debug_ranges  0x00006448       0x10 d:/microchip/bin/bin/../../lib/gcc/pic32c/8.3.1/../../../../pic32c/lib/thumb/v7e-m+fp/hard\libg-musl.a(atol.o)
 .debug_ranges  0x00006458       0x40 d:/microchip/bin/bin/../../lib/gcc/pic32c/8.3.1/../../../../pic32c/lib/thumb/v7e-m+fp/hard\libg-musl.a(strtol.o)
 .debug_ranges  0x00006498       0x10 d:/microchip/bin/bin/../../lib/gcc/pic32c/8.3.1/../../../../pic32c/lib/thumb/v7e-m+fp/hard\libg-musl.a(memcmp.o)
 .debug_ranges  0x000064a8       0x10 d:/microchip/bin/bin/../../lib/gcc/pic32c/8.3.1/../../../../pic32c/lib/thumb/v7e-m+fp/hard\libg-musl.a(memcpy.o)
 .debug_ranges  0x000064b8       0x10 d:/microchip/bin/bin/../../lib/gcc/pic32c/8.3.1/../../../../pic32c/lib/thumb/v7e-m+fp/hard\libg-musl.a(memset.o)
 .debug_ranges  0x000064c8       0x10 d:/microchip/bin/bin/../../lib/gcc/pic32c/8.3.1/../../../../pic32c/lib/thumb/v7e-m+fp/hard\libg-musl.a(strlen.o)
 .debug_ranges  0x000064d8       0x10 d:/microchip/bin/bin/../../lib/gcc/pic32c/8.3.1/../../../../pic32c/lib/thumb/v7e-m+fp/hard\libg-musl.a(strstr.o)
 .debug_ranges  0x000064e8       0x10 d:/microchip/bin/bin/../../lib/gcc/pic32c/8.3.1/../../../../pic32c/lib/thumb/v7e-m+fp/hard\libg-musl.a(strchr.o)
 .debug_ranges  0x000064f8       0x10 d:/microchip/bin/bin/../../lib/gcc/pic32c/8.3.1/../../../../pic32c/lib/thumb/v7e-m+fp/hard\libg-musl.a(strchrnul.o)
 .debug_ranges  0x00006508       0x10 d:/microchip/bin/bin/../../lib/gcc/pic32c/8.3.1/../../../../pic32c/lib/thumb/v7e-m+fp/hard\libg-musl.a(strcmp.o)
 .debug_ranges  0x00006518       0x10 d:/microchip/bin/bin/../../lib/gcc/pic32c/8.3.1/../../../../pic32c/lib/thumb/v7e-m+fp/hard\libg-musl.a(strcpy.o)
 .debug_ranges  0x00006528       0x10 d:/microchip/bin/bin/../../lib/gcc/pic32c/8.3.1/../../../../pic32c/lib/thumb/v7e-m+fp/hard\libg-musl.a(strncmp.o)
 .debug_ranges  0x00006538       0x10 d:/microchip/bin/bin/../../lib/gcc/pic32c/8.3.1/../../../../pic32c/lib/thumb/v7e-m+fp/hard\libg-musl.a(strncpy.o)
 .debug_ranges  0x00006548       0x10 d:/microchip/bin/bin/../../lib/gcc/pic32c/8.3.1/../../../../pic32c/lib/thumb/v7e-m+fp/hard\libg-musl.a(strtok.o)
 .debug_ranges  0x00006558       0x28 d:/microchip/bin/bin/../../lib/gcc/pic32c/8.3.1/../../../../pic32c/lib/thumb/v7e-m+fp/hard\libg-musl.a(intscan.o)
 .debug_ranges  0x00006580       0x18 d:/microchip/bin/bin/../../lib/gcc/pic32c/8.3.1/../../../../pic32c/lib/thumb/v7e-m+fp/hard\libg-musl.a(shgetc.o)
 .debug_ranges  0x00006598       0x10 d:/microchip/bin/bin/../../lib/gcc/pic32c/8.3.1/../../../../pic32c/lib/thumb/v7e-m+fp/hard\libg-musl.a(__uflow.o)
 .debug_ranges  0x000065a8       0x18 d:/microchip/bin/bin/../../lib/gcc/pic32c/8.3.1/../../../../pic32c/lib/thumb/v7e-m+fp/hard\libg-musl.a(vfprintf.o)
 .debug_ranges  0x000065c0       0x10 d:/microchip/bin/bin/../../lib/gcc/pic32c/8.3.1/../../../../pic32c/lib/thumb/v7e-m+fp/hard\libg-musl.a(stpcpy.o)
 .debug_ranges  0x000065d0       0x10 d:/microchip/bin/bin/../../lib/gcc/pic32c/8.3.1/../../../../pic32c/lib/thumb/v7e-m+fp/hard\libg-musl.a(stpncpy.o)
 .debug_ranges  0x000065e0       0x10 d:/microchip/bin/bin/../../lib/gcc/pic32c/8.3.1/../../../../pic32c/lib/thumb/v7e-m+fp/hard\libg-musl.a(strcspn.o)
 .debug_ranges  0x000065f0       0x10 d:/microchip/bin/bin/../../lib/gcc/pic32c/8.3.1/../../../../pic32c/lib/thumb/v7e-m+fp/hard\libg-musl.a(strspn.o)
 .debug_ranges  0x00006600       0x18 d:/microchip/bin/bin/../../lib/gcc/pic32c/8.3.1/../../../../pic32c/lib/thumb/v7e-m+fp/hard\libg-musl.a(__toread.o)
 .debug_ranges  0x00006618       0x10 d:/microchip/bin/bin/../../lib/gcc/pic32c/8.3.1/../../../../pic32c/lib/thumb/v7e-m+fp/hard\libg-musl.a(__pop_float.o)
 .debug_ranges  0x00006628       0x10 d:/microchip/bin/bin/../../lib/gcc/pic32c/8.3.1/../../../../pic32c/lib/thumb/v7e-m+fp/hard\libg-musl.a(__pop_int.o)
 .debug_ranges  0x00006638       0x10 d:/microchip/bin/bin/../../lib/gcc/pic32c/8.3.1/../../../../pic32c/lib/thumb/v7e-m+fp/hard\libg-musl.a(__pop_ptr.o)
 .debug_ranges  0x00006648       0x58 d:/microchip/bin/bin/../../lib/gcc/pic32c/8.3.1/../../../../pic32c/lib/thumb/v7e-m+fp/hard\libg-musl.a(__printf_core.o)
 .debug_ranges  0x000066a0       0x10 d:/microchip/bin/bin/../../lib/gcc/pic32c/8.3.1/../../../../pic32c/lib/thumb/v7e-m+fp/hard\libg-musl.a(__fmt_a.o)
 .debug_ranges  0x000066b0       0x10 d:/microchip/bin/bin/../../lib/gcc/pic32c/8.3.1/../../../../pic32c/lib/thumb/v7e-m+fp/hard\libg-musl.a(__fmt_d.o)
 .debug_ranges  0x000066c0       0x10 d:/microchip/bin/bin/../../lib/gcc/pic32c/8.3.1/../../../../pic32c/lib/thumb/v7e-m+fp/hard\libg-musl.a(__fmt_fp.o)
 .debug_ranges  0x000066d0       0x10 d:/microchip/bin/bin/../../lib/gcc/pic32c/8.3.1/../../../../pic32c/lib/thumb/v7e-m+fp/hard\libg-musl.a(__fmt_o.o)
 .debug_ranges  0x000066e0       0x10 d:/microchip/bin/bin/../../lib/gcc/pic32c/8.3.1/../../../../pic32c/lib/thumb/v7e-m+fp/hard\libg-musl.a(__fmt_s.o)
 .debug_ranges  0x000066f0       0x10 d:/microchip/bin/bin/../../lib/gcc/pic32c/8.3.1/../../../../pic32c/lib/thumb/v7e-m+fp/hard\libg-musl.a(__fmt_u.o)
 .debug_ranges  0x00006700       0x10 d:/microchip/bin/bin/../../lib/gcc/pic32c/8.3.1/../../../../pic32c/lib/thumb/v7e-m+fp/hard\libg-musl.a(__fmt_x.o)
 .debug_ranges  0x00006710       0x10 d:/microchip/bin/bin/../../lib/gcc/pic32c/8.3.1/../../../../pic32c/lib/thumb/v7e-m+fp/hard\libg-musl.a(__cvt_u.o)
 .debug_ranges  0x00006720       0xb0 d:/microchip/bin/bin/../../lib/gcc/pic32c/8.3.1/thumb/v7e-m+fp/hard\libgcc.a(_udivmoddi4.o)
 .debug_ranges  0x000067d0       0x10 d:/microchip/bin/bin/../../lib/gcc/pic32c/8.3.1/../../../../pic32c/lib/thumb/v7e-m+fp/hard\libpic32c.a(sbrk.o)
 .debug_ranges  0x000067e0       0x10 d:/microchip/bin/bin/../../lib/gcc/pic32c/8.3.1/../../../../pic32c/lib/thumb/v7e-m+fp/hard\libpic32c.a(pic32_data_init_clear.o)
 .debug_ranges  0x000067f0       0x10 d:/microchip/bin/bin/../../lib/gcc/pic32c/8.3.1/../../../../pic32c/lib/thumb/v7e-m+fp/hard\libpic32c.a(pic32_data_init_copy_emb.o)
 .debug_ranges  0x00006800       0x10 d:/microchip/bin/bin/../../lib/gcc/pic32c/8.3.1/../../../../pic32c/lib/thumb/v7e-m+fp/hard\libpic32c.a(pic32_data_init_copy.o)

.debug_line     0x00000000    0x43048
 .debug_line    0x00000000      0xd00 build/default/debug/_ext/1645245335/crypto.o
 .debug_line    0x00000d00     0x2367 build/default/debug/_ext/444070925/drv_ethphy.o
 .debug_line    0x00003067      0x2d1 build/default/debug/_ext/444070925/drv_extphy_ksz8081.o
 .debug_line    0x00003338     0x1f45 build/default/debug/_ext/1546807373/drv_gmac.o
 .debug_line    0x0000527d     0x187e build/default/debug/_ext/1546807373/drv_gmac_lib_samE5x.o
 .debug_line    0x00006afb      0xfce build/default/debug/_ext/992804092/drv_memory.o
 .debug_line    0x00007ac9      0x15e build/default/debug/_ext/992804092/drv_memory_file_system.o
 .debug_line    0x00007c27      0x29f build/default/debug/_ext/992804092/drv_memory_nvmctrl.o
 .debug_line    0x00007ec6     0x11fe build/default/debug/_ext/438849557/drv_miim.o
 .debug_line    0x000090c4      0xafb build/default/debug/_ext/1751889202/sys_fs_shell.o
 .debug_line    0x00009bbf      0x308 build/default/debug/_ext/1033058136/helpers.o
 .debug_line    0x00009ec7     0x3dfa build/default/debug/_ext/1033058136/snmp.o
 .debug_line    0x0000dcc1      0x967 build/default/debug/_ext/1033058136/icmp.o
 .debug_line    0x0000e628     0x472d build/default/debug/_ext/1033058136/tcp.o
 .debug_line    0x00012d55     0x19d3 build/default/debug/_ext/1033058136/arp.o
 .debug_line    0x00014728     0x229c build/default/debug/_ext/1033058136/tcpip_commands.o
 .debug_line    0x000169c4     0x1fd0 build/default/debug/_ext/1033058136/http.o
 .debug_line    0x00018994     0x21c8 build/default/debug/_ext/1033058136/iperf.o
 .debug_line    0x0001ab5c     0x18bb build/default/debug/_ext/1033058136/ipv4.o
 .debug_line    0x0001c417      0x19c build/default/debug/_ext/1033058136/tcpip_heap_alloc.o
 .debug_line    0x0001c5b3      0x7f1 build/default/debug/_ext/1033058136/tcpip_heap_internal.o
 .debug_line    0x0001cda4     0x25cb build/default/debug/_ext/1033058136/dhcp.o
 .debug_line    0x0001f36f     0x1ddc build/default/debug/_ext/1033058136/dns.o
 .debug_line    0x0002114b      0x124 build/default/debug/_ext/1033058136/hash_fnv.o
 .debug_line    0x0002126f      0x3c5 build/default/debug/_ext/1033058136/oahash.o
 .debug_line    0x00021634     0x1e89 build/default/debug/_ext/1033058136/tcpip_helpers.o
 .debug_line    0x000234bd     0x38b8 build/default/debug/_ext/1033058136/tcpip_manager.o
 .debug_line    0x00026d75      0x2e9 build/default/debug/_ext/1033058136/tcpip_notify.o
 .debug_line    0x0002705e      0x77a build/default/debug/_ext/1033058136/tcpip_packet.o
 .debug_line    0x000277d8     0x2a29 build/default/debug/_ext/1033058136/udp.o
 .debug_line    0x0002a201      0x3fe build/default/debug/_ext/1529399856/osal_freertos.o
 .debug_line    0x0002a5ff      0x251 build/default/debug/_ext/1984496892/plib_clock.o
 .debug_line    0x0002a850       0x66 build/default/debug/_ext/1986646378/plib_evsys.o
 .debug_line    0x0002a8b6      0x3ff build/default/debug/_ext/1865468468/plib_nvic.o
 .debug_line    0x0002acb5      0x5a0 build/default/debug/_ext/1593096446/plib_nvmctrl.o
 .debug_line    0x0002b255      0x348 build/default/debug/_ext/1865521619/plib_port.o
 .debug_line    0x0002b59d      0xb6f build/default/debug/_ext/504274921/plib_sercom1_usart.o
 .debug_line    0x0002c10c      0x325 build/default/debug/_ext/829342655/plib_tc0.o
 .debug_line    0x0002c431      0xf6e build/default/debug/_ext/1376093119/sys_command.o
 .debug_line    0x0002d39f      0x484 build/default/debug/_ext/1832805299/sys_console_uart.o
 .debug_line    0x0002d823      0x61c build/default/debug/_ext/1832805299/sys_console.o
 .debug_line    0x0002de3f      0x1c7 build/default/debug/_ext/944882569/sys_debug.o
 .debug_line    0x0002e006      0x9b4 build/default/debug/_ext/699575981/mpfs.o
 .debug_line    0x0002e9ba     0x191a build/default/debug/_ext/1269487135/sys_fs.o
 .debug_line    0x000302d4      0xc14 build/default/debug/_ext/1269487135/sys_fs_media_manager.o
 .debug_line    0x00030ee8      0x2a6 build/default/debug/_ext/1881668453/sys_int.o
 .debug_line    0x0003118e      0x11b build/default/debug/_ext/1000052432/sys_reset.o
 .debug_line    0x000312a9     0x119c build/default/debug/_ext/101884895/sys_time.o
 .debug_line    0x00032445      0x1b5 build/default/debug/_ext/753841488/sys_time_h2_adapter.o
 .debug_line    0x000325fa      0x1f1 build/default/debug/_ext/753841488/sys_random_h2_adapter.o
 .debug_line    0x000327eb      0x780 build/default/debug/_ext/1171490990/initialization.o
 .debug_line    0x00032f6b      0x101 build/default/debug/_ext/1171490990/interrupts.o
 .debug_line    0x0003306c       0xcc build/default/debug/_ext/1171490990/exceptions.o
 .debug_line    0x00033138      0x216 build/default/debug/_ext/1171490990/startup_xc32.o
 .debug_line    0x0003334e      0x328 build/default/debug/_ext/1171490990/tasks.o
 .debug_line    0x00033676      0x1ca build/default/debug/_ext/1171490990/freertos_hooks.o
 .debug_line    0x00033840      0x34f build/default/debug/_ext/246609638/port.o
 .debug_line    0x00033b8f      0x1c4 build/default/debug/_ext/1665200909/heap_1.o
 .debug_line    0x00033d53      0x2be build/default/debug/_ext/404212886/list.o
 .debug_line    0x00034011      0xe70 build/default/debug/_ext/404212886/queue.o
 .debug_line    0x00034e81     0x172a build/default/debug/_ext/404212886/FreeRTOS_tasks.o
 .debug_line    0x000365ab      0x15f build/default/debug/_ext/172253694/crypt_wolfcryptcb.o
 .debug_line    0x0003670a      0xeae build/default/debug/_ext/1664057780/cryptocb.o
 .debug_line    0x000375b8      0xb56 build/default/debug/_ext/1664057780/md5.o
 .debug_line    0x0003810e      0xfb9 build/default/debug/_ext/1664057780/random.o
 .debug_line    0x000390c7     0x11f5 build/default/debug/_ext/1664057780/sha256.o
 .debug_line    0x0003a2bc       0x6d build/default/debug/_ext/1360937237/main.o
 .debug_line    0x0003a329      0xe6a build/default/debug/_ext/1360937237/custom_snmp_app.o
 .debug_line    0x0003b193      0x191 build/default/debug/_ext/1360937237/app.o
 .debug_line    0x0003b324       0xcf build/default/debug/_ext/1360937237/mpfs_img2.o
 .debug_line    0x0003b3f3      0x18e build/default/debug/_ext/1360937237/http_print.o
 .debug_line    0x0003b581      0xdab build/default/debug/_ext/1360937237/custom_http_app.o
 .debug_line    0x0003c32c       0xec d:/microchip/bin/bin/../../lib/gcc/pic32c/8.3.1/../../../../pic32c/lib/thumb/v7e-m+fp/hard\libpic32c.a(data_init.o)
 .debug_line    0x0003c418      0x15d d:/microchip/bin/bin/../../lib/gcc/pic32c/8.3.1/../../../../pic32c/lib/thumb/v7e-m+fp/hard\libg-musl.a(isalnum.o)
 .debug_line    0x0003c575      0x160 d:/microchip/bin/bin/../../lib/gcc/pic32c/8.3.1/../../../../pic32c/lib/thumb/v7e-m+fp/hard\libg-musl.a(isxdigit.o)
 .debug_line    0x0003c6d5      0x15d d:/microchip/bin/bin/../../lib/gcc/pic32c/8.3.1/../../../../pic32c/lib/thumb/v7e-m+fp/hard\libg-musl.a(tolower.o)
 .debug_line    0x0003c832      0x15d d:/microchip/bin/bin/../../lib/gcc/pic32c/8.3.1/../../../../pic32c/lib/thumb/v7e-m+fp/hard\libg-musl.a(toupper.o)
 .debug_line    0x0003c98f      0x1cd d:/microchip/bin/bin/../../lib/gcc/pic32c/8.3.1/../../../../pic32c/lib/thumb/v7e-m+fp/hard\libg-musl.a(__libc_start_main.o)
 .debug_line    0x0003cb5c       0xb8 d:/microchip/bin/bin/../../lib/gcc/pic32c/8.3.1/../../../../pic32c/lib/thumb/v7e-m+fp/hard\libg-musl.a(libc.o)
 .debug_line    0x0003cc14      0x14e d:/microchip/bin/bin/../../lib/gcc/pic32c/8.3.1/../../../../pic32c/lib/thumb/v7e-m+fp/hard\libg-musl.a(calloc.o)
 .debug_line    0x0003cd62      0xaa9 d:/microchip/bin/bin/../../lib/gcc/pic32c/8.3.1/../../../../pic32c/lib/thumb/v7e-m+fp/hard\libg-musl.a(malloc.o)
 .debug_line    0x0003d80b       0xf2 d:/microchip/bin/bin/../../lib/gcc/pic32c/8.3.1/../../../../pic32c/lib/thumb/v7e-m+fp/hard\libg-musl.a(expand_heap.o)
 .debug_line    0x0003d8fd       0xf4 d:/microchip/bin/bin/../../lib/gcc/pic32c/8.3.1/../../../../pic32c/lib/thumb/v7e-m+fp/hard\libg-musl.a(rand.o)
 .debug_line    0x0003d9f1      0x22f d:/microchip/bin/bin/../../lib/gcc/pic32c/8.3.1/../../../../pic32c/lib/thumb/v7e-m+fp/hard\libg-musl.a(vsnprintf.o)
 .debug_line    0x0003dc20      0x158 d:/microchip/bin/bin/../../lib/gcc/pic32c/8.3.1/../../../../pic32c/lib/thumb/v7e-m+fp/hard\libg-musl.a(snprintf.o)
 .debug_line    0x0003dd78      0x157 d:/microchip/bin/bin/../../lib/gcc/pic32c/8.3.1/../../../../pic32c/lib/thumb/v7e-m+fp/hard\libg-musl.a(sprintf.o)
 .debug_line    0x0003decf      0x146 d:/microchip/bin/bin/../../lib/gcc/pic32c/8.3.1/../../../../pic32c/lib/thumb/v7e-m+fp/hard\libg-musl.a(vsprintf.o)
 .debug_line    0x0003e015      0x16d d:/microchip/bin/bin/../../lib/gcc/pic32c/8.3.1/../../../../pic32c/lib/thumb/v7e-m+fp/hard\libg-musl.a(atoi.o)
 .debug_line    0x0003e182      0x16d d:/microchip/bin/bin/../../lib/gcc/pic32c/8.3.1/../../../../pic32c/lib/thumb/v7e-m+fp/hard\libg-musl.a(atol.o)
 .debug_line    0x0003e2ef      0x2dd d:/microchip/bin/bin/../../lib/gcc/pic32c/8.3.1/../../../../pic32c/lib/thumb/v7e-m+fp/hard\libg-musl.a(strtol.o)
 .debug_line    0x0003e5cc       0xe2 d:/microchip/bin/bin/../../lib/gcc/pic32c/8.3.1/../../../../pic32c/lib/thumb/v7e-m+fp/hard\libg-musl.a(memcmp.o)
 .debug_line    0x0003e6ae       0xfc d:/microchip/bin/bin/../../lib/gcc/pic32c/8.3.1/../../../../pic32c/lib/thumb/v7e-m+fp/hard\libg-musl.a(memcpy.o)
 .debug_line    0x0003e7aa       0xe6 d:/microchip/bin/bin/../../lib/gcc/pic32c/8.3.1/../../../../pic32c/lib/thumb/v7e-m+fp/hard\libg-musl.a(memset.o)
 .debug_line    0x0003e890       0xe9 d:/microchip/bin/bin/../../lib/gcc/pic32c/8.3.1/../../../../pic32c/lib/thumb/v7e-m+fp/hard\libg-musl.a(strlen.o)
 .debug_line    0x0003e979      0x12e d:/microchip/bin/bin/../../lib/gcc/pic32c/8.3.1/../../../../pic32c/lib/thumb/v7e-m+fp/hard\libg-musl.a(strstr.o)
 .debug_line    0x0003eaa7       0xb5 d:/microchip/bin/bin/../../lib/gcc/pic32c/8.3.1/../../../../pic32c/lib/thumb/v7e-m+fp/hard\libg-musl.a(strchr.o)
 .debug_line    0x0003eb5c      0x18c d:/microchip/bin/bin/../../lib/gcc/pic32c/8.3.1/../../../../pic32c/lib/thumb/v7e-m+fp/hard\libg-musl.a(strchrnul.o)
 .debug_line    0x0003ece8       0xbd d:/microchip/bin/bin/../../lib/gcc/pic32c/8.3.1/../../../../pic32c/lib/thumb/v7e-m+fp/hard\libg-musl.a(strcmp.o)
 .debug_line    0x0003eda5       0xb0 d:/microchip/bin/bin/../../lib/gcc/pic32c/8.3.1/../../../../pic32c/lib/thumb/v7e-m+fp/hard\libg-musl.a(strcpy.o)
 .debug_line    0x0003ee55       0xee d:/microchip/bin/bin/../../lib/gcc/pic32c/8.3.1/../../../../pic32c/lib/thumb/v7e-m+fp/hard\libg-musl.a(strncmp.o)
 .debug_line    0x0003ef43       0xd0 d:/microchip/bin/bin/../../lib/gcc/pic32c/8.3.1/../../../../pic32c/lib/thumb/v7e-m+fp/hard\libg-musl.a(strncpy.o)
 .debug_line    0x0003f013      0x167 d:/microchip/bin/bin/../../lib/gcc/pic32c/8.3.1/../../../../pic32c/lib/thumb/v7e-m+fp/hard\libg-musl.a(strtok.o)
 .debug_line    0x0003f17a      0x101 d:/microchip/bin/bin/../../lib/gcc/pic32c/8.3.1/../../../../pic32c/lib/thumb/v7e-m+fp/hard\libg-musl.a(__environ.o)
 .debug_line    0x0003f27b       0x9d d:/microchip/bin/bin/../../lib/gcc/pic32c/8.3.1/../../../../pic32c/lib/thumb/v7e-m+fp/hard\libg-musl.a(__errno_location.o)
 .debug_line    0x0003f318      0x4a9 d:/microchip/bin/bin/../../lib/gcc/pic32c/8.3.1/../../../../pic32c/lib/thumb/v7e-m+fp/hard\libg-musl.a(intscan.o)
 .debug_line    0x0003f7c1      0x200 d:/microchip/bin/bin/../../lib/gcc/pic32c/8.3.1/../../../../pic32c/lib/thumb/v7e-m+fp/hard\libg-musl.a(shgetc.o)
 .debug_line    0x0003f9c1      0x1c7 d:/microchip/bin/bin/../../lib/gcc/pic32c/8.3.1/../../../../pic32c/lib/thumb/v7e-m+fp/hard\libg-musl.a(__uflow.o)
 .debug_line    0x0003fb88      0x1ef d:/microchip/bin/bin/../../lib/gcc/pic32c/8.3.1/../../../../pic32c/lib/thumb/v7e-m+fp/hard\libg-musl.a(vfprintf.o)
 .debug_line    0x0003fd77       0xc4 d:/microchip/bin/bin/../../lib/gcc/pic32c/8.3.1/../../../../pic32c/lib/thumb/v7e-m+fp/hard\libg-musl.a(stpcpy.o)
 .debug_line    0x0003fe3b      0x13b d:/microchip/bin/bin/../../lib/gcc/pic32c/8.3.1/../../../../pic32c/lib/thumb/v7e-m+fp/hard\libg-musl.a(stpncpy.o)
 .debug_line    0x0003ff76      0x186 d:/microchip/bin/bin/../../lib/gcc/pic32c/8.3.1/../../../../pic32c/lib/thumb/v7e-m+fp/hard\libg-musl.a(strcspn.o)
 .debug_line    0x000400fc      0x12a d:/microchip/bin/bin/../../lib/gcc/pic32c/8.3.1/../../../../pic32c/lib/thumb/v7e-m+fp/hard\libg-musl.a(strspn.o)
 .debug_line    0x00040226      0x217 d:/microchip/bin/bin/../../lib/gcc/pic32c/8.3.1/../../../../pic32c/lib/thumb/v7e-m+fp/hard\libg-musl.a(__toread.o)
 .debug_line    0x0004043d      0x16b d:/microchip/bin/bin/../../lib/gcc/pic32c/8.3.1/../../../../pic32c/lib/thumb/v7e-m+fp/hard\libg-musl.a(__pop_float.o)
 .debug_line    0x000405a8      0x206 d:/microchip/bin/bin/../../lib/gcc/pic32c/8.3.1/../../../../pic32c/lib/thumb/v7e-m+fp/hard\libg-musl.a(__pop_int.o)
 .debug_line    0x000407ae      0x1e6 d:/microchip/bin/bin/../../lib/gcc/pic32c/8.3.1/../../../../pic32c/lib/thumb/v7e-m+fp/hard\libg-musl.a(__pop_ptr.o)
 .debug_line    0x00040994      0x697 d:/microchip/bin/bin/../../lib/gcc/pic32c/8.3.1/../../../../pic32c/lib/thumb/v7e-m+fp/hard\libg-musl.a(__printf_core.o)
 .debug_line    0x0004102b      0x639 d:/microchip/bin/bin/../../lib/gcc/pic32c/8.3.1/../../../../pic32c/lib/thumb/v7e-m+fp/hard\libg-musl.a(__fmt_a.o)
 .debug_line    0x00041664      0x205 d:/microchip/bin/bin/../../lib/gcc/pic32c/8.3.1/../../../../pic32c/lib/thumb/v7e-m+fp/hard\libg-musl.a(__fmt_d.o)
 .debug_line    0x00041869      0x674 d:/microchip/bin/bin/../../lib/gcc/pic32c/8.3.1/../../../../pic32c/lib/thumb/v7e-m+fp/hard\libg-musl.a(__fmt_fp.o)
 .debug_line    0x00041edd      0x1af d:/microchip/bin/bin/../../lib/gcc/pic32c/8.3.1/../../../../pic32c/lib/thumb/v7e-m+fp/hard\libg-musl.a(__fmt_o.o)
 .debug_line    0x0004208c      0x1f4 d:/microchip/bin/bin/../../lib/gcc/pic32c/8.3.1/../../../../pic32c/lib/thumb/v7e-m+fp/hard\libg-musl.a(__fmt_s.o)
 .debug_line    0x00042280      0x18e d:/microchip/bin/bin/../../lib/gcc/pic32c/8.3.1/../../../../pic32c/lib/thumb/v7e-m+fp/hard\libg-musl.a(__fmt_u.o)
 .debug_line    0x0004240e      0x2d3 d:/microchip/bin/bin/../../lib/gcc/pic32c/8.3.1/../../../../pic32c/lib/thumb/v7e-m+fp/hard\libg-musl.a(__fmt_x.o)
 .debug_line    0x000426e1      0x1d1 d:/microchip/bin/bin/../../lib/gcc/pic32c/8.3.1/../../../../pic32c/lib/thumb/v7e-m+fp/hard\libg-musl.a(__cvt_u.o)
 .debug_line    0x000428b2       0x94 d:/microchip/bin/bin/../../lib/gcc/pic32c/8.3.1/thumb/v7e-m+fp/hard\libgcc.a(_aeabi_uldivmod.o)
 .debug_line    0x00042946      0x363 d:/microchip/bin/bin/../../lib/gcc/pic32c/8.3.1/thumb/v7e-m+fp/hard\libgcc.a(_udivmoddi4.o)
 .debug_line    0x00042ca9       0x94 d:/microchip/bin/bin/../../lib/gcc/pic32c/8.3.1/thumb/v7e-m+fp/hard\libgcc.a(_dvmd_tls.o)
 .debug_line    0x00042d3d       0xc0 d:/microchip/bin/bin/../../lib/gcc/pic32c/8.3.1/../../../../pic32c/lib/thumb/v7e-m+fp/hard\libpic32c.a(sbrk.o)
 .debug_line    0x00042dfd       0xb9 d:/microchip/bin/bin/../../lib/gcc/pic32c/8.3.1/../../../../pic32c/lib/thumb/v7e-m+fp/hard\libpic32c.a(pic32_data_init_clear.o)
 .debug_line    0x00042eb6       0xd1 d:/microchip/bin/bin/../../lib/gcc/pic32c/8.3.1/../../../../pic32c/lib/thumb/v7e-m+fp/hard\libpic32c.a(pic32_data_init_copy_emb.o)
 .debug_line    0x00042f87       0xc1 d:/microchip/bin/bin/../../lib/gcc/pic32c/8.3.1/../../../../pic32c/lib/thumb/v7e-m+fp/hard\libpic32c.a(pic32_data_init_copy.o)

.debug_str      0x00000000     0x7fc5
 .debug_str     0x00000000      0x448 build/default/debug/_ext/1645245335/crypto.o
 .debug_str     0x00000448      0x478 build/default/debug/_ext/444070925/drv_ethphy.o
 .debug_str     0x000008c0       0x1f build/default/debug/_ext/444070925/drv_extphy_ksz8081.o
 .debug_str     0x000008df      0x62e build/default/debug/_ext/1546807373/drv_gmac.o
 .debug_str     0x00000f0d      0x21e build/default/debug/_ext/1546807373/drv_gmac_lib_samE5x.o
 .debug_str     0x0000112b      0x238 build/default/debug/_ext/992804092/drv_memory.o
 .debug_str     0x00001363       0x1e build/default/debug/_ext/992804092/drv_memory_file_system.o
 .debug_str     0x00001381       0x59 build/default/debug/_ext/992804092/drv_memory_nvmctrl.o
 .debug_str     0x000013da      0x249 build/default/debug/_ext/438849557/drv_miim.o
 .debug_str     0x00001623      0x127 build/default/debug/_ext/1751889202/sys_fs_shell.o
 .debug_str     0x0000174a        0x0 build/default/debug/_ext/1033058136/helpers.o
 .debug_str     0x0000174a      0x6a2 build/default/debug/_ext/1033058136/snmp.o
 .debug_str     0x00001dec      0x31c build/default/debug/_ext/1033058136/icmp.o
 .debug_str     0x00002108      0x4ed build/default/debug/_ext/1033058136/tcp.o
 .debug_str     0x000025f5      0x4b8 build/default/debug/_ext/1033058136/arp.o
 .debug_str     0x00002aad      0x7e6 build/default/debug/_ext/1033058136/tcpip_commands.o
 .debug_str     0x00003293      0x45c build/default/debug/_ext/1033058136/http.o
 .debug_str     0x000036ef      0x514 build/default/debug/_ext/1033058136/iperf.o
 .debug_str     0x00003c03      0x583 build/default/debug/_ext/1033058136/ipv4.o
 .debug_str     0x00004186       0x56 build/default/debug/_ext/1033058136/tcpip_heap_alloc.o
 .debug_str     0x000041dc       0x79 build/default/debug/_ext/1033058136/tcpip_heap_internal.o
 .debug_str     0x00004255      0x67d build/default/debug/_ext/1033058136/dhcp.o
 .debug_str     0x000048d2      0x4d4 build/default/debug/_ext/1033058136/dns.o
 .debug_str     0x00004da6        0x0 build/default/debug/_ext/1033058136/hash_fnv.o
 .debug_str     0x00004da6        0xa build/default/debug/_ext/1033058136/oahash.o
 .debug_str     0x00004db0      0x105 build/default/debug/_ext/1033058136/tcpip_helpers.o
 .debug_str     0x00004eb5      0x58b build/default/debug/_ext/1033058136/tcpip_manager.o
 .debug_str     0x00005440      0x155 build/default/debug/_ext/1033058136/tcpip_notify.o
 .debug_str     0x00005595       0x7d build/default/debug/_ext/1033058136/tcpip_packet.o
 .debug_str     0x00005612      0x3fc build/default/debug/_ext/1033058136/udp.o
 .debug_str     0x00005a0e      0x13b build/default/debug/_ext/1529399856/osal_freertos.o
 .debug_str     0x00005b49       0x1e build/default/debug/_ext/1984496892/plib_clock.o
 .debug_str     0x00005b67        0x0 build/default/debug/_ext/1986646378/plib_evsys.o
 .debug_str     0x00005b67        0xa build/default/debug/_ext/1865468468/plib_nvic.o
 .debug_str     0x00005b71       0x20 build/default/debug/_ext/1593096446/plib_nvmctrl.o
 .debug_str     0x00005b91        0xb build/default/debug/_ext/1865521619/plib_port.o
 .debug_str     0x00005b9c      0x1c8 build/default/debug/_ext/504274921/plib_sercom1_usart.o
 .debug_str     0x00005d64       0xbb build/default/debug/_ext/829342655/plib_tc0.o
 .debug_str     0x00005e1f      0x112 build/default/debug/_ext/1376093119/sys_command.o
 .debug_str     0x00005f31       0xb3 build/default/debug/_ext/1832805299/sys_console_uart.o
 .debug_str     0x00005fe4       0x58 build/default/debug/_ext/1832805299/sys_console.o
 .debug_str     0x0000603c        0x0 build/default/debug/_ext/944882569/sys_debug.o
 .debug_str     0x0000603c       0xe0 build/default/debug/_ext/699575981/mpfs.o
 .debug_str     0x0000611c      0x178 build/default/debug/_ext/1269487135/sys_fs.o
 .debug_str     0x00006294      0x106 build/default/debug/_ext/1269487135/sys_fs_media_manager.o
 .debug_str     0x0000639a       0x32 build/default/debug/_ext/1881668453/sys_int.o
 .debug_str     0x000063cc        0x0 build/default/debug/_ext/1000052432/sys_reset.o
 .debug_str     0x000063cc      0x156 build/default/debug/_ext/101884895/sys_time.o
 .debug_str     0x00006522       0x64 build/default/debug/_ext/753841488/sys_time_h2_adapter.o
 .debug_str     0x00006586       0x49 build/default/debug/_ext/753841488/sys_random_h2_adapter.o
 .debug_str     0x000065cf      0x2be build/default/debug/_ext/1171490990/initialization.o
 .debug_str     0x0000688d        0x0 build/default/debug/_ext/1171490990/interrupts.o
 .debug_str     0x0000688d        0x0 build/default/debug/_ext/1171490990/exceptions.o
 .debug_str     0x0000688d       0x2f build/default/debug/_ext/1171490990/startup_xc32.o
 .debug_str     0x000068bc       0x7d build/default/debug/_ext/1171490990/tasks.o
 .debug_str     0x00006939       0x25 build/default/debug/_ext/1171490990/freertos_hooks.o
 .debug_str     0x0000695e       0x26 build/default/debug/_ext/246609638/port.o
 .debug_str     0x00006984       0x3c build/default/debug/_ext/1665200909/heap_1.o
 .debug_str     0x000069c0       0x2b build/default/debug/_ext/404212886/list.o
 .debug_str     0x000069eb      0x27f build/default/debug/_ext/404212886/queue.o
 .debug_str     0x00006c6a      0x275 build/default/debug/_ext/404212886/FreeRTOS_tasks.o
 .debug_str     0x00006edf       0x98 build/default/debug/_ext/172253694/crypt_wolfcryptcb.o
 .debug_str     0x00006f77       0xdd build/default/debug/_ext/1664057780/cryptocb.o
 .debug_str     0x00007054        0x0 build/default/debug/_ext/1664057780/md5.o
 .debug_str     0x00007054       0xdf build/default/debug/_ext/1664057780/random.o
 .debug_str     0x00007133       0x35 build/default/debug/_ext/1664057780/sha256.o
 .debug_str     0x00007168       0x19 build/default/debug/_ext/1360937237/main.o
 .debug_str     0x00007181      0x279 build/default/debug/_ext/1360937237/custom_snmp_app.o
 .debug_str     0x000073fa        0x0 build/default/debug/_ext/1360937237/app.o
 .debug_str     0x000073fa        0x0 build/default/debug/_ext/1360937237/mpfs_img2.o
 .debug_str     0x000073fa      0x3a9 build/default/debug/_ext/1360937237/http_print.o
 .debug_str     0x000077a3      0x56d build/default/debug/_ext/1360937237/custom_http_app.o
 .debug_str     0x00007d10        0x0 d:/microchip/bin/bin/../../lib/gcc/pic32c/8.3.1/../../../../pic32c/lib/thumb/v7e-m+fp/hard\libpic32c.a(data_init.o)
 .debug_str     0x00007d10        0x0 d:/microchip/bin/bin/../../lib/gcc/pic32c/8.3.1/../../../../pic32c/lib/thumb/v7e-m+fp/hard\libg-musl.a(isalnum.o)
 .debug_str     0x00007d10        0x0 d:/microchip/bin/bin/../../lib/gcc/pic32c/8.3.1/../../../../pic32c/lib/thumb/v7e-m+fp/hard\libg-musl.a(isxdigit.o)
 .debug_str     0x00007d10        0x0 d:/microchip/bin/bin/../../lib/gcc/pic32c/8.3.1/../../../../pic32c/lib/thumb/v7e-m+fp/hard\libg-musl.a(tolower.o)
 .debug_str     0x00007d10        0x0 d:/microchip/bin/bin/../../lib/gcc/pic32c/8.3.1/../../../../pic32c/lib/thumb/v7e-m+fp/hard\libg-musl.a(toupper.o)
 .debug_str     0x00007d10        0x0 d:/microchip/bin/bin/../../lib/gcc/pic32c/8.3.1/../../../../pic32c/lib/thumb/v7e-m+fp/hard\libg-musl.a(__libc_start_main.o)
 .debug_str     0x00007d10        0x0 d:/microchip/bin/bin/../../lib/gcc/pic32c/8.3.1/../../../../pic32c/lib/thumb/v7e-m+fp/hard\libg-musl.a(libc.o)
 .debug_str     0x00007d10        0xa d:/microchip/bin/bin/../../lib/gcc/pic32c/8.3.1/../../../../pic32c/lib/thumb/v7e-m+fp/hard\libg-musl.a(calloc.o)
 .debug_str     0x00007d1a       0x13 d:/microchip/bin/bin/../../lib/gcc/pic32c/8.3.1/../../../../pic32c/lib/thumb/v7e-m+fp/hard\libg-musl.a(malloc.o)
 .debug_str     0x00007d2d        0x0 d:/microchip/bin/bin/../../lib/gcc/pic32c/8.3.1/../../../../pic32c/lib/thumb/v7e-m+fp/hard\libg-musl.a(expand_heap.o)
 .debug_str     0x00007d2d        0x0 d:/microchip/bin/bin/../../lib/gcc/pic32c/8.3.1/../../../../pic32c/lib/thumb/v7e-m+fp/hard\libg-musl.a(rand.o)
 .debug_str     0x00007d2d        0x9 d:/microchip/bin/bin/../../lib/gcc/pic32c/8.3.1/../../../../pic32c/lib/thumb/v7e-m+fp/hard\libg-musl.a(vsnprintf.o)
 .debug_str     0x00007d36        0xa d:/microchip/bin/bin/../../lib/gcc/pic32c/8.3.1/../../../../pic32c/lib/thumb/v7e-m+fp/hard\libg-musl.a(snprintf.o)
 .debug_str     0x00007d40        0x9 d:/microchip/bin/bin/../../lib/gcc/pic32c/8.3.1/../../../../pic32c/lib/thumb/v7e-m+fp/hard\libg-musl.a(sprintf.o)
 .debug_str     0x00007d49        0xa d:/microchip/bin/bin/../../lib/gcc/pic32c/8.3.1/../../../../pic32c/lib/thumb/v7e-m+fp/hard\libg-musl.a(vsprintf.o)
 .debug_str     0x00007d53        0x0 d:/microchip/bin/bin/../../lib/gcc/pic32c/8.3.1/../../../../pic32c/lib/thumb/v7e-m+fp/hard\libg-musl.a(atoi.o)
 .debug_str     0x00007d53        0x0 d:/microchip/bin/bin/../../lib/gcc/pic32c/8.3.1/../../../../pic32c/lib/thumb/v7e-m+fp/hard\libg-musl.a(atol.o)
 .debug_str     0x00007d53        0xf d:/microchip/bin/bin/../../lib/gcc/pic32c/8.3.1/../../../../pic32c/lib/thumb/v7e-m+fp/hard\libg-musl.a(strtol.o)
 .debug_str     0x00007d62        0x0 d:/microchip/bin/bin/../../lib/gcc/pic32c/8.3.1/../../../../pic32c/lib/thumb/v7e-m+fp/hard\libg-musl.a(memcmp.o)
 .debug_str     0x00007d62        0x0 d:/microchip/bin/bin/../../lib/gcc/pic32c/8.3.1/../../../../pic32c/lib/thumb/v7e-m+fp/hard\libg-musl.a(memcpy.o)
 .debug_str     0x00007d62        0x0 d:/microchip/bin/bin/../../lib/gcc/pic32c/8.3.1/../../../../pic32c/lib/thumb/v7e-m+fp/hard\libg-musl.a(memset.o)
 .debug_str     0x00007d62        0x0 d:/microchip/bin/bin/../../lib/gcc/pic32c/8.3.1/../../../../pic32c/lib/thumb/v7e-m+fp/hard\libg-musl.a(strlen.o)
 .debug_str     0x00007d62        0x0 d:/microchip/bin/bin/../../lib/gcc/pic32c/8.3.1/../../../../pic32c/lib/thumb/v7e-m+fp/hard\libg-musl.a(strstr.o)
 .debug_str     0x00007d62        0xc d:/microchip/bin/bin/../../lib/gcc/pic32c/8.3.1/../../../../pic32c/lib/thumb/v7e-m+fp/hard\libg-musl.a(strchr.o)
 .debug_str     0x00007d6e        0x0 d:/microchip/bin/bin/../../lib/gcc/pic32c/8.3.1/../../../../pic32c/lib/thumb/v7e-m+fp/hard\libg-musl.a(strchrnul.o)
 .debug_str     0x00007d6e        0x0 d:/microchip/bin/bin/../../lib/gcc/pic32c/8.3.1/../../../../pic32c/lib/thumb/v7e-m+fp/hard\libg-musl.a(strcmp.o)
 .debug_str     0x00007d6e        0x9 d:/microchip/bin/bin/../../lib/gcc/pic32c/8.3.1/../../../../pic32c/lib/thumb/v7e-m+fp/hard\libg-musl.a(strcpy.o)
 .debug_str     0x00007d77        0x0 d:/microchip/bin/bin/../../lib/gcc/pic32c/8.3.1/../../../../pic32c/lib/thumb/v7e-m+fp/hard\libg-musl.a(strncmp.o)
 .debug_str     0x00007d77        0xa d:/microchip/bin/bin/../../lib/gcc/pic32c/8.3.1/../../../../pic32c/lib/thumb/v7e-m+fp/hard\libg-musl.a(strncpy.o)
 .debug_str     0x00007d81        0x0 d:/microchip/bin/bin/../../lib/gcc/pic32c/8.3.1/../../../../pic32c/lib/thumb/v7e-m+fp/hard\libg-musl.a(strtok.o)
 .debug_str     0x00007d81        0x0 d:/microchip/bin/bin/../../lib/gcc/pic32c/8.3.1/../../../../pic32c/lib/thumb/v7e-m+fp/hard\libg-musl.a(__environ.o)
 .debug_str     0x00007d81        0x0 d:/microchip/bin/bin/../../lib/gcc/pic32c/8.3.1/../../../../pic32c/lib/thumb/v7e-m+fp/hard\libg-musl.a(__errno_location.o)
 .debug_str     0x00007d81        0x9 d:/microchip/bin/bin/../../lib/gcc/pic32c/8.3.1/../../../../pic32c/lib/thumb/v7e-m+fp/hard\libg-musl.a(intscan.o)
 .debug_str     0x00007d8a        0x0 d:/microchip/bin/bin/../../lib/gcc/pic32c/8.3.1/../../../../pic32c/lib/thumb/v7e-m+fp/hard\libg-musl.a(shgetc.o)
 .debug_str     0x00007d8a        0x9 d:/microchip/bin/bin/../../lib/gcc/pic32c/8.3.1/../../../../pic32c/lib/thumb/v7e-m+fp/hard\libg-musl.a(__uflow.o)
 .debug_str     0x00007d93       0x1e d:/microchip/bin/bin/../../lib/gcc/pic32c/8.3.1/../../../../pic32c/lib/thumb/v7e-m+fp/hard\libg-musl.a(vfprintf.o)
 .debug_str     0x00007db1        0x0 d:/microchip/bin/bin/../../lib/gcc/pic32c/8.3.1/../../../../pic32c/lib/thumb/v7e-m+fp/hard\libg-musl.a(stpcpy.o)
 .debug_str     0x00007db1        0x0 d:/microchip/bin/bin/../../lib/gcc/pic32c/8.3.1/../../../../pic32c/lib/thumb/v7e-m+fp/hard\libg-musl.a(stpncpy.o)
 .debug_str     0x00007db1        0xc d:/microchip/bin/bin/../../lib/gcc/pic32c/8.3.1/../../../../pic32c/lib/thumb/v7e-m+fp/hard\libg-musl.a(strcspn.o)
 .debug_str     0x00007dbd        0x0 d:/microchip/bin/bin/../../lib/gcc/pic32c/8.3.1/../../../../pic32c/lib/thumb/v7e-m+fp/hard\libg-musl.a(strspn.o)
 .debug_str     0x00007dbd       0x14 d:/microchip/bin/bin/../../lib/gcc/pic32c/8.3.1/../../../../pic32c/lib/thumb/v7e-m+fp/hard\libg-musl.a(__toread.o)
 .debug_str     0x00007dd1        0x0 d:/microchip/bin/bin/../../lib/gcc/pic32c/8.3.1/../../../../pic32c/lib/thumb/v7e-m+fp/hard\libg-musl.a(__pop_float.o)
 .debug_str     0x00007dd1        0x0 d:/microchip/bin/bin/../../lib/gcc/pic32c/8.3.1/../../../../pic32c/lib/thumb/v7e-m+fp/hard\libg-musl.a(__pop_int.o)
 .debug_str     0x00007dd1        0x0 d:/microchip/bin/bin/../../lib/gcc/pic32c/8.3.1/../../../../pic32c/lib/thumb/v7e-m+fp/hard\libg-musl.a(__pop_ptr.o)
 .debug_str     0x00007dd1       0x20 d:/microchip/bin/bin/../../lib/gcc/pic32c/8.3.1/../../../../pic32c/lib/thumb/v7e-m+fp/hard\libg-musl.a(__printf_core.o)
 .debug_str     0x00007df1        0x0 d:/microchip/bin/bin/../../lib/gcc/pic32c/8.3.1/../../../../pic32c/lib/thumb/v7e-m+fp/hard\libg-musl.a(__fmt_a.o)
 .debug_str     0x00007df1        0x0 d:/microchip/bin/bin/../../lib/gcc/pic32c/8.3.1/../../../../pic32c/lib/thumb/v7e-m+fp/hard\libg-musl.a(__fmt_d.o)
 .debug_str     0x00007df1        0x0 d:/microchip/bin/bin/../../lib/gcc/pic32c/8.3.1/../../../../pic32c/lib/thumb/v7e-m+fp/hard\libg-musl.a(__fmt_fp.o)
 .debug_str     0x00007df1        0x0 d:/microchip/bin/bin/../../lib/gcc/pic32c/8.3.1/../../../../pic32c/lib/thumb/v7e-m+fp/hard\libg-musl.a(__fmt_o.o)
 .debug_str     0x00007df1        0x0 d:/microchip/bin/bin/../../lib/gcc/pic32c/8.3.1/../../../../pic32c/lib/thumb/v7e-m+fp/hard\libg-musl.a(__fmt_s.o)
 .debug_str     0x00007df1        0x0 d:/microchip/bin/bin/../../lib/gcc/pic32c/8.3.1/../../../../pic32c/lib/thumb/v7e-m+fp/hard\libg-musl.a(__fmt_u.o)
 .debug_str     0x00007df1        0x0 d:/microchip/bin/bin/../../lib/gcc/pic32c/8.3.1/../../../../pic32c/lib/thumb/v7e-m+fp/hard\libg-musl.a(__fmt_x.o)
 .debug_str     0x00007df1        0x0 d:/microchip/bin/bin/../../lib/gcc/pic32c/8.3.1/../../../../pic32c/lib/thumb/v7e-m+fp/hard\libg-musl.a(__cvt_u.o)
 .debug_str     0x00007df1       0xe8 d:/microchip/bin/bin/../../lib/gcc/pic32c/8.3.1/thumb/v7e-m+fp/hard\libgcc.a(_aeabi_uldivmod.o)
 .debug_str     0x00007ed9        0x0 d:/microchip/bin/bin/../../lib/gcc/pic32c/8.3.1/thumb/v7e-m+fp/hard\libgcc.a(_udivmoddi4.o)
 .debug_str     0x00007ed9       0xec d:/microchip/bin/bin/../../lib/gcc/pic32c/8.3.1/thumb/v7e-m+fp/hard\libgcc.a(_dvmd_tls.o)
 .debug_str     0x00007fc5        0x0 d:/microchip/bin/bin/../../lib/gcc/pic32c/8.3.1/../../../../pic32c/lib/thumb/v7e-m+fp/hard\libpic32c.a(sbrk.o)
 .debug_str     0x00007fc5        0x0 d:/microchip/bin/bin/../../lib/gcc/pic32c/8.3.1/../../../../pic32c/lib/thumb/v7e-m+fp/hard\libpic32c.a(pic32_data_init_clear.o)
 .debug_str     0x00007fc5        0x0 d:/microchip/bin/bin/../../lib/gcc/pic32c/8.3.1/../../../../pic32c/lib/thumb/v7e-m+fp/hard\libpic32c.a(pic32_data_init_copy_emb.o)
 .debug_str     0x00007fc5        0x0 d:/microchip/bin/bin/../../lib/gcc/pic32c/8.3.1/../../../../pic32c/lib/thumb/v7e-m+fp/hard\libpic32c.a(pic32_data_init_copy.o)

.debug_frame    0x00000000     0xae30
 .debug_frame   0x00000000      0x5f8 build/default/debug/_ext/1645245335/crypto.o
 .debug_frame   0x000005f8      0x6e0 build/default/debug/_ext/444070925/drv_ethphy.o
 .debug_frame   0x00000cd8       0x58 build/default/debug/_ext/444070925/drv_extphy_ksz8081.o
 .debug_frame   0x00000d30      0x690 build/default/debug/_ext/1546807373/drv_gmac.o
 .debug_frame   0x000013c0      0x3ac build/default/debug/_ext/1546807373/drv_gmac_lib_samE5x.o
 .debug_frame   0x0000176c      0x310 build/default/debug/_ext/992804092/drv_memory.o
 .debug_frame   0x00001a7c       0x28 build/default/debug/_ext/992804092/drv_memory_file_system.o
 .debug_frame   0x00001aa4       0xb0 build/default/debug/_ext/992804092/drv_memory_nvmctrl.o
 .debug_frame   0x00001b54      0x2b0 build/default/debug/_ext/438849557/drv_miim.o
 .debug_frame   0x00001e04      0x2a8 build/default/debug/_ext/1751889202/sys_fs_shell.o
 .debug_frame   0x000020ac       0xe8 build/default/debug/_ext/1033058136/helpers.o
 .debug_frame   0x00002194      0x764 build/default/debug/_ext/1033058136/snmp.o
 .debug_frame   0x000028f8      0x148 build/default/debug/_ext/1033058136/icmp.o
 .debug_frame   0x00002a40      0x7b0 build/default/debug/_ext/1033058136/tcp.o
 .debug_frame   0x000031f0      0x46c build/default/debug/_ext/1033058136/arp.o
 .debug_frame   0x0000365c      0x3e8 build/default/debug/_ext/1033058136/tcpip_commands.o
 .debug_frame   0x00003a44      0x3d8 build/default/debug/_ext/1033058136/http.o
 .debug_frame   0x00003e1c      0x27c build/default/debug/_ext/1033058136/iperf.o
 .debug_frame   0x00004098      0x344 build/default/debug/_ext/1033058136/ipv4.o
 .debug_frame   0x000043dc       0x90 build/default/debug/_ext/1033058136/tcpip_heap_alloc.o
 .debug_frame   0x0000446c      0x12c build/default/debug/_ext/1033058136/tcpip_heap_internal.o
 .debug_frame   0x00004598      0x52c build/default/debug/_ext/1033058136/dhcp.o
 .debug_frame   0x00004ac4      0x448 build/default/debug/_ext/1033058136/dns.o
 .debug_frame   0x00004f0c       0x30 build/default/debug/_ext/1033058136/hash_fnv.o
 .debug_frame   0x00004f3c       0xc0 build/default/debug/_ext/1033058136/oahash.o
 .debug_frame   0x00004ffc      0x718 build/default/debug/_ext/1033058136/tcpip_helpers.o
 .debug_frame   0x00005714      0xab0 build/default/debug/_ext/1033058136/tcpip_manager.o
 .debug_frame   0x000061c4       0xb8 build/default/debug/_ext/1033058136/tcpip_notify.o
 .debug_frame   0x0000627c      0x168 build/default/debug/_ext/1033058136/tcpip_packet.o
 .debug_frame   0x000063e4      0x658 build/default/debug/_ext/1033058136/udp.o
 .debug_frame   0x00006a3c      0x180 build/default/debug/_ext/1529399856/osal_freertos.o
 .debug_frame   0x00006bbc       0x20 build/default/debug/_ext/1984496892/plib_clock.o
 .debug_frame   0x00006bdc       0x20 build/default/debug/_ext/1986646378/plib_evsys.o
 .debug_frame   0x00006bfc       0x5c build/default/debug/_ext/1865468468/plib_nvic.o
 .debug_frame   0x00006c58      0x1d8 build/default/debug/_ext/1593096446/plib_nvmctrl.o
 .debug_frame   0x00006e30       0xcc build/default/debug/_ext/1865521619/plib_port.o
 .debug_frame   0x00006efc      0x1dc build/default/debug/_ext/504274921/plib_sercom1_usart.o
 .debug_frame   0x000070d8       0xd8 build/default/debug/_ext/829342655/plib_tc0.o
 .debug_frame   0x000071b0      0x2ec build/default/debug/_ext/1376093119/sys_command.o
 .debug_frame   0x0000749c      0x11c build/default/debug/_ext/1832805299/sys_console_uart.o
 .debug_frame   0x000075b8      0x1d0 build/default/debug/_ext/1832805299/sys_console.o
 .debug_frame   0x00007788       0x70 build/default/debug/_ext/944882569/sys_debug.o
 .debug_frame   0x000077f8      0x1d0 build/default/debug/_ext/699575981/mpfs.o
 .debug_frame   0x000079c8      0x464 build/default/debug/_ext/1269487135/sys_fs.o
 .debug_frame   0x00007e2c      0x1e4 build/default/debug/_ext/1269487135/sys_fs_media_manager.o
 .debug_frame   0x00008010       0x84 build/default/debug/_ext/1881668453/sys_int.o
 .debug_frame   0x00008094       0x20 build/default/debug/_ext/1000052432/sys_reset.o
 .debug_frame   0x000080b4      0x3f8 build/default/debug/_ext/101884895/sys_time.o
 .debug_frame   0x000084ac       0x88 build/default/debug/_ext/753841488/sys_time_h2_adapter.o
 .debug_frame   0x00008534       0xa8 build/default/debug/_ext/753841488/sys_random_h2_adapter.o
 .debug_frame   0x000085dc       0x44 build/default/debug/_ext/1171490990/initialization.o
 .debug_frame   0x00008620       0x20 build/default/debug/_ext/1171490990/interrupts.o
 .debug_frame   0x00008640       0x70 build/default/debug/_ext/1171490990/exceptions.o
 .debug_frame   0x000086b0       0x38 build/default/debug/_ext/1171490990/startup_xc32.o
 .debug_frame   0x000086e8       0xac build/default/debug/_ext/1171490990/tasks.o
 .debug_frame   0x00008794       0x6c build/default/debug/_ext/1171490990/freertos_hooks.o
 .debug_frame   0x00008800       0xe8 build/default/debug/_ext/246609638/port.o
 .debug_frame   0x000088e8       0x5c build/default/debug/_ext/1665200909/heap_1.o
 .debug_frame   0x00008944       0x6c build/default/debug/_ext/404212886/list.o
 .debug_frame   0x000089b0      0x280 build/default/debug/_ext/404212886/queue.o
 .debug_frame   0x00008c30      0x478 build/default/debug/_ext/404212886/FreeRTOS_tasks.o
 .debug_frame   0x000090a8       0x38 build/default/debug/_ext/172253694/crypt_wolfcryptcb.o
 .debug_frame   0x000090e0      0x3f8 build/default/debug/_ext/1664057780/cryptocb.o
 .debug_frame   0x000094d8      0x138 build/default/debug/_ext/1664057780/md5.o
 .debug_frame   0x00009610      0x2e8 build/default/debug/_ext/1664057780/random.o
 .debug_frame   0x000098f8      0x264 build/default/debug/_ext/1664057780/sha256.o
 .debug_frame   0x00009b5c       0x28 build/default/debug/_ext/1360937237/main.o
 .debug_frame   0x00009b84      0x1a0 build/default/debug/_ext/1360937237/custom_snmp_app.o
 .debug_frame   0x00009d24       0x30 build/default/debug/_ext/1360937237/app.o
 .debug_frame   0x00009d54       0x40 build/default/debug/_ext/1360937237/http_print.o
 .debug_frame   0x00009d94      0x3b8 build/default/debug/_ext/1360937237/custom_http_app.o
 .debug_frame   0x0000a14c       0x3c d:/microchip/bin/bin/../../lib/gcc/pic32c/8.3.1/../../../../pic32c/lib/thumb/v7e-m+fp/hard\libpic32c.a(data_init.o)
 .debug_frame   0x0000a188       0x30 d:/microchip/bin/bin/../../lib/gcc/pic32c/8.3.1/../../../../pic32c/lib/thumb/v7e-m+fp/hard\libg-musl.a(isalnum.o)
 .debug_frame   0x0000a1b8       0x30 d:/microchip/bin/bin/../../lib/gcc/pic32c/8.3.1/../../../../pic32c/lib/thumb/v7e-m+fp/hard\libg-musl.a(isxdigit.o)
 .debug_frame   0x0000a1e8       0x30 d:/microchip/bin/bin/../../lib/gcc/pic32c/8.3.1/../../../../pic32c/lib/thumb/v7e-m+fp/hard\libg-musl.a(tolower.o)
 .debug_frame   0x0000a218       0x30 d:/microchip/bin/bin/../../lib/gcc/pic32c/8.3.1/../../../../pic32c/lib/thumb/v7e-m+fp/hard\libg-musl.a(toupper.o)
 .debug_frame   0x0000a248       0x3c d:/microchip/bin/bin/../../lib/gcc/pic32c/8.3.1/../../../../pic32c/lib/thumb/v7e-m+fp/hard\libg-musl.a(__libc_start_main.o)
 .debug_frame   0x0000a284       0x20 d:/microchip/bin/bin/../../lib/gcc/pic32c/8.3.1/../../../../pic32c/lib/thumb/v7e-m+fp/hard\libg-musl.a(calloc.o)
 .debug_frame   0x0000a2a4      0x14c d:/microchip/bin/bin/../../lib/gcc/pic32c/8.3.1/../../../../pic32c/lib/thumb/v7e-m+fp/hard\libg-musl.a(malloc.o)
 .debug_frame   0x0000a3f0       0x28 d:/microchip/bin/bin/../../lib/gcc/pic32c/8.3.1/../../../../pic32c/lib/thumb/v7e-m+fp/hard\libg-musl.a(expand_heap.o)
 .debug_frame   0x0000a418       0x30 d:/microchip/bin/bin/../../lib/gcc/pic32c/8.3.1/../../../../pic32c/lib/thumb/v7e-m+fp/hard\libg-musl.a(rand.o)
 .debug_frame   0x0000a448       0x38 d:/microchip/bin/bin/../../lib/gcc/pic32c/8.3.1/../../../../pic32c/lib/thumb/v7e-m+fp/hard\libg-musl.a(vsnprintf.o)
 .debug_frame   0x0000a480       0x38 d:/microchip/bin/bin/../../lib/gcc/pic32c/8.3.1/../../../../pic32c/lib/thumb/v7e-m+fp/hard\libg-musl.a(snprintf.o)
 .debug_frame   0x0000a4b8       0x3c d:/microchip/bin/bin/../../lib/gcc/pic32c/8.3.1/../../../../pic32c/lib/thumb/v7e-m+fp/hard\libg-musl.a(sprintf.o)
 .debug_frame   0x0000a4f4       0x20 d:/microchip/bin/bin/../../lib/gcc/pic32c/8.3.1/../../../../pic32c/lib/thumb/v7e-m+fp/hard\libg-musl.a(vsprintf.o)
 .debug_frame   0x0000a514       0x28 d:/microchip/bin/bin/../../lib/gcc/pic32c/8.3.1/../../../../pic32c/lib/thumb/v7e-m+fp/hard\libg-musl.a(atoi.o)
 .debug_frame   0x0000a53c       0x28 d:/microchip/bin/bin/../../lib/gcc/pic32c/8.3.1/../../../../pic32c/lib/thumb/v7e-m+fp/hard\libg-musl.a(atol.o)
 .debug_frame   0x0000a564       0xc4 d:/microchip/bin/bin/../../lib/gcc/pic32c/8.3.1/../../../../pic32c/lib/thumb/v7e-m+fp/hard\libg-musl.a(strtol.o)
 .debug_frame   0x0000a628       0x2c d:/microchip/bin/bin/../../lib/gcc/pic32c/8.3.1/../../../../pic32c/lib/thumb/v7e-m+fp/hard\libg-musl.a(memcmp.o)
 .debug_frame   0x0000a654       0x2c d:/microchip/bin/bin/../../lib/gcc/pic32c/8.3.1/../../../../pic32c/lib/thumb/v7e-m+fp/hard\libg-musl.a(memcpy.o)
 .debug_frame   0x0000a680       0x20 d:/microchip/bin/bin/../../lib/gcc/pic32c/8.3.1/../../../../pic32c/lib/thumb/v7e-m+fp/hard\libg-musl.a(memset.o)
 .debug_frame   0x0000a6a0       0x20 d:/microchip/bin/bin/../../lib/gcc/pic32c/8.3.1/../../../../pic32c/lib/thumb/v7e-m+fp/hard\libg-musl.a(strlen.o)
 .debug_frame   0x0000a6c0       0x48 d:/microchip/bin/bin/../../lib/gcc/pic32c/8.3.1/../../../../pic32c/lib/thumb/v7e-m+fp/hard\libg-musl.a(strstr.o)
 .debug_frame   0x0000a708       0x28 d:/microchip/bin/bin/../../lib/gcc/pic32c/8.3.1/../../../../pic32c/lib/thumb/v7e-m+fp/hard\libg-musl.a(strchr.o)
 .debug_frame   0x0000a730       0x30 d:/microchip/bin/bin/../../lib/gcc/pic32c/8.3.1/../../../../pic32c/lib/thumb/v7e-m+fp/hard\libg-musl.a(strchrnul.o)
 .debug_frame   0x0000a760       0x28 d:/microchip/bin/bin/../../lib/gcc/pic32c/8.3.1/../../../../pic32c/lib/thumb/v7e-m+fp/hard\libg-musl.a(strcmp.o)
 .debug_frame   0x0000a788       0x28 d:/microchip/bin/bin/../../lib/gcc/pic32c/8.3.1/../../../../pic32c/lib/thumb/v7e-m+fp/hard\libg-musl.a(strcpy.o)
 .debug_frame   0x0000a7b0       0x2c d:/microchip/bin/bin/../../lib/gcc/pic32c/8.3.1/../../../../pic32c/lib/thumb/v7e-m+fp/hard\libg-musl.a(strncmp.o)
 .debug_frame   0x0000a7dc       0x28 d:/microchip/bin/bin/../../lib/gcc/pic32c/8.3.1/../../../../pic32c/lib/thumb/v7e-m+fp/hard\libg-musl.a(strncpy.o)
 .debug_frame   0x0000a804       0x2c d:/microchip/bin/bin/../../lib/gcc/pic32c/8.3.1/../../../../pic32c/lib/thumb/v7e-m+fp/hard\libg-musl.a(strtok.o)
 .debug_frame   0x0000a830       0x40 d:/microchip/bin/bin/../../lib/gcc/pic32c/8.3.1/../../../../pic32c/lib/thumb/v7e-m+fp/hard\libg-musl.a(intscan.o)
 .debug_frame   0x0000a870       0x44 d:/microchip/bin/bin/../../lib/gcc/pic32c/8.3.1/../../../../pic32c/lib/thumb/v7e-m+fp/hard\libg-musl.a(shgetc.o)
 .debug_frame   0x0000a8b4       0x30 d:/microchip/bin/bin/../../lib/gcc/pic32c/8.3.1/../../../../pic32c/lib/thumb/v7e-m+fp/hard\libg-musl.a(__uflow.o)
 .debug_frame   0x0000a8e4       0x3c d:/microchip/bin/bin/../../lib/gcc/pic32c/8.3.1/../../../../pic32c/lib/thumb/v7e-m+fp/hard\libg-musl.a(vfprintf.o)
 .debug_frame   0x0000a920       0x20 d:/microchip/bin/bin/../../lib/gcc/pic32c/8.3.1/../../../../pic32c/lib/thumb/v7e-m+fp/hard\libg-musl.a(stpcpy.o)
 .debug_frame   0x0000a940       0x38 d:/microchip/bin/bin/../../lib/gcc/pic32c/8.3.1/../../../../pic32c/lib/thumb/v7e-m+fp/hard\libg-musl.a(stpncpy.o)
 .debug_frame   0x0000a978       0x34 d:/microchip/bin/bin/../../lib/gcc/pic32c/8.3.1/../../../../pic32c/lib/thumb/v7e-m+fp/hard\libg-musl.a(strcspn.o)
 .debug_frame   0x0000a9ac       0x34 d:/microchip/bin/bin/../../lib/gcc/pic32c/8.3.1/../../../../pic32c/lib/thumb/v7e-m+fp/hard\libg-musl.a(strspn.o)
 .debug_frame   0x0000a9e0       0x38 d:/microchip/bin/bin/../../lib/gcc/pic32c/8.3.1/../../../../pic32c/lib/thumb/v7e-m+fp/hard\libg-musl.a(__toread.o)
 .debug_frame   0x0000aa18       0x20 d:/microchip/bin/bin/../../lib/gcc/pic32c/8.3.1/../../../../pic32c/lib/thumb/v7e-m+fp/hard\libg-musl.a(__pop_float.o)
 .debug_frame   0x0000aa38       0x28 d:/microchip/bin/bin/../../lib/gcc/pic32c/8.3.1/../../../../pic32c/lib/thumb/v7e-m+fp/hard\libg-musl.a(__pop_int.o)
 .debug_frame   0x0000aa60       0x28 d:/microchip/bin/bin/../../lib/gcc/pic32c/8.3.1/../../../../pic32c/lib/thumb/v7e-m+fp/hard\libg-musl.a(__pop_ptr.o)
 .debug_frame   0x0000aa88       0xd0 d:/microchip/bin/bin/../../lib/gcc/pic32c/8.3.1/../../../../pic32c/lib/thumb/v7e-m+fp/hard\libg-musl.a(__printf_core.o)
 .debug_frame   0x0000ab58       0x40 d:/microchip/bin/bin/../../lib/gcc/pic32c/8.3.1/../../../../pic32c/lib/thumb/v7e-m+fp/hard\libg-musl.a(__fmt_a.o)
 .debug_frame   0x0000ab98       0x3c d:/microchip/bin/bin/../../lib/gcc/pic32c/8.3.1/../../../../pic32c/lib/thumb/v7e-m+fp/hard\libg-musl.a(__fmt_d.o)
 .debug_frame   0x0000abd4       0x50 d:/microchip/bin/bin/../../lib/gcc/pic32c/8.3.1/../../../../pic32c/lib/thumb/v7e-m+fp/hard\libg-musl.a(__fmt_fp.o)
 .debug_frame   0x0000ac24       0x34 d:/microchip/bin/bin/../../lib/gcc/pic32c/8.3.1/../../../../pic32c/lib/thumb/v7e-m+fp/hard\libg-musl.a(__fmt_o.o)
 .debug_frame   0x0000ac58       0x34 d:/microchip/bin/bin/../../lib/gcc/pic32c/8.3.1/../../../../pic32c/lib/thumb/v7e-m+fp/hard\libg-musl.a(__fmt_s.o)
 .debug_frame   0x0000ac8c       0x34 d:/microchip/bin/bin/../../lib/gcc/pic32c/8.3.1/../../../../pic32c/lib/thumb/v7e-m+fp/hard\libg-musl.a(__fmt_u.o)
 .debug_frame   0x0000acc0       0x40 d:/microchip/bin/bin/../../lib/gcc/pic32c/8.3.1/../../../../pic32c/lib/thumb/v7e-m+fp/hard\libg-musl.a(__fmt_x.o)
 .debug_frame   0x0000ad00       0x38 d:/microchip/bin/bin/../../lib/gcc/pic32c/8.3.1/../../../../pic32c/lib/thumb/v7e-m+fp/hard\libg-musl.a(__cvt_u.o)
 .debug_frame   0x0000ad38       0x2c d:/microchip/bin/bin/../../lib/gcc/pic32c/8.3.1/thumb/v7e-m+fp/hard\libgcc.a(_aeabi_uldivmod.o)
 .debug_frame   0x0000ad64       0x38 d:/microchip/bin/bin/../../lib/gcc/pic32c/8.3.1/thumb/v7e-m+fp/hard\libgcc.a(_udivmoddi4.o)
 .debug_frame   0x0000ad9c       0x20 d:/microchip/bin/bin/../../lib/gcc/pic32c/8.3.1/../../../../pic32c/lib/thumb/v7e-m+fp/hard\libpic32c.a(sbrk.o)
 .debug_frame   0x0000adbc       0x20 d:/microchip/bin/bin/../../lib/gcc/pic32c/8.3.1/../../../../pic32c/lib/thumb/v7e-m+fp/hard\libpic32c.a(pic32_data_init_clear.o)
 .debug_frame   0x0000addc       0x2c d:/microchip/bin/bin/../../lib/gcc/pic32c/8.3.1/../../../../pic32c/lib/thumb/v7e-m+fp/hard\libpic32c.a(pic32_data_init_copy_emb.o)
 .debug_frame   0x0000ae08       0x28 d:/microchip/bin/bin/../../lib/gcc/pic32c/8.3.1/../../../../pic32c/lib/thumb/v7e-m+fp/hard\libpic32c.a(pic32_data_init_copy.o)

.note.GNU-stack
                0x00000000        0x0
 .note.GNU-stack
                0x00000000        0x0 d:/microchip/bin/bin/../../lib/gcc/pic32c/8.3.1/../../../../pic32c/lib/thumb/v7e-m+fp/hard\libg-musl.a(isalnum.o)
 .note.GNU-stack
                0x00000000        0x0 d:/microchip/bin/bin/../../lib/gcc/pic32c/8.3.1/../../../../pic32c/lib/thumb/v7e-m+fp/hard\libg-musl.a(isxdigit.o)
 .note.GNU-stack
                0x00000000        0x0 d:/microchip/bin/bin/../../lib/gcc/pic32c/8.3.1/../../../../pic32c/lib/thumb/v7e-m+fp/hard\libg-musl.a(tolower.o)
 .note.GNU-stack
                0x00000000        0x0 d:/microchip/bin/bin/../../lib/gcc/pic32c/8.3.1/../../../../pic32c/lib/thumb/v7e-m+fp/hard\libg-musl.a(toupper.o)
 .note.GNU-stack
                0x00000000        0x0 d:/microchip/bin/bin/../../lib/gcc/pic32c/8.3.1/../../../../pic32c/lib/thumb/v7e-m+fp/hard\libg-musl.a(__libc_start_main.o)
 .note.GNU-stack
                0x00000000        0x0 d:/microchip/bin/bin/../../lib/gcc/pic32c/8.3.1/../../../../pic32c/lib/thumb/v7e-m+fp/hard\libg-musl.a(libc.o)
 .note.GNU-stack
                0x00000000        0x0 d:/microchip/bin/bin/../../lib/gcc/pic32c/8.3.1/../../../../pic32c/lib/thumb/v7e-m+fp/hard\libg-musl.a(calloc.o)
 .note.GNU-stack
                0x00000000        0x0 d:/microchip/bin/bin/../../lib/gcc/pic32c/8.3.1/../../../../pic32c/lib/thumb/v7e-m+fp/hard\libg-musl.a(malloc.o)
 .note.GNU-stack
                0x00000000        0x0 d:/microchip/bin/bin/../../lib/gcc/pic32c/8.3.1/../../../../pic32c/lib/thumb/v7e-m+fp/hard\libg-musl.a(expand_heap.o)
 .note.GNU-stack
                0x00000000        0x0 d:/microchip/bin/bin/../../lib/gcc/pic32c/8.3.1/../../../../pic32c/lib/thumb/v7e-m+fp/hard\libg-musl.a(rand.o)
 .note.GNU-stack
                0x00000000        0x0 d:/microchip/bin/bin/../../lib/gcc/pic32c/8.3.1/../../../../pic32c/lib/thumb/v7e-m+fp/hard\libg-musl.a(vsnprintf.o)
 .note.GNU-stack
                0x00000000        0x0 d:/microchip/bin/bin/../../lib/gcc/pic32c/8.3.1/../../../../pic32c/lib/thumb/v7e-m+fp/hard\libg-musl.a(snprintf.o)
 .note.GNU-stack
                0x00000000        0x0 d:/microchip/bin/bin/../../lib/gcc/pic32c/8.3.1/../../../../pic32c/lib/thumb/v7e-m+fp/hard\libg-musl.a(sprintf.o)
 .note.GNU-stack
                0x00000000        0x0 d:/microchip/bin/bin/../../lib/gcc/pic32c/8.3.1/../../../../pic32c/lib/thumb/v7e-m+fp/hard\libg-musl.a(vsprintf.o)
 .note.GNU-stack
                0x00000000        0x0 d:/microchip/bin/bin/../../lib/gcc/pic32c/8.3.1/../../../../pic32c/lib/thumb/v7e-m+fp/hard\libg-musl.a(atoi.o)
 .note.GNU-stack
                0x00000000        0x0 d:/microchip/bin/bin/../../lib/gcc/pic32c/8.3.1/../../../../pic32c/lib/thumb/v7e-m+fp/hard\libg-musl.a(atol.o)
 .note.GNU-stack
                0x00000000        0x0 d:/microchip/bin/bin/../../lib/gcc/pic32c/8.3.1/../../../../pic32c/lib/thumb/v7e-m+fp/hard\libg-musl.a(strtol.o)
 .note.GNU-stack
                0x00000000        0x0 d:/microchip/bin/bin/../../lib/gcc/pic32c/8.3.1/../../../../pic32c/lib/thumb/v7e-m+fp/hard\libg-musl.a(memcmp.o)
 .note.GNU-stack
                0x00000000        0x0 d:/microchip/bin/bin/../../lib/gcc/pic32c/8.3.1/../../../../pic32c/lib/thumb/v7e-m+fp/hard\libg-musl.a(memcpy.o)
 .note.GNU-stack
                0x00000000        0x0 d:/microchip/bin/bin/../../lib/gcc/pic32c/8.3.1/../../../../pic32c/lib/thumb/v7e-m+fp/hard\libg-musl.a(memset.o)
 .note.GNU-stack
                0x00000000        0x0 d:/microchip/bin/bin/../../lib/gcc/pic32c/8.3.1/../../../../pic32c/lib/thumb/v7e-m+fp/hard\libg-musl.a(strlen.o)
 .note.GNU-stack
                0x00000000        0x0 d:/microchip/bin/bin/../../lib/gcc/pic32c/8.3.1/../../../../pic32c/lib/thumb/v7e-m+fp/hard\libg-musl.a(strstr.o)
 .note.GNU-stack
                0x00000000        0x0 d:/microchip/bin/bin/../../lib/gcc/pic32c/8.3.1/../../../../pic32c/lib/thumb/v7e-m+fp/hard\libg-musl.a(strchr.o)
 .note.GNU-stack
                0x00000000        0x0 d:/microchip/bin/bin/../../lib/gcc/pic32c/8.3.1/../../../../pic32c/lib/thumb/v7e-m+fp/hard\libg-musl.a(strchrnul.o)
 .note.GNU-stack
                0x00000000        0x0 d:/microchip/bin/bin/../../lib/gcc/pic32c/8.3.1/../../../../pic32c/lib/thumb/v7e-m+fp/hard\libg-musl.a(strcmp.o)
 .note.GNU-stack
                0x00000000        0x0 d:/microchip/bin/bin/../../lib/gcc/pic32c/8.3.1/../../../../pic32c/lib/thumb/v7e-m+fp/hard\libg-musl.a(strcpy.o)
 .note.GNU-stack
                0x00000000        0x0 d:/microchip/bin/bin/../../lib/gcc/pic32c/8.3.1/../../../../pic32c/lib/thumb/v7e-m+fp/hard\libg-musl.a(strncmp.o)
 .note.GNU-stack
                0x00000000        0x0 d:/microchip/bin/bin/../../lib/gcc/pic32c/8.3.1/../../../../pic32c/lib/thumb/v7e-m+fp/hard\libg-musl.a(strncpy.o)
 .note.GNU-stack
                0x00000000        0x0 d:/microchip/bin/bin/../../lib/gcc/pic32c/8.3.1/../../../../pic32c/lib/thumb/v7e-m+fp/hard\libg-musl.a(strtok.o)
 .note.GNU-stack
                0x00000000        0x0 d:/microchip/bin/bin/../../lib/gcc/pic32c/8.3.1/../../../../pic32c/lib/thumb/v7e-m+fp/hard\libg-musl.a(__environ.o)
 .note.GNU-stack
                0x00000000        0x0 d:/microchip/bin/bin/../../lib/gcc/pic32c/8.3.1/../../../../pic32c/lib/thumb/v7e-m+fp/hard\libg-musl.a(__errno_location.o)
 .note.GNU-stack
                0x00000000        0x0 d:/microchip/bin/bin/../../lib/gcc/pic32c/8.3.1/../../../../pic32c/lib/thumb/v7e-m+fp/hard\libg-musl.a(intscan.o)
 .note.GNU-stack
                0x00000000        0x0 d:/microchip/bin/bin/../../lib/gcc/pic32c/8.3.1/../../../../pic32c/lib/thumb/v7e-m+fp/hard\libg-musl.a(shgetc.o)
 .note.GNU-stack
                0x00000000        0x0 d:/microchip/bin/bin/../../lib/gcc/pic32c/8.3.1/../../../../pic32c/lib/thumb/v7e-m+fp/hard\libg-musl.a(__uflow.o)
 .note.GNU-stack
                0x00000000        0x0 d:/microchip/bin/bin/../../lib/gcc/pic32c/8.3.1/../../../../pic32c/lib/thumb/v7e-m+fp/hard\libg-musl.a(vfprintf.o)
 .note.GNU-stack
                0x00000000        0x0 d:/microchip/bin/bin/../../lib/gcc/pic32c/8.3.1/../../../../pic32c/lib/thumb/v7e-m+fp/hard\libg-musl.a(stpcpy.o)
 .note.GNU-stack
                0x00000000        0x0 d:/microchip/bin/bin/../../lib/gcc/pic32c/8.3.1/../../../../pic32c/lib/thumb/v7e-m+fp/hard\libg-musl.a(stpncpy.o)
 .note.GNU-stack
                0x00000000        0x0 d:/microchip/bin/bin/../../lib/gcc/pic32c/8.3.1/../../../../pic32c/lib/thumb/v7e-m+fp/hard\libg-musl.a(strcspn.o)
 .note.GNU-stack
                0x00000000        0x0 d:/microchip/bin/bin/../../lib/gcc/pic32c/8.3.1/../../../../pic32c/lib/thumb/v7e-m+fp/hard\libg-musl.a(strspn.o)
 .note.GNU-stack
                0x00000000        0x0 d:/microchip/bin/bin/../../lib/gcc/pic32c/8.3.1/../../../../pic32c/lib/thumb/v7e-m+fp/hard\libg-musl.a(__toread.o)
 .note.GNU-stack
                0x00000000        0x0 d:/microchip/bin/bin/../../lib/gcc/pic32c/8.3.1/../../../../pic32c/lib/thumb/v7e-m+fp/hard\libg-musl.a(__pop_float.o)
 .note.GNU-stack
                0x00000000        0x0 d:/microchip/bin/bin/../../lib/gcc/pic32c/8.3.1/../../../../pic32c/lib/thumb/v7e-m+fp/hard\libg-musl.a(__pop_int.o)
 .note.GNU-stack
                0x00000000        0x0 d:/microchip/bin/bin/../../lib/gcc/pic32c/8.3.1/../../../../pic32c/lib/thumb/v7e-m+fp/hard\libg-musl.a(__pop_ptr.o)
 .note.GNU-stack
                0x00000000        0x0 d:/microchip/bin/bin/../../lib/gcc/pic32c/8.3.1/../../../../pic32c/lib/thumb/v7e-m+fp/hard\libg-musl.a(__printf_core.o)
 .note.GNU-stack
                0x00000000        0x0 d:/microchip/bin/bin/../../lib/gcc/pic32c/8.3.1/../../../../pic32c/lib/thumb/v7e-m+fp/hard\libg-musl.a(__fmt_a.o)
 .note.GNU-stack
                0x00000000        0x0 d:/microchip/bin/bin/../../lib/gcc/pic32c/8.3.1/../../../../pic32c/lib/thumb/v7e-m+fp/hard\libg-musl.a(__fmt_d.o)
 .note.GNU-stack
                0x00000000        0x0 d:/microchip/bin/bin/../../lib/gcc/pic32c/8.3.1/../../../../pic32c/lib/thumb/v7e-m+fp/hard\libg-musl.a(__fmt_fp.o)
 .note.GNU-stack
                0x00000000        0x0 d:/microchip/bin/bin/../../lib/gcc/pic32c/8.3.1/../../../../pic32c/lib/thumb/v7e-m+fp/hard\libg-musl.a(__fmt_o.o)
 .note.GNU-stack
                0x00000000        0x0 d:/microchip/bin/bin/../../lib/gcc/pic32c/8.3.1/../../../../pic32c/lib/thumb/v7e-m+fp/hard\libg-musl.a(__fmt_s.o)
 .note.GNU-stack
                0x00000000        0x0 d:/microchip/bin/bin/../../lib/gcc/pic32c/8.3.1/../../../../pic32c/lib/thumb/v7e-m+fp/hard\libg-musl.a(__fmt_u.o)
 .note.GNU-stack
                0x00000000        0x0 d:/microchip/bin/bin/../../lib/gcc/pic32c/8.3.1/../../../../pic32c/lib/thumb/v7e-m+fp/hard\libg-musl.a(__fmt_x.o)
 .note.GNU-stack
                0x00000000        0x0 d:/microchip/bin/bin/../../lib/gcc/pic32c/8.3.1/../../../../pic32c/lib/thumb/v7e-m+fp/hard\libg-musl.a(__cvt_u.o)

__xc_reference_data
                0x00000000       0x5c
 __xc_reference_data
                0x00000000        0x4 d:/microchip/bin/bin/../../lib/gcc/pic32c/8.3.1/../../../../pic32c/lib/thumb/v7e-m+fp/hard\libg-musl.a(vfprintf.o)
                0x00000000                __vfprintf_needs_fmt
 __xc_reference_data
                0x00000004       0x58 d:/microchip/bin/bin/../../lib/gcc/pic32c/8.3.1/../../../../pic32c/lib/thumb/v7e-m+fp/hard\libg-musl.a(__io_fmt_needed.o)
                0x00000004                __io_fmt_needed

.stack          0x2002a938      0x100
 .stack         0x2002a938      0x100 stack

.bss.ucHeap%1   0x20000000     0xa000
 .bss.ucHeap    0x20000000     0xa000 build/default/debug/_ext/1665200909/heap_1.o

.bss.gDrvMemory0EraseBuffer%2
                0x2000a000     0x2000
 .bss.gDrvMemory0EraseBuffer
                0x2000a000     0x2000 build/default/debug/_ext/1171490990/initialization.o

.bss.gSYSFSFileObj%3
                0x2000c000     0x1a90
 .bss.gSYSFSFileObj
                0x2000c000     0x1a90 build/default/debug/_ext/1269487135/sys_fs.o
                0x2000c000                gSYSFSFileObj

.bss.SERCOM1_USART_ReadBuffer%4
                0x2000da90     0x1000
 .bss.SERCOM1_USART_ReadBuffer
                0x2000da90     0x1000 build/default/debug/_ext/504274921/plib_sercom1_usart.o

.bss.SERCOM1_USART_WriteBuffer%5
                0x2000ea90     0x1000
 .bss.SERCOM1_USART_WriteBuffer
                0x2000ea90     0x1000 build/default/debug/_ext/504274921/plib_sercom1_usart.o

.bss.gSYSFSMediaBlockBuffer%6
                0x2000fa90      0x800
 .bss.gSYSFSMediaBlockBuffer
                0x2000fa90      0x800 build/default/debug/_ext/1269487135/sys_fs_media_manager.o
                0x2000fa90                gSYSFSMediaBlockBuffer

.bss.icmpPingBuff%7
                0x20010290      0x7d0
 .bss.icmpPingBuff
                0x20010290      0x7d0 build/default/debug/_ext/1033058136/tcpip_commands.o

.bss.printBuff%8
                0x20010a60      0x400
 .bss.printBuff
                0x20010a60      0x400 build/default/debug/_ext/1376093119/sys_command.o

.bss.TCPIP_STACK_MODULE_SIGNAL_TBL%9
                0x20010e60      0x270
 .bss.TCPIP_STACK_MODULE_SIGNAL_TBL
                0x20010e60      0x270 build/default/debug/_ext/1033058136/tcpip_manager.o

.bss%10         0x200110d0      0x20c
 .bss           0x200110d0      0x20c d:/microchip/bin/bin/../../lib/gcc/pic32c/8.3.1/../../../../pic32c/lib/thumb/v7e-m+fp/hard\libg-musl.a(malloc.o)

.bss.gSYSFSMediaBuffer%11
                0x200112e0      0x200
 .bss.gSYSFSMediaBuffer
                0x200112e0      0x200 build/default/debug/_ext/1269487135/sys_fs_media_manager.o
                0x200112e0                gSYSFSMediaBuffer

.bss.getBuffer%12
                0x200114e0      0x1f1
 .bss.getBuffer
                0x200114e0      0x1f1 build/default/debug/_ext/1033058136/snmp.o
                0x200114e0                getBuffer

.bss.md5.14627%13
                0x200116d4      0x1b8
 .bss.md5.14627
                0x200116d4      0x1b8 build/default/debug/_ext/1360937237/custom_http_app.o

.bss.gSysMpfsFileObj%14
                0x20011890      0x190
 .bss.gSysMpfsFileObj
                0x20011890      0x190 build/default/debug/_ext/699575981/mpfs.o

.bss.gSYSFSDirObj%15
                0x20011a20      0x190
 .bss.gSYSFSDirObj
                0x20011a20      0x190 build/default/debug/_ext/1269487135/sys_fs.o
                0x20011a20                gSYSFSDirObj

.bss.sysRandCtx%16
                0x20011bb0      0x108
 .bss.sysRandCtx
                0x20011bb0      0x108 build/default/debug/_ext/753841488/sys_random_h2_adapter.o

.bss.fileName.8813%17
                0x20011cc0      0x100
 .bss.fileName.8813
                0x20011cc0      0x100 build/default/debug/_ext/699575981/mpfs.o

.bss.fileName.8922%18
                0x20011dc0      0x100
 .bss.fileName.8922
                0x20011dc0      0x100 build/default/debug/_ext/699575981/mpfs.o

.bss.gIperfState%19
                0x20011ec0       0xd8
 .bss.gIperfState
                0x20011ec0       0xd8 build/default/debug/_ext/1033058136/iperf.o

.bss.consolePrintBuffer%20
                0x20011f98       0xc8
 .bss.consolePrintBuffer
                0x20011f98       0xc8 build/default/debug/_ext/1832805299/sys_console.o

.bss.httpNetData%21
                0x20012060       0xbc
 .bss.httpNetData
                0x20012060       0xbc build/default/debug/_ext/1360937237/custom_http_app.o

.bss.gDrvMemoryObj%22
                0x2001211c       0xa8
 .bss.gDrvMemoryObj
                0x2001211c       0xa8 build/default/debug/_ext/992804092/drv_memory.o

.bss.timers%23  0x200121c4       0xa0
 .bss.timers    0x200121c4       0xa0 build/default/debug/_ext/101884895/sys_time.o

.bss.gDrvMIIMObj%24
                0x20012264       0x94
 .bss.gDrvMIIMObj
                0x20012264       0x94 build/default/debug/_ext/438849557/drv_miim.o

.bss.TCPIP_MODULES_QUEUE_TBL%25
                0x200122f8       0x90
 .bss.TCPIP_MODULES_QUEUE_TBL
                0x200122f8       0x90 build/default/debug/_ext/1033058136/tcpip_manager.o

.bss.gmac_dcpt_array%26
                0x20012388       0x80
 .bss.gmac_dcpt_array
                0x20012388       0x80 build/default/debug/_ext/1546807373/drv_gmac_lib_samE5x.o

.bss._usrCmdTbl%27
                0x20012408       0x80
 .bss._usrCmdTbl
                0x20012408       0x80 build/default/debug/_ext/1376093119/sys_command.o

.bss.gPhyDrvInst%28
                0x20012488       0x68
 .bss.gPhyDrvInst
                0x20012488       0x68 build/default/debug/_ext/444070925/drv_ethphy.o

.bss.pxReadyTasksLists%29
                0x200124f0       0x64
 .bss.pxReadyTasksLists
                0x200124f0       0x64 build/default/debug/_ext/404212886/FreeRTOS_tasks.o

.bss.gCryptoDev%30
                0x20012554       0x60
 .bss.gCryptoDev
                0x20012554       0x60 build/default/debug/_ext/1664057780/cryptocb.o

.bss%31         0x200125b4       0x50
 .bss           0x200125b4       0x50 d:/microchip/bin/bin/../../lib/gcc/pic32c/8.3.1/../../../../pic32c/lib/thumb/v7e-m+fp/hard\libg-musl.a(libc.o)
                0x200125b4                __progname_full
                0x200125b4                program_invocation_name
                0x200125b8                program_invocation_short_name
                0x200125b8                __progname
                0x200125bc                __sysinfo
                0x200125c0                __hwcap
                0x200125c4                __libc

.bss.arpMod%32  0x20012604       0x4c
 .bss.arpMod    0x20012604       0x4c build/default/debug/_ext/1033058136/arp.o

.bss.sercom1USARTObj%33
                0x20012650       0x40
 .bss.sercom1USARTObj
                0x20012650       0x40 build/default/debug/_ext/504274921/plib_sercom1_usart.o

.bss.hashBuffer.8812%34
                0x20012690       0x40
 .bss.hashBuffer.8812
                0x20012690       0x40 build/default/debug/_ext/699575981/mpfs.o

.bss.gSystemCounterObj%35
                0x200126d0       0x40
 .bss.gSystemCounterObj
                0x200126d0       0x40 build/default/debug/_ext/101884895/sys_time.o

.bss.g_bfr%36   0x20012710       0x34
 .bss.g_bfr     0x20012710       0x34 build/default/debug/_ext/1033058136/iperf.o
                0x20012710                g_bfr

.bss.gDnsDcpt%37
                0x20012744       0x28
 .bss.gDnsDcpt  0x20012744       0x28 build/default/debug/_ext/1033058136/dns.o

.bss.gSYSFSMediaObject%38
                0x2001276c       0x28
 .bss.gSYSFSMediaObject
                0x2001276c       0x28 build/default/debug/_ext/1269487135/sys_fs_media_manager.o
                0x2001276c                gSYSFSMediaObject

.bss.gSnmpDcpt%39
                0x20012794       0x20
 .bss.gSnmpDcpt
                0x20012794       0x20 build/default/debug/_ext/1033058136/snmp.o
                0x20012794                gSnmpDcpt

.bss.tcpip_stack_ctrl_data%40
                0x200127b4       0x20
 .bss.tcpip_stack_ctrl_data
                0x200127b4       0x20 build/default/debug/_ext/1033058136/tcpip_manager.o

.bss.fileRecord.8898%41
                0x200127e0       0x20
 .bss.fileRecord.8898
                0x200127e0       0x20 build/default/debug/_ext/699575981/mpfs.o

.bss.fileRecord.8921%42
                0x20012800       0x20
 .bss.fileRecord.8921
                0x20012800       0x20 build/default/debug/_ext/699575981/mpfs.o

.bss.gSysMpfsFileRecord%43
                0x20012820       0x20
 .bss.gSysMpfsFileRecord
                0x20012820       0x20 build/default/debug/_ext/699575981/mpfs.o

.bss.dnslookupTargetHost%44
                0x20012840       0x1f
 .bss.dnslookupTargetHost
                0x20012840       0x1f build/default/debug/_ext/1033058136/tcpip_commands.o

.bss.icmpTargetHost%45
                0x20012860       0x1f
 .bss.icmpTargetHost
                0x20012860       0x1f build/default/debug/_ext/1033058136/tcpip_commands.o

.bss%46         0x20012880       0x1c
 .bss           0x20012880       0x1c d:/microchip/bin/bin/../../lib/gcc/pic32c/8.3.1/thumb/v7e-m+fp/hard/crtbegin.o

.bss.gSYSFSVolumeObject%47
                0x2001289c       0x1c
 .bss.gSYSFSVolumeObject
                0x2001289c       0x1c build/default/debug/_ext/1269487135/sys_fs_media_manager.o
                0x2001289c                gSYSFSVolumeObject

.bss.icmpEchoRequest%48
                0x200128b8       0x18
 .bss.icmpEchoRequest
                0x200128b8       0x18 build/default/debug/_ext/1033058136/icmp.o

.bss.cmdTcpipInitData%49
                0x200128d0       0x18
 .bss.cmdTcpipInitData
                0x200128d0       0x18 build/default/debug/_ext/1033058136/tcpip_commands.o

.bss.tcpip_init_data%50
                0x200128e8       0x18
 .bss.tcpip_init_data
                0x200128e8       0x18 build/default/debug/_ext/1033058136/tcpip_manager.o

.bss.sysObj%51  0x20012900       0x18
 .bss.sysObj    0x20012900       0x18 build/default/debug/_ext/1171490990/initialization.o
                0x20012900                sysObj

.bss.icmpRegisteredUsers%52
                0x20012918       0x14
 .bss.icmpRegisteredUsers
                0x20012918       0x14 build/default/debug/_ext/1033058136/icmp.o

.bss.ipv4ArpQueue%53
                0x2001292c       0x14
 .bss.ipv4ArpQueue
                0x2001292c       0x14 build/default/debug/_ext/1033058136/ipv4.o

.bss.ipv4PacketFilters%54
                0x20012940       0x14
 .bss.ipv4PacketFilters
                0x20012940       0x14 build/default/debug/_ext/1033058136/ipv4.o

.bss.dhcpRegisteredUsers%55
                0x20012954       0x14
 .bss.dhcpRegisteredUsers
                0x20012954       0x14 build/default/debug/_ext/1033058136/dhcp.o

.bss.gSYSFSMountPoint%56
                0x20012968       0x14
 .bss.gSYSFSMountPoint
                0x20012968       0x14 build/default/debug/_ext/1269487135/sys_fs.o
                0x20012968                gSYSFSMountPoint

.bss.xDelayedTaskList1%57
                0x2001297c       0x14
 .bss.xDelayedTaskList1
                0x2001297c       0x14 build/default/debug/_ext/404212886/FreeRTOS_tasks.o

.bss.xDelayedTaskList2%58
                0x20012990       0x14
 .bss.xDelayedTaskList2
                0x20012990       0x14 build/default/debug/_ext/404212886/FreeRTOS_tasks.o

.bss.xPendingReadyList%59
                0x200129a4       0x14
 .bss.xPendingReadyList
                0x200129a4       0x14 build/default/debug/_ext/404212886/FreeRTOS_tasks.o

.bss.xSuspendedTaskList%60
                0x200129b8       0x14
 .bss.xSuspendedTaskList
                0x200129b8       0x14 build/default/debug/_ext/404212886/FreeRTOS_tasks.o

.bss.xTasksWaitingTermination%61
                0x200129cc       0x14
 .bss.xTasksWaitingTermination
                0x200129cc       0x14 build/default/debug/_ext/404212886/FreeRTOS_tasks.o

.bss.s_buf_ipv4addr%62
                0x200129e0       0x14
 .bss.s_buf_ipv4addr
                0x200129e0       0x14 build/default/debug/_ext/1360937237/custom_http_app.o

.bss.icmpTargetAddrStr%63
                0x200129f4       0x11
 .bss.icmpTargetAddrStr
                0x200129f4       0x11 build/default/debug/_ext/1033058136/tcpip_commands.o

.bss.tcpip_heap_config%64
                0x20012a08       0x10
 .bss.tcpip_heap_config
                0x20012a08       0x10 build/default/debug/_ext/1033058136/tcpip_manager.o

.bss.gDrvMemory0ClientObject%65
                0x20012a18       0x10
 .bss.gDrvMemory0ClientObject
                0x20012a18       0x10 build/default/debug/_ext/1171490990/initialization.o

.bss.ipv4ArpPool%66
                0x200127d4        0xc
 .bss.ipv4ArpPool
                0x200127d4        0xc build/default/debug/_ext/1033058136/ipv4.o

.bss.gConsoleUartData%67
                0x20012a28        0xc
 .bss.gConsoleUartData
                0x20012a28        0xc build/default/debug/_ext/1832805299/sys_console_uart.o

.bss.consoleDeviceInstance%68
                0x20012a34        0xc
 .bss.consoleDeviceInstance
                0x20012a34        0xc build/default/debug/_ext/1832805299/sys_console.o

.bss.snmpReqVarErrStatus%69
                0x20011cb8        0x8
 .bss.snmpReqVarErrStatus
                0x20011cb8        0x8 build/default/debug/_ext/1033058136/snmp.o

.bss.TC0_CallbackObject%70
                0x20012a40        0x8
 .bss.TC0_CallbackObject
                0x20012a40        0x8 build/default/debug/_ext/829342655/plib_tc0.o

.bss.cmdIODevList%71
                0x20012a48        0x8
 .bss.cmdIODevList
                0x20012a48        0x8 build/default/debug/_ext/1376093119/sys_command.o

.bss.gSYSFSCurrentMountPoint%72
                0x20012a50        0x8
 .bss.gSYSFSCurrentMountPoint
                0x20012a50        0x8 build/default/debug/_ext/1269487135/sys_fs.o
                0x20012a50                gSYSFSCurrentMountPoint

.bss.gSYSFSObj%73
                0x20012a58        0x8
 .bss.gSYSFSObj
                0x20012a58        0x8 build/default/debug/_ext/1269487135/sys_fs.o
                0x20012a58                gSYSFSObj

.bss.gSYSFSEventHandler%74
                0x20012a60        0x8
 .bss.gSYSFSEventHandler
                0x20012a60        0x8 build/default/debug/_ext/1269487135/sys_fs_media_manager.o

.bss.AN0String.14768%75
                0x20012a68        0x8
 .bss.AN0String.14768
                0x20012a68        0x8 build/default/debug/_ext/1360937237/custom_snmp_app.o

.bss.appData%76
                0x20012a70        0x8
 .bss.appData   0x20012a70        0x8 build/default/debug/_ext/1360937237/app.o
                0x20012a70                appData

.bss._hEventMac%77
                0x200112dc        0x4
 .bss._hEventMac
                0x200112dc        0x4 build/default/debug/_ext/1546807373/drv_gmac.o

.bss.drvGmacQueEvents%78
                0x2001188c        0x4
 .bss.drvGmacQueEvents
                0x2001188c        0x4 build/default/debug/_ext/1546807373/drv_gmac_lib_samE5x.o
                0x2001188c                drvGmacQueEvents

.bss.SnmpStackDcptMemStubPtr%79
                0x20012a78        0x4
 .bss.SnmpStackDcptMemStubPtr
                0x20012a78        0x4 build/default/debug/_ext/1033058136/snmp.o

.bss.SnmpStackMemH%80
                0x20012a7c        0x4
 .bss.SnmpStackMemH
                0x20012a7c        0x4 build/default/debug/_ext/1033058136/snmp.o

.bss.snmpFileShell%81
                0x20012a80        0x4
 .bss.snmpFileShell
                0x20012a80        0x4 build/default/debug/_ext/1033058136/snmp.o
                0x20012a80                snmpFileShell

.bss.snmpInitCount%82
                0x20012a84        0x4
 .bss.snmpInitCount
                0x20012a84        0x4 build/default/debug/_ext/1033058136/snmp.o

.bss.icmpEchoStart%83
                0x20012a88        0x4
 .bss.icmpEchoStart
                0x20012a88        0x4 build/default/debug/_ext/1033058136/icmp.o

.bss.icmpEchoTmo%84
                0x20012a8c        0x4
 .bss.icmpEchoTmo
                0x20012a8c        0x4 build/default/debug/_ext/1033058136/icmp.o

.bss.icmpInitCount%85
                0x20012a90        0x4
 .bss.icmpInitCount
                0x20012a90        0x4 build/default/debug/_ext/1033058136/icmp.o

.bss.icmpMemH%86
                0x20012a94        0x4
 .bss.icmpMemH  0x20012a94        0x4 build/default/debug/_ext/1033058136/icmp.o

.bss.pIcmpEchoRequest%87
                0x20012a98        0x4
 .bss.pIcmpEchoRequest
                0x20012a98        0x4 build/default/debug/_ext/1033058136/icmp.o

.bss.signalHandle%88
                0x20012a9c        0x4
 .bss.signalHandle
                0x20012a9c        0x4 build/default/debug/_ext/1033058136/icmp.o

.bss.TCBStubs%89
                0x20012aa0        0x4
 .bss.TCBStubs  0x20012aa0        0x4 build/default/debug/_ext/1033058136/tcp.o

.bss.TcpSockets%90
                0x20012aa4        0x4
 .bss.TcpSockets
                0x20012aa4        0x4 build/default/debug/_ext/1033058136/tcp.o

.bss.tcpHeapH%91
                0x20012aa8        0x4
 .bss.tcpHeapH  0x20012aa8        0x4 build/default/debug/_ext/1033058136/tcp.o

.bss.tcpInitCount%92
                0x20012aac        0x4
 .bss.tcpInitCount
                0x20012aac        0x4 build/default/debug/_ext/1033058136/tcp.o

.bss.tcpLockCount%93
                0x20012ab0        0x4
 .bss.tcpLockCount
                0x20012ab0        0x4 build/default/debug/_ext/1033058136/tcp.o

.bss.tcpSemaphore%94
                0x20012ab4        0x4
 .bss.tcpSemaphore
                0x20012ab4        0x4 build/default/debug/_ext/1033058136/tcp.o

.bss.tcpSignalHandle%95
                0x20012ab8        0x4
 .bss.tcpSignalHandle
                0x20012ab8        0x4 build/default/debug/_ext/1033058136/tcp.o

.bss.commandInitCount%96
                0x20012abc        0x4
 .bss.commandInitCount
                0x20012abc        0x4 build/default/debug/_ext/1033058136/tcpip_commands.o

.bss.dnsLookUpStartTick%97
                0x20012ac0        0x4
 .bss.dnsLookUpStartTick
                0x20012ac0        0x4 build/default/debug/_ext/1033058136/tcpip_commands.o

.bss.dnsLookupCmdIoParam%98
                0x20012ac4        0x4
 .bss.dnsLookupCmdIoParam
                0x20012ac4        0x4 build/default/debug/_ext/1033058136/tcpip_commands.o

.bss.icmpAckRecv%99
                0x20012ac8        0x4
 .bss.icmpAckRecv
                0x20012ac8        0x4 build/default/debug/_ext/1033058136/tcpip_commands.o

.bss.icmpCmdIoParam%100
                0x20012acc        0x4
 .bss.icmpCmdIoParam
                0x20012acc        0x4 build/default/debug/_ext/1033058136/tcpip_commands.o

.bss.icmpNetH%101
                0x20012ad0        0x4
 .bss.icmpNetH  0x20012ad0        0x4 build/default/debug/_ext/1033058136/tcpip_commands.o

.bss.icmpReqCount%102
                0x20012ad4        0x4
 .bss.icmpReqCount
                0x20012ad4        0x4 build/default/debug/_ext/1033058136/tcpip_commands.o

.bss.icmpReqDelay%103
                0x20012ad8        0x4
 .bss.icmpReqDelay
                0x20012ad8        0x4 build/default/debug/_ext/1033058136/tcpip_commands.o

.bss.icmpReqHandle%104
                0x20012adc        0x4
 .bss.icmpReqHandle
                0x20012adc        0x4 build/default/debug/_ext/1033058136/tcpip_commands.o

.bss.icmpReqNo%105
                0x20012ae0        0x4
 .bss.icmpReqNo
                0x20012ae0        0x4 build/default/debug/_ext/1033058136/tcpip_commands.o

.bss.icmpStartTick%106
                0x20012ae4        0x4
 .bss.icmpStartTick
                0x20012ae4        0x4 build/default/debug/_ext/1033058136/tcpip_commands.o
                0x20012ae4                icmpStartTick

.bss.icmpTargetAddr%107
                0x20012ae8        0x4
 .bss.icmpTargetAddr
                0x20012ae8        0x4 build/default/debug/_ext/1033058136/tcpip_commands.o

.bss.initialNetIfs%108
                0x20012aec        0x4
 .bss.initialNetIfs
                0x20012aec        0x4 build/default/debug/_ext/1033058136/tcpip_commands.o

.bss.miimAdd%109
                0x20012af0        0x4
 .bss.miimAdd   0x20012af0        0x4 build/default/debug/_ext/1033058136/tcpip_commands.o

.bss.miimCmdIoParam%110
                0x20012af4        0x4
 .bss.miimCmdIoParam
                0x20012af4        0x4 build/default/debug/_ext/1033058136/tcpip_commands.o

.bss.miimHandle%111
                0x20012af8        0x4
 .bss.miimHandle
                0x20012af8        0x4 build/default/debug/_ext/1033058136/tcpip_commands.o

.bss.miimObj%112
                0x20012afc        0x4
 .bss.miimObj   0x20012afc        0x4 build/default/debug/_ext/1033058136/tcpip_commands.o

.bss.miimOpHandle%113
                0x20012b00        0x4
 .bss.miimOpHandle
                0x20012b00        0x4 build/default/debug/_ext/1033058136/tcpip_commands.o

.bss.miimRegEnd%114
                0x20012b04        0x4
 .bss.miimRegEnd
                0x20012b04        0x4 build/default/debug/_ext/1033058136/tcpip_commands.o

.bss.miimRegIx%115
                0x20012b08        0x4
 .bss.miimRegIx
                0x20012b08        0x4 build/default/debug/_ext/1033058136/tcpip_commands.o

.bss.miimRegStart%116
                0x20012b0c        0x4
 .bss.miimRegStart
                0x20012b0c        0x4 build/default/debug/_ext/1033058136/tcpip_commands.o

.bss.pCmdTcpipInitData%117
                0x20012b10        0x4
 .bss.pCmdTcpipInitData
                0x20012b10        0x4 build/default/debug/_ext/1033058136/tcpip_commands.o

.bss.pTcpipCmdDevice%118
                0x20012b14        0x4
 .bss.pTcpipCmdDevice
                0x20012b14        0x4 build/default/debug/_ext/1033058136/tcpip_commands.o

.bss.tcpipCmdSignalHandle%119
                0x20012b18        0x4
 .bss.tcpipCmdSignalHandle
                0x20012b18        0x4 build/default/debug/_ext/1033058136/tcpip_commands.o

.bss.httpConnCtrl%120
                0x20012b1c        0x4
 .bss.httpConnCtrl
                0x20012b1c        0x4 build/default/debug/_ext/1033058136/http.o

.bss.httpConnData%121
                0x20012b20        0x4
 .bss.httpConnData
                0x20012b20        0x4 build/default/debug/_ext/1033058136/http.o

.bss.httpConnNo%122
                0x20012b24        0x4
 .bss.httpConnNo
                0x20012b24        0x4 build/default/debug/_ext/1033058136/http.o

.bss.httpFileShell%123
                0x20012b28        0x4
 .bss.httpFileShell
                0x20012b28        0x4 build/default/debug/_ext/1033058136/http.o

.bss.httpInitCount%124
                0x20012b2c        0x4
 .bss.httpInitCount
                0x20012b2c        0x4 build/default/debug/_ext/1033058136/http.o

.bss.httpSignalHandle%125
                0x20012b30        0x4
 .bss.httpSignalHandle
                0x20012b30        0x4 build/default/debug/_ext/1033058136/http.o

.bss.http_free_fnc%126
                0x20012b34        0x4
 .bss.http_free_fnc
                0x20012b34        0x4 build/default/debug/_ext/1033058136/http.o

.bss.http_malloc_fnc%127
                0x20012b38        0x4
 .bss.http_malloc_fnc
                0x20012b38        0x4 build/default/debug/_ext/1033058136/http.o

.bss.iperfInitCount%128
                0x20012b3c        0x4
 .bss.iperfInitCount
                0x20012b3c        0x4 build/default/debug/_ext/1033058136/iperf.o

.bss.nIperfSessions%129
                0x20012b40        0x4
 .bss.nIperfSessions
                0x20012b40        0x4 build/default/debug/_ext/1033058136/iperf.o

.bss.ipv4ActFilterCount%130
                0x20012b44        0x4
 .bss.ipv4ActFilterCount
                0x20012b44        0x4 build/default/debug/_ext/1033058136/ipv4.o

.bss.ipv4ArpEntries%131
                0x20012b48        0x4
 .bss.ipv4ArpEntries
                0x20012b48        0x4 build/default/debug/_ext/1033058136/ipv4.o

.bss.ipv4ArpHandle%132
                0x20012b4c        0x4
 .bss.ipv4ArpHandle
                0x20012b4c        0x4 build/default/debug/_ext/1033058136/ipv4.o

.bss.ipv4MemH%133
                0x20012b50        0x4
 .bss.ipv4MemH  0x20012b50        0x4 build/default/debug/_ext/1033058136/ipv4.o

.bss.signalHandle%134
                0x20012b54        0x4
 .bss.signalHandle
                0x20012b54        0x4 build/default/debug/_ext/1033058136/ipv4.o

.bss.DHCPClients%135
                0x20012b58        0x4
 .bss.DHCPClients
                0x20012b58        0x4 build/default/debug/_ext/1033058136/dhcp.o

.bss.dhcpInitCount%136
                0x20012b5c        0x4
 .bss.dhcpInitCount
                0x20012b5c        0x4 build/default/debug/_ext/1033058136/dhcp.o

.bss.dhcpInterfaces%137
                0x20012b60        0x4
 .bss.dhcpInterfaces
                0x20012b60        0x4 build/default/debug/_ext/1033058136/dhcp.o

.bss.dhcpMemH%138
                0x20012b64        0x4
 .bss.dhcpMemH  0x20012b64        0x4 build/default/debug/_ext/1033058136/dhcp.o

.bss.dhcpSecondCount%139
                0x20012b68        0x4
 .bss.dhcpSecondCount
                0x20012b68        0x4 build/default/debug/_ext/1033058136/dhcp.o

.bss.dhcpSignalHandle%140
                0x20012b6c        0x4
 .bss.dhcpSignalHandle
                0x20012b6c        0x4 build/default/debug/_ext/1033058136/dhcp.o

.bss.dnsInitCount%141
                0x20012b70        0x4
 .bss.dnsInitCount
                0x20012b70        0x4 build/default/debug/_ext/1033058136/dns.o

.bss.pgDnsDcpt%142
                0x20012b74        0x4
 .bss.pgDnsDcpt
                0x20012b74        0x4 build/default/debug/_ext/1033058136/dns.o

.bss.newTcpipErrorEventCnt%143
                0x20012b78        0x4
 .bss.newTcpipErrorEventCnt
                0x20012b78        0x4 build/default/debug/_ext/1033058136/tcpip_manager.o

.bss.newTcpipStackEventCnt%144
                0x20012b7c        0x4
 .bss.newTcpipStackEventCnt
                0x20012b7c        0x4 build/default/debug/_ext/1033058136/tcpip_manager.o

.bss.newTcpipTickAvlbl%145
                0x20012b80        0x4
 .bss.newTcpipTickAvlbl
                0x20012b80        0x4 build/default/debug/_ext/1033058136/tcpip_manager.o

.bss.stackAsyncSignalCount%146
                0x20012b84        0x4
 .bss.stackAsyncSignalCount
                0x20012b84        0x4 build/default/debug/_ext/1033058136/tcpip_manager.o

.bss.stackTaskRate%147
                0x20012b88        0x4
 .bss.stackTaskRate
                0x20012b88        0x4 build/default/debug/_ext/1033058136/tcpip_manager.o

.bss.tcpipDefIf%148
                0x20012b8c        0x4
 .bss.tcpipDefIf
                0x20012b8c        0x4 build/default/debug/_ext/1033058136/tcpip_manager.o

.bss.tcpipNetIf%149
                0x20012b90        0x4
 .bss.tcpipNetIf
                0x20012b90        0x4 build/default/debug/_ext/1033058136/tcpip_manager.o

.bss.tcpip_stack_init_cb%150
                0x20012b94        0x4
 .bss.tcpip_stack_init_cb
                0x20012b94        0x4 build/default/debug/_ext/1033058136/tcpip_manager.o

.bss.totTcpipEventsCnt%151
                0x20012b98        0x4
 .bss.totTcpipEventsCnt
                0x20012b98        0x4 build/default/debug/_ext/1033058136/tcpip_manager.o

.bss.pktMemH%152
                0x20012b9c        0x4
 .bss.pktMemH   0x20012b9c        0x4 build/default/debug/_ext/1033058136/tcpip_packet.o

.bss.UDPSocketDcpt%153
                0x20012ba0        0x4
 .bss.UDPSocketDcpt
                0x20012ba0        0x4 build/default/debug/_ext/1033058136/udp.o

.bss.nUdpSockets%154
                0x20012ba4        0x4
 .bss.nUdpSockets
                0x20012ba4        0x4 build/default/debug/_ext/1033058136/udp.o

.bss.signalHandle%155
                0x20012ba8        0x4
 .bss.signalHandle
                0x20012ba8        0x4 build/default/debug/_ext/1033058136/udp.o

.bss.udpInitCount%156
                0x20012bac        0x4
 .bss.udpInitCount
                0x20012bac        0x4 build/default/debug/_ext/1033058136/udp.o

.bss.udpMemH%157
                0x20012bb0        0x4
 .bss.udpMemH   0x20012bb0        0x4 build/default/debug/_ext/1033058136/udp.o

.bss.userSem%158
                0x20012bb4        0x4
 .bss.userSem   0x20012bb4        0x4 build/default/debug/_ext/1033058136/udp.o

.bss._cmdInitData%159
                0x20012bb8        0x4
 .bss._cmdInitData
                0x20012bb8        0x4 build/default/debug/_ext/1376093119/sys_command.o

.bss.printBuffPtr%160
                0x20012bbc        0x4
 .bss.printBuffPtr
                0x20012bbc        0x4 build/default/debug/_ext/1376093119/sys_command.o

.bss.consolePrintBufferMutex%161
                0x20012bc0        0x4
 .bss.consolePrintBufferMutex
                0x20012bc0        0x4 build/default/debug/_ext/1832805299/sys_console.o

.bss.sysDebugInstance%162
                0x20012bc4        0x4
 .bss.sysDebugInstance
                0x20012bc4        0x4 build/default/debug/_ext/944882569/sys_debug.o

.bss.gSysFsMutex%163
                0x20012bc8        0x4
 .bss.gSysFsMutex
                0x20012bc8        0x4 build/default/debug/_ext/1269487135/sys_fs.o
                0x20012bc8                gSysFsMutex

.bss.gTickConv%164
                0x20012bcc        0x4
 .bss.gTickConv
                0x20012bcc        0x4 build/default/debug/_ext/753841488/sys_time_h2_adapter.o

.bss.systemAdaptObj%165
                0x20012bd0        0x4
 .bss.systemAdaptObj
                0x20012bd0        0x4 build/default/debug/_ext/753841488/sys_time_h2_adapter.o

.bss.pRandCtx%166
                0x20012bd4        0x4
 .bss.pRandCtx  0x20012bd4        0x4 build/default/debug/_ext/753841488/sys_random_h2_adapter.o

.bss.sysCmdInit%167
                0x20012bd8        0x4
 .bss.sysCmdInit
                0x20012bd8        0x4 build/default/debug/_ext/1171490990/initialization.o
                0x20012bd8                sysCmdInit

.bss.xAPP_Tasks%168
                0x20012bdc        0x4
 .bss.xAPP_Tasks
                0x20012bdc        0x4 build/default/debug/_ext/1171490990/tasks.o
                0x20012bdc                xAPP_Tasks

.bss.pucAlignedHeap.6164%169
                0x20012be0        0x4
 .bss.pucAlignedHeap.6164
                0x20012be0        0x4 build/default/debug/_ext/1665200909/heap_1.o

.bss.xNextFreeByte%170
                0x20012be4        0x4
 .bss.xNextFreeByte
                0x20012be4        0x4 build/default/debug/_ext/1665200909/heap_1.o

.bss.pxCurrentTCB%171
                0x20012be8        0x4
 .bss.pxCurrentTCB
                0x20012be8        0x4 build/default/debug/_ext/404212886/FreeRTOS_tasks.o
                0x20012be8                pxCurrentTCB

.bss.pxDelayedTaskList%172
                0x20012bec        0x4
 .bss.pxDelayedTaskList
                0x20012bec        0x4 build/default/debug/_ext/404212886/FreeRTOS_tasks.o

.bss.pxOverflowDelayedTaskList%173
                0x20012bf0        0x4
 .bss.pxOverflowDelayedTaskList
                0x20012bf0        0x4 build/default/debug/_ext/404212886/FreeRTOS_tasks.o

.bss.uxCurrentNumberOfTasks%174
                0x20012bf4        0x4
 .bss.uxCurrentNumberOfTasks
                0x20012bf4        0x4 build/default/debug/_ext/404212886/FreeRTOS_tasks.o

.bss.uxDeletedTasksWaitingCleanUp%175
                0x20012bf8        0x4
 .bss.uxDeletedTasksWaitingCleanUp
                0x20012bf8        0x4 build/default/debug/_ext/404212886/FreeRTOS_tasks.o

.bss.uxSchedulerSuspended%176
                0x20012bfc        0x4
 .bss.uxSchedulerSuspended
                0x20012bfc        0x4 build/default/debug/_ext/404212886/FreeRTOS_tasks.o

.bss.uxTaskNumber%177
                0x20012c00        0x4
 .bss.uxTaskNumber
                0x20012c00        0x4 build/default/debug/_ext/404212886/FreeRTOS_tasks.o

.bss.uxTopReadyPriority%178
                0x20012c04        0x4
 .bss.uxTopReadyPriority
                0x20012c04        0x4 build/default/debug/_ext/404212886/FreeRTOS_tasks.o

.bss.xIdleTaskHandle%179
                0x20012c08        0x4
 .bss.xIdleTaskHandle
                0x20012c08        0x4 build/default/debug/_ext/404212886/FreeRTOS_tasks.o

.bss.xNextTaskUnblockTime%180
                0x20012c0c        0x4
 .bss.xNextTaskUnblockTime
                0x20012c0c        0x4 build/default/debug/_ext/404212886/FreeRTOS_tasks.o

.bss.xNumOfOverflows%181
                0x20012c10        0x4
 .bss.xNumOfOverflows
                0x20012c10        0x4 build/default/debug/_ext/404212886/FreeRTOS_tasks.o

.bss.xPendedTicks%182
                0x20012c14        0x4
 .bss.xPendedTicks
                0x20012c14        0x4 build/default/debug/_ext/404212886/FreeRTOS_tasks.o

.bss.xSchedulerRunning%183
                0x20012c18        0x4
 .bss.xSchedulerRunning
                0x20012c18        0x4 build/default/debug/_ext/404212886/FreeRTOS_tasks.o

.bss.xTickCount%184
                0x20012c1c        0x4
 .bss.xTickCount
                0x20012c1c        0x4 build/default/debug/_ext/404212886/FreeRTOS_tasks.o

.bss.xYieldPending%185
                0x20012c20        0x4
 .bss.xYieldPending
                0x20012c20        0x4 build/default/debug/_ext/404212886/FreeRTOS_tasks.o

.bss%186        0x20012c24        0x4
 .bss           0x20012c24        0x4 d:/microchip/bin/bin/../../lib/gcc/pic32c/8.3.1/../../../../pic32c/lib/thumb/v7e-m+fp/hard\libpic32c.a(data_init.o)

.bss%187        0x20012c28        0x4
 .bss           0x20012c28        0x4 d:/microchip/bin/bin/../../lib/gcc/pic32c/8.3.1/../../../../pic32c/lib/thumb/v7e-m+fp/hard\libg-musl.a(rand.o)

.bss%188        0x20012c2c        0x4
 .bss           0x20012c2c        0x4 d:/microchip/bin/bin/../../lib/gcc/pic32c/8.3.1/../../../../pic32c/lib/thumb/v7e-m+fp/hard\libg-musl.a(strtok.o)

.bss%189        0x20012c30        0x4
 .bss           0x20012c30        0x4 d:/microchip/bin/bin/../../lib/gcc/pic32c/8.3.1/../../../../pic32c/lib/thumb/v7e-m+fp/hard\libg-musl.a(__environ.o)
                0x20012c30                __environ
                0x20012c30                environ
                0x20012c30                ___environ
                0x20012c30                _environ

.bss%190        0x20012c34        0x4
 .bss           0x20012c34        0x4 d:/microchip/bin/bin/../../lib/gcc/pic32c/8.3.1/../../../../pic32c/lib/thumb/v7e-m+fp/hard\libg-musl.a(__errno_location.o)
                0x20012c34                __errno_val

.bss%191        0x20012c38        0x4
 .bss           0x20012c38        0x4 d:/microchip/bin/bin/../../lib/gcc/pic32c/8.3.1/../../../../pic32c/lib/thumb/v7e-m+fp/hard\libpic32c.a(sbrk.o)

.bss.MPFS_VolToPart%192
                0x20012c3c        0x2
 .bss.MPFS_VolToPart
                0x20012c3c        0x2 build/default/debug/_ext/1269487135/sys_fs_media_manager.o
                0x20012c3c                MPFS_VolToPart

.bss.varBindLen.14751%193
                0x20012c40        0x2
 .bss.varBindLen.14751
                0x20012c40        0x2 build/default/debug/_ext/1033058136/snmp.o

.bss.SNMPTxOffset%194
                0x20012c3e        0x2
 .bss.SNMPTxOffset
                0x20012c3e        0x2 build/default/debug/_ext/1033058136/snmp.o

.bss.tcpDefRxSize%195
                0x200116d2        0x2
 .bss.tcpDefRxSize
                0x200116d2        0x2 build/default/debug/_ext/1033058136/tcp.o

.bss.tcpDefTxSize%196
                0x20012a06        0x2
 .bss.tcpDefTxSize
                0x20012a06        0x2 build/default/debug/_ext/1033058136/tcp.o

.bss.icmpIdentifier%197
                0x20012c42        0x2
 .bss.icmpIdentifier
                0x20012c42        0x2 build/default/debug/_ext/1033058136/tcpip_commands.o

.bss.icmpSequenceNo%198
                0x20012c44        0x2
 .bss.icmpSequenceNo
                0x20012c44        0x2 build/default/debug/_ext/1033058136/tcpip_commands.o

.bss.miimObjIx%199
                0x20012c46        0x2
 .bss.miimObjIx
                0x20012c46        0x2 build/default/debug/_ext/1033058136/tcpip_commands.o

.bss.miimWrData%200
                0x20012c48        0x2
 .bss.miimWrData
                0x20012c48        0x2 build/default/debug/_ext/1033058136/tcpip_commands.o

.bss.httpConnDataSize%201
                0x20012c4a        0x2
 .bss.httpConnDataSize
                0x20012c4a        0x2 build/default/debug/_ext/1033058136/http.o

.bss.ipv4Identifier%202
                0x20012c4c        0x2
 .bss.ipv4Identifier
                0x20012c4c        0x2 build/default/debug/_ext/1033058136/ipv4.o

.bss.ipv4InitCount%203
                0x20012c4e        0x2
 .bss.ipv4InitCount
                0x20012c4e        0x2 build/default/debug/_ext/1033058136/ipv4.o

.bss.dhcpClientPort%204
                0x20012c50        0x2
 .bss.dhcpClientPort
                0x20012c50        0x2 build/default/debug/_ext/1033058136/dhcp.o

.bss.dhcpClientSocket%205
                0x20012c52        0x2
 .bss.dhcpClientSocket
                0x20012c52        0x2 build/default/debug/_ext/1033058136/dhcp.o

.bss.dhcpServerPort%206
                0x20012c54        0x2
 .bss.dhcpServerPort
                0x20012c54        0x2 build/default/debug/_ext/1033058136/dhcp.o

.bss.udpDefTxSize%207
                0x20012c56        0x2
 .bss.udpDefTxSize
                0x20012c56        0x2 build/default/debug/_ext/1033058136/udp.o

.bss.nvm_error%208
                0x20012c58        0x2
 .bss.nvm_error
                0x20012c58        0x2 build/default/debug/_ext/1593096446/plib_nvmctrl.o

.bss.SNMPStatus%209
                0x20012c5c        0x1
 .bss.SNMPStatus
                0x20012c5c        0x1 build/default/debug/_ext/1033058136/snmp.o

.bss.SNMPRxOffset%210
                0x20012c5a        0x2
 .bss.SNMPRxOffset
                0x20012c5a        0x2 build/default/debug/_ext/1033058136/snmp.o

.bss.indexBytes.14832%211
                0x2001285f        0x1
 .bss.indexBytes.14832
                0x2001285f        0x1 build/default/debug/_ext/1033058136/snmp.o

.bss.indexBytes.14855%212
                0x2001287f        0x1
 .bss.indexBytes.14855
                0x2001287f        0x1 build/default/debug/_ext/1033058136/snmp.o

.bss.smSnmp.14769%213
                0x200116d1        0x1
 .bss.smSnmp.14769
                0x200116d1        0x1 build/default/debug/_ext/1033058136/snmp.o

.bss.varDataType.14831%214
                0x20012a05        0x1
 .bss.varDataType.14831
                0x20012a05        0x1 build/default/debug/_ext/1033058136/snmp.o

.bss.varDataType.14854%215
                0x20012c5d        0x1
 .bss.varDataType.14854
                0x20012c5d        0x1 build/default/debug/_ext/1033058136/snmp.o

.bss.tcpipCmdStat%216
                0x20012c5e        0x1
 .bss.tcpipCmdStat
                0x20012c5e        0x1 build/default/debug/_ext/1033058136/tcpip_commands.o

.bss.fileErr%217
                0x20012c5f        0x1
 .bss.fileErr   0x20012c5f        0x1 build/default/debug/_ext/1033058136/http.o

.bss.httpConfigFlags%218
                0x20012c60        0x1
 .bss.httpConfigFlags
                0x20012c60        0x1 build/default/debug/_ext/1033058136/http.o

.bss.iperf_async_request.14617%219
                0x20012c61        0x1
 .bss.iperf_async_request.14617
                0x20012c61        0x1 build/default/debug/_ext/1033058136/iperf.o

.bss.ipv4FilterType%220
                0x20012c62        0x1
 .bss.ipv4FilterType
                0x20012c62        0x1 build/default/debug/_ext/1033058136/ipv4.o

.bss.tcpip_stack_status%221
                0x20012c63        0x1
 .bss.tcpip_stack_status
                0x20012c63        0x1 build/default/debug/_ext/1033058136/tcpip_manager.o

.bss.error_reported.9463%222
                0x20012c64        0x1
 .bss.error_reported.9463
                0x20012c64        0x1 build/default/debug/_ext/1376093119/sys_command.o

.bss.isConsoleMutexCreated%223
                0x20012c65        0x1
 .bss.isConsoleMutexCreated
                0x20012c65        0x1 build/default/debug/_ext/1832805299/sys_console.o

.bss.gblErrLvl%224
                0x20012c66        0x1
 .bss.gblErrLvl
                0x20012c66        0x1 build/default/debug/_ext/944882569/sys_debug.o
                0x20012c66                gblErrLvl

.bss.gSysMpfsHandleToken%225
                0x20012c67        0x1
 .bss.gSysMpfsHandleToken
                0x20012c67        0x1 build/default/debug/_ext/699575981/mpfs.o
                0x20012c67                gSysMpfsHandleToken

.bss.errorValue%226
                0x20012c68        0x1
 .bss.errorValue
                0x20012c68        0x1 build/default/debug/_ext/1269487135/sys_fs.o
                0x20012c68                errorValue

.bss.lastFailure%227
                0x20012c69        0x1
 .bss.lastFailure
                0x20012c69        0x1 build/default/debug/_ext/1360937237/custom_http_app.o

.bss.lastSuccess%228
                0x20012c6a        0x1
 .bss.lastSuccess
                0x20012c6a        0x1 build/default/debug/_ext/1360937237/custom_http_app.o

.data._gmac_drv_dcpt%229
                0x20012c6c       0xf8
 .data._gmac_drv_dcpt
                0x20012c6c       0xf8 build/default/debug/_ext/1546807373/drv_gmac.o

.data.trapInfo%230
                0x20012d64       0x3c
 .data.trapInfo
                0x20012d64       0x3c build/default/debug/_ext/1360937237/custom_snmp_app.o

.data.gSnmpNonMibRecInfo%231
                0x20012da0       0x33
 .data.gSnmpNonMibRecInfo
                0x20012da0       0x33 build/default/debug/_ext/1360937237/custom_snmp_app.o

.data.gSYSFSMediaManagerObj%232
                0x20012dd4       0x18
 .data.gSYSFSMediaManagerObj
                0x20012dd4       0x18 build/default/debug/_ext/1269487135/sys_fs_media_manager.o
                0x20012dd4                gSYSFSMediaManagerObj

.data.gSysMpfsObj%233
                0x20012df0       0x14
 .data.gSysMpfsObj
                0x20012df0       0x14 build/default/debug/_ext/699575981/mpfs.o

.data.gSYSFSVolumeName%234
                0x20012e04       0x14
 .data.gSYSFSVolumeName
                0x20012e04       0x14 build/default/debug/_ext/1269487135/sys_fs_media_manager.o
                0x20012e04                gSYSFSVolumeName

.data.tcpipHeapConfig%235
                0x20012e18       0x14
 .data.tcpipHeapConfig
                0x20012e18       0x14 build/default/debug/_ext/1171490990/initialization.o
                0x20012e18                tcpipHeapConfig

.data.tcpipSNMPInitReadcommunity%236
                0x20012e2c        0xc
 .data.tcpipSNMPInitReadcommunity
                0x20012e2c        0xc build/default/debug/_ext/1171490990/initialization.o
                0x20012e2c                tcpipSNMPInitReadcommunity

.data.tcpipSNMPInitWritecommunity%237
                0x20012e38        0xc
 .data.tcpipSNMPInitWritecommunity
                0x20012e38        0xc build/default/debug/_ext/1171490990/initialization.o
                0x20012e38                tcpipSNMPInitWritecommunity

.data.arpBcastAdd%238
                0x20012e44        0x6
 .data.arpBcastAdd
                0x20012e44        0x6 build/default/debug/_ext/1033058136/arp.o

.data.snmpFileDescrptr%239
                0x20012dec        0x4
 .data.snmpFileDescrptr
                0x20012dec        0x4 build/default/debug/_ext/1033058136/snmp.o

.data.snmpMountPath%240
                0x20012e4c        0x4
 .data.snmpMountPath
                0x20012e4c        0x4 build/default/debug/_ext/1033058136/snmp.o
                0x20012e4c                snmpMountPath

.data.icmpPingSize%241
                0x20012e50        0x4
 .data.icmpPingSize
                0x20012e50        0x4 build/default/debug/_ext/1033058136/tcpip_commands.o

.data.tcpip_stack_tickH%242
                0x20012e54        0x4
 .data.tcpip_stack_tickH
                0x20012e54        0x4 build/default/debug/_ext/1033058136/tcpip_manager.o

.data.uxCriticalNesting%243
                0x20012e58        0x4
 .data.uxCriticalNesting
                0x20012e58        0x4 build/default/debug/_ext/246609638/port.o

.data.drvGmacIRQ%244
                0x20012e5c        0x2
 .data.drvGmacIRQ
                0x20012e5c        0x2 build/default/debug/_ext/1546807373/drv_gmac_lib_samE5x.o
                0x20012e5c                drvGmacIRQ

.data.gSysTimeTokenCount%245
                0x20012e4a        0x2
 .data.gSysTimeTokenCount
                0x20012e4a        0x2 build/default/debug/_ext/101884895/sys_time.o

.data.queueIndex.10255%246
                0x20012c6b        0x1
 .data.queueIndex.10255
                0x20012c6b        0x1 build/default/debug/_ext/1546807373/drv_gmac.o

.data.dnsType%247
                0x20012dd3        0x1
 .data.dnsType  0x20012dd3        0x1 build/default/debug/_ext/1033058136/tcpip_commands.o

.eh_frame%z1    0x00000000        0x0
 .eh_frame      0x00000000        0x0 d:/microchip/bin/bin/../../lib/gcc/pic32c/8.3.1/thumb/v7e-m+fp/hard/crtbegin.o

.NVM_MEDIA_DATA%248
                0x00080000    0x80000
 .NVM_MEDIA_DATA
                0x00080000    0x80000 build/default/debug/_ext/1360937237/mpfs_img2.o
                0x00080000                NVM_MEDIA_DATA

.config_00804000.__config_00804000%249
                0x00804000        0x4
 .config_00804000.__config_00804000
                0x00804000        0x4 build/default/debug/_ext/1171490990/initialization.o
                0x00804000                __config_00804000

.config_00804004.__config_00804004%250
                0x00804004        0x4
 .config_00804004.__config_00804004
                0x00804004        0x4 build/default/debug/_ext/1171490990/initialization.o
                0x00804004                __config_00804004

.config_00804008.__config_00804008%251
                0x00804008        0x4
 .config_00804008.__config_00804008
                0x00804008        0x4 build/default/debug/_ext/1171490990/initialization.o
                0x00804008                __config_00804008

.rodata%252     0x0000028c     0x1a58
 .rodata        0x0000028c     0x1a58 build/default/debug/_ext/1033058136/tcpip_commands.o

.text.TCPIP_SNMP_Task%253
                0x00001ce4     0x1208
 .text.TCPIP_SNMP_Task
                0x00001ce4     0x1208 build/default/debug/_ext/1033058136/snmp.o
                0x00001ce4                TCPIP_SNMP_Task

.text.TCPIP_HTTP_ProcessConnection%254
                0x00002eec      0xee8
 .text.TCPIP_HTTP_ProcessConnection
                0x00002eec      0xee8 build/default/debug/_ext/1033058136/http.o

.text.TCPIP_TCP_Task%255
                0x00003dd4      0xe40
 .text.TCPIP_TCP_Task
                0x00003dd4      0xe40 build/default/debug/_ext/1033058136/tcp.o
                0x00003dd4                TCPIP_TCP_Task

.text.TCPIP_IPERF_Task%256
                0x00004c14      0xd70
 .text.TCPIP_IPERF_Task
                0x00004c14      0xd70 build/default/debug/_ext/1033058136/iperf.o
                0x00004c14                TCPIP_IPERF_Task

.rodata%257     0x00005984      0xaa4
 .rodata        0x00005984      0xaa4 build/default/debug/_ext/1033058136/iperf.o

.dinit%258      0x00006428      0x9c0
 .dinit         0x00006428      0x9c0 data_init

.rodata%259     0x00006de8      0x914
 .rodata        0x00006de8      0x914 build/default/debug/_ext/1033058136/http.o

.rodata.macPIC32CHwRegDcpt%260
                0x000076fc      0x708
 .rodata.macPIC32CHwRegDcpt
                0x000076fc      0x708 build/default/debug/_ext/1546807373/drv_gmac.o

.text.Transform%261
                0x00007e04      0x6d0
 .text.Transform
                0x00007e04      0x6d0 build/default/debug/_ext/1664057780/md5.o

.text.TCPIP_STACK_Task%262
                0x000084d4      0x628
 .text.TCPIP_STACK_Task
                0x000084d4      0x628 build/default/debug/_ext/1033058136/tcpip_manager.o
                0x000084d4                TCPIP_STACK_Task

.text.CommandIperfStart%263
                0x00008afc      0x5ec
 .text.CommandIperfStart
                0x00008afc      0x5ec build/default/debug/_ext/1033058136/iperf.o

.text._TcpSend%264
                0x000090e8      0x5b0
 .text._TcpSend
                0x000090e8      0x5b0 build/default/debug/_ext/1033058136/tcp.o

.text._Command_DNS_Service%265
                0x00009698      0x520
 .text._Command_DNS_Service
                0x00009698      0x520 build/default/debug/_ext/1033058136/tcpip_commands.o

.text.TCPIP_HTTP_PostExecute%266
                0x00009bb8      0x4dc
 .text.TCPIP_HTTP_PostExecute
                0x00009bb8      0x4dc build/default/debug/_ext/1360937237/custom_http_app.o
                0x00009bb8                TCPIP_HTTP_PostExecute

.text.TCPIP_COMMAND_Task%267
                0x0000a094      0x4d4
 .text.TCPIP_COMMAND_Task
                0x0000a094      0x4d4 build/default/debug/_ext/1033058136/tcpip_commands.o
                0x0000a094                TCPIP_COMMAND_Task

.text.__fmt_fp%268
                0x0000a568      0x4c0
 .text.__fmt_fp
                0x0000a568      0x4c0 d:/microchip/bin/bin/../../lib/gcc/pic32c/8.3.1/../../../../pic32c/lib/thumb/v7e-m+fp/hard\libg-musl.a(__fmt_fp.o)
                0x0000a568                __fmt_f_needed
                0x0000a568                __fmt_fp

.text.TCPIP_DHCP_Task%269
                0x0000aa28      0x4bc
 .text.TCPIP_DHCP_Task
                0x0000aa28      0x4bc build/default/debug/_ext/1033058136/dhcp.o
                0x0000aa28                TCPIP_DHCP_Task

.text.__fmt_a%270
                0x0000aee8      0x4b8
 .text.__fmt_a  0x0000aee8      0x4b8 d:/microchip/bin/bin/../../lib/gcc/pic32c/8.3.1/../../../../pic32c/lib/thumb/v7e-m+fp/hard\libg-musl.a(__fmt_a.o)
                0x0000aee8                __fmt_a_needed
                0x0000aee8                __fmt_a

.rodata%271     0x0000b3a0      0x490
 .rodata        0x0000b3a0      0x490 build/default/debug/_ext/1033058136/tcpip_manager.o

.text.SYS_CMD_Tasks%272
                0x0000b830      0x474
 .text.SYS_CMD_Tasks
                0x0000b830      0x474 build/default/debug/_ext/1376093119/sys_command.o
                0x0000b830                SYS_CMD_Tasks

.text._TCPIP_DoInitialize%273
                0x0000bca4      0x434
 .text._TCPIP_DoInitialize
                0x0000bca4      0x434 build/default/debug/_ext/1033058136/tcpip_manager.o

.text._DNS_ProcessPacket%274
                0x0000c0d8      0x3f8
 .text._DNS_ProcessPacket
                0x0000c0d8      0x3f8 build/default/debug/_ext/1033058136/dns.o

.text.__intscan%275
                0x0000c4d0      0x3f4
 .text.__intscan
                0x0000c4d0      0x3f4 d:/microchip/bin/bin/../../lib/gcc/pic32c/8.3.1/../../../../pic32c/lib/thumb/v7e-m+fp/hard\libg-musl.a(intscan.o)
                0x0000c4d0                __intscan

.text.GenericTxStart%276
                0x0000c8c4      0x3cc
 .text.GenericTxStart
                0x0000c8c4      0x3cc build/default/debug/_ext/1033058136/iperf.o

.text.DRV_PIC32CGMAC_LibRxGetPacket%277
                0x0000cc90      0x39c
 .text.DRV_PIC32CGMAC_LibRxGetPacket
                0x0000cc90      0x39c build/default/debug/_ext/1546807373/drv_gmac_lib_samE5x.o
                0x0000cc90                DRV_PIC32CGMAC_LibRxGetPacket

.text.TCPIP_SNMP_ProcessGetBulkVar%278
                0x0000d02c      0x388
 .text.TCPIP_SNMP_ProcessGetBulkVar
                0x0000d02c      0x388 build/default/debug/_ext/1033058136/snmp.o
                0x0000d02c                TCPIP_SNMP_ProcessGetBulkVar

.text.TCPIP_SNMP_OIDFindInMgmtInfoBase%279
                0x0000d3b4      0x380
 .text.TCPIP_SNMP_OIDFindInMgmtInfoBase
                0x0000d3b4      0x380 build/default/debug/_ext/1033058136/snmp.o
                0x0000d3b4                TCPIP_SNMP_OIDFindInMgmtInfoBase

.text.TCPIP_Helper_StringToIPv6Address%280
                0x0000d734      0x33c
 .text.TCPIP_Helper_StringToIPv6Address
                0x0000d734      0x33c build/default/debug/_ext/1033058136/tcpip_helpers.o
                0x0000d734                TCPIP_Helper_StringToIPv6Address

.text.Transform_Sha256%281
                0x0000da70      0x30c
 .text.Transform_Sha256
                0x0000da70      0x30c build/default/debug/_ext/1664057780/sha256.o

.text.DRV_GMAC_Initialize%282
                0x0000dd7c      0x308
 .text.DRV_GMAC_Initialize
                0x0000dd7c      0x308 build/default/debug/_ext/1546807373/drv_gmac.o
                0x0000dd7c                DRV_GMAC_Initialize

.text.__printf_core%283
                0x0000e084      0x308
 .text.__printf_core
                0x0000e084      0x308 d:/microchip/bin/bin/../../lib/gcc/pic32c/8.3.1/../../../../pic32c/lib/thumb/v7e-m+fp/hard\libg-musl.a(__printf_core.o)
                0x0000e084                __printf_core

.text.TCPIP_TCP_FifoSizeAdjust%284
                0x0000e38c      0x2f0
 .text.TCPIP_TCP_FifoSizeAdjust
                0x0000e38c      0x2f0 build/default/debug/_ext/1033058136/tcp.o
                0x0000e38c                TCPIP_TCP_FifoSizeAdjust

.text.TCPIP_SNMP_ProcessGetNextVar%285
                0x0000e67c      0x2e8
 .text.TCPIP_SNMP_ProcessGetNextVar
                0x0000e67c      0x2e8 build/default/debug/_ext/1033058136/snmp.o
                0x0000e67c                TCPIP_SNMP_ProcessGetNextVar

.rodata%286     0x0000e964      0x2e4
 .rodata        0x0000e964      0x2e4 build/default/debug/_ext/992804092/drv_memory.o

.text.TCPIP_SNMP_ProcessSetVar%287
                0x0000ec48      0x2d0
 .text.TCPIP_SNMP_ProcessSetVar
                0x0000ec48      0x2d0 build/default/debug/_ext/1033058136/snmp.o
                0x0000ec48                TCPIP_SNMP_ProcessSetVar

.text.Hash_DRBG_Generate%288
                0x0000ef18      0x2cc
 .text.Hash_DRBG_Generate
                0x0000ef18      0x2cc build/default/debug/_ext/1664057780/random.o

.text.TCPIP_ARP_Task%289
                0x0000f1e4      0x2c4
 .text.TCPIP_ARP_Task
                0x0000f1e4      0x2c4 build/default/debug/_ext/1033058136/arp.o
                0x0000f1e4                TCPIP_ARP_Task

.text._TCP_Open%290
                0x0000f4a8      0x2c0
 .text._TCP_Open
                0x0000f4a8      0x2c0 build/default/debug/_ext/1033058136/tcp.o

.text%291       0x0000f768      0x2bc
 .text          0x0000f768      0x2bc d:/microchip/bin/bin/../../lib/gcc/pic32c/8.3.1/thumb/v7e-m+fp/hard\libgcc.a(_udivmoddi4.o)
                0x0000f768                __udivmoddi4

.text._DNS_Send_Query%292
                0x0000fa24      0x290
 .text._DNS_Send_Query
                0x0000fa24      0x290 build/default/debug/_ext/1033058136/dns.o

.rodata%293     0x0000fcb4      0x290
 .rodata        0x0000fcb4      0x290 build/default/debug/_ext/1376093119/sys_command.o

.text.SYS_FS_MEDIA_MANAGER_Tasks%294
                0x0000ff44      0x288
 .text.SYS_FS_MEDIA_MANAGER_Tasks
                0x0000ff44      0x288 build/default/debug/_ext/1269487135/sys_fs_media_manager.o
                0x0000ff44                SYS_FS_MEDIA_MANAGER_Tasks

.text._CommandDhcpOptions%295
                0x000101cc      0x26c
 .text._CommandDhcpOptions
                0x000101cc      0x26c build/default/debug/_ext/1033058136/tcpip_commands.o

.text.DRV_MEMORY_SetupXfer%296
                0x00010438      0x264
 .text.DRV_MEMORY_SetupXfer
                0x00010438      0x264 build/default/debug/_ext/992804092/drv_memory.o

.text._CommandMiim%297
                0x0001069c      0x264
 .text._CommandMiim
                0x0001069c      0x264 build/default/debug/_ext/1033058136/tcpip_commands.o

.text.ReportBW_Jitter_Loss%298
                0x00010900      0x25c
 .text.ReportBW_Jitter_Loss
                0x00010900      0x25c build/default/debug/_ext/1033058136/iperf.o

.text._CommandPing%299
                0x00010b5c      0x254
 .text._CommandPing
                0x00010b5c      0x254 build/default/debug/_ext/1033058136/tcpip_commands.o

.text.__aeabi_dadd%300
                0x00010db0      0x23e
 .text.__aeabi_dadd
                0x00010db0      0x23e d:/microchip/bin/bin/../../lib/gcc/pic32c/8.3.1/../../../../pic32c/lib/thumb/v7e-m+fp/hard\libm-fast-emfloat.a(__aeabi_dadd.o)
                0x00010db0                __aeabi_dadd

.text.TCPIP_STACK_BringNetUp%301
                0x00010ff0      0x23c
 .text.TCPIP_STACK_BringNetUp
                0x00010ff0      0x23c build/default/debug/_ext/1033058136/tcpip_manager.o

.text.TCPIP_UDP_Task%302
                0x0001122c      0x23c
 .text.TCPIP_UDP_Task
                0x0001122c      0x23c build/default/debug/_ext/1033058136/udp.o
                0x0001122c                TCPIP_UDP_Task

.text.TCPIP_IPV4_Task%303
                0x00011468      0x238
 .text.TCPIP_IPV4_Task
                0x00011468      0x238 build/default/debug/_ext/1033058136/ipv4.o
                0x00011468                TCPIP_IPV4_Task

.text.TCPIP_HTTP_Initialize%304
                0x000116a0      0x230
 .text.TCPIP_HTTP_Initialize
                0x000116a0      0x230 build/default/debug/_ext/1033058136/http.o
                0x000116a0                TCPIP_HTTP_Initialize

.text.TCPIP_TCP_ArrayFind%305
                0x000118d0      0x224
 .text.TCPIP_TCP_ArrayFind
                0x000118d0      0x224 build/default/debug/_ext/1033058136/tcp.o
                0x000118d0                TCPIP_TCP_ArrayFind

.text.TCPIP_UDP_Flush%306
                0x00011af4      0x220
 .text.TCPIP_UDP_Flush
                0x00011af4      0x220 build/default/debug/_ext/1033058136/udp.o
                0x00011af4                TCPIP_UDP_Flush

.text.__aeabi_ddiv%307
                0x00011d14      0x216
 .text.__aeabi_ddiv
                0x00011d14      0x216 d:/microchip/bin/bin/../../lib/gcc/pic32c/8.3.1/../../../../pic32c/lib/thumb/v7e-m+fp/hard\libm-fast-emfloat.a(__aeabi_ddiv.o)
                0x00011d14                __aeabi_ddiv

.text._Command_NetInfo%308
                0x00011f2c      0x210
 .text._Command_NetInfo
                0x00011f2c      0x210 build/default/debug/_ext/1033058136/tcpip_commands.o

.text.TCPIP_IPV4_PktTx%309
                0x0001213c      0x210
 .text.TCPIP_IPV4_PktTx
                0x0001213c      0x210 build/default/debug/_ext/1033058136/ipv4.o
                0x0001213c                TCPIP_IPV4_PktTx

.text.DRV_MEMORY_Open%310
                0x0001234c      0x20c
 .text.DRV_MEMORY_Open
                0x0001234c      0x20c build/default/debug/_ext/992804092/drv_memory.o
                0x0001234c                DRV_MEMORY_Open

.text.TCPIP_UDP_OptionsSet%311
                0x00012558      0x204
 .text.TCPIP_UDP_OptionsSet
                0x00012558      0x204 build/default/debug/_ext/1033058136/udp.o
                0x00012558                TCPIP_UDP_OptionsSet

.text.TCPIP_DNS_ClientInitialize%312
                0x0001275c      0x1f0
 .text.TCPIP_DNS_ClientInitialize
                0x0001275c      0x1f0 build/default/debug/_ext/1033058136/dns.o
                0x0001275c                TCPIP_DNS_ClientInitialize

.text.TCPIP_ICMP_Task%313
                0x0001294c      0x1e4
 .text.TCPIP_ICMP_Task
                0x0001294c      0x1e4 build/default/debug/_ext/1033058136/icmp.o
                0x0001294c                TCPIP_ICMP_Task

.text.xTaskCreate%314
                0x00012b30      0x1e4
 .text.xTaskCreate
                0x00012b30      0x1e4 build/default/debug/_ext/404212886/FreeRTOS_tasks.o
                0x00012b30                xTaskCreate

.text.TCPIP_SNMP_Initialize%315
                0x00012d14      0x1e0
 .text.TCPIP_SNMP_Initialize
                0x00012d14      0x1e0 build/default/debug/_ext/1033058136/snmp.o
                0x00012d14                TCPIP_SNMP_Initialize

.text.TCPIP_SNMP_ProcessGetVar%316
                0x00012ef4      0x1e0
 .text.TCPIP_SNMP_ProcessGetVar
                0x00012ef4      0x1e0 build/default/debug/_ext/1033058136/snmp.o
                0x00012ef4                TCPIP_SNMP_ProcessGetVar

.text.TCPIP_ARP_Initialize%317
                0x000130d4      0x1dc
 .text.TCPIP_ARP_Initialize
                0x000130d4      0x1dc build/default/debug/_ext/1033058136/arp.o
                0x000130d4                TCPIP_ARP_Initialize

.text._DHCPReceive%318
                0x000132b0      0x1d4
 .text._DHCPReceive
                0x000132b0      0x1d4 build/default/debug/_ext/1033058136/dhcp.o

.text.SERCOM1_USART_InterruptHandler%319
                0x00013484      0x1d4
 .text.SERCOM1_USART_InterruptHandler
                0x00013484      0x1d4 build/default/debug/_ext/504274921/plib_sercom1_usart.o
                0x00013484                SERCOM1_USART_InterruptHandler

.text.GenericTxEnd%320
                0x00013658      0x1cc
 .text.GenericTxEnd
                0x00013658      0x1cc build/default/debug/_ext/1033058136/iperf.o

.text._DHCPSend%321
                0x00013824      0x1bc
 .text._DHCPSend
                0x00013824      0x1bc build/default/debug/_ext/1033058136/dhcp.o

.rodata%322     0x000139e0      0x1bc
 .rodata        0x000139e0      0x1bc build/default/debug/_ext/1360937237/custom_http_app.o

.text.DRV_GMAC_PacketRx%323
                0x00013b9c      0x1b0
 .text.DRV_GMAC_PacketRx
                0x00013b9c      0x1b0 build/default/debug/_ext/1546807373/drv_gmac.o
                0x00013b9c                DRV_GMAC_PacketRx

.text.DRV_PIC32CGMAC_LibRxFilterHash_Calculate%324
                0x00013d4c      0x1b0
 .text.DRV_PIC32CGMAC_LibRxFilterHash_Calculate
                0x00013d4c      0x1b0 build/default/debug/_ext/1546807373/drv_gmac_lib_samE5x.o
                0x00013d4c                DRV_PIC32CGMAC_LibRxFilterHash_Calculate

.text.SYS_FS_Mount%325
                0x00013efc      0x1a8
 .text.SYS_FS_Mount
                0x00013efc      0x1a8 build/default/debug/_ext/1269487135/sys_fs.o
                0x00013efc                SYS_FS_Mount

.text._DRV_ETHPHY_DefaultDetect%326
                0x000140a4      0x1a6
 .text._DRV_ETHPHY_DefaultDetect
                0x000140a4      0x1a6 build/default/debug/_ext/444070925/drv_ethphy.o

.text.malloc%327
                0x0001424c      0x1a4
 .text.malloc   0x0001424c      0x1a4 d:/microchip/bin/bin/../../lib/gcc/pic32c/8.3.1/../../../../pic32c/lib/thumb/v7e-m+fp/hard\libg-musl.a(malloc.o)
                0x0001424c                malloc

.text.TCPIP_DHCP_Initialize%328
                0x000143f0      0x190
 .text.TCPIP_DHCP_Initialize
                0x000143f0      0x190 build/default/debug/_ext/1033058136/dhcp.o
                0x000143f0                TCPIP_DHCP_Initialize

.text._Command_MacInfo%329
                0x00014580      0x18c
 .text._Command_MacInfo
                0x00014580      0x18c build/default/debug/_ext/1033058136/tcpip_commands.o

.text.wc_Sha256Final%330
                0x0001470c      0x188
 .text.wc_Sha256Final
                0x0001470c      0x188 build/default/debug/_ext/1664057780/sha256.o
                0x0001470c                wc_Sha256Final

.text.TCPIP_HTTP_Print%331
                0x00014894      0x188
 .text.TCPIP_HTTP_Print
                0x00014894      0x188 build/default/debug/_ext/1360937237/http_print.o
                0x00014894                TCPIP_HTTP_Print

.text.CommandIperfSize%332
                0x00014a1c      0x184
 .text.CommandIperfSize
                0x00014a1c      0x184 build/default/debug/_ext/1033058136/iperf.o

.text._InitRng%333
                0x00014ba0      0x184
 .text._InitRng
                0x00014ba0      0x184 build/default/debug/_ext/1664057780/random.o

.text.Shell_FileAbsPath%334
                0x00014d24      0x180
 .text.Shell_FileAbsPath
                0x00014d24      0x180 build/default/debug/_ext/1751889202/sys_fs_shell.o

.text.SYS_FS_MEDIA_MANAGER_SectorWrite%335
                0x00014ea4      0x180
 .text.SYS_FS_MEDIA_MANAGER_SectorWrite
                0x00014ea4      0x180 build/default/debug/_ext/1269487135/sys_fs_media_manager.o
                0x00014ea4                SYS_FS_MEDIA_MANAGER_SectorWrite

.text.DRV_PIC32CGMAC_LibTxAckPacket%336
                0x00015024      0x178
 .text.DRV_PIC32CGMAC_LibTxAckPacket
                0x00015024      0x178 build/default/debug/_ext/1546807373/drv_gmac_lib_samE5x.o
                0x00015024                DRV_PIC32CGMAC_LibTxAckPacket

.text._TcpCloseSocket%337
                0x0001519c      0x172
 .text._TcpCloseSocket
                0x0001519c      0x172 build/default/debug/_ext/1033058136/tcp.o

.text.TCPIP_TCP_ArrayPut%338
                0x00015310      0x170
 .text.TCPIP_TCP_ArrayPut
                0x00015310      0x170 build/default/debug/_ext/1033058136/tcp.o
                0x00015310                TCPIP_TCP_ArrayPut

.text._Command_NetworkOnOff%339
                0x00015480      0x164
 .text._Command_NetworkOnOff
                0x00015480      0x164 build/default/debug/_ext/1033058136/tcpip_commands.o

.text._DHCPOptionHostName%340
                0x000155e4      0x164
 .text._DHCPOptionHostName
                0x000155e4      0x164 build/default/debug/_ext/1033058136/dhcp.o

.text.CommandHelp%341
                0x00015748      0x164
 .text.CommandHelp
                0x00015748      0x164 build/default/debug/_ext/1376093119/sys_command.o

.text.SYS_FS_FileOpen%342
                0x000158ac      0x160
 .text.SYS_FS_FileOpen
                0x000158ac      0x160 build/default/debug/_ext/1269487135/sys_fs.o
                0x000158ac                SYS_FS_FileOpen

.text._UDPOpen%343
                0x00015a0c      0x15c
 .text._UDPOpen
                0x00015a0c      0x15c build/default/debug/_ext/1033058136/udp.o

.text.DRV_MIIM_Tasks%344
                0x00015b68      0x154
 .text.DRV_MIIM_Tasks
                0x00015b68      0x154 build/default/debug/_ext/438849557/drv_miim.o
                0x00015b68                DRV_MIIM_Tasks

.text.TCPIP_DNS_EntryQuery%345
                0x00015cbc      0x154
 .text.TCPIP_DNS_EntryQuery
                0x00015cbc      0x154 build/default/debug/_ext/1033058136/dns.o
                0x00015cbc                TCPIP_DNS_EntryQuery

.text.xQueueSemaphoreTake%346
                0x00015e10      0x154
 .text.xQueueSemaphoreTake
                0x00015e10      0x154 build/default/debug/_ext/404212886/queue.o
                0x00015e10                xQueueSemaphoreTake

.text.TCPIP_TCP_Initialize%347
                0x00015f64      0x150
 .text.TCPIP_TCP_Initialize
                0x00015f64      0x150 build/default/debug/_ext/1033058136/tcp.o
                0x00015f64                TCPIP_TCP_Initialize

.text.wc_Sha256Update%348
                0x000160b4      0x146
 .text.wc_Sha256Update
                0x000160b4      0x146 build/default/debug/_ext/1664057780/sha256.o
                0x000160b4                wc_Sha256Update

.text.Hash_df%349
                0x000161fa      0x140
 .text.Hash_df  0x000161fa      0x140 build/default/debug/_ext/1664057780/random.o

.text._LoadNetworkConfig%350
                0x0001633a      0x138
 .text._LoadNetworkConfig
                0x0001633a      0x138 build/default/debug/_ext/1033058136/tcpip_manager.o

.text._MACDeinit%351
                0x00016474      0x134
 .text._MACDeinit
                0x00016474      0x134 build/default/debug/_ext/1546807373/drv_gmac.o

.text.TCPIP_UDP_Deinitialize%352
                0x000165a8      0x134
 .text.TCPIP_UDP_Deinitialize
                0x000165a8      0x134 build/default/debug/_ext/1033058136/udp.o
                0x000165a8                TCPIP_UDP_Deinitialize

.text._DNS_Resolve%353
                0x000166dc      0x130
 .text._DNS_Resolve
                0x000166dc      0x130 build/default/debug/_ext/1033058136/dns.o

.text.TCPIP_SNMP_VarbindGet%354
                0x0001680c      0x130
 .text.TCPIP_SNMP_VarbindGet
                0x0001680c      0x130 build/default/debug/_ext/1360937237/custom_snmp_app.o
                0x0001680c                TCPIP_SNMP_VarbindGet

.text.__aeabi_dmul%355
                0x0001693c      0x130
 .text.__aeabi_dmul
                0x0001693c      0x130 d:/microchip/bin/bin/../../lib/gcc/pic32c/8.3.1/../../../../pic32c/lib/thumb/v7e-m+fp/hard\libm-fast-emfloat.a(__aeabi_dmul.o)
                0x0001693c                __aeabi_dmul

.text._CommandMiimOp%356
                0x00016a6c      0x12c
 .text._CommandMiimOp
                0x00016a6c      0x12c build/default/debug/_ext/1033058136/tcpip_commands.o

.text.DRV_PIC32CGMAC_LibRxBuffersAppend%357
                0x00016b98      0x128
 .text.DRV_PIC32CGMAC_LibRxBuffersAppend
                0x00016b98      0x128 build/default/debug/_ext/1546807373/drv_gmac_lib_samE5x.o
                0x00016b98                DRV_PIC32CGMAC_LibRxBuffersAppend

.text.TCPIP_SNMP_NextLeafGet%358
                0x00016cc0      0x128
 .text.TCPIP_SNMP_NextLeafGet
                0x00016cc0      0x128 build/default/debug/_ext/1033058136/snmp.o
                0x00016cc0                TCPIP_SNMP_NextLeafGet

.text.TCPIP_IPV4_Initialize%359
                0x00016de8      0x128
 .text.TCPIP_IPV4_Initialize
                0x00016de8      0x128 build/default/debug/_ext/1033058136/ipv4.o
                0x00016de8                TCPIP_IPV4_Initialize

.text.TCPIP_UDP_OptionsGet%360
                0x00016f10      0x128
 .text.TCPIP_UDP_OptionsGet
                0x00016f10      0x128 build/default/debug/_ext/1033058136/udp.o
                0x00016f10                TCPIP_UDP_OptionsGet

.text.TCPIP_SNMP_VarbindSet%361
                0x00017038      0x128
 .text.TCPIP_SNMP_VarbindSet
                0x00017038      0x128 build/default/debug/_ext/1360937237/custom_snmp_app.o
                0x00017038                TCPIP_SNMP_VarbindSet

.text.CommandIperfNetIf%362
                0x00017160      0x124
 .text.CommandIperfNetIf
                0x00017160      0x124 build/default/debug/_ext/1033058136/iperf.o

.text.TCPIP_UDP_Bind%363
                0x00017284      0x124
 .text.TCPIP_UDP_Bind
                0x00017284      0x124 build/default/debug/_ext/1033058136/udp.o
                0x00017284                TCPIP_UDP_Bind

.text.__fmt_x%364
                0x000173a8      0x124
 .text.__fmt_x  0x000173a8      0x124 d:/microchip/bin/bin/../../lib/gcc/pic32c/8.3.1/../../../../pic32c/lib/thumb/v7e-m+fp/hard\libg-musl.a(__fmt_x.o)
                0x000173a8                __fmt_x_needed
                0x000173a8                __fmt_x

.text.DRV_GMAC_Tasks%365
                0x000174cc      0x120
 .text.DRV_GMAC_Tasks
                0x000174cc      0x120 build/default/debug/_ext/1546807373/drv_gmac.o
                0x000174cc                DRV_GMAC_Tasks

.text._Command_StackOnOff%366
                0x000175ec      0x120
 .text._Command_StackOnOff
                0x000175ec      0x120 build/default/debug/_ext/1033058136/tcpip_commands.o

.text.TCPIP_IPV4_PacketFormatTx%367
                0x0001770c      0x120
 .text.TCPIP_IPV4_PacketFormatTx
                0x0001770c      0x120 build/default/debug/_ext/1033058136/ipv4.o
                0x0001770c                TCPIP_IPV4_PacketFormatTx

.text.TCPIP_Helper_StringToIPAddress%368
                0x0001782c      0x120
 .text.TCPIP_Helper_StringToIPAddress
                0x0001782c      0x120 build/default/debug/_ext/1033058136/tcpip_helpers.o
                0x0001782c                TCPIP_Helper_StringToIPAddress

.text.xQueueGenericSend%369
                0x0001794c      0x120
 .text.xQueueGenericSend
                0x0001794c      0x120 build/default/debug/_ext/404212886/queue.o
                0x0001794c                xQueueGenericSend

.text.DRV_GMAC_EventMaskSet%370
                0x00017a6c      0x11c
 .text.DRV_GMAC_EventMaskSet
                0x00017a6c      0x11c build/default/debug/_ext/1546807373/drv_gmac.o
                0x00017a6c                DRV_GMAC_EventMaskSet

.text._UDPv4TxAckFnc%371
                0x00017b88      0x11c
 .text._UDPv4TxAckFnc
                0x00017b88      0x11c build/default/debug/_ext/1033058136/udp.o

.text.wc_RNG_GenerateBlock%372
                0x00017ca4      0x11c
 .text.wc_RNG_GenerateBlock
                0x00017ca4      0x11c build/default/debug/_ext/1664057780/random.o
                0x00017ca4                wc_RNG_GenerateBlock

.text.CommandPingHandler%373
                0x00017dc0      0x110
 .text.CommandPingHandler
                0x00017dc0      0x110 build/default/debug/_ext/1033058136/tcpip_commands.o

.text._Tcpv4TxAckFnc%374
                0x00017ed0      0x10c
 .text._Tcpv4TxAckFnc
                0x00017ed0      0x10c build/default/debug/_ext/1033058136/tcp.o

.text.xTaskIncrementTick%375
                0x00017fdc      0x10c
 .text.xTaskIncrementTick
                0x00017fdc      0x10c build/default/debug/_ext/404212886/FreeRTOS_tasks.o
                0x00017fdc                xTaskIncrementTick

.text._TCPIP_HEAP_Free%376
                0x000180e8      0x10a
 .text._TCPIP_HEAP_Free
                0x000180e8      0x10a build/default/debug/_ext/1033058136/tcpip_heap_internal.o

.rodata%377     0x000181f2      0x10a
 .rodata        0x000181f2      0x10a d:/microchip/bin/bin/../../lib/gcc/pic32c/8.3.1/../../../../pic32c/lib/thumb/v7e-m+fp/hard\libg-musl.a(intscan.o)

.text.SYS_FS_Unmount%378
                0x000182fc      0x108
 .text.SYS_FS_Unmount
                0x000182fc      0x108 build/default/debug/_ext/1269487135/sys_fs.o
                0x000182fc                SYS_FS_Unmount

.text.TCPIP_TCP_OptionsSet%379
                0x00018404      0x106
 .text.TCPIP_TCP_OptionsSet
                0x00018404      0x106 build/default/debug/_ext/1033058136/tcp.o
                0x00018404                TCPIP_TCP_OptionsSet

.text.TCPIP_UDP_Initialize%380
                0x0001850c      0x104
 .text.TCPIP_UDP_Initialize
                0x0001850c      0x104 build/default/debug/_ext/1033058136/udp.o
                0x0001850c                TCPIP_UDP_Initialize

.text._Command_HeapInfo%381
                0x00018610      0x100
 .text._Command_HeapInfo
                0x00018610      0x100 build/default/debug/_ext/1033058136/tcpip_commands.o

.rodata.K%382   0x00018710      0x100
 .rodata.K      0x00018710      0x100 build/default/debug/_ext/1664057780/sha256.o

.text.wc_Md5Update%383
                0x00018810       0xfe
 .text.wc_Md5Update
                0x00018810       0xfe build/default/debug/_ext/1664057780/md5.o
                0x00018810                wc_Md5Update

.text.TCPIP_ICMP_EchoRequest%384
                0x00018910       0xfc
 .text.TCPIP_ICMP_EchoRequest
                0x00018910       0xfc build/default/debug/_ext/1033058136/icmp.o
                0x00018910                TCPIP_ICMP_EchoRequest

.text._Command_AddressService%385
                0x00018a0c       0xfc
 .text._Command_AddressService
                0x00018a0c       0xfc build/default/debug/_ext/1033058136/tcpip_commands.o

.text.SYS_FS_DirOpen%386
                0x00018b08       0xfc
 .text.SYS_FS_DirOpen
                0x00018b08       0xfc build/default/debug/_ext/1269487135/sys_fs.o
                0x00018b08                SYS_FS_DirOpen

.text.free%387  0x00018c04       0xf8
 .text.free     0x00018c04       0xf8 d:/microchip/bin/bin/../../lib/gcc/pic32c/8.3.1/../../../../pic32c/lib/thumb/v7e-m+fp/hard\libg-musl.a(malloc.o)
                0x00018c04                free

.text.TCPIP_SNMP_MIBRecordRead%388
                0x00018cfc       0xf6
 .text.TCPIP_SNMP_MIBRecordRead
                0x00018cfc       0xf6 build/default/debug/_ext/1033058136/snmp.o

.text.TCPIP_ARP_EntryRemoveNet%389
                0x00018df4       0xf0
 .text.TCPIP_ARP_EntryRemoveNet
                0x00018df4       0xf0 build/default/debug/_ext/1033058136/arp.o
                0x00018df4                TCPIP_ARP_EntryRemoveNet

.text._DNS_IsNameResolved%390
                0x00018ee4       0xf0
 .text._DNS_IsNameResolved
                0x00018ee4       0xf0 build/default/debug/_ext/1033058136/dns.o

.text.TCPIP_DNS_ClientTask%391
                0x00018fd4       0xf0
 .text.TCPIP_DNS_ClientTask
                0x00018fd4       0xf0 build/default/debug/_ext/1033058136/dns.o
                0x00018fd4                TCPIP_DNS_ClientTask

.text.MPFS_DirRead%392
                0x000190c4       0xf0
 .text.MPFS_DirRead
                0x000190c4       0xf0 build/default/debug/_ext/699575981/mpfs.o
                0x000190c4                MPFS_DirRead

.text.Shell_Cwd%393
                0x000191b4       0xec
 .text.Shell_Cwd
                0x000191b4       0xec build/default/debug/_ext/1751889202/sys_fs_shell.o

.text.TCPIP_TCP_Deinitialize%394
                0x000192a0       0xec
 .text.TCPIP_TCP_Deinitialize
                0x000192a0       0xec build/default/debug/_ext/1033058136/tcp.o
                0x000192a0                TCPIP_TCP_Deinitialize

.text._ARPProbeAddress%395
                0x0001938c       0xec
 .text._ARPProbeAddress
                0x0001938c       0xec build/default/debug/_ext/1033058136/arp.o

.text._DNS_GetAddresses%396
                0x00019478       0xec
 .text._DNS_GetAddresses
                0x00019478       0xec build/default/debug/_ext/1033058136/dns.o

.text.DRV_PIC32CGMAC_LibTxSendPacket%397
                0x00019564       0xe8
 .text.DRV_PIC32CGMAC_LibTxSendPacket
                0x00019564       0xe8 build/default/debug/_ext/1546807373/drv_gmac_lib_samE5x.o
                0x00019564                DRV_PIC32CGMAC_LibTxSendPacket

.text.SYS_FS_Shell_Create%398
                0x0001964c       0xe8
 .text.SYS_FS_Shell_Create
                0x0001964c       0xe8 build/default/debug/_ext/1751889202/sys_fs_shell.o
                0x0001964c                SYS_FS_Shell_Create

.text._Command_IPAddressSet%399
                0x00019734       0xe8
 .text._Command_IPAddressSet
                0x00019734       0xe8 build/default/debug/_ext/1033058136/tcpip_commands.o

.text.xTaskResumeAll%400
                0x0001981c       0xe8
 .text.xTaskResumeAll
                0x0001981c       0xe8 build/default/debug/_ext/404212886/FreeRTOS_tasks.o
                0x0001981c                xTaskResumeAll

.text.CLOCK_Initialize%401
                0x00019904       0xe4
 .text.CLOCK_Initialize
                0x00019904       0xe4 build/default/debug/_ext/1984496892/plib_clock.o
                0x00019904                CLOCK_Initialize

.text._HTTP_ReadTo%402
                0x000199e8       0xe2
 .text._HTTP_ReadTo
                0x000199e8       0xe2 build/default/debug/_ext/1033058136/http.o

.text.DRV_MEMORY_HandleEraseWrite%403
                0x00019aca       0xe0
 .text.DRV_MEMORY_HandleEraseWrite
                0x00019aca       0xe0 build/default/debug/_ext/992804092/drv_memory.o

.text.TCPIP_UDP_ArrayGet%404
                0x00019baa       0xde
 .text.TCPIP_UDP_ArrayGet
                0x00019baa       0xde build/default/debug/_ext/1033058136/udp.o
                0x00019baa                TCPIP_UDP_ArrayGet

.text.DRV_ETHPHY_Setup%405
                0x00019c88       0xdc
 .text.DRV_ETHPHY_Setup
                0x00019c88       0xdc build/default/debug/_ext/444070925/drv_ethphy.o
                0x00019c88                DRV_ETHPHY_Setup

.text.SYS_FS_FileSeek%406
                0x00019d64       0xdc
 .text.SYS_FS_FileSeek
                0x00019d64       0xdc build/default/debug/_ext/1269487135/sys_fs.o
                0x00019d64                SYS_FS_FileSeek

.text.SYS_TIME_PLIBCallback%407
                0x00019e40       0xdc
 .text.SYS_TIME_PLIBCallback
                0x00019e40       0xdc build/default/debug/_ext/101884895/sys_time.o

.text.SERCOM1_USART_Write%408
                0x00019f1c       0xd8
 .text.SERCOM1_USART_Write
                0x00019f1c       0xd8 build/default/debug/_ext/504274921/plib_sercom1_usart.o
                0x00019f1c                SERCOM1_USART_Write

.text.MPFSFindFile%409
                0x00019ff4       0xd8
 .text.MPFSFindFile
                0x00019ff4       0xd8 build/default/debug/_ext/699575981/mpfs.o

.text.TCPIP_Commands_Initialize%410
                0x0001a0cc       0xd4
 .text.TCPIP_Commands_Initialize
                0x0001a0cc       0xd4 build/default/debug/_ext/1033058136/tcpip_commands.o
                0x0001a0cc                TCPIP_Commands_Initialize

.text._DRV_ETHPHY_NegResultPhase_ANAD%411
                0x0001a1a0       0xd2
 .text._DRV_ETHPHY_NegResultPhase_ANAD
                0x0001a1a0       0xd2 build/default/debug/_ext/444070925/drv_ethphy.o

.text.DRV_EXTPHY_MDIXConfigure%412
                0x0001a272       0xd0
 .text.DRV_EXTPHY_MDIXConfigure
                0x0001a272       0xd0 build/default/debug/_ext/444070925/drv_extphy_ksz8081.o

.text.DRV_GMAC_PacketTx%413
                0x0001a344       0xcc
 .text.DRV_GMAC_PacketTx
                0x0001a344       0xcc build/default/debug/_ext/1546807373/drv_gmac.o
                0x0001a344                DRV_GMAC_PacketTx

.text.TCPIP_SNMP_IsValidCommunity%414
                0x0001a410       0xcc
 .text.TCPIP_SNMP_IsValidCommunity
                0x0001a410       0xcc build/default/debug/_ext/1033058136/snmp.o
                0x0001a410                TCPIP_SNMP_IsValidCommunity

.text.TCPIP_TCP_ArrayGet%415
                0x0001a4dc       0xcc
 .text.TCPIP_TCP_ArrayGet
                0x0001a4dc       0xcc build/default/debug/_ext/1033058136/tcp.o
                0x0001a4dc                TCPIP_TCP_ArrayGet

.rodata.tcpipCmdTbl%416
                0x0001a5a8       0xcc
 .rodata.tcpipCmdTbl
                0x0001a5a8       0xcc build/default/debug/_ext/1033058136/tcpip_commands.o

.text.TCPIP_HEAP_CreateInternal%417
                0x0001a674       0xcc
 .text.TCPIP_HEAP_CreateInternal
                0x0001a674       0xcc build/default/debug/_ext/1033058136/tcpip_heap_internal.o
                0x0001a674                TCPIP_HEAP_CreateInternal

.text.floor%418
                0x0001a740       0xcc
 .text.floor    0x0001a740       0xcc d:/microchip/bin/bin/../../lib/gcc/pic32c/8.3.1/../../../../pic32c/lib/thumb/v7e-m+fp/hard\libm-fast-emfloat.a(floor.o)
                0x0001a740                floor

.text.DRV_PIC32CGMAC_LibRxInit%419
                0x0001a80c       0xc8
 .text.DRV_PIC32CGMAC_LibRxInit
                0x0001a80c       0xc8 build/default/debug/_ext/1546807373/drv_gmac_lib_samE5x.o
                0x0001a80c                DRV_PIC32CGMAC_LibRxInit

.text._Command_DNSAddressSet%420
                0x0001a8d4       0xc8
 .text._Command_DNSAddressSet
                0x0001a8d4       0xc8 build/default/debug/_ext/1033058136/tcpip_commands.o

.text._DRV_MIIM_StartOp%421
                0x0001a99c       0xc4
 .text._DRV_MIIM_StartOp
                0x0001a99c       0xc4 build/default/debug/_ext/438849557/drv_miim.o

.text.TCPIP_HTTP_Task%422
                0x0001aa60       0xc4
 .text.TCPIP_HTTP_Task
                0x0001aa60       0xc4 build/default/debug/_ext/1033058136/http.o
                0x0001aa60                TCPIP_HTTP_Task

.text.TCPIP_UDP_OpenServerSkt%423
                0x0001ab24       0xc4
 .text.TCPIP_UDP_OpenServerSkt
                0x0001ab24       0xc4 build/default/debug/_ext/1033058136/udp.o
                0x0001ab24                TCPIP_UDP_OpenServerSkt

.text.SYS_FS_GetDisk%424
                0x0001abe8       0xc4
 .text.SYS_FS_GetDisk
                0x0001abe8       0xc4 build/default/debug/_ext/1269487135/sys_fs.o

.text.TCPIP_TCP_Bind%425
                0x0001acac       0xc0
 .text.TCPIP_TCP_Bind
                0x0001acac       0xc0 build/default/debug/_ext/1033058136/tcp.o
                0x0001acac                TCPIP_TCP_Bind

.text._Command_DefaultInterfaceSet%426
                0x0001ad6c       0xc0
 .text._Command_DefaultInterfaceSet
                0x0001ad6c       0xc0 build/default/debug/_ext/1033058136/tcpip_commands.o

.rodata%427     0x0001ae2c       0xc0
 .rodata        0x0001ae2c       0xc0 build/default/debug/_ext/1171490990/initialization.o

.text._DRV_MIIM_ClientDeallocate%428
                0x0001aeec       0xbc
 .text._DRV_MIIM_ClientDeallocate
                0x0001aeec       0xbc build/default/debug/_ext/438849557/drv_miim.o

.text.TCPIP_IPERF_Initialize%429
                0x0001afa8       0xbc
 .text.TCPIP_IPERF_Initialize
                0x0001afa8       0xbc build/default/debug/_ext/1033058136/iperf.o
                0x0001afa8                TCPIP_IPERF_Initialize

.text.TCPIP_HTTP_Print_uploadedmd5%430
                0x0001b064       0xbc
 .text.TCPIP_HTTP_Print_uploadedmd5
                0x0001b064       0xbc build/default/debug/_ext/1360937237/custom_http_app.o
                0x0001b064                TCPIP_HTTP_Print_uploadedmd5

.text._GetMaxSegSizeOption%431
                0x0001b120       0xba
 .text._GetMaxSegSizeOption
                0x0001b120       0xba build/default/debug/_ext/1033058136/tcp.o

.text.CommandIperfStop%432
                0x0001b1dc       0xb8
 .text.CommandIperfStop
                0x0001b1dc       0xb8 build/default/debug/_ext/1033058136/iperf.o

.text.TCPIP_IPV4_DeInitialize%433
                0x0001b294       0xb8
 .text.TCPIP_IPV4_DeInitialize
                0x0001b294       0xb8 build/default/debug/_ext/1033058136/ipv4.o
                0x0001b294                TCPIP_IPV4_DeInitialize

.text.wc_Md5Final%434
                0x0001b34c       0xb8
 .text.wc_Md5Final
                0x0001b34c       0xb8 build/default/debug/_ext/1664057780/md5.o
                0x0001b34c                wc_Md5Final

.text._ARPSendIfPkt%435
                0x0001b404       0xb4
 .text._ARPSendIfPkt
                0x0001b404       0xb4 build/default/debug/_ext/1033058136/arp.o

.text.TCPIP_IPV4_ArpHandler%436
                0x0001b4b8       0xb4
 .text.TCPIP_IPV4_ArpHandler
                0x0001b4b8       0xb4 build/default/debug/_ext/1033058136/ipv4.o

.text.TCPIP_STACK_KillStack%437
                0x0001b56c       0xb4
 .text.TCPIP_STACK_KillStack
                0x0001b56c       0xb4 build/default/debug/_ext/1033058136/tcpip_manager.o

.text.SYS_TIME_HwTimerCompareUpdate%438
                0x0001b620       0xb4
 .text.SYS_TIME_HwTimerCompareUpdate
                0x0001b620       0xb4 build/default/debug/_ext/101884895/sys_time.o

.text.SYS_TIME_Initialize%439
                0x0001b6d4       0xb4
 .text.SYS_TIME_Initialize
                0x0001b6d4       0xb4 build/default/debug/_ext/101884895/sys_time.o
                0x0001b6d4                SYS_TIME_Initialize

.text.TCPIP_STACK_NetUp%440
                0x0001b788       0xb0
 .text.TCPIP_STACK_NetUp
                0x0001b788       0xb0 build/default/debug/_ext/1033058136/tcpip_manager.o
                0x0001b788                TCPIP_STACK_NetUp

.text.MPFS_Open%441
                0x0001b838       0xb0
 .text.MPFS_Open
                0x0001b838       0xb0 build/default/debug/_ext/699575981/mpfs.o
                0x0001b838                MPFS_Open

.text.SYS_TIME_TimerObjectCreate%442
                0x0001b8e8       0xb0
 .text.SYS_TIME_TimerObjectCreate
                0x0001b8e8       0xb0 build/default/debug/_ext/101884895/sys_time.o

.text.__pop_int%443
                0x0001b998       0xac
 .text.__pop_int
                0x0001b998       0xac d:/microchip/bin/bin/../../lib/gcc/pic32c/8.3.1/../../../../pic32c/lib/thumb/v7e-m+fp/hard\libg-musl.a(__pop_int.o)
                0x0001b998                __pop_int_needed
                0x0001b998                __pop_int

.text._TcpDisconnect%444
                0x0001ba44       0xaa
 .text._TcpDisconnect
                0x0001ba44       0xaa build/default/debug/_ext/1033058136/tcp.o

.text._TCPIP_HEAP_Malloc%445
                0x0001baee       0xaa
 .text._TCPIP_HEAP_Malloc
                0x0001baee       0xaa build/default/debug/_ext/1033058136/tcpip_heap_internal.o

.text.Hash_DRBG_Reseed%446
                0x0001bb98       0xaa
 .text.Hash_DRBG_Reseed
                0x0001bb98       0xaa build/default/debug/_ext/1664057780/random.o

.text._DRV_ETHPHY_SetupPhaseReset%447
                0x0001bc44       0xa8
 .text._DRV_ETHPHY_SetupPhaseReset
                0x0001bc44       0xa8 build/default/debug/_ext/444070925/drv_ethphy.o

.text.DRV_MEMORY_Initialize%448
                0x0001bcec       0xa8
 .text.DRV_MEMORY_Initialize
                0x0001bcec       0xa8 build/default/debug/_ext/992804092/drv_memory.o
                0x0001bcec                DRV_MEMORY_Initialize

.text._TCP_SktSetSequenceNo%449
                0x0001bd94       0xa8
 .text._TCP_SktSetSequenceNo
                0x0001bd94       0xa8 build/default/debug/_ext/1033058136/tcp.o

.text.TCPIP_TCP_ServerOpen%450
                0x0001be3c       0xa8
 .text.TCPIP_TCP_ServerOpen
                0x0001be3c       0xa8 build/default/debug/_ext/1033058136/tcp.o
                0x0001be3c                TCPIP_TCP_ServerOpen

.text.vTaskSwitchContext%451
                0x0001bee4       0xa8
 .text.vTaskSwitchContext
                0x0001bee4       0xa8 build/default/debug/_ext/404212886/FreeRTOS_tasks.o
                0x0001bee4                vTaskSwitchContext

.text.xTaskPriorityInherit%452
                0x0001bf8c       0xa8
 .text.xTaskPriorityInherit
                0x0001bf8c       0xa8 build/default/debug/_ext/404212886/FreeRTOS_tasks.o
                0x0001bf8c                xTaskPriorityInherit

.text.__fmt_d%453
                0x0001c034       0xa8
 .text.__fmt_d  0x0001c034       0xa8 d:/microchip/bin/bin/../../lib/gcc/pic32c/8.3.1/../../../../pic32c/lib/thumb/v7e-m+fp/hard\libg-musl.a(__fmt_d.o)
                0x0001c034                __fmt_d
                0x0001c034                __fmt_d_needed

.text._DHCPProcessReceiveData%454
                0x0001c0dc       0xa4
 .text._DHCPProcessReceiveData
                0x0001c0dc       0xa4 build/default/debug/_ext/1033058136/dhcp.o

.text._DRV_ETHPHY_SetupPhaseNegotiate_SubPhase0%455
                0x0001c180       0xa2
 .text._DRV_ETHPHY_SetupPhaseNegotiate_SubPhase0
                0x0001c180       0xa2 build/default/debug/_ext/444070925/drv_ethphy.o

.text.wc_RNG_HealthTest_ex%456
                0x0001c222       0xa2
 .text.wc_RNG_HealthTest_ex
                0x0001c222       0xa2 build/default/debug/_ext/1664057780/random.o
                0x0001c222                wc_RNG_HealthTest_ex

.text._ARPDeleteResources%457
                0x0001c2c4       0xa0
 .text._ARPDeleteResources
                0x0001c2c4       0xa0 build/default/debug/_ext/1033058136/arp.o

.text.TCPIP_Helper_IPv6AddressToString%458
                0x0001c364       0xa0
 .text.TCPIP_Helper_IPv6AddressToString
                0x0001c364       0xa0 build/default/debug/_ext/1033058136/tcpip_helpers.o
                0x0001c364                TCPIP_Helper_IPv6AddressToString

.text._UDPv4AllocateSktTxBuffer%459
                0x0001c404       0xa0
 .text._UDPv4AllocateSktTxBuffer
                0x0001c404       0xa0 build/default/debug/_ext/1033058136/udp.o

.text.TCPIP_UDP_Disconnect%460
                0x0001c4a4       0xa0
 .text.TCPIP_UDP_Disconnect
                0x0001c4a4       0xa0 build/default/debug/_ext/1033058136/udp.o
                0x0001c4a4                TCPIP_UDP_Disconnect

.text._DRV_PHY_SMITransferStart%461
                0x0001c544       0x9e
 .text._DRV_PHY_SMITransferStart
                0x0001c544       0x9e build/default/debug/_ext/444070925/drv_ethphy.o

.text.TCPIP_HTTP_URLDecode%462
                0x0001c5e2       0x9e
 .text.TCPIP_HTTP_URLDecode
                0x0001c5e2       0x9e build/default/debug/_ext/1033058136/http.o
                0x0001c5e2                TCPIP_HTTP_URLDecode

.text.DRV_MIIM_Setup%463
                0x0001c680       0x9c
 .text.DRV_MIIM_Setup
                0x0001c680       0x9c build/default/debug/_ext/438849557/drv_miim.o
                0x0001c680                DRV_MIIM_Setup

.text._Command_MACAddressSet%464
                0x0001c71c       0x9c
 .text._Command_MACAddressSet
                0x0001c71c       0x9c build/default/debug/_ext/1033058136/tcpip_commands.o

.text.MPFS_Mount%465
                0x0001c7b8       0x9c
 .text.MPFS_Mount
                0x0001c7b8       0x9c build/default/debug/_ext/699575981/mpfs.o
                0x0001c7b8                MPFS_Mount

.text.MPFS_Stat%466
                0x0001c854       0x9c
 .text.MPFS_Stat
                0x0001c854       0x9c build/default/debug/_ext/699575981/mpfs.o
                0x0001c854                MPFS_Stat

.text.SYS_FS_FileStat%467
                0x0001c8f0       0x9c
 .text.SYS_FS_FileStat
                0x0001c8f0       0x9c build/default/debug/_ext/1269487135/sys_fs.o
                0x0001c8f0                SYS_FS_FileStat

.text._DRV_ETHPHY_SetupPhaseDetect%468
                0x0001c98c       0x98
 .text._DRV_ETHPHY_SetupPhaseDetect
                0x0001c98c       0x98 build/default/debug/_ext/444070925/drv_ethphy.o

.text.DRV_GMAC_StatisticsGet%469
                0x0001ca24       0x98
 .text.DRV_GMAC_StatisticsGet
                0x0001ca24       0x98 build/default/debug/_ext/1546807373/drv_gmac.o
                0x0001ca24                DRV_GMAC_StatisticsGet

.text._HTTP_CloseConnections%470
                0x0001cabc       0x98
 .text._HTTP_CloseConnections
                0x0001cabc       0x98 build/default/debug/_ext/1033058136/http.o

.text._DHCPEnable%471
                0x0001cb54       0x98
 .text._DHCPEnable
                0x0001cb54       0x98 build/default/debug/_ext/1033058136/dhcp.o

.text.TCPIP_DHCP_Request%472
                0x0001cbec       0x98
 .text.TCPIP_DHCP_Request
                0x0001cbec       0x98 build/default/debug/_ext/1033058136/dhcp.o
                0x0001cbec                TCPIP_DHCP_Request

.text.TCPIP_DHCP_InfoGet%473
                0x0001cc84       0x98
 .text.TCPIP_DHCP_InfoGet
                0x0001cc84       0x98 build/default/debug/_ext/1033058136/dhcp.o
                0x0001cc84                TCPIP_DHCP_InfoGet

.text.TCPIP_Helper_StringToMACAddress%474
                0x0001cd1c       0x98
 .text.TCPIP_Helper_StringToMACAddress
                0x0001cd1c       0x98 build/default/debug/_ext/1033058136/tcpip_helpers.o
                0x0001cd1c                TCPIP_Helper_StringToMACAddress

.text.PORT_Initialize%475
                0x0001cdb4       0x98
 .text.PORT_Initialize
                0x0001cdb4       0x98 build/default/debug/_ext/1865521619/plib_port.o
                0x0001cdb4                PORT_Initialize

.text.DisplayNodeMsg%476
                0x0001ce4c       0x98
 .text.DisplayNodeMsg
                0x0001ce4c       0x98 build/default/debug/_ext/1376093119/sys_command.o

.text.prvAddCurrentTaskToDelayedList%477
                0x0001cee4       0x98
 .text.prvAddCurrentTaskToDelayedList
                0x0001cee4       0x98 build/default/debug/_ext/404212886/FreeRTOS_tasks.o

.text.DRV_PIC32CGMAC_LibInitTransfer%478
                0x0001cf7c       0x94
 .text.DRV_PIC32CGMAC_LibInitTransfer
                0x0001cf7c       0x94 build/default/debug/_ext/1546807373/drv_gmac_lib_samE5x.o
                0x0001cf7c                DRV_PIC32CGMAC_LibInitTransfer

.text.TCPIP_ARP_IsResolved%479
                0x0001d010       0x94
 .text.TCPIP_ARP_IsResolved
                0x0001d010       0x94 build/default/debug/_ext/1033058136/arp.o
                0x0001d010                TCPIP_ARP_IsResolved

.text.ascii_to_u32s%480
                0x0001d0a4       0x94
 .text.ascii_to_u32s
                0x0001d0a4       0x94 build/default/debug/_ext/1033058136/iperf.o

.text.SYS_Tasks%481
                0x0001d138       0x94
 .text.SYS_Tasks
                0x0001d138       0x94 build/default/debug/_ext/1171490990/tasks.o
                0x0001d138                SYS_Tasks

.text.TCPIP_SNMP_RecordIDValidation%482
                0x0001d1cc       0x94
 .text.TCPIP_SNMP_RecordIDValidation
                0x0001d1cc       0x94 build/default/debug/_ext/1360937237/custom_snmp_app.o
                0x0001d1cc                TCPIP_SNMP_RecordIDValidation

.text.DRV_MIIM_OperationResult%483
                0x0001d260       0x90
 .text.DRV_MIIM_OperationResult
                0x0001d260       0x90 build/default/debug/_ext/438849557/drv_miim.o
                0x0001d260                DRV_MIIM_OperationResult

.text._DHCPCleanup%484
                0x0001d2f0       0x90
 .text._DHCPCleanup
                0x0001d2f0       0x90 build/default/debug/_ext/1033058136/dhcp.o

.text._TCPIPStackModuleRxPurge%485
                0x0001d380       0x90
 .text._TCPIPStackModuleRxPurge
                0x0001d380       0x90 build/default/debug/_ext/1033058136/tcpip_manager.o
                0x0001d380                _TCPIPStackModuleRxPurge

.text.SYS_FS_Initialize%486
                0x0001d410       0x90
 .text.SYS_FS_Initialize
                0x0001d410       0x90 build/default/debug/_ext/1269487135/sys_fs.o
                0x0001d410                SYS_FS_Initialize

.text.SYS_TIME_AddToList%487
                0x0001d4a0       0x90
 .text.SYS_TIME_AddToList
                0x0001d4a0       0x90 build/default/debug/_ext/101884895/sys_time.o

.text.SYS_Initialize%488
                0x0001d530       0x90
 .text.SYS_Initialize
                0x0001d530       0x90 build/default/debug/_ext/1171490990/initialization.o
                0x0001d530                SYS_Initialize

.text.TCPIP_HTTP_Print_config_mac%489
                0x0001d5c0       0x8e
 .text.TCPIP_HTTP_Print_config_mac
                0x0001d5c0       0x8e build/default/debug/_ext/1360937237/custom_http_app.o
                0x0001d5c0                TCPIP_HTTP_Print_config_mac

.text.TCPIP_SNMP_FreeMemory%490
                0x0001d650       0x8c
 .text.TCPIP_SNMP_FreeMemory
                0x0001d650       0x8c build/default/debug/_ext/1033058136/snmp.o
                0x0001d650                TCPIP_SNMP_FreeMemory

.text._DHCPClientClose%491
                0x0001d6dc       0x8c
 .text._DHCPClientClose
                0x0001d6dc       0x8c build/default/debug/_ext/1033058136/dhcp.o

.text.TCPIP_STACK_Initialize%492
                0x0001d768       0x8c
 .text.TCPIP_STACK_Initialize
                0x0001d768       0x8c build/default/debug/_ext/1033058136/tcpip_manager.o
                0x0001d768                TCPIP_STACK_Initialize

.text._UDPsetPacketInfo%493
                0x0001d7f4       0x8c
 .text._UDPsetPacketInfo
                0x0001d7f4       0x8c build/default/debug/_ext/1033058136/udp.o

.text.Reset_Handler%494
                0x0001d880       0x8c
 .text.Reset_Handler
                0x0001d880       0x8c build/default/debug/_ext/1171490990/startup_xc32.o
                0x0001d880                Reset_Handler

.text._Command_GatewayAddressSet%495
                0x0001d90c       0x88
 .text._Command_GatewayAddressSet
                0x0001d90c       0x88 build/default/debug/_ext/1033058136/tcpip_commands.o

.text._DHCPPacketFilter%496
                0x0001d994       0x88
 .text._DHCPPacketFilter
                0x0001d994       0x88 build/default/debug/_ext/1033058136/dhcp.o

.text._DHCPSetLeaseTimeParams%497
                0x0001da1c       0x88
 .text._DHCPSetLeaseTimeParams
                0x0001da1c       0x88 build/default/debug/_ext/1033058136/dhcp.o

.text._OAHashFindBkt%498
                0x0001daa4       0x88
 .text._OAHashFindBkt
                0x0001daa4       0x88 build/default/debug/_ext/1033058136/oahash.o

.text.SYS_CMDIO_ADD%499
                0x0001db2c       0x88
 .text.SYS_CMDIO_ADD
                0x0001db2c       0x88 build/default/debug/_ext/1376093119/sys_command.o
                0x0001db2c                SYS_CMDIO_ADD

.rodata.MPFSFunctions%500
                0x0001dbb4       0x88
 .rodata.MPFSFunctions
                0x0001dbb4       0x88 build/default/debug/_ext/1171490990/initialization.o
                0x0001dbb4                MPFSFunctions

.text.TCPIP_IPV4_MacPacketSwitchTxToRx%501
                0x0001dc3c       0x84
 .text.TCPIP_IPV4_MacPacketSwitchTxToRx
                0x0001dc3c       0x84 build/default/debug/_ext/1033058136/ipv4.o
                0x0001dc3c                TCPIP_IPV4_MacPacketSwitchTxToRx

.text.TCPIP_STACK_NetAddressSet%502
                0x0001dcc0       0x84
 .text.TCPIP_STACK_NetAddressSet
                0x0001dcc0       0x84 build/default/debug/_ext/1033058136/tcpip_manager.o
                0x0001dcc0                TCPIP_STACK_NetAddressSet

.rodata.TCPIP_STACK_MODULE_ENTRY_TBL%503
                0x0001dd44       0x84
 .rodata.TCPIP_STACK_MODULE_ENTRY_TBL
                0x0001dd44       0x84 build/default/debug/_ext/1033058136/tcpip_manager.o

.text._TCPIP_PKT_PacketAlloc%504
                0x0001ddc8       0x84
 .text._TCPIP_PKT_PacketAlloc
                0x0001ddc8       0x84 build/default/debug/_ext/1033058136/tcpip_packet.o
                0x0001ddc8                _TCPIP_PKT_PacketAlloc

.text.NVIC_Initialize%505
                0x0001de4c       0x84
 .text.NVIC_Initialize
                0x0001de4c       0x84 build/default/debug/_ext/1865468468/plib_nvic.o
                0x0001de4c                NVIC_Initialize

.text.SYS_FS_FileRead%506
                0x0001ded0       0x84
 .text.SYS_FS_FileRead
                0x0001ded0       0x84 build/default/debug/_ext/1269487135/sys_fs.o
                0x0001ded0                SYS_FS_FileRead

.text._DNS_ValidateIf%507
                0x0001df54       0x82
 .text._DNS_ValidateIf
                0x0001df54       0x82 build/default/debug/_ext/1033058136/dns.o

.text.TCPIP_Helper_PacketChecksum%508
                0x0001dfd6       0x82
 .text.TCPIP_Helper_PacketChecksum
                0x0001dfd6       0x82 build/default/debug/_ext/1033058136/tcpip_helpers.o
                0x0001dfd6                TCPIP_Helper_PacketChecksum

.text.DRV_ETHPHY_VendorSMIReadStart%509
                0x0001e058       0x80
 .text.DRV_ETHPHY_VendorSMIReadStart
                0x0001e058       0x80 build/default/debug/_ext/444070925/drv_ethphy.o
                0x0001e058                DRV_ETHPHY_VendorSMIReadStart

.text.DRV_ETHPHY_VendorSMIWriteStart%510
                0x0001e0d8       0x80
 .text.DRV_ETHPHY_VendorSMIWriteStart
                0x0001e0d8       0x80 build/default/debug/_ext/444070925/drv_ethphy.o
                0x0001e0d8                DRV_ETHPHY_VendorSMIWriteStart

.text.SERCOM1_USART_Initialize%511
                0x0001e158       0x80
 .text.SERCOM1_USART_Initialize
                0x0001e158       0x80 build/default/debug/_ext/504274921/plib_sercom1_usart.o
                0x0001e158                SERCOM1_USART_Initialize

.text.SendCommandPrint%512
                0x0001e1d8       0x80
 .text.SendCommandPrint
                0x0001e1d8       0x80 build/default/debug/_ext/1376093119/sys_command.o

.text.MPFS_Read%513
                0x0001e258       0x80
 .text.MPFS_Read
                0x0001e258       0x80 build/default/debug/_ext/699575981/mpfs.o
                0x0001e258                MPFS_Read

.text.xTaskPriorityDisinherit%514
                0x0001e2d8       0x80
 .text.xTaskPriorityDisinherit
                0x0001e2d8       0x80 build/default/debug/_ext/404212886/FreeRTOS_tasks.o
                0x0001e2d8                xTaskPriorityDisinherit

.text.vTaskPriorityDisinheritAfterTimeout%515
                0x0001e358       0x80
 .text.vTaskPriorityDisinheritAfterTimeout
                0x0001e358       0x80 build/default/debug/_ext/404212886/FreeRTOS_tasks.o
                0x0001e358                vTaskPriorityDisinheritAfterTimeout

.rodata.outputA_data%516
                0x0001e3d8       0x80
 .rodata.outputA_data
                0x0001e3d8       0x80 build/default/debug/_ext/1664057780/random.o
                0x0001e3d8                outputA_data

.rodata.outputB_data%517
                0x0001e458       0x80
 .rodata.outputB_data
                0x0001e458       0x80 build/default/debug/_ext/1664057780/random.o
                0x0001e458                outputB_data

.text.TCPIP_HTTP_GetExecute%518
                0x0001e4d8       0x80
 .text.TCPIP_HTTP_GetExecute
                0x0001e4d8       0x80 build/default/debug/_ext/1360937237/custom_http_app.o
                0x0001e4d8                TCPIP_HTTP_GetExecute

.text.__pad%519
                0x0001e558       0x80
 .text.__pad    0x0001e558       0x80 d:/microchip/bin/bin/../../lib/gcc/pic32c/8.3.1/../../../../pic32c/lib/thumb/v7e-m+fp/hard\libg-musl.a(__printf_core.o)
                0x0001e558                __pad

.text.prvUnlockQueue%520
                0x0001e5d8       0x7e
 .text.prvUnlockQueue
                0x0001e5d8       0x7e build/default/debug/_ext/404212886/queue.o

.text.strspn%521
                0x0001e656       0x7e
 .text.strspn   0x0001e656       0x7e d:/microchip/bin/bin/../../lib/gcc/pic32c/8.3.1/../../../../pic32c/lib/thumb/v7e-m+fp/hard\libg-musl.a(strspn.o)
                0x0001e656                strspn

.text.DRV_ETHPHY_VendorSMIReadResultGet%522
                0x0001e6d4       0x7c
 .text.DRV_ETHPHY_VendorSMIReadResultGet
                0x0001e6d4       0x7c build/default/debug/_ext/444070925/drv_ethphy.o
                0x0001e6d4                DRV_ETHPHY_VendorSMIReadResultGet

.text.DRV_PIC32CGMAC_LibInit%523
                0x0001e750       0x7c
 .text.DRV_PIC32CGMAC_LibInit
                0x0001e750       0x7c build/default/debug/_ext/1546807373/drv_gmac_lib_samE5x.o
                0x0001e750                DRV_PIC32CGMAC_LibInit

.text.DRV_MEMORY_CommandStatusGet%524
                0x0001e7cc       0x7c
 .text.DRV_MEMORY_CommandStatusGet
                0x0001e7cc       0x7c build/default/debug/_ext/992804092/drv_memory.o
                0x0001e7cc                DRV_MEMORY_CommandStatusGet

.text.SERCOM1_USART_Read%525
                0x0001e848       0x7c
 .text.SERCOM1_USART_Read
                0x0001e848       0x7c build/default/debug/_ext/504274921/plib_sercom1_usart.o
                0x0001e848                SERCOM1_USART_Read

.text.SYS_FS_FileClose%526
                0x0001e8c4       0x7c
 .text.SYS_FS_FileClose
                0x0001e8c4       0x7c build/default/debug/_ext/1269487135/sys_fs.o
                0x0001e8c4                SYS_FS_FileClose

.text.SYS_FS_FileTell%527
                0x0001e940       0x7c
 .text.SYS_FS_FileTell
                0x0001e940       0x7c build/default/debug/_ext/1269487135/sys_fs.o
                0x0001e940                SYS_FS_FileTell

.text.SYS_FS_FileSize%528
                0x0001e9bc       0x7c
 .text.SYS_FS_FileSize
                0x0001e9bc       0x7c build/default/debug/_ext/1269487135/sys_fs.o
                0x0001e9bc                SYS_FS_FileSize

.text.SYS_FS_DirClose%529
                0x0001ea38       0x7c
 .text.SYS_FS_DirClose
                0x0001ea38       0x7c build/default/debug/_ext/1269487135/sys_fs.o
                0x0001ea38                SYS_FS_DirClose

.text.__pop_ptr%530
                0x0001eab4       0x7c
 .text.__pop_ptr
                0x0001eab4       0x7c d:/microchip/bin/bin/../../lib/gcc/pic32c/8.3.1/../../../../pic32c/lib/thumb/v7e-m+fp/hard\libg-musl.a(__pop_ptr.o)
                0x0001eab4                __pop_ptr
                0x0001eab4                __pop_ptr_needed

.text.DRV_PIC32CGMAC_LibTxAckErrPacket%531
                0x0001eb30       0x7a
 .text.DRV_PIC32CGMAC_LibTxAckErrPacket
                0x0001eb30       0x7a build/default/debug/_ext/1546807373/drv_gmac_lib_samE5x.o
                0x0001eb30                DRV_PIC32CGMAC_LibTxAckErrPacket

.text.TCPIP_TCP_SocketInfoGet%532
                0x0001ebaa       0x7a
 .text.TCPIP_TCP_SocketInfoGet
                0x0001ebaa       0x7a build/default/debug/_ext/1033058136/tcp.o
                0x0001ebaa                TCPIP_TCP_SocketInfoGet

.text._DRV_ETHPHY_SetupPhaseNegotiate_SubPhase4%533
                0x0001ec24       0x78
 .text._DRV_ETHPHY_SetupPhaseNegotiate_SubPhase4
                0x0001ec24       0x78 build/default/debug/_ext/444070925/drv_ethphy.o

.text.DRV_PIC32CGMAC_LibTxInit%534
                0x0001ec9c       0x78
 .text.DRV_PIC32CGMAC_LibTxInit
                0x0001ec9c       0x78 build/default/debug/_ext/1546807373/drv_gmac_lib_samE5x.o
                0x0001ec9c                DRV_PIC32CGMAC_LibTxInit

.text.DRV_MIIM_Open%535
                0x0001ed14       0x78
 .text.DRV_MIIM_Open
                0x0001ed14       0x78 build/default/debug/_ext/438849557/drv_miim.o
                0x0001ed14                DRV_MIIM_Open

.text.DRV_MIIM_Initialize%536
                0x0001ed8c       0x78
 .text.DRV_MIIM_Initialize
                0x0001ed8c       0x78 build/default/debug/_ext/438849557/drv_miim.o
                0x0001ed8c                DRV_MIIM_Initialize

.text.TCPIP_SNMP_Deinitialize%537
                0x0001ee04       0x78
 .text.TCPIP_SNMP_Deinitialize
                0x0001ee04       0x78 build/default/debug/_ext/1033058136/snmp.o
                0x0001ee04                TCPIP_SNMP_Deinitialize

.text._HTTP_Cleanup%538
                0x0001ee7c       0x78
 .text._HTTP_Cleanup
                0x0001ee7c       0x78 build/default/debug/_ext/1033058136/http.o

.rodata%539     0x0001eef4       0x78
 .rodata        0x0001eef4       0x78 build/default/debug/_ext/1033058136/ipv4.o

.text.TCPIP_Helper_PacketCopy%540
                0x0001ef6c       0x78
 .text.TCPIP_Helper_PacketCopy
                0x0001ef6c       0x78 build/default/debug/_ext/1033058136/tcpip_helpers.o
                0x0001ef6c                TCPIP_Helper_PacketCopy

.text.__cvt_u%541
                0x0001efe4       0x78
 .text.__cvt_u  0x0001efe4       0x78 d:/microchip/bin/bin/../../lib/gcc/pic32c/8.3.1/../../../../pic32c/lib/thumb/v7e-m+fp/hard\libg-musl.a(__cvt_u.o)
                0x0001efe4                __cvt_u

.text._DRV_GMAC_LinkStateNegResult%542
                0x0001f05c       0x76
 .text._DRV_GMAC_LinkStateNegResult
                0x0001f05c       0x76 build/default/debug/_ext/1546807373/drv_gmac.o

.text.prvCopyDataToQueue%543
                0x0001f0d2       0x76
 .text.prvCopyDataToQueue
                0x0001f0d2       0x76 build/default/debug/_ext/404212886/queue.o

.text.strcspn%544
                0x0001f148       0x76
 .text.strcspn  0x0001f148       0x76 d:/microchip/bin/bin/../../lib/gcc/pic32c/8.3.1/../../../../pic32c/lib/thumb/v7e-m+fp/hard\libg-musl.a(strcspn.o)
                0x0001f148                strcspn

.text.DRV_GMAC_Process%545
                0x0001f1c0       0x74
 .text.DRV_GMAC_Process
                0x0001f1c0       0x74 build/default/debug/_ext/1546807373/drv_gmac.o
                0x0001f1c0                DRV_GMAC_Process

.text._ARPUpdateEntry%546
                0x0001f234       0x74
 .text._ARPUpdateEntry
                0x0001f234       0x74 build/default/debug/_ext/1033058136/arp.o

.text.TCPIP_ARP_EntryRemove%547
                0x0001f2a8       0x74
 .text.TCPIP_ARP_EntryRemove
                0x0001f2a8       0x74 build/default/debug/_ext/1033058136/arp.o
                0x0001f2a8                TCPIP_ARP_EntryRemove

.text.GenericTxDone%548
                0x0001f31c       0x74
 .text.GenericTxDone
                0x0001f31c       0x74 build/default/debug/_ext/1033058136/iperf.o

.text.TCPIP_DHCP_ConnectionHandler%549
                0x0001f390       0x74
 .text.TCPIP_DHCP_ConnectionHandler
                0x0001f390       0x74 build/default/debug/_ext/1033058136/dhcp.o
                0x0001f390                TCPIP_DHCP_ConnectionHandler

.text.prvIdleTask%550
                0x0001f404       0x74
 .text.prvIdleTask
                0x0001f404       0x74 build/default/debug/_ext/404212886/FreeRTOS_tasks.o

.text.xTaskRemoveFromEventList%551
                0x0001f478       0x74
 .text.xTaskRemoveFromEventList
                0x0001f478       0x74 build/default/debug/_ext/404212886/FreeRTOS_tasks.o
                0x0001f478                xTaskRemoveFromEventList

.text.wc_GenerateSeed%552
                0x0001f4ec       0x74
 .text.wc_GenerateSeed
                0x0001f4ec       0x74 build/default/debug/_ext/1664057780/random.o
                0x0001f4ec                wc_GenerateSeed

.text.TCPIP_HTTP_Print_reboot%553
                0x0001f560       0x74
 .text.TCPIP_HTTP_Print_reboot
                0x0001f560       0x74 build/default/debug/_ext/1360937237/custom_http_app.o
                0x0001f560                TCPIP_HTTP_Print_reboot

.text._MacTxPendingPackets%554
                0x0001f5d4       0x72
 .text._MacTxPendingPackets
                0x0001f5d4       0x72 build/default/debug/_ext/1546807373/drv_gmac.o

.text._TCPIP_StackSyncFunction%555
                0x0001f646       0x72
 .text._TCPIP_StackSyncFunction
                0x0001f646       0x72 build/default/debug/_ext/1033058136/tcpip_manager.o

.text.TCPIP_PKT_DataSegmentGet%556
                0x0001f6b8       0x72
 .text.TCPIP_PKT_DataSegmentGet
                0x0001f6b8       0x72 build/default/debug/_ext/1033058136/tcpip_packet.o
                0x0001f6b8                TCPIP_PKT_DataSegmentGet

.text.Hash_DRBG_Instantiate%557
                0x0001f72a       0x72
 .text.Hash_DRBG_Instantiate
                0x0001f72a       0x72 build/default/debug/_ext/1664057780/random.o

.text.__fmt_o%558
                0x0001f79c       0x72
 .text.__fmt_o  0x0001f79c       0x72 d:/microchip/bin/bin/../../lib/gcc/pic32c/8.3.1/../../../../pic32c/lib/thumb/v7e-m+fp/hard\libg-musl.a(__fmt_o.o)
                0x0001f79c                __fmt_o
                0x0001f79c                __fmt_o_needed

.text._DRV_ETHPHY_NegCompletePhaseAN_Restart%559
                0x0001f810       0x70
 .text._DRV_ETHPHY_NegCompletePhaseAN_Restart
                0x0001f810       0x70 build/default/debug/_ext/444070925/drv_ethphy.o

.text.DRV_GMAC_EventAcknowledge%560
                0x0001f880       0x70
 .text.DRV_GMAC_EventAcknowledge
                0x0001f880       0x70 build/default/debug/_ext/1546807373/drv_gmac.o
                0x0001f880                DRV_GMAC_EventAcknowledge

.text.DRV_GMAC_Tasks_ISR%561
                0x0001f8f0       0x70
 .text.DRV_GMAC_Tasks_ISR
                0x0001f8f0       0x70 build/default/debug/_ext/1546807373/drv_gmac.o
                0x0001f8f0                DRV_GMAC_Tasks_ISR

.text.DRV_MEMORY_DriverHandleValidate%562
                0x0001f960       0x70
 .text.DRV_MEMORY_DriverHandleValidate
                0x0001f960       0x70 build/default/debug/_ext/992804092/drv_memory.o

.text.TCPIP_SNMP_VarDataTypeIsValidInteger%563
                0x0001f9d0       0x70
 .text.TCPIP_SNMP_VarDataTypeIsValidInteger
                0x0001f9d0       0x70 build/default/debug/_ext/1033058136/snmp.o
                0x0001f9d0                TCPIP_SNMP_VarDataTypeIsValidInteger

.text.TCPIP_IPV4_Cleanup%564
                0x0001fa40       0x70
 .text.TCPIP_IPV4_Cleanup
                0x0001fa40       0x70 build/default/debug/_ext/1033058136/ipv4.o

.text.TCPIP_Helper_CalcIPChecksum%565
                0x0001fab0       0x70
 .text.TCPIP_Helper_CalcIPChecksum
                0x0001fab0       0x70 build/default/debug/_ext/1033058136/tcpip_helpers.o
                0x0001fab0                TCPIP_Helper_CalcIPChecksum

.text.xQueueGenericReset%566
                0x0001fb20       0x70
 .text.xQueueGenericReset
                0x0001fb20       0x70 build/default/debug/_ext/404212886/queue.o
                0x0001fb20                xQueueGenericReset

.text.TCPIP_SNMP_OIDStringGetByAddr%567
                0x0001fb90       0x6e
 .text.TCPIP_SNMP_OIDStringGetByAddr
                0x0001fb90       0x6e build/default/debug/_ext/1033058136/snmp.o

.text.DRV_PIC32CGMAC_LibMACOpen%568
                0x0001fc00       0x6c
 .text.DRV_PIC32CGMAC_LibMACOpen
                0x0001fc00       0x6c build/default/debug/_ext/1546807373/drv_gmac_lib_samE5x.o
                0x0001fc00                DRV_PIC32CGMAC_LibMACOpen

.text.TCPIP_ICMP_Initialize%569
                0x0001fc6c       0x6c
 .text.TCPIP_ICMP_Initialize
                0x0001fc6c       0x6c build/default/debug/_ext/1033058136/icmp.o
                0x0001fc6c                TCPIP_ICMP_Initialize

.text._Command_BIOSNameSet%570
                0x0001fcd8       0x6c
 .text._Command_BIOSNameSet
                0x0001fcd8       0x6c build/default/debug/_ext/1033058136/tcpip_commands.o

.text.TCPIP_DNS_Disable%571
                0x0001fd44       0x6c
 .text.TCPIP_DNS_Disable
                0x0001fd44       0x6c build/default/debug/_ext/1033058136/dns.o
                0x0001fd44                TCPIP_DNS_Disable

.text.SYS_CMD_ADDGRP%572
                0x0001fdb0       0x6c
 .text.SYS_CMD_ADDGRP
                0x0001fdb0       0x6c build/default/debug/_ext/1376093119/sys_command.o
                0x0001fdb0                SYS_CMD_ADDGRP

.text.SYS_CONSOLE_Print%573
                0x0001fe1c       0x6c
 .text.SYS_CONSOLE_Print
                0x0001fe1c       0x6c build/default/debug/_ext/1832805299/sys_console.o
                0x0001fe1c                SYS_CONSOLE_Print

.text.pvPortMalloc%574
                0x0001fe88       0x6c
 .text.pvPortMalloc
                0x0001fe88       0x6c build/default/debug/_ext/1665200909/heap_1.o
                0x0001fe88                pvPortMalloc

.text.DRV_MEMORY_HandleWrite%575
                0x0001fef4       0x6a
 .text.DRV_MEMORY_HandleWrite
                0x0001fef4       0x6a build/default/debug/_ext/992804092/drv_memory.o

.text.wc_CryptoCb_Sha256Hash%576
                0x0001ff5e       0x6a
 .text.wc_CryptoCb_Sha256Hash
                0x0001ff5e       0x6a build/default/debug/_ext/1664057780/cryptocb.o
                0x0001ff5e                wc_CryptoCb_Sha256Hash

.text.DRV_ETHPHY_Open%577
                0x0001ffc8       0x68
 .text.DRV_ETHPHY_Open
                0x0001ffc8       0x68 build/default/debug/_ext/444070925/drv_ethphy.o
                0x0001ffc8                DRV_ETHPHY_Open

.text._AllocateRxPacket%578
                0x00020030       0x68
 .text._AllocateRxPacket
                0x00020030       0x68 build/default/debug/_ext/1546807373/drv_gmac_lib_samE5x.o

.text.TCPIP_SNMP_LengthIsValid%579
                0x00020098       0x68
 .text.TCPIP_SNMP_LengthIsValid
                0x00020098       0x68 build/default/debug/_ext/1033058136/snmp.o
                0x00020098                TCPIP_SNMP_LengthIsValid

.text._TcpSwapHeader%580
                0x00020100       0x68
 .text._TcpSwapHeader
                0x00020100       0x68 build/default/debug/_ext/1033058136/tcp.o

.text._TcpCleanup%581
                0x00020168       0x68
 .text._TcpCleanup
                0x00020168       0x68 build/default/debug/_ext/1033058136/tcp.o

.text._DNS_AddSelectionIf%582
                0x000201d0       0x68
 .text._DNS_AddSelectionIf
                0x000201d0       0x68 build/default/debug/_ext/1033058136/dns.o

.text.TCPIP_OAHASH_EntryLookup%583
                0x00020238       0x68
 .text.TCPIP_OAHASH_EntryLookup
                0x00020238       0x68 build/default/debug/_ext/1033058136/oahash.o
                0x00020238                TCPIP_OAHASH_EntryLookup

.text._TCPIPStackInsertRxPacket%584
                0x000202a0       0x68
 .text._TCPIPStackInsertRxPacket
                0x000202a0       0x68 build/default/debug/_ext/1033058136/tcpip_manager.o
                0x000202a0                _TCPIPStackInsertRxPacket

.text.SYS_CONSOLE_Initialize%585
                0x00020308       0x68
 .text.SYS_CONSOLE_Initialize
                0x00020308       0x68 build/default/debug/_ext/1832805299/sys_console.o
                0x00020308                SYS_CONSOLE_Initialize

.text.SYS_FS_FileEOF%586
                0x00020370       0x68
 .text.SYS_FS_FileEOF
                0x00020370       0x68 build/default/debug/_ext/1269487135/sys_fs.o
                0x00020370                SYS_FS_FileEOF

.text.wc_RNG_TestSeed%587
                0x000203d8       0x68
 .text.wc_RNG_TestSeed
                0x000203d8       0x68 build/default/debug/_ext/1664057780/random.o
                0x000203d8                wc_RNG_TestSeed

.text._DRV_ETHPHY_NegResultPhase_BMSTAT%588
                0x00020440       0x64
 .text._DRV_ETHPHY_NegResultPhase_BMSTAT
                0x00020440       0x64 build/default/debug/_ext/444070925/drv_ethphy.o

.text._DRV_ETHPHY_ResetPhaseRead%589
                0x000204a4       0x64
 .text._DRV_ETHPHY_ResetPhaseRead
                0x000204a4       0x64 build/default/debug/_ext/444070925/drv_ethphy.o

.text.DRV_MEMORY_Close%590
                0x00020508       0x64
 .text.DRV_MEMORY_Close
                0x00020508       0x64 build/default/debug/_ext/992804092/drv_memory.o
                0x00020508                DRV_MEMORY_Close

.text.TCPIP_SNMP_OIDIsValid%591
                0x0002056c       0x64
 .text.TCPIP_SNMP_OIDIsValid
                0x0002056c       0x64 build/default/debug/_ext/1033058136/snmp.o
                0x0002056c                TCPIP_SNMP_OIDIsValid

.text.TCPIP_OAHASH_EntryLookupOrInsert%592
                0x000205d0       0x64
 .text.TCPIP_OAHASH_EntryLookupOrInsert
                0x000205d0       0x64 build/default/debug/_ext/1033058136/oahash.o
                0x000205d0                TCPIP_OAHASH_EntryLookupOrInsert

.text.TCPIP_STACK_BringNetDown%593
                0x00020634       0x64
 .text.TCPIP_STACK_BringNetDown
                0x00020634       0x64 build/default/debug/_ext/1033058136/tcpip_manager.o

.text.TCPIP_UDP_SocketInfoGet%594
                0x00020698       0x64
 .text.TCPIP_UDP_SocketInfoGet
                0x00020698       0x64 build/default/debug/_ext/1033058136/udp.o
                0x00020698                TCPIP_UDP_SocketInfoGet

.text.MPFS_DirOpen%595
                0x000206fc       0x64
 .text.MPFS_DirOpen
                0x000206fc       0x64 build/default/debug/_ext/699575981/mpfs.o
                0x000206fc                MPFS_DirOpen

.text.xPortPendSVHandler%596
                0x00020760       0x64
 .text.xPortPendSVHandler
                0x00020760       0x64 build/default/debug/_ext/246609638/port.o
                0x00020760                xPortPendSVHandler

.text.xQueueGiveFromISR%597
                0x000207c4       0x64
 .text.xQueueGiveFromISR
                0x000207c4       0x64 build/default/debug/_ext/404212886/queue.o
                0x000207c4                xQueueGiveFromISR

.text.vTaskStartScheduler%598
                0x00020828       0x64
 .text.vTaskStartScheduler
                0x00020828       0x64 build/default/debug/_ext/404212886/FreeRTOS_tasks.o
                0x00020828                vTaskStartScheduler

.text.wc_InitSha256_ex%599
                0x0002088c       0x64
 .text.wc_InitSha256_ex
                0x0002088c       0x64 build/default/debug/_ext/1664057780/sha256.o
                0x0002088c                wc_InitSha256_ex

.text._MacRxPacketAck%600
                0x000208f0       0x62
 .text._MacRxPacketAck
                0x000208f0       0x62 build/default/debug/_ext/1546807373/drv_gmac_lib_samE5x.o

.text.TCPIP_ARP_EntryGet%601
                0x00020952       0x62
 .text.TCPIP_ARP_EntryGet
                0x00020952       0x62 build/default/debug/_ext/1033058136/arp.o
                0x00020952                TCPIP_ARP_EntryGet

.text.DRV_MEMORY_HandleErase%602
                0x000209b4       0x60
 .text.DRV_MEMORY_HandleErase
                0x000209b4       0x60 build/default/debug/_ext/992804092/drv_memory.o

.text._PingStop%603
                0x00020a14       0x60
 .text._PingStop
                0x00020a14       0x60 build/default/debug/_ext/1033058136/tcpip_commands.o

.text.Ipv4FilterSetActive%604
                0x00020a74       0x60
 .text.Ipv4FilterSetActive
                0x00020a74       0x60 build/default/debug/_ext/1033058136/ipv4.o
                0x00020a74                Ipv4FilterSetActive

.text._DHCPOptionProcessDns%605
                0x00020ad4       0x60
 .text._DHCPOptionProcessDns
                0x00020ad4       0x60 build/default/debug/_ext/1033058136/dhcp.o

.text.TCPIP_DHCP_Disable%606
                0x00020b34       0x60
 .text.TCPIP_DHCP_Disable
                0x00020b34       0x60 build/default/debug/_ext/1033058136/dhcp.o
                0x00020b34                TCPIP_DHCP_Disable

.text.TCPIP_DNS_ClientDeinitialize%607
                0x00020b94       0x60
 .text.TCPIP_DNS_ClientDeinitialize
                0x00020b94       0x60 build/default/debug/_ext/1033058136/dns.o
                0x00020b94                TCPIP_DNS_ClientDeinitialize

.text.TCPIP_DNS_GetIPAddressesNumber%608
                0x00020bf4       0x60
 .text.TCPIP_DNS_GetIPAddressesNumber
                0x00020bf4       0x60 build/default/debug/_ext/1033058136/dns.o
                0x00020bf4                TCPIP_DNS_GetIPAddressesNumber

.text._TCPIP_SelectDefaultNet%609
                0x00020c54       0x60
 .text._TCPIP_SelectDefaultNet
                0x00020c54       0x60 build/default/debug/_ext/1033058136/tcpip_manager.o

.text.vsnprintf%610
                0x00020cb4       0x60
 .text.vsnprintf
                0x00020cb4       0x60 d:/microchip/bin/bin/../../lib/gcc/pic32c/8.3.1/../../../../pic32c/lib/thumb/v7e-m+fp/hard\libg-musl.a(vsnprintf.o)
                0x00020cb4                vsnprintf

.text.strstr%611
                0x00020d14       0x60
 .text.strstr   0x00020d14       0x60 d:/microchip/bin/bin/../../lib/gcc/pic32c/8.3.1/../../../../pic32c/lib/thumb/v7e-m+fp/hard\libg-musl.a(strstr.o)
                0x00020d14                strstr

.text.__strchrnul%612
                0x00020d74       0x60
 .text.__strchrnul
                0x00020d74       0x60 d:/microchip/bin/bin/../../lib/gcc/pic32c/8.3.1/../../../../pic32c/lib/thumb/v7e-m+fp/hard\libg-musl.a(strchrnul.o)
                0x00020d74                strchrnul
                0x00020d74                __strchrnul

.text._DRV_ETHPHY_NegCompletePhaseRead2%613
                0x00020dd4       0x5c
 .text._DRV_ETHPHY_NegCompletePhaseRead2
                0x00020dd4       0x5c build/default/debug/_ext/444070925/drv_ethphy.o

.rodata.DRV_ETHPHY_OBJECT_BASE_Default%614
                0x00020e30       0x5c
 .rodata.DRV_ETHPHY_OBJECT_BASE_Default
                0x00020e30       0x5c build/default/debug/_ext/444070925/drv_ethphy.o
                0x00020e30                DRV_ETHPHY_OBJECT_BASE_Default

.text._DRV_GMAC_LinkStateWaitLinkUp%615
                0x00020e8c       0x5c
 .text._DRV_GMAC_LinkStateWaitLinkUp
                0x00020e8c       0x5c build/default/debug/_ext/1546807373/drv_gmac.o

.text.DRV_GMAC_RegisterStatisticsGet%616
                0x00020ee8       0x5c
 .text.DRV_GMAC_RegisterStatisticsGet
                0x00020ee8       0x5c build/default/debug/_ext/1546807373/drv_gmac.o
                0x00020ee8                DRV_GMAC_RegisterStatisticsGet

.text.uitoa%617
                0x00020f44       0x5c
 .text.uitoa    0x00020f44       0x5c build/default/debug/_ext/1033058136/helpers.o
                0x00020f44                uitoa

.text._TcpClientSocketConnect%618
                0x00020fa0       0x5c
 .text._TcpClientSocketConnect
                0x00020fa0       0x5c build/default/debug/_ext/1033058136/tcp.o

.text.TCPIP_ARP_Probe%619
                0x00020ffc       0x5c
 .text.TCPIP_ARP_Probe
                0x00020ffc       0x5c build/default/debug/_ext/1033058136/arp.o
                0x00020ffc                TCPIP_ARP_Probe

.text.TCPIP_DHCP_Enable%620
                0x00021058       0x5c
 .text.TCPIP_DHCP_Enable
                0x00021058       0x5c build/default/debug/_ext/1033058136/dhcp.o
                0x00021058                TCPIP_DHCP_Enable

.text._TCPIPStackIpAddFromAnyNet%621
                0x000210b4       0x5c
 .text._TCPIPStackIpAddFromAnyNet
                0x000210b4       0x5c build/default/debug/_ext/1033058136/tcpip_manager.o
                0x000210b4                _TCPIPStackIpAddFromAnyNet

.text.SYS_FS_MEDIA_MANAGER_MediaStatusGet%622
                0x00021110       0x5c
 .text.SYS_FS_MEDIA_MANAGER_MediaStatusGet
                0x00021110       0x5c build/default/debug/_ext/1269487135/sys_fs_media_manager.o
                0x00021110                SYS_FS_MEDIA_MANAGER_MediaStatusGet

.text.SYS_TIME_RemoveFromList%623
                0x0002116c       0x5c
 .text.SYS_TIME_RemoveFromList
                0x0002116c       0x5c build/default/debug/_ext/101884895/sys_time.o

.text.xTaskCheckForTimeOut%624
                0x000211c8       0x5c
 .text.xTaskCheckForTimeOut
                0x000211c8       0x5c build/default/debug/_ext/404212886/FreeRTOS_tasks.o
                0x000211c8                xTaskCheckForTimeOut

.text.wc_CryptoCb_RandomBlock%625
                0x00021224       0x5c
 .text.wc_CryptoCb_RandomBlock
                0x00021224       0x5c build/default/debug/_ext/1664057780/cryptocb.o
                0x00021224                wc_CryptoCb_RandomBlock

.text.__libc_start_init%626
                0x00021280       0x5c
 .text.__libc_start_init
                0x00021280       0x5c d:/microchip/bin/bin/../../lib/gcc/pic32c/8.3.1/../../../../pic32c/lib/thumb/v7e-m+fp/hard\libg-musl.a(__libc_start_main.o)
                0x00021280                __libc_init_array

.text.unbin%627
                0x000212dc       0x5c
 .text.unbin    0x000212dc       0x5c d:/microchip/bin/bin/../../lib/gcc/pic32c/8.3.1/../../../../pic32c/lib/thumb/v7e-m+fp/hard\libg-musl.a(malloc.o)

.rodata%628     0x00021338       0x5c
 .rodata        0x00021338       0x5c d:/microchip/bin/bin/../../lib/gcc/pic32c/8.3.1/../../../../pic32c/lib/thumb/v7e-m+fp/hard\libg-musl.a(malloc.o)

.text.DRV_PIC32CGMAC_LibRxBuffersCountGet%629
                0x00021394       0x5a
 .text.DRV_PIC32CGMAC_LibRxBuffersCountGet
                0x00021394       0x5a build/default/debug/_ext/1546807373/drv_gmac_lib_samE5x.o
                0x00021394                DRV_PIC32CGMAC_LibRxBuffersCountGet

.text.TCPIP_UDP_BcastIPV4AddressSet%630
                0x000213ee       0x5a
 .text.TCPIP_UDP_BcastIPV4AddressSet
                0x000213ee       0x5a build/default/debug/_ext/1033058136/udp.o
                0x000213ee                TCPIP_UDP_BcastIPV4AddressSet

.text.DRV_ETHPHY_Initialize%631
                0x00021448       0x58
 .text.DRV_ETHPHY_Initialize
                0x00021448       0x58 build/default/debug/_ext/444070925/drv_ethphy.o
                0x00021448                DRV_ETHPHY_Initialize

.text.DRV_GMAC_RxFilterHashTableEntrySet%632
                0x000214a0       0x58
 .text.DRV_GMAC_RxFilterHashTableEntrySet
                0x000214a0       0x58 build/default/debug/_ext/1546807373/drv_gmac.o
                0x000214a0                DRV_GMAC_RxFilterHashTableEntrySet

.rodata.DRV_GMAC_Object%633
                0x000214f8       0x58
 .rodata.DRV_GMAC_Object
                0x000214f8       0x58 build/default/debug/_ext/1546807373/drv_gmac.o
                0x000214f8                DRV_GMAC_Object

.text._DNS_Enable%634
                0x00021550       0x58
 .text._DNS_Enable
                0x00021550       0x58 build/default/debug/_ext/1033058136/dns.o

.text._TCPIPStackModuleSignalRequest%635
                0x000215a8       0x58
 .text._TCPIPStackModuleSignalRequest
                0x000215a8       0x58 build/default/debug/_ext/1033058136/tcpip_manager.o
                0x000215a8                _TCPIPStackModuleSignalRequest

.text.OSAL_SEM_Create%636
                0x00021600       0x58
 .text.OSAL_SEM_Create
                0x00021600       0x58 build/default/debug/_ext/1529399856/osal_freertos.o
                0x00021600                OSAL_SEM_Create

.text.MPFSGetArray%637
                0x00021658       0x58
 .text.MPFSGetArray
                0x00021658       0x58 build/default/debug/_ext/699575981/mpfs.o

.text.SYS_TIME_TimerAdd%638
                0x000216b0       0x58
 .text.SYS_TIME_TimerAdd
                0x000216b0       0x58 build/default/debug/_ext/101884895/sys_time.o

.text.SYS_TIME_TimerStart%639
                0x00021708       0x58
 .text.SYS_TIME_TimerStart
                0x00021708       0x58 build/default/debug/_ext/101884895/sys_time.o
                0x00021708                SYS_TIME_TimerStart

.text.SYS_TIME_CallbackRegisterUS%640
                0x00021760       0x58
 .text.SYS_TIME_CallbackRegisterUS
                0x00021760       0x58 build/default/debug/_ext/101884895/sys_time.o
                0x00021760                SYS_TIME_CallbackRegisterUS

.rodata.TCPIP_STACK_MODULE_CONFIG_TBL%641
                0x000217b8       0x58
 .rodata.TCPIP_STACK_MODULE_CONFIG_TBL
                0x000217b8       0x58 build/default/debug/_ext/1171490990/initialization.o
                0x000217b8                TCPIP_STACK_MODULE_CONFIG_TBL

.text.__shgetc%642
                0x00021810       0x58
 .text.__shgetc
                0x00021810       0x58 d:/microchip/bin/bin/../../lib/gcc/pic32c/8.3.1/../../../../pic32c/lib/thumb/v7e-m+fp/hard\libg-musl.a(shgetc.o)
                0x00021810                __shgetc

.text.__fmt_s%643
                0x00021868       0x58
 .text.__fmt_s  0x00021868       0x58 d:/microchip/bin/bin/../../lib/gcc/pic32c/8.3.1/../../../../pic32c/lib/thumb/v7e-m+fp/hard\libg-musl.a(__fmt_s.o)
                0x00021868                __fmt_s
                0x00021868                __fmt_0_needed
                0x00021868                __fmt_s_needed

.text.DRV_MIIM_OperationAbort%644
                0x000218c0       0x56
 .text.DRV_MIIM_OperationAbort
                0x000218c0       0x56 build/default/debug/_ext/438849557/drv_miim.o
                0x000218c0                DRV_MIIM_OperationAbort

.text.__fmt_u%645
                0x00021916       0x56
 .text.__fmt_u  0x00021916       0x56 d:/microchip/bin/bin/../../lib/gcc/pic32c/8.3.1/../../../../pic32c/lib/thumb/v7e-m+fp/hard\libg-musl.a(__fmt_u.o)
                0x00021916                __fmt_u_needed
                0x00021916                __fmt_u

.text._DRV_PHY_SMITransferWaitComplete%646
                0x0002196c       0x54
 .text._DRV_PHY_SMITransferWaitComplete
                0x0002196c       0x54 build/default/debug/_ext/444070925/drv_ethphy.o

.text._ARPNotifyClients%647
                0x000219c0       0x54
 .text._ARPNotifyClients
                0x000219c0       0x54 build/default/debug/_ext/1033058136/arp.o

.text.IperfSetState%648
                0x00021a14       0x54
 .text.IperfSetState
                0x00021a14       0x54 build/default/debug/_ext/1033058136/iperf.o

.text.TCPIP_IPERF_Deinitialize%649
                0x00021a68       0x54
 .text.TCPIP_IPERF_Deinitialize
                0x00021a68       0x54 build/default/debug/_ext/1033058136/iperf.o
                0x00021a68                TCPIP_IPERF_Deinitialize

.text.IPv4RegisterFilter%650
                0x00021abc       0x54
 .text.IPv4RegisterFilter
                0x00021abc       0x54 build/default/debug/_ext/1033058136/ipv4.o
                0x00021abc                IPv4RegisterFilter

.text._DHCPOptionWriteSrvIdent%651
                0x00021b10       0x54
 .text._DHCPOptionWriteSrvIdent
                0x00021b10       0x54 build/default/debug/_ext/1033058136/dhcp.o

.text.TCPIP_DNS_RemoveAll%652
                0x00021b64       0x54
 .text.TCPIP_DNS_RemoveAll
                0x00021b64       0x54 build/default/debug/_ext/1033058136/dns.o
                0x00021b64                TCPIP_DNS_RemoveAll

.text.TCPIP_STACK_StringToMACId%653
                0x00021bb8       0x54
 .text.TCPIP_STACK_StringToMACId
                0x00021bb8       0x54 build/default/debug/_ext/1033058136/tcpip_manager.o
                0x00021bb8                TCPIP_STACK_StringToMACId

.text._TCPIPStackAnyNetLinked%654
                0x00021c0c       0x54
 .text._TCPIPStackAnyNetLinked
                0x00021c0c       0x54 build/default/debug/_ext/1033058136/tcpip_manager.o
                0x00021c0c                _TCPIPStackAnyNetLinked

.text._SYS_FS_MEDIA_MANAGER_HandleMediaDetach%655
                0x00021c60       0x54
 .text._SYS_FS_MEDIA_MANAGER_HandleMediaDetach
                0x00021c60       0x54 build/default/debug/_ext/1269487135/sys_fs_media_manager.o

.text.SYS_TIME_CallbackRegisterMS%656
                0x00021cb4       0x54
 .text.SYS_TIME_CallbackRegisterMS
                0x00021cb4       0x54 build/default/debug/_ext/101884895/sys_time.o
                0x00021cb4                SYS_TIME_CallbackRegisterMS

.text.stpncpy%657
                0x00021d08       0x54
 .text.stpncpy  0x00021d08       0x54 d:/microchip/bin/bin/../../lib/gcc/pic32c/8.3.1/../../../../pic32c/lib/thumb/v7e-m+fp/hard\libg-musl.a(stpncpy.o)
                0x00021d08                __stpncpy
                0x00021d08                stpncpy

.text._TcpAbort%658
                0x00021d5c       0x52
 .text._TcpAbort
                0x00021d5c       0x52 build/default/debug/_ext/1033058136/tcp.o

.text.TCPIP_TCP_RemoteBind%659
                0x00021dae       0x52
 .text.TCPIP_TCP_RemoteBind
                0x00021dae       0x52 build/default/debug/_ext/1033058136/tcp.o
                0x00021dae                TCPIP_TCP_RemoteBind

.text._DNS_DeleteHash%660
                0x00021e00       0x52
 .text._DNS_DeleteHash
                0x00021e00       0x52 build/default/debug/_ext/1033058136/dns.o

.text.strtox%661
                0x00021e52       0x52
 .text.strtox   0x00021e52       0x52 d:/microchip/bin/bin/../../lib/gcc/pic32c/8.3.1/../../../../pic32c/lib/thumb/v7e-m+fp/hard\libg-musl.a(strtol.o)

.text.DRV_ETHPHY_LinkStatusGet%662
                0x00021ea4       0x50
 .text.DRV_ETHPHY_LinkStatusGet
                0x00021ea4       0x50 build/default/debug/_ext/444070925/drv_ethphy.o
                0x00021ea4                DRV_ETHPHY_LinkStatusGet

.text.DRV_GMAC_ParametersGet%663
                0x00021ef4       0x50
 .text.DRV_GMAC_ParametersGet
                0x00021ef4       0x50 build/default/debug/_ext/1546807373/drv_gmac.o
                0x00021ef4                DRV_GMAC_ParametersGet

.rodata%664     0x00021f44       0x50
 .rodata        0x00021f44       0x50 build/default/debug/_ext/1033058136/snmp.o

.rodata%665     0x00021f94       0x50
 .rodata        0x00021f94       0x50 build/default/debug/_ext/1033058136/tcp.o

.text._DHCPOptionWriteIPRequest%666
                0x00021fe4       0x50
 .text._DHCPOptionWriteIPRequest
                0x00021fe4       0x50 build/default/debug/_ext/1033058136/dhcp.o

.text.TCPIP_DHCP_Renew%667
                0x00022034       0x50
 .text.TCPIP_DHCP_Renew
                0x00022034       0x50 build/default/debug/_ext/1033058136/dhcp.o
                0x00022034                TCPIP_DHCP_Renew

.text.TCPIP_DNS_OAHASH_DeleteEntry%668
                0x00022084       0x50
 .text.TCPIP_DNS_OAHASH_DeleteEntry
                0x00022084       0x50 build/default/debug/_ext/1033058136/dns.o

.text.SYS_CONSOLE_Status%669
                0x000220d4       0x50
 .text.SYS_CONSOLE_Status
                0x000220d4       0x50 build/default/debug/_ext/1832805299/sys_console.o
                0x000220d4                SYS_CONSOLE_Status

.text.MPFSGetFileRecord%670
                0x00022124       0x50
 .text.MPFSGetFileRecord
                0x00022124       0x50 build/default/debug/_ext/699575981/mpfs.o

.text.SYS_FS_FileNameGet%671
                0x00022174       0x50
 .text.SYS_FS_FileNameGet
                0x00022174       0x50 build/default/debug/_ext/1269487135/sys_fs.o
                0x00022174                SYS_FS_FileNameGet

.rodata%672     0x000221c4       0x50
 .rodata        0x000221c4       0x50 build/default/debug/_ext/1171490990/tasks.o

.text._DRV_ETHPHY_SetupPhaseNegotiate_SubPhase7%673
                0x00022214       0x4e
 .text._DRV_ETHPHY_SetupPhaseNegotiate_SubPhase7
                0x00022214       0x4e build/default/debug/_ext/444070925/drv_ethphy.o

.text._DRV_MIIM_GetClientAndLock%674
                0x00022262       0x4e
 .text._DRV_MIIM_GetClientAndLock
                0x00022262       0x4e build/default/debug/_ext/438849557/drv_miim.o

.text.TCPIP_HTTP_PostValueRead%675
                0x000222b0       0x4e
 .text.TCPIP_HTTP_PostValueRead
                0x000222b0       0x4e build/default/debug/_ext/1033058136/http.o
                0x000222b0                TCPIP_HTTP_PostValueRead

.text.TCPIP_IPV4_SelectDestInterface%676
                0x000222fe       0x4e
 .text.TCPIP_IPV4_SelectDestInterface
                0x000222fe       0x4e build/default/debug/_ext/1033058136/ipv4.o
                0x000222fe                TCPIP_IPV4_SelectDestInterface

.text.TCPIP_UDP_PutIsReady%677
                0x0002234c       0x4e
 .text.TCPIP_UDP_PutIsReady
                0x0002234c       0x4e build/default/debug/_ext/1033058136/udp.o
                0x0002234c                TCPIP_UDP_PutIsReady

.text._DRV_ETHPHY_LinkStatPhaseRead%678
                0x0002239a       0x4c
 .text._DRV_ETHPHY_LinkStatPhaseRead
                0x0002239a       0x4c build/default/debug/_ext/444070925/drv_ethphy.o

.text.TCPIP_SNMP_WriteCommunitySet%679
                0x000223e8       0x4c
 .text.TCPIP_SNMP_WriteCommunitySet
                0x000223e8       0x4c build/default/debug/_ext/1033058136/snmp.o
                0x000223e8                TCPIP_SNMP_WriteCommunitySet

.text.TCPIP_SNMP_ReadCommunitySet%680
                0x00022434       0x4c
 .text.TCPIP_SNMP_ReadCommunitySet
                0x00022434       0x4c build/default/debug/_ext/1033058136/snmp.o
                0x00022434                TCPIP_SNMP_ReadCommunitySet

.text._TcpSocketKill%681
                0x00022480       0x4c
 .text._TcpSocketKill
                0x00022480       0x4c build/default/debug/_ext/1033058136/tcp.o

.text.ResetIperfCounters%682
                0x000224cc       0x4c
 .text.ResetIperfCounters
                0x000224cc       0x4c build/default/debug/_ext/1033058136/iperf.o

.text._DHCPSetRunFail%683
                0x00022518       0x4c
 .text._DHCPSetRunFail
                0x00022518       0x4c build/default/debug/_ext/1033058136/dhcp.o

.text.TCPIP_Helper_IPAddressToString%684
                0x00022564       0x4c
 .text.TCPIP_Helper_IPAddressToString
                0x00022564       0x4c build/default/debug/_ext/1033058136/tcpip_helpers.o
                0x00022564                TCPIP_Helper_IPAddressToString

.text._TCPIP_MacEventCB%685
                0x000225b0       0x4c
 .text._TCPIP_MacEventCB
                0x000225b0       0x4c build/default/debug/_ext/1033058136/tcpip_manager.o

.text._UDPClose%686
                0x000225fc       0x4c
 .text._UDPClose
                0x000225fc       0x4c build/default/debug/_ext/1033058136/udp.o

.text.SYS_FS_MEDIA_MANAGER_Read%687
                0x00022648       0x4c
 .text.SYS_FS_MEDIA_MANAGER_Read
                0x00022648       0x4c build/default/debug/_ext/1269487135/sys_fs_media_manager.o
                0x00022648                SYS_FS_MEDIA_MANAGER_Read

.text.__pic32c_data_initialization%688
                0x00022694       0x4c
 .text.__pic32c_data_initialization
                0x00022694       0x4c d:/microchip/bin/bin/../../lib/gcc/pic32c/8.3.1/../../../../pic32c/lib/thumb/v7e-m+fp/hard\libpic32c.a(data_init.o)
                0x00022694                __pic32c_data_initialization

.text.TCPIP_IPV4_SelectSourceInterface%689
                0x000226e0       0x4a
 .text.TCPIP_IPV4_SelectSourceInterface
                0x000226e0       0x4a build/default/debug/_ext/1033058136/ipv4.o
                0x000226e0                TCPIP_IPV4_SelectSourceInterface

.text.TCPIP_UDP_ArrayPut%690
                0x0002272a       0x4a
 .text.TCPIP_UDP_ArrayPut
                0x0002272a       0x4a build/default/debug/_ext/1033058136/udp.o
                0x0002272a                TCPIP_UDP_ArrayPut

.text.TCPIP_UDP_DestinationIPAddressSet%691
                0x00022774       0x4a
 .text.TCPIP_UDP_DestinationIPAddressSet
                0x00022774       0x4a build/default/debug/_ext/1033058136/udp.o
                0x00022774                TCPIP_UDP_DestinationIPAddressSet

.text.__toread%692
                0x000227be       0x4a
 .text.__toread
                0x000227be       0x4a d:/microchip/bin/bin/../../lib/gcc/pic32c/8.3.1/../../../../pic32c/lib/thumb/v7e-m+fp/hard\libg-musl.a(__toread.o)
                0x000227be                __toread

.text.__aeabi_d2iz%693
                0x00022808       0x4a
 .text.__aeabi_d2iz
                0x00022808       0x4a d:/microchip/bin/bin/../../lib/gcc/pic32c/8.3.1/../../../../pic32c/lib/thumb/v7e-m+fp/hard\libm-fast-emfloat.a(__aeabi_d2iz.o)
                0x00022808                __aeabi_d2iz

.text.DRV_ETHPHY_NegotiationResultGet%694
                0x00022854       0x48
 .text.DRV_ETHPHY_NegotiationResultGet
                0x00022854       0x48 build/default/debug/_ext/444070925/drv_ethphy.o
                0x00022854                DRV_ETHPHY_NegotiationResultGet

.text.DRV_GMAC_LinkCheck%695
                0x0002289c       0x48
 .text.DRV_GMAC_LinkCheck
                0x0002289c       0x48 build/default/debug/_ext/1546807373/drv_gmac.o
                0x0002289c                DRV_GMAC_LinkCheck

.rodata.default_shell_obj%696
                0x000228e4       0x48
 .rodata.default_shell_obj
                0x000228e4       0x48 build/default/debug/_ext/1751889202/sys_fs_shell.o

.text._TCPSendWinIncUpdate%697
                0x0002292c       0x48
 .text._TCPSendWinIncUpdate
                0x0002292c       0x48 build/default/debug/_ext/1033058136/tcp.o

.text.TCPIP_TCP_DestinationIPAddressSet%698
                0x00022974       0x48
 .text.TCPIP_TCP_DestinationIPAddressSet
                0x00022974       0x48 build/default/debug/_ext/1033058136/tcp.o
                0x00022974                TCPIP_TCP_DestinationIPAddressSet

.text.TCPIP_ARP_Deinitialize%699
                0x000229bc       0x48
 .text.TCPIP_ARP_Deinitialize
                0x000229bc       0x48 build/default/debug/_ext/1033058136/arp.o
                0x000229bc                TCPIP_ARP_Deinitialize

.rodata._DHCPOptProcTbl%700
                0x00022a04       0x48
 .rodata._DHCPOptProcTbl
                0x00022a04       0x48 build/default/debug/_ext/1033058136/dhcp.o

.text.TCPIP_STACK_MACIdToNet%701
                0x00022a4c       0x48
 .text.TCPIP_STACK_MACIdToNet
                0x00022a4c       0x48 build/default/debug/_ext/1033058136/tcpip_manager.o
                0x00022a4c                TCPIP_STACK_MACIdToNet

.text.TCPIP_STACK_MatchNetAddress%702
                0x00022a94       0x48
 .text.TCPIP_STACK_MatchNetAddress
                0x00022a94       0x48 build/default/debug/_ext/1033058136/tcpip_manager.o
                0x00022a94                TCPIP_STACK_MatchNetAddress

.text._TCPIPStackSignalHandlerRegister%703
                0x00022adc       0x48
 .text._TCPIPStackSignalHandlerRegister
                0x00022adc       0x48 build/default/debug/_ext/1033058136/tcpip_manager.o
                0x00022adc                _TCPIPStackSignalHandlerRegister

.rodata.keySeqTbl%704
                0x00022b24       0x48
 .rodata.keySeqTbl
                0x00022b24       0x48 build/default/debug/_ext/1376093119/sys_command.o

.text.xPortStartScheduler%705
                0x00022b6c       0x48
 .text.xPortStartScheduler
                0x00022b6c       0x48 build/default/debug/_ext/246609638/port.o
                0x00022b6c                xPortStartScheduler

.text.wc_CryptoCb_FindDeviceByIndex%706
                0x00022bb4       0x48
 .text.wc_CryptoCb_FindDeviceByIndex
                0x00022bb4       0x48 build/default/debug/_ext/1664057780/cryptocb.o

.text.strtok%707
                0x00022bfc       0x48
 .text.strtok   0x00022bfc       0x48 d:/microchip/bin/bin/../../lib/gcc/pic32c/8.3.1/../../../../pic32c/lib/thumb/v7e-m+fp/hard\libg-musl.a(strtok.o)
                0x00022bfc                strtok

.text._DRV_GMAC_LinkStateGetLink%708
                0x00022c44       0x46
 .text._DRV_GMAC_LinkStateGetLink
                0x00022c44       0x46 build/default/debug/_ext/1546807373/drv_gmac.o

.text.Shell_GetCwd%709
                0x00022c8a       0x46
 .text.Shell_GetCwd
                0x00022c8a       0x46 build/default/debug/_ext/1751889202/sys_fs_shell.o

.text.Shell_GetRoot%710
                0x00022cd0       0x46
 .text.Shell_GetRoot
                0x00022cd0       0x46 build/default/debug/_ext/1751889202/sys_fs_shell.o

.text.TCPIP_TCP_FifoTxFullGet%711
                0x00022d16       0x46
 .text.TCPIP_TCP_FifoTxFullGet
                0x00022d16       0x46 build/default/debug/_ext/1033058136/tcp.o
                0x00022d16                TCPIP_TCP_FifoTxFullGet

.text.TCPIP_ARP_Resolve%712
                0x00022d5c       0x46
 .text.TCPIP_ARP_Resolve
                0x00022d5c       0x46 build/default/debug/_ext/1033058136/arp.o
                0x00022d5c                TCPIP_ARP_Resolve

.text._TCPIP_HEAP_Delete%713
                0x00022da2       0x46
 .text._TCPIP_HEAP_Delete
                0x00022da2       0x46 build/default/debug/_ext/1033058136/tcpip_heap_internal.o

.text.TCPIP_Helper_SingleListNodeRemove%714
                0x00022de8       0x46
 .text.TCPIP_Helper_SingleListNodeRemove
                0x00022de8       0x46 build/default/debug/_ext/1033058136/tcpip_helpers.o
                0x00022de8                TCPIP_Helper_SingleListNodeRemove

.text.TCPIP_Notification_CbackRemove%715
                0x00022e2e       0x46
 .text.TCPIP_Notification_CbackRemove
                0x00022e2e       0x46 build/default/debug/_ext/1033058136/tcpip_notify.o
                0x00022e2e                TCPIP_Notification_CbackRemove

.text.TCPIP_UDP_SignalHandlerRegister%716
                0x00022e74       0x46
 .text.TCPIP_UDP_SignalHandlerRegister
                0x00022e74       0x46 build/default/debug/_ext/1033058136/udp.o
                0x00022e74                TCPIP_UDP_SignalHandlerRegister

.text.atoi%717  0x00022eba       0x46
 .text.atoi     0x00022eba       0x46 d:/microchip/bin/bin/../../lib/gcc/pic32c/8.3.1/../../../../pic32c/lib/thumb/v7e-m+fp/hard\libg-musl.a(atoi.o)
                0x00022eba                atoi

.text.atol%718  0x00022f00       0x46
 .text.atol     0x00022f00       0x46 d:/microchip/bin/bin/../../lib/gcc/pic32c/8.3.1/../../../../pic32c/lib/thumb/v7e-m+fp/hard\libg-musl.a(atol.o)
                0x00022f00                atol

.text.DRV_GMAC_ConfigGet%719
                0x00022f48       0x44
 .text.DRV_GMAC_ConfigGet
                0x00022f48       0x44 build/default/debug/_ext/1546807373/drv_gmac.o
                0x00022f48                DRV_GMAC_ConfigGet

.text._MacTxDiscardQueues%720
                0x00022f8c       0x44
 .text._MacTxDiscardQueues
                0x00022f8c       0x44 build/default/debug/_ext/1546807373/drv_gmac.o

.text.Helper_SingleListNodeRemove%721
                0x00022fd0       0x44
 .text.Helper_SingleListNodeRemove
                0x00022fd0       0x44 build/default/debug/_ext/438849557/drv_miim.o
                0x00022fd0                Helper_SingleListNodeRemove

.text._SNMP_Trap_Initialize%722
                0x00023014       0x44
 .text._SNMP_Trap_Initialize
                0x00023014       0x44 build/default/debug/_ext/1033058136/snmp.o

.text.TCPIP_SNMP_GetArrayOfDataFromUDPBuff%723
                0x00023058       0x44
 .text.TCPIP_SNMP_GetArrayOfDataFromUDPBuff
                0x00023058       0x44 build/default/debug/_ext/1033058136/snmp.o
                0x00023058                TCPIP_SNMP_GetArrayOfDataFromUDPBuff

.text.TCPIP_SNMP_WriteCommunityGet%724
                0x0002309c       0x44
 .text.TCPIP_SNMP_WriteCommunityGet
                0x0002309c       0x44 build/default/debug/_ext/1033058136/snmp.o
                0x0002309c                TCPIP_SNMP_WriteCommunityGet

.text.TCPIP_SNMP_ReadCommunityGet%725
                0x000230e0       0x44
 .text.TCPIP_SNMP_ReadCommunityGet
                0x000230e0       0x44 build/default/debug/_ext/1033058136/snmp.o
                0x000230e0                TCPIP_SNMP_ReadCommunityGet

.text.TCPIP_TCP_SignalHandlerRegister%726
                0x00023124       0x44
 .text.TCPIP_TCP_SignalHandlerRegister
                0x00023124       0x44 build/default/debug/_ext/1033058136/tcp.o
                0x00023124                TCPIP_TCP_SignalHandlerRegister

.text._MiimClose%727
                0x00023168       0x44
 .text._MiimClose
                0x00023168       0x44 build/default/debug/_ext/1033058136/tcpip_commands.o

.text.TCPIP_Helper_MACAddressToString%728
                0x000231ac       0x44
 .text.TCPIP_Helper_MACAddressToString
                0x000231ac       0x44 build/default/debug/_ext/1033058136/tcpip_helpers.o
                0x000231ac                TCPIP_Helper_MACAddressToString

.text.TCPIP_STACK_NetByAddress%729
                0x000231f0       0x44
 .text.TCPIP_STACK_NetByAddress
                0x000231f0       0x44 build/default/debug/_ext/1033058136/tcpip_manager.o
                0x000231f0                TCPIP_STACK_NetByAddress

.text.TCPIP_STACK_AddressServiceEvent%730
                0x00023234       0x44
 .text.TCPIP_STACK_AddressServiceEvent
                0x00023234       0x44 build/default/debug/_ext/1033058136/tcpip_manager.o
                0x00023234                TCPIP_STACK_AddressServiceEvent

.text._TCPIPStackModuleRxInsert%731
                0x00023278       0x44
 .text._TCPIPStackModuleRxInsert
                0x00023278       0x44 build/default/debug/_ext/1033058136/tcpip_manager.o
                0x00023278                _TCPIPStackModuleRxInsert

.rodata%732     0x000232bc       0x44
 .rodata        0x000232bc       0x44 build/default/debug/_ext/1033058136/udp.o

.text.MPFS_Seek%733
                0x00023300       0x44
 .text.MPFS_Seek
                0x00023300       0x44 build/default/debug/_ext/699575981/mpfs.o
                0x00023300                MPFS_Seek

.text.SYS_INT_SourceDisable%734
                0x00023344       0x44
 .text.SYS_INT_SourceDisable
                0x00023344       0x44 build/default/debug/_ext/1881668453/sys_int.o
                0x00023344                SYS_INT_SourceDisable

.text.TCPIP_SNMP_NextIndexGet%735
                0x00023388       0x44
 .text.TCPIP_SNMP_NextIndexGet
                0x00023388       0x44 build/default/debug/_ext/1360937237/custom_snmp_app.o
                0x00023388                TCPIP_SNMP_NextIndexGet

.text._DRV_GMAC_LinkStateNegComplete%736
                0x000233cc       0x42
 .text._DRV_GMAC_LinkStateNegComplete
                0x000233cc       0x42 build/default/debug/_ext/1546807373/drv_gmac.o

.text.DRV_MEMORY_HandleRead%737
                0x0002340e       0x42
 .text.DRV_MEMORY_HandleRead
                0x0002340e       0x42 build/default/debug/_ext/992804092/drv_memory.o

.text._TcpSocketSetSourceInterface%738
                0x00023450       0x42
 .text._TcpSocketSetSourceInterface
                0x00023450       0x42 build/default/debug/_ext/1033058136/tcp.o

.text.TCPIP_HTTP_ArgGet%739
                0x00023492       0x42
 .text.TCPIP_HTTP_ArgGet
                0x00023492       0x42 build/default/debug/_ext/1033058136/http.o
                0x00023492                TCPIP_HTTP_ArgGet

.text.TCPIP_Helper_FormatNetBIOSName%740
                0x000234d4       0x42
 .text.TCPIP_Helper_FormatNetBIOSName
                0x000234d4       0x42 build/default/debug/_ext/1033058136/tcpip_helpers.o
                0x000234d4                TCPIP_Helper_FormatNetBIOSName

.text._UDPSetNewRxPacket%741
                0x00023516       0x42
 .text._UDPSetNewRxPacket
                0x00023516       0x42 build/default/debug/_ext/1033058136/udp.o

.text.TCPIP_UDP_SourceIPAddressSet%742
                0x00023558       0x42
 .text.TCPIP_UDP_SourceIPAddressSet
                0x00023558       0x42 build/default/debug/_ext/1033058136/udp.o
                0x00023558                TCPIP_UDP_SourceIPAddressSet

.text%743       0x0002359c       0x40
 .text          0x0002359c       0x40 d:/microchip/bin/bin/../../lib/gcc/pic32c/8.3.1/thumb/v7e-m+fp/hard/crtbegin.o

.text.DRV_ETHPHY_Reset%744
                0x000235dc       0x40
 .text.DRV_ETHPHY_Reset
                0x000235dc       0x40 build/default/debug/_ext/444070925/drv_ethphy.o
                0x000235dc                DRV_ETHPHY_Reset

.text.DRV_ETHPHY_NegotiationIsComplete%745
                0x0002361c       0x40
 .text.DRV_ETHPHY_NegotiationIsComplete
                0x0002361c       0x40 build/default/debug/_ext/444070925/drv_ethphy.o
                0x0002361c                DRV_ETHPHY_NegotiationIsComplete

.text.DRV_ETHPHY_RestartNegotiation%746
                0x0002365c       0x40
 .text.DRV_ETHPHY_RestartNegotiation
                0x0002365c       0x40 build/default/debug/_ext/444070925/drv_ethphy.o
                0x0002365c                DRV_ETHPHY_RestartNegotiation

.text._DRV_ETHPHY_ResetPhaseWrite%747
                0x0002369c       0x40
 .text._DRV_ETHPHY_ResetPhaseWrite
                0x0002369c       0x40 build/default/debug/_ext/444070925/drv_ethphy.o

.rodata.DRV_MIIM_OBJECT_BASE_Default%748
                0x000236dc       0x40
 .rodata.DRV_MIIM_OBJECT_BASE_Default
                0x000236dc       0x40 build/default/debug/_ext/438849557/drv_miim.o
                0x000236dc                DRV_MIIM_OBJECT_BASE_Default

.text._TCP_PortIsAvailable%749
                0x0002371c       0x40
 .text._TCP_PortIsAvailable
                0x0002371c       0x40 build/default/debug/_ext/1033058136/tcp.o

.text._MiimOpen%750
                0x0002375c       0x40
 .text._MiimOpen
                0x0002375c       0x40 build/default/debug/_ext/1033058136/tcpip_commands.o

.rodata.HTTPResponseHeaders%751
                0x0002379c       0x40
 .rodata.HTTPResponseHeaders
                0x0002379c       0x40 build/default/debug/_ext/1033058136/http.o

.text._DHCPSetBoundState%752
                0x000237dc       0x40
 .text._DHCPSetBoundState
                0x000237dc       0x40 build/default/debug/_ext/1033058136/dhcp.o

.text.TCPIP_DHCP_Deinitialize%753
                0x0002381c       0x40
 .text.TCPIP_DHCP_Deinitialize
                0x0002381c       0x40 build/default/debug/_ext/1033058136/dhcp.o
                0x0002381c                TCPIP_DHCP_Deinitialize

.text.TCPIP_DNS_RemoveEntry%754
                0x0002385c       0x40
 .text.TCPIP_DNS_RemoveEntry
                0x0002385c       0x40 build/default/debug/_ext/1033058136/dns.o
                0x0002385c                TCPIP_DNS_RemoveEntry

.rodata%755     0x0002389c       0x40
 .rodata        0x0002389c       0x40 build/default/debug/_ext/1033058136/tcpip_helpers.o

.text.TCPIP_STACK_NetHandleGet%756
                0x000238dc       0x40
 .text.TCPIP_STACK_NetHandleGet
                0x000238dc       0x40 build/default/debug/_ext/1033058136/tcpip_manager.o
                0x000238dc                TCPIP_STACK_NetHandleGet

.text._TCPIP_PKT_PacketAcknowledge%757
                0x0002391c       0x40
 .text._TCPIP_PKT_PacketAcknowledge
                0x0002391c       0x40 build/default/debug/_ext/1033058136/tcpip_packet.o
                0x0002391c                _TCPIP_PKT_PacketAcknowledge

.text._UDPIsAvailablePort%758
                0x0002395c       0x40
 .text._UDPIsAvailablePort
                0x0002395c       0x40 build/default/debug/_ext/1033058136/udp.o

.text.TCPIP_UDP_SocketNetSet%759
                0x0002399c       0x40
 .text.TCPIP_UDP_SocketNetSet
                0x0002399c       0x40 build/default/debug/_ext/1033058136/udp.o
                0x0002399c                TCPIP_UDP_SocketNetSet

.text.NVMCTRL_PageWrite%760
                0x000239dc       0x40
 .text.NVMCTRL_PageWrite
                0x000239dc       0x40 build/default/debug/_ext/1593096446/plib_nvmctrl.o
                0x000239dc                NVMCTRL_PageWrite

.text.TC0_TimerInitialize%761
                0x00023a1c       0x40
 .text.TC0_TimerInitialize
                0x00023a1c       0x40 build/default/debug/_ext/829342655/plib_tc0.o
                0x00023a1c                TC0_TimerInitialize

.text.SYS_FS_MEDIA_MANAGER_Register%762
                0x00023a5c       0x40
 .text.SYS_FS_MEDIA_MANAGER_Register
                0x00023a5c       0x40 build/default/debug/_ext/1269487135/sys_fs_media_manager.o
                0x00023a5c                SYS_FS_MEDIA_MANAGER_Register

.text.TCPIP_SNMP_ExactIndexGet%763
                0x00023a9c       0x40
 .text.TCPIP_SNMP_ExactIndexGet
                0x00023a9c       0x40 build/default/debug/_ext/1360937237/custom_snmp_app.o
                0x00023a9c                TCPIP_SNMP_ExactIndexGet

.text.adjust_size%764
                0x00023adc       0x40
 .text.adjust_size
                0x00023adc       0x40 d:/microchip/bin/bin/../../lib/gcc/pic32c/8.3.1/../../../../pic32c/lib/thumb/v7e-m+fp/hard\libg-musl.a(malloc.o)

.text._TCPSetHalfFlushFlag%765
                0x00023b1c       0x3e
 .text._TCPSetHalfFlushFlag
                0x00023b1c       0x3e build/default/debug/_ext/1033058136/tcp.o

.text._DHCPOptionProcessSubNet%766
                0x00023b5a       0x3e
 .text._DHCPOptionProcessSubNet
                0x00023b5a       0x3e build/default/debug/_ext/1033058136/dhcp.o

.text.TCPIP_STACK_AddressServiceDefaultSet%767
                0x00023b98       0x3e
 .text.TCPIP_STACK_AddressServiceDefaultSet
                0x00023b98       0x3e build/default/debug/_ext/1033058136/tcpip_manager.o
                0x00023b98                TCPIP_STACK_AddressServiceDefaultSet

.text.TCPIP_UDP_TxOffsetSet%768
                0x00023bd6       0x3e
 .text.TCPIP_UDP_TxOffsetSet
                0x00023bd6       0x3e build/default/debug/_ext/1033058136/udp.o
                0x00023bd6                TCPIP_UDP_TxOffsetSet

.text._DRV_ETHPHY_NegCompletePhaseAN_Complete%769
                0x00023c14       0x3c
 .text._DRV_ETHPHY_NegCompletePhaseAN_Complete
                0x00023c14       0x3c build/default/debug/_ext/444070925/drv_ethphy.o

.text.DRV_MIIM_RegisterCallback%770
                0x00023c50       0x3c
 .text.DRV_MIIM_RegisterCallback
                0x00023c50       0x3c build/default/debug/_ext/438849557/drv_miim.o
                0x00023c50                DRV_MIIM_RegisterCallback

.text.hexatob%771
                0x00023c8c       0x3c
 .text.hexatob  0x00023c8c       0x3c build/default/debug/_ext/1033058136/helpers.o
                0x00023c8c                hexatob

.text.TCPIP_TCP_Close%772
                0x00023cc8       0x3c
 .text.TCPIP_TCP_Close
                0x00023cc8       0x3c build/default/debug/_ext/1033058136/tcp.o
                0x00023cc8                TCPIP_TCP_Close

.text._DHCPOptionProcessRouter%773
                0x00023d04       0x3c
 .text._DHCPOptionProcessRouter
                0x00023d04       0x3c build/default/debug/_ext/1033058136/dhcp.o

.text._DHCPNotifyClients%774
                0x00023d40       0x3c
 .text._DHCPNotifyClients
                0x00023d40       0x3c build/default/debug/_ext/1033058136/dhcp.o

.text.TCPIP_DHCP_IsEnabled%775
                0x00023d7c       0x3c
 .text.TCPIP_DHCP_IsEnabled
                0x00023d7c       0x3c build/default/debug/_ext/1033058136/dhcp.o
                0x00023d7c                TCPIP_DHCP_IsEnabled

.text._TCPIPStackModuleSignalGet%776
                0x00023db8       0x3c
 .text._TCPIPStackModuleSignalGet
                0x00023db8       0x3c build/default/debug/_ext/1033058136/tcpip_manager.o
                0x00023db8                _TCPIPStackModuleSignalGet

.text._TCPIP_PKT_PacketFree%777
                0x00023df4       0x3c
 .text._TCPIP_PKT_PacketFree
                0x00023df4       0x3c build/default/debug/_ext/1033058136/tcpip_packet.o
                0x00023df4                _TCPIP_PKT_PacketFree

.text.TCPIP_UDP_OpenClientSkt%778
                0x00023e30       0x3c
 .text.TCPIP_UDP_OpenClientSkt
                0x00023e30       0x3c build/default/debug/_ext/1033058136/udp.o
                0x00023e30                TCPIP_UDP_OpenClientSkt

.text.OSAL_SEM_PostISR%779
                0x00023e6c       0x3c
 .text.OSAL_SEM_PostISR
                0x00023e6c       0x3c build/default/debug/_ext/1529399856/osal_freertos.o
                0x00023e6c                OSAL_SEM_PostISR

.text.Console_UART_Read%780
                0x00023ea8       0x3c
 .text.Console_UART_Read
                0x00023ea8       0x3c build/default/debug/_ext/1832805299/sys_console_uart.o
                0x00023ea8                Console_UART_Read

.text.Console_UART_Write%781
                0x00023ee4       0x3c
 .text.Console_UART_Write
                0x00023ee4       0x3c build/default/debug/_ext/1832805299/sys_console_uart.o
                0x00023ee4                Console_UART_Write

.text.SYS_TIME_GetTimerObject%782
                0x00023f20       0x3c
 .text.SYS_TIME_GetTimerObject
                0x00023f20       0x3c build/default/debug/_ext/101884895/sys_time.o

.text.SYS_TIME_ResourceUnlock%783
                0x00023f5c       0x3c
 .text.SYS_TIME_ResourceUnlock
                0x00023f5c       0x3c build/default/debug/_ext/101884895/sys_time.o

.text.SYS_TIME_TimerDestroy%784
                0x00023f98       0x3c
 .text.SYS_TIME_TimerDestroy
                0x00023f98       0x3c build/default/debug/_ext/101884895/sys_time.o
                0x00023f98                SYS_TIME_TimerDestroy

.text.wc_InitMd5_ex%785
                0x00023fd4       0x3c
 .text.wc_InitMd5_ex
                0x00023fd4       0x3c build/default/debug/_ext/1664057780/md5.o
                0x00023fd4                wc_InitMd5_ex

.text.__aeabi_dcmple%786
                0x00024010       0x3c
 .text.__aeabi_dcmple
                0x00024010       0x3c d:/microchip/bin/bin/../../lib/gcc/pic32c/8.3.1/../../../../pic32c/lib/thumb/v7e-m+fp/hard\libm-fast-emfloat.a(__aeabi_dcmple.o)
                0x00024010                __aeabi_dcmple

.text._DRV_ETHPHY_SetupPhaseNegotiate_SubPhase1%787
                0x0002404c       0x3a
 .text._DRV_ETHPHY_SetupPhaseNegotiate_SubPhase1
                0x0002404c       0x3a build/default/debug/_ext/444070925/drv_ethphy.o

.text._DRV_ETHPHY_NegRestartPhaseRead%788
                0x00024086       0x3a
 .text._DRV_ETHPHY_NegRestartPhaseRead
                0x00024086       0x3a build/default/debug/_ext/444070925/drv_ethphy.o

.text._DRV_MIIM_ReleaseOpDcpt%789
                0x000240c0       0x3a
 .text._DRV_MIIM_ReleaseOpDcpt
                0x000240c0       0x3a build/default/debug/_ext/438849557/drv_miim.o

.text.DRV_MIIM_Deinitialize%790
                0x000240fa       0x3a
 .text.DRV_MIIM_Deinitialize
                0x000240fa       0x3a build/default/debug/_ext/438849557/drv_miim.o
                0x000240fa                DRV_MIIM_Deinitialize

.text.Shell_FileOpen%791
                0x00024134       0x3a
 .text.Shell_FileOpen
                0x00024134       0x3a build/default/debug/_ext/1751889202/sys_fs_shell.o

.text.Shell_FileStat%792
                0x0002416e       0x3a
 .text.Shell_FileStat
                0x0002416e       0x3a build/default/debug/_ext/1751889202/sys_fs_shell.o

.text.TCPIP_TCP_SignalHandlerDeregister%793
                0x000241a8       0x3a
 .text.TCPIP_TCP_SignalHandlerDeregister
                0x000241a8       0x3a build/default/debug/_ext/1033058136/tcp.o
                0x000241a8                TCPIP_TCP_SignalHandlerDeregister

.text._TCPIP_HEAP_MaxSize%794
                0x000241e2       0x3a
 .text._TCPIP_HEAP_MaxSize
                0x000241e2       0x3a build/default/debug/_ext/1033058136/tcpip_heap_internal.o

.text._DHCPOptionProcessMsgType%795
                0x0002421c       0x3a
 .text._DHCPOptionProcessMsgType
                0x0002421c       0x3a build/default/debug/_ext/1033058136/dhcp.o

.text.TCPIP_STACK_NetAliasNameGet%796
                0x00024256       0x3a
 .text.TCPIP_STACK_NetAliasNameGet
                0x00024256       0x3a build/default/debug/_ext/1033058136/tcpip_manager.o
                0x00024256                TCPIP_STACK_NetAliasNameGet

.text.SNMPGetTimeStamp%797
                0x00024290       0x3a
 .text.SNMPGetTimeStamp
                0x00024290       0x3a build/default/debug/_ext/1360937237/custom_snmp_app.o

.text.TCPIP_HTTP_Print_read_comm%798
                0x000242ca       0x3a
 .text.TCPIP_HTTP_Print_read_comm
                0x000242ca       0x3a build/default/debug/_ext/1360937237/custom_http_app.o
                0x000242ca                TCPIP_HTTP_Print_read_comm

.text.TCPIP_HTTP_Print_write_comm%799
                0x00024304       0x3a
 .text.TCPIP_HTTP_Print_write_comm
                0x00024304       0x3a build/default/debug/_ext/1360937237/custom_http_app.o
                0x00024304                TCPIP_HTTP_Print_write_comm

.text.DRV_ETHPHY_HWConfigFlagsGet%800
                0x00024340       0x38
 .text.DRV_ETHPHY_HWConfigFlagsGet
                0x00024340       0x38 build/default/debug/_ext/444070925/drv_ethphy.o
                0x00024340                DRV_ETHPHY_HWConfigFlagsGet

.text._DRV_ETHPHY_SetupPhaseNegotiate_SubPhase6%801
                0x00024378       0x38
 .text._DRV_ETHPHY_SetupPhaseNegotiate_SubPhase6
                0x00024378       0x38 build/default/debug/_ext/444070925/drv_ethphy.o

.text.DRV_GMAC_Open%802
                0x000243b0       0x38
 .text.DRV_GMAC_Open
                0x000243b0       0x38 build/default/debug/_ext/1546807373/drv_gmac.o
                0x000243b0                DRV_GMAC_Open

.text.DRV_PIC32CGMAC_LibGetMacAddr%803
                0x000243e8       0x38
 .text.DRV_PIC32CGMAC_LibGetMacAddr
                0x000243e8       0x38 build/default/debug/_ext/1546807373/drv_gmac_lib_samE5x.o
                0x000243e8                DRV_PIC32CGMAC_LibGetMacAddr

.text.DRV_MEMORY_GeometryGet%804
                0x00024420       0x38
 .text.DRV_MEMORY_GeometryGet
                0x00024420       0x38 build/default/debug/_ext/992804092/drv_memory.o
                0x00024420                DRV_MEMORY_GeometryGet

.text.DRV_MEMORY_AddressGet%805
                0x00024458       0x38
 .text.DRV_MEMORY_AddressGet
                0x00024458       0x38 build/default/debug/_ext/992804092/drv_memory.o
                0x00024458                DRV_MEMORY_AddressGet

.text.TCPIP_SNMP_StructureIsValid%806
                0x00024490       0x38
 .text.TCPIP_SNMP_StructureIsValid
                0x00024490       0x38 build/default/debug/_ext/1033058136/snmp.o
                0x00024490                TCPIP_SNMP_StructureIsValid

.text.TCPIP_SNMP_PDUProcessDuplexInit%807
                0x000244c8       0x38
 .text.TCPIP_SNMP_PDUProcessDuplexInit
                0x000244c8       0x38 build/default/debug/_ext/1033058136/snmp.o
                0x000244c8                TCPIP_SNMP_PDUProcessDuplexInit

.text._TCP_EphemeralPortAllocate%808
                0x00024500       0x38
 .text._TCP_EphemeralPortAllocate
                0x00024500       0x38 build/default/debug/_ext/1033058136/tcp.o

.text.TCPIP_Commands_Deinitialize%809
                0x00024538       0x38
 .text.TCPIP_Commands_Deinitialize
                0x00024538       0x38 build/default/debug/_ext/1033058136/tcpip_commands.o
                0x00024538                TCPIP_Commands_Deinitialize

.rodata.httpContentTypes%810
                0x00024570       0x38
 .rodata.httpContentTypes
                0x00024570       0x38 build/default/debug/_ext/1033058136/http.o

.rodata.httpFileExtensions%811
                0x000245a8       0x38
 .rodata.httpFileExtensions
                0x000245a8       0x38 build/default/debug/_ext/1033058136/http.o

.text.TCPIP_DNS_ClientInfoGet%812
                0x000245e0       0x38
 .text.TCPIP_DNS_ClientInfoGet
                0x000245e0       0x38 build/default/debug/_ext/1033058136/dns.o
                0x000245e0                TCPIP_DNS_ClientInfoGet

.text.TCPIP_PKT_PacketMACFormat%813
                0x00024618       0x38
 .text.TCPIP_PKT_PacketMACFormat
                0x00024618       0x38 build/default/debug/_ext/1033058136/tcpip_packet.o
                0x00024618                TCPIP_PKT_PacketMACFormat

.text._UDPAllocateEphemeralPort%814
                0x00024650       0x38
 .text._UDPAllocateEphemeralPort
                0x00024650       0x38 build/default/debug/_ext/1033058136/udp.o

.text.MPFS_EOF%815
                0x00024688       0x38
 .text.MPFS_EOF
                0x00024688       0x38 build/default/debug/_ext/699575981/mpfs.o
                0x00024688                MPFS_EOF

.text.SYS_TIME_ResourceLock%816
                0x000246c0       0x38
 .text.SYS_TIME_ResourceLock
                0x000246c0       0x38 build/default/debug/_ext/101884895/sys_time.o

.rodata.TCPIP_HOSTS_CONFIGURATION%817
                0x000246f8       0x38
 .rodata.TCPIP_HOSTS_CONFIGURATION
                0x000246f8       0x38 build/default/debug/_ext/1171490990/initialization.o
                0x000246f8                TCPIP_HOSTS_CONFIGURATION

.text.__aeabi_dcmpgt%818
                0x00024730       0x38
 .text.__aeabi_dcmpgt
                0x00024730       0x38 d:/microchip/bin/bin/../../lib/gcc/pic32c/8.3.1/../../../../pic32c/lib/thumb/v7e-m+fp/hard\libm-fast-emfloat.a(__aeabi_dcmpgt.o)
                0x00024730                __aeabi_dcmpgt

.text.bin_index%819
                0x00024768       0x38
 .text.bin_index
                0x00024768       0x38 d:/microchip/bin/bin/../../lib/gcc/pic32c/8.3.1/../../../../pic32c/lib/thumb/v7e-m+fp/hard\libg-musl.a(malloc.o)

.text.__fmt_state%820
                0x000247a0       0x38
 .text.__fmt_state
                0x000247a0       0x38 d:/microchip/bin/bin/../../lib/gcc/pic32c/8.3.1/../../../../pic32c/lib/thumb/v7e-m+fp/hard\libg-musl.a(__printf_core.o)
                0x000247a0                __fmt_state

.text.__aeabi_dcmplt%821
                0x000247d8       0x38
 .text.__aeabi_dcmplt
                0x000247d8       0x38 d:/microchip/bin/bin/../../lib/gcc/pic32c/8.3.1/../../../../pic32c/lib/thumb/v7e-m+fp/hard\libm-fast-emfloat.a(__aeabi_dcmplt.o)
                0x000247d8                __aeabi_dcmplt

.text._DRV_ETHPHY_NegCompletePhaseRead1%822
                0x00024810       0x36
 .text._DRV_ETHPHY_NegCompletePhaseRead1
                0x00024810       0x36 build/default/debug/_ext/444070925/drv_ethphy.o

.text.Shell_FileDelete%823
                0x00024846       0x36
 .text.Shell_FileDelete
                0x00024846       0x36 build/default/debug/_ext/1751889202/sys_fs_shell.o

.text.Shell_DirMake%824
                0x0002487c       0x36
 .text.Shell_DirMake
                0x0002487c       0x36 build/default/debug/_ext/1751889202/sys_fs_shell.o

.text.Shell_DirOpen%825
                0x000248b2       0x36
 .text.Shell_DirOpen
                0x000248b2       0x36 build/default/debug/_ext/1751889202/sys_fs_shell.o

.text.stricmp%826
                0x000248e8       0x36
 .text.stricmp  0x000248e8       0x36 build/default/debug/_ext/1033058136/helpers.o
                0x000248e8                stricmp

.text._TCPSetSourceAddress%827
                0x0002491e       0x36
 .text._TCPSetSourceAddress
                0x0002491e       0x36 build/default/debug/_ext/1033058136/tcp.o

.text._DNS_NetIsValid%828
                0x00024954       0x36
 .text._DNS_NetIsValid
                0x00024954       0x36 build/default/debug/_ext/1033058136/dns.o

.text._TCPIPStackSetConfigAddress%829
                0x0002498a       0x36
 .text._TCPIPStackSetConfigAddress
                0x0002498a       0x36 build/default/debug/_ext/1033058136/tcpip_manager.o
                0x0002498a                _TCPIPStackSetConfigAddress

.text._DRV_ETHPHY_SetupPhaseNegotiate_SubPhase2%830
                0x000249c0       0x34
 .text._DRV_ETHPHY_SetupPhaseNegotiate_SubPhase2
                0x000249c0       0x34 build/default/debug/_ext/444070925/drv_ethphy.o

.text.DRV_PIC32CGMAC_LibClearPriorityQue%831
                0x000249f4       0x34
 .text.DRV_PIC32CGMAC_LibClearPriorityQue
                0x000249f4       0x34 build/default/debug/_ext/1546807373/drv_gmac_lib_samE5x.o
                0x000249f4                DRV_PIC32CGMAC_LibClearPriorityQue

.text._SNMP_BuildIntegerValue%832
                0x00024a28       0x34
 .text._SNMP_BuildIntegerValue
                0x00024a28       0x34 build/default/debug/_ext/1033058136/snmp.o
                0x00024a28                _SNMP_BuildIntegerValue

.text._TCP_SktFlagsGet%833
                0x00024a5c       0x34
 .text._TCP_SktFlagsGet
                0x00024a5c       0x34 build/default/debug/_ext/1033058136/tcp.o

.text._ARPSetEntry%834
                0x00024a90       0x34
 .text._ARPSetEntry
                0x00024a90       0x34 build/default/debug/_ext/1033058136/arp.o

.text.TCPIP_ARP_HandlerRegister%835
                0x00024ac4       0x34
 .text.TCPIP_ARP_HandlerRegister
                0x00024ac4       0x34 build/default/debug/_ext/1033058136/arp.o
                0x00024ac4                TCPIP_ARP_HandlerRegister

.text.TCPIP_HTTP_Deinitialize%836
                0x00024af8       0x34
 .text.TCPIP_HTTP_Deinitialize
                0x00024af8       0x34 build/default/debug/_ext/1033058136/http.o
                0x00024af8                TCPIP_HTTP_Deinitialize

.rodata%837     0x00024b2c       0x34
 .rodata        0x00024b2c       0x34 build/default/debug/_ext/1033058136/dhcp.o

.text._DNSGetData%838
                0x00024b60       0x34
 .text._DNSGetData
                0x00024b60       0x34 build/default/debug/_ext/1033058136/dns.o

.text.TCPIP_STACK_NetDown%839
                0x00024b94       0x34
 .text.TCPIP_STACK_NetDown
                0x00024b94       0x34 build/default/debug/_ext/1033058136/tcpip_manager.o
                0x00024b94                TCPIP_STACK_NetDown

.text.TCPIP_UDP_RxOffsetSet%840
                0x00024bc8       0x34
 .text.TCPIP_UDP_RxOffsetSet
                0x00024bc8       0x34 build/default/debug/_ext/1033058136/udp.o
                0x00024bc8                TCPIP_UDP_RxOffsetSet

.text.CommandQuit%841
                0x00024bfc       0x34
 .text.CommandQuit
                0x00024bfc       0x34 build/default/debug/_ext/1376093119/sys_command.o

.text.Console_UART_WriteCountGet%842
                0x00024c30       0x34
 .text.Console_UART_WriteCountGet
                0x00024c30       0x34 build/default/debug/_ext/1832805299/sys_console_uart.o
                0x00024c30                Console_UART_WriteCountGet

.text.Console_UART_WriteFreeBufferCountGet%843
                0x00024c64       0x34
 .text.Console_UART_WriteFreeBufferCountGet
                0x00024c64       0x34 build/default/debug/_ext/1832805299/sys_console_uart.o
                0x00024c64                Console_UART_WriteFreeBufferCountGet

.text.Console_UART_ReadFreeBufferCountGet%844
                0x00024c98       0x34
 .text.Console_UART_ReadFreeBufferCountGet
                0x00024c98       0x34 build/default/debug/_ext/1832805299/sys_console_uart.o
                0x00024c98                Console_UART_ReadFreeBufferCountGet

.text.Console_UART_ReadCountGet%845
                0x00024ccc       0x34
 .text.Console_UART_ReadCountGet
                0x00024ccc       0x34 build/default/debug/_ext/1832805299/sys_console_uart.o
                0x00024ccc                Console_UART_ReadCountGet

.text.SYS_CONSOLE_Read%846
                0x00024d00       0x34
 .text.SYS_CONSOLE_Read
                0x00024d00       0x34 build/default/debug/_ext/1832805299/sys_console.o
                0x00024d00                SYS_CONSOLE_Read

.text.SYS_CONSOLE_ReadCountGet%847
                0x00024d34       0x34
 .text.SYS_CONSOLE_ReadCountGet
                0x00024d34       0x34 build/default/debug/_ext/1832805299/sys_console.o
                0x00024d34                SYS_CONSOLE_ReadCountGet

.text.SYS_CONSOLE_Write%848
                0x00024d68       0x34
 .text.SYS_CONSOLE_Write
                0x00024d68       0x34 build/default/debug/_ext/1832805299/sys_console.o
                0x00024d68                SYS_CONSOLE_Write

.text.MPFS_Close%849
                0x00024d9c       0x34
 .text.MPFS_Close
                0x00024d9c       0x34 build/default/debug/_ext/699575981/mpfs.o
                0x00024d9c                MPFS_Close

.text.SYS_FS_MEDIA_MANAGER_VolumePropertyGet%850
                0x00024dd0       0x34
 .text.SYS_FS_MEDIA_MANAGER_VolumePropertyGet
                0x00024dd0       0x34 build/default/debug/_ext/1269487135/sys_fs_media_manager.o
                0x00024dd0                SYS_FS_MEDIA_MANAGER_VolumePropertyGet

.rodata.tcpipMACPIC32CINTInitData%851
                0x00024e04       0x34
 .rodata.tcpipMACPIC32CINTInitData
                0x00024e04       0x34 build/default/debug/_ext/1171490990/initialization.o
                0x00024e04                tcpipMACPIC32CINTInitData

.text.vListInsert%852
                0x00024e38       0x34
 .text.vListInsert
                0x00024e38       0x34 build/default/debug/_ext/404212886/list.o
                0x00024e38                vListInsert

.text.vTaskDelay%853
                0x00024e6c       0x34
 .text.vTaskDelay
                0x00024e6c       0x34 build/default/debug/_ext/404212886/FreeRTOS_tasks.o
                0x00024e6c                vTaskDelay

.text.Hash_DRBG_Uninstantiate%854
                0x00024ea0       0x34
 .text.Hash_DRBG_Uninstantiate
                0x00024ea0       0x34 build/default/debug/_ext/1664057780/random.o

.text.TCPIP_HTTP_Print_hellomsg%855
                0x00024ed4       0x34
 .text.TCPIP_HTTP_Print_hellomsg
                0x00024ed4       0x34 build/default/debug/_ext/1360937237/custom_http_app.o
                0x00024ed4                TCPIP_HTTP_Print_hellomsg

.text.TCPIP_HTTP_Print_builddate%856
                0x00024f08       0x34
 .text.TCPIP_HTTP_Print_builddate
                0x00024f08       0x34 build/default/debug/_ext/1360937237/custom_http_app.o
                0x00024f08                TCPIP_HTTP_Print_builddate

.text.TCPIP_HTTP_Print_cookiename%857
                0x00024f3c       0x34
 .text.TCPIP_HTTP_Print_cookiename
                0x00024f3c       0x34 build/default/debug/_ext/1360937237/custom_http_app.o
                0x00024f3c                TCPIP_HTTP_Print_cookiename

.text.TCPIP_HTTP_Print_cookiefav%858
                0x00024f70       0x34
 .text.TCPIP_HTTP_Print_cookiefav
                0x00024f70       0x34 build/default/debug/_ext/1360937237/custom_http_app.o
                0x00024f70                TCPIP_HTTP_Print_cookiefav

.text.TCPIP_HTTP_Print_config_ip%859
                0x00024fa4       0x34
 .text.TCPIP_HTTP_Print_config_ip
                0x00024fa4       0x34 build/default/debug/_ext/1360937237/custom_http_app.o
                0x00024fa4                TCPIP_HTTP_Print_config_ip

.text.TCPIP_HTTP_Print_config_gw%860
                0x00024fd8       0x34
 .text.TCPIP_HTTP_Print_config_gw
                0x00024fd8       0x34 build/default/debug/_ext/1360937237/custom_http_app.o
                0x00024fd8                TCPIP_HTTP_Print_config_gw

.text.TCPIP_HTTP_Print_config_subnet%861
                0x0002500c       0x34
 .text.TCPIP_HTTP_Print_config_subnet
                0x0002500c       0x34 build/default/debug/_ext/1360937237/custom_http_app.o
                0x0002500c                TCPIP_HTTP_Print_config_subnet

.text.TCPIP_HTTP_Print_config_dns1%862
                0x00025040       0x34
 .text.TCPIP_HTTP_Print_config_dns1
                0x00025040       0x34 build/default/debug/_ext/1360937237/custom_http_app.o
                0x00025040                TCPIP_HTTP_Print_config_dns1

.text.TCPIP_HTTP_Print_config_dns2%863
                0x00025074       0x34
 .text.TCPIP_HTTP_Print_config_dns2
                0x00025074       0x34 build/default/debug/_ext/1360937237/custom_http_app.o
                0x00025074                TCPIP_HTTP_Print_config_dns2

.text.TCPIP_HTTP_Print_ddns_status_msg%864
                0x000250a8       0x34
 .text.TCPIP_HTTP_Print_ddns_status_msg
                0x000250a8       0x34 build/default/debug/_ext/1360937237/custom_http_app.o
                0x000250a8                TCPIP_HTTP_Print_ddns_status_msg

.text._DRV_PHY_SMIReadStart%865
                0x000250dc       0x32
 .text._DRV_PHY_SMIReadStart
                0x000250dc       0x32 build/default/debug/_ext/444070925/drv_ethphy.o

.text._DRV_PHY_SMIWriteStart%866
                0x0002510e       0x32
 .text._DRV_PHY_SMIWriteStart
                0x0002510e       0x32 build/default/debug/_ext/444070925/drv_ethphy.o

.text._DRV_ETHPHY_SetupPhaseIdle%867
                0x00025140       0x32
 .text._DRV_ETHPHY_SetupPhaseIdle
                0x00025140       0x32 build/default/debug/_ext/444070925/drv_ethphy.o

.text.TCPIP_STACK_NetBiosNameSet%868
                0x00025172       0x32
 .text.TCPIP_STACK_NetBiosNameSet
                0x00025172       0x32 build/default/debug/_ext/1033058136/tcpip_manager.o
                0x00025172                TCPIP_STACK_NetBiosNameSet

.text.trim%869  0x000251a4       0x32
 .text.trim     0x000251a4       0x32 d:/microchip/bin/bin/../../lib/gcc/pic32c/8.3.1/../../../../pic32c/lib/thumb/v7e-m+fp/hard\libg-musl.a(malloc.o)

.text.__aeabi_dcmpeq%870
                0x000251d6       0x32
 .text.__aeabi_dcmpeq
                0x000251d6       0x32 d:/microchip/bin/bin/../../lib/gcc/pic32c/8.3.1/../../../../pic32c/lib/thumb/v7e-m+fp/hard\libm-fast-emfloat.a(__aeabi_dcmpeq.o)
                0x000251d6                __aeabi_dcmpeq

.text._DRV_PHY_NegCompleteSetOperResult%871
                0x00025208       0x30
 .text._DRV_PHY_NegCompleteSetOperResult
                0x00025208       0x30 build/default/debug/_ext/444070925/drv_ethphy.o

.text._DRV_ETHPHY_SetupPhaseNegotiate_SubPhase3%872
                0x00025238       0x30
 .text._DRV_ETHPHY_SetupPhaseNegotiate_SubPhase3
                0x00025238       0x30 build/default/debug/_ext/444070925/drv_ethphy.o

.text.DRV_GMAC_Status%873
                0x00025268       0x30
 .text.DRV_GMAC_Status
                0x00025268       0x30 build/default/debug/_ext/1546807373/drv_gmac.o
                0x00025268                DRV_GMAC_Status

.text.DRV_PIC32CGMAC_LibSetMacAddr%874
                0x00025298       0x30
 .text.DRV_PIC32CGMAC_LibSetMacAddr
                0x00025298       0x30 build/default/debug/_ext/1546807373/drv_gmac_lib_samE5x.o
                0x00025298                DRV_PIC32CGMAC_LibSetMacAddr

.text.GMAC_InterruptHandler%875
                0x000252c8       0x30
 .text.GMAC_InterruptHandler
                0x000252c8       0x30 build/default/debug/_ext/1546807373/drv_gmac_lib_samE5x.o
                0x000252c8                GMAC_InterruptHandler

.rodata.memoryMediaFunctions%876
                0x000252f8       0x30
 .rodata.memoryMediaFunctions
                0x000252f8       0x30 build/default/debug/_ext/992804092/drv_memory_file_system.o
                0x000252f8                memoryMediaFunctions

.text.TCPIP_ICMP_Cleanup%877
                0x00025328       0x30
 .text.TCPIP_ICMP_Cleanup
                0x00025328       0x30 build/default/debug/_ext/1033058136/icmp.o

.text._TCPSocketTxFreeSize%878
                0x00025358       0x30
 .text._TCPSocketTxFreeSize
                0x00025358       0x30 build/default/debug/_ext/1033058136/tcp.o

.text.TCPIP_ARP_HashEntryDelete%879
                0x00025388       0x30
 .text.TCPIP_ARP_HashEntryDelete
                0x00025388       0x30 build/default/debug/_ext/1033058136/arp.o
                0x00025388                TCPIP_ARP_HashEntryDelete

.rodata.iperfCmdTbl%880
                0x000253b8       0x30
 .rodata.iperfCmdTbl
                0x000253b8       0x30 build/default/debug/_ext/1033058136/iperf.o

.text.TCPIP_IPV4_CheckPktTx%881
                0x000253e8       0x30
 .text.TCPIP_IPV4_CheckPktTx
                0x000253e8       0x30 build/default/debug/_ext/1033058136/ipv4.o

.text.fnv_32_hash%882
                0x00025418       0x30
 .text.fnv_32_hash
                0x00025418       0x30 build/default/debug/_ext/1033058136/hash_fnv.o
                0x00025418                fnv_32_hash

.text.TCPIP_OAHASH_EntriesRemoveAll%883
                0x00025448       0x30
 .text.TCPIP_OAHASH_EntriesRemoveAll
                0x00025448       0x30 build/default/debug/_ext/1033058136/oahash.o
                0x00025448                TCPIP_OAHASH_EntriesRemoveAll

.text.TCPIP_Helper_StringToPowerMode%884
                0x00025478       0x30
 .text.TCPIP_Helper_StringToPowerMode
                0x00025478       0x30 build/default/debug/_ext/1033058136/tcpip_helpers.o
                0x00025478                TCPIP_Helper_StringToPowerMode

.text.TCPIP_Helper_ProtectedSingleListDeinitialize%885
                0x000254a8       0x30
 .text.TCPIP_Helper_ProtectedSingleListDeinitialize
                0x000254a8       0x30 build/default/debug/_ext/1033058136/tcpip_helpers.o
                0x000254a8                TCPIP_Helper_ProtectedSingleListDeinitialize

.text.TCPIP_Helper_ProtectedSingleListNodeRemove%886
                0x000254d8       0x30
 .text.TCPIP_Helper_ProtectedSingleListNodeRemove
                0x000254d8       0x30 build/default/debug/_ext/1033058136/tcpip_helpers.o
                0x000254d8                TCPIP_Helper_ProtectedSingleListNodeRemove

.text.TCPIP_STACK_InitializeDataGet%887
                0x00025508       0x30
 .text.TCPIP_STACK_InitializeDataGet
                0x00025508       0x30 build/default/debug/_ext/1033058136/tcpip_manager.o
                0x00025508                TCPIP_STACK_InitializeDataGet

.text.TCPIP_PKT_Initialize%888
                0x00025538       0x30
 .text.TCPIP_PKT_Initialize
                0x00025538       0x30 build/default/debug/_ext/1033058136/tcpip_packet.o
                0x00025538                TCPIP_PKT_Initialize

.text.TCPIP_UDP_Close%889
                0x00025568       0x30
 .text.TCPIP_UDP_Close
                0x00025568       0x30 build/default/debug/_ext/1033058136/udp.o
                0x00025568                TCPIP_UDP_Close

.text.SendCommandCharacter%890
                0x00025598       0x30
 .text.SendCommandCharacter
                0x00025598       0x30 build/default/debug/_ext/1376093119/sys_command.o

.text._keyEndProcess%891
                0x000255c8       0x30
 .text._keyEndProcess
                0x000255c8       0x30 build/default/debug/_ext/1376093119/sys_command.o

.text._keyHomeProcess%892
                0x000255f8       0x30
 .text._keyHomeProcess
                0x000255f8       0x30 build/default/debug/_ext/1376093119/sys_command.o

.text.SYS_CONSOLE_Message%893
                0x00025628       0x30
 .text.SYS_CONSOLE_Message
                0x00025628       0x30 build/default/debug/_ext/1832805299/sys_console.o
                0x00025628                SYS_CONSOLE_Message

.text.MPFS_Unmount%894
                0x00025658       0x30
 .text.MPFS_Unmount
                0x00025658       0x30 build/default/debug/_ext/699575981/mpfs.o
                0x00025658                MPFS_Unmount

.text.SYS_FS_MEDIA_MANAGER_EventHandler%895
                0x00025688       0x30
 .text.SYS_FS_MEDIA_MANAGER_EventHandler
                0x00025688       0x30 build/default/debug/_ext/1269487135/sys_fs_media_manager.o
                0x00025688                SYS_FS_MEDIA_MANAGER_EventHandler

.text.SYS_TIME_UpdateTimerList%896
                0x000256b8       0x30
 .text.SYS_TIME_UpdateTimerList
                0x000256b8       0x30 build/default/debug/_ext/101884895/sys_time.o

.text.xQueueGenericCreate%897
                0x000256e8       0x30
 .text.xQueueGenericCreate
                0x000256e8       0x30 build/default/debug/_ext/404212886/queue.o
                0x000256e8                xQueueGenericCreate

.text.wc_CryptoCb_FindDevice%898
                0x00025718       0x30
 .text.wc_CryptoCb_FindDevice
                0x00025718       0x30 build/default/debug/_ext/1664057780/cryptocb.o

.rodata.seedA_data%899
                0x00025748       0x30
 .rodata.seedA_data
                0x00025748       0x30 build/default/debug/_ext/1664057780/random.o
                0x00025748                seedA_data

.rodata.seedB_data%900
                0x00025778       0x30
 .rodata.seedB_data
                0x00025778       0x30 build/default/debug/_ext/1664057780/random.o
                0x00025778                seedB_data

.text.TCPIP_HTTP_Print_status_ok%901
                0x000257a8       0x30
 .text.TCPIP_HTTP_Print_status_ok
                0x000257a8       0x30 build/default/debug/_ext/1360937237/custom_http_app.o
                0x000257a8                TCPIP_HTTP_Print_status_ok

.text.TCPIP_HTTP_Print_status_fail%902
                0x000257d8       0x30
 .text.TCPIP_HTTP_Print_status_fail
                0x000257d8       0x30 build/default/debug/_ext/1360937237/custom_http_app.o
                0x000257d8                TCPIP_HTTP_Print_status_fail

.text.alloc_rev%903
                0x00025808       0x30
 .text.alloc_rev
                0x00025808       0x30 d:/microchip/bin/bin/../../lib/gcc/pic32c/8.3.1/../../../../pic32c/lib/thumb/v7e-m+fp/hard\libg-musl.a(malloc.o)

.text%904       0x00025838       0x30
 .text          0x00025838       0x30 d:/microchip/bin/bin/../../lib/gcc/pic32c/8.3.1/thumb/v7e-m+fp/hard\libgcc.a(_aeabi_uldivmod.o)
                0x00025838                __aeabi_uldivmod

.text._XtlEventsTcp2Eth%905
                0x00025868       0x2e
 .text._XtlEventsTcp2Eth
                0x00025868       0x2e build/default/debug/_ext/1546807373/drv_gmac.o

.text._DRV_MIIM_GetObjectAndLock%906
                0x00025896       0x2e
 .text._DRV_MIIM_GetObjectAndLock
                0x00025896       0x2e build/default/debug/_ext/438849557/drv_miim.o

.text.DRV_MIIM_DeregisterCallback%907
                0x000258c4       0x2e
 .text.DRV_MIIM_DeregisterCallback
                0x000258c4       0x2e build/default/debug/_ext/438849557/drv_miim.o
                0x000258c4                DRV_MIIM_DeregisterCallback

.text.TCPIP_TCP_Connect%908
                0x000258f2       0x2e
 .text.TCPIP_TCP_Connect
                0x000258f2       0x2e build/default/debug/_ext/1033058136/tcp.o
                0x000258f2                TCPIP_TCP_Connect

.text._DHCPOptionProcessLease%909
                0x00025920       0x2e
 .text._DHCPOptionProcessLease
                0x00025920       0x2e build/default/debug/_ext/1033058136/dhcp.o

.text._DHCPOptionProcessRenewT%910
                0x0002594e       0x2e
 .text._DHCPOptionProcessRenewT
                0x0002594e       0x2e build/default/debug/_ext/1033058136/dhcp.o

.text._DHCPOptionProcessRebindT%911
                0x0002597c       0x2e
 .text._DHCPOptionProcessRebindT
                0x0002597c       0x2e build/default/debug/_ext/1033058136/dhcp.o

.text._DHCPOptionClientId%912
                0x000259aa       0x2e
 .text._DHCPOptionClientId
                0x000259aa       0x2e build/default/debug/_ext/1033058136/dhcp.o

.text._DHCPSetTimeout%913
                0x000259d8       0x2e
 .text._DHCPSetTimeout
                0x000259d8       0x2e build/default/debug/_ext/1033058136/dhcp.o

.text._DNS_CleanCacheEntry%914
                0x00025a06       0x2e
 .text._DNS_CleanCacheEntry
                0x00025a06       0x2e build/default/debug/_ext/1033058136/dns.o

.text._DNSClientCleanup%915
                0x00025a34       0x2e
 .text._DNSClientCleanup
                0x00025a34       0x2e build/default/debug/_ext/1033058136/dns.o

.text.TCPIP_STACK_DNSServiceCanStart%916
                0x00025a62       0x2e
 .text.TCPIP_STACK_DNSServiceCanStart
                0x00025a62       0x2e build/default/debug/_ext/1033058136/tcpip_manager.o
                0x00025a62                TCPIP_STACK_DNSServiceCanStart

.text._TxSktGetLockedV4Pkt%917
                0x00025a90       0x2e
 .text._TxSktGetLockedV4Pkt
                0x00025a90       0x2e build/default/debug/_ext/1033058136/udp.o

.text.wc_CryptoCb_RegisterDevice%918
                0x00025abe       0x2e
 .text.wc_CryptoCb_RegisterDevice
                0x00025abe       0x2e build/default/debug/_ext/1664057780/cryptocb.o
                0x00025abe                wc_CryptoCb_RegisterDevice

.text.DRV_ETHPHY_Close%919
                0x00025aec       0x2c
 .text.DRV_ETHPHY_Close
                0x00025aec       0x2c build/default/debug/_ext/444070925/drv_ethphy.o
                0x00025aec                DRV_ETHPHY_Close

.text.DRV_ETHPHY_VendorDataGet%920
                0x00025b18       0x2c
 .text.DRV_ETHPHY_VendorDataGet
                0x00025b18       0x2c build/default/debug/_ext/444070925/drv_ethphy.o
                0x00025b18                DRV_ETHPHY_VendorDataGet

.text.DRV_ETHPHY_Reinitialize%921
                0x00025b44       0x2c
 .text.DRV_ETHPHY_Reinitialize
                0x00025b44       0x2c build/default/debug/_ext/444070925/drv_ethphy.o
                0x00025b44                DRV_ETHPHY_Reinitialize

.text._DRV_ETHPHY_LinkStatPhaseRefresh%922
                0x00025b70       0x2c
 .text._DRV_ETHPHY_LinkStatPhaseRefresh
                0x00025b70       0x2c build/default/debug/_ext/444070925/drv_ethphy.o

.text.DRV_PIC32CGMAC_LibTxAckPendPacket%923
                0x00025b9c       0x2c
 .text.DRV_PIC32CGMAC_LibTxAckPendPacket
                0x00025b9c       0x2c build/default/debug/_ext/1546807373/drv_gmac_lib_samE5x.o
                0x00025b9c                DRV_PIC32CGMAC_LibTxAckPendPacket

.text.DRV_MEMORY_TransferHandlerSet%924
                0x00025bc8       0x2c
 .text.DRV_MEMORY_TransferHandlerSet
                0x00025bc8       0x2c build/default/debug/_ext/992804092/drv_memory.o
                0x00025bc8                DRV_MEMORY_TransferHandlerSet

.text.DRV_MEMORY_IsAttached%925
                0x00025bf4       0x2c
 .text.DRV_MEMORY_IsAttached
                0x00025bf4       0x2c build/default/debug/_ext/992804092/drv_memory.o
                0x00025bf4                DRV_MEMORY_IsAttached

.text._ARPRemoveEntry%926
                0x00025c20       0x2c
 .text._ARPRemoveEntry
                0x00025c20       0x2c build/default/debug/_ext/1033058136/arp.o

.text.TCPIP_Helper_ProtectedSingleListHeadRemove%927
                0x00025c4c       0x2c
 .text.TCPIP_Helper_ProtectedSingleListHeadRemove
                0x00025c4c       0x2c build/default/debug/_ext/1033058136/tcpip_helpers.o
                0x00025c4c                TCPIP_Helper_ProtectedSingleListHeadRemove

.text.TCPIP_STACK_IsBcastAddress%928
                0x00025c78       0x2c
 .text.TCPIP_STACK_IsBcastAddress
                0x00025c78       0x2c build/default/debug/_ext/1033058136/tcpip_manager.o
                0x00025c78                TCPIP_STACK_IsBcastAddress

.text._TCPIPStackModuleRxExtract%929
                0x00025ca4       0x2c
 .text._TCPIPStackModuleRxExtract
                0x00025ca4       0x2c build/default/debug/_ext/1033058136/tcpip_manager.o
                0x00025ca4                _TCPIPStackModuleRxExtract

.text._TCPIP_PKT_SocketAlloc%930
                0x00025cd0       0x2c
 .text._TCPIP_PKT_SocketAlloc
                0x00025cd0       0x2c build/default/debug/_ext/1033058136/tcpip_packet.o
                0x00025cd0                _TCPIP_PKT_SocketAlloc

.text._UDPFreeTxResources%931
                0x00025cfc       0x2c
 .text._UDPFreeTxResources
                0x00025cfc       0x2c build/default/debug/_ext/1033058136/udp.o

.text.TC0_TimerInterruptHandler%932
                0x00025d28       0x2c
 .text.TC0_TimerInterruptHandler
                0x00025d28       0x2c build/default/debug/_ext/829342655/plib_tc0.o
                0x00025d28                TC0_TimerInterruptHandler

.rodata.sysConsoleUARTDevDesc%933
                0x00025d54       0x2c
 .rodata.sysConsoleUARTDevDesc
                0x00025d54       0x2c build/default/debug/_ext/1832805299/sys_console_uart.o
                0x00025d54                sysConsoleUARTDevDesc

.text.MPFS_GetPosition%934
                0x00025d80       0x2c
 .text.MPFS_GetPosition
                0x00025d80       0x2c build/default/debug/_ext/699575981/mpfs.o
                0x00025d80                MPFS_GetPosition

.text.SYS_TIME_Counter64Get%935
                0x00025dac       0x2c
 .text.SYS_TIME_Counter64Get
                0x00025dac       0x2c build/default/debug/_ext/101884895/sys_time.o
                0x00025dac                SYS_TIME_Counter64Get

.text.TCPIP_STACK_Init%936
                0x00025dd8       0x2c
 .text.TCPIP_STACK_Init
                0x00025dd8       0x2c build/default/debug/_ext/1171490990/initialization.o
                0x00025dd8                TCPIP_STACK_Init

.text.pxPortInitialiseStack%937
                0x00025e04       0x2c
 .text.pxPortInitialiseStack
                0x00025e04       0x2c build/default/debug/_ext/246609638/port.o
                0x00025e04                pxPortInitialiseStack

.text.xPortSysTickHandler%938
                0x00025e30       0x2c
 .text.xPortSysTickHandler
                0x00025e30       0x2c build/default/debug/_ext/246609638/port.o
                0x00025e30                xPortSysTickHandler

.text.prvResetNextTaskUnblockTime%939
                0x00025e5c       0x2c
 .text.prvResetNextTaskUnblockTime
                0x00025e5c       0x2c build/default/debug/_ext/404212886/FreeRTOS_tasks.o

.text.wc_RNG_HealthTest%940
                0x00025e88       0x2c
 .text.wc_RNG_HealthTest
                0x00025e88       0x2c build/default/debug/_ext/1664057780/random.o
                0x00025e88                wc_RNG_HealthTest

.text.alloc_fwd%941
                0x00025eb4       0x2c
 .text.alloc_fwd
                0x00025eb4       0x2c d:/microchip/bin/bin/../../lib/gcc/pic32c/8.3.1/../../../../pic32c/lib/thumb/v7e-m+fp/hard\libg-musl.a(malloc.o)

.text.fma%942   0x00025ee0       0x2c
 .text.fma      0x00025ee0       0x2c d:/microchip/bin/bin/../../lib/gcc/pic32c/8.3.1/../../../../pic32c/lib/thumb/v7e-m+fp/hard\libm-fast-emfloat.a(fma.o)
                0x00025ee0                fma

.text._sbrk%943
                0x00025f0c       0x2c
 .text._sbrk    0x00025f0c       0x2c d:/microchip/bin/bin/../../lib/gcc/pic32c/8.3.1/../../../../pic32c/lib/thumb/v7e-m+fp/hard\libpic32c.a(sbrk.o)
                0x00025f0c                _sbrk

.text._DRV_GMAC_LinkStateStartLink%944
                0x00025f38       0x2a
 .text._DRV_GMAC_LinkStateStartLink
                0x00025f38       0x2a build/default/debug/_ext/1546807373/drv_gmac.o

.text.DRV_NVMCTRL_GeometryGet%945
                0x00025f62       0x2a
 .text.DRV_NVMCTRL_GeometryGet
                0x00025f62       0x2a build/default/debug/_ext/992804092/drv_memory_nvmctrl.o
                0x00025f62                DRV_NVMCTRL_GeometryGet

.text.TCPIP_TCP_WasReset%946
                0x00025f8c       0x2a
 .text.TCPIP_TCP_WasReset
                0x00025f8c       0x2a build/default/debug/_ext/1033058136/tcp.o
                0x00025f8c                TCPIP_TCP_WasReset

.text.TCPIP_DNS_OAHASH_KeyCopy%947
                0x00025fb6       0x2a
 .text.TCPIP_DNS_OAHASH_KeyCopy
                0x00025fb6       0x2a build/default/debug/_ext/1033058136/dns.o

.text.TCPIP_Helper_ProtectedSingleListTailAdd%948
                0x00025fe0       0x2a
 .text.TCPIP_Helper_ProtectedSingleListTailAdd
                0x00025fe0       0x2a build/default/debug/_ext/1033058136/tcpip_helpers.o
                0x00025fe0                TCPIP_Helper_ProtectedSingleListTailAdd

.text.TCPIP_Helper_ProtectedSingleListRemoveAll%949
                0x0002600a       0x2a
 .text.TCPIP_Helper_ProtectedSingleListRemoveAll
                0x0002600a       0x2a build/default/debug/_ext/1033058136/tcpip_helpers.o
                0x0002600a                TCPIP_Helper_ProtectedSingleListRemoveAll

.text.TCPIP_Notification_Add%950
                0x00026034       0x2a
 .text.TCPIP_Notification_Add
                0x00026034       0x2a build/default/debug/_ext/1033058136/tcpip_notify.o
                0x00026034                TCPIP_Notification_Add

.text.__pop_float%951
                0x0002605e       0x2a
 .text.__pop_float
                0x0002605e       0x2a d:/microchip/bin/bin/../../lib/gcc/pic32c/8.3.1/../../../../pic32c/lib/thumb/v7e-m+fp/hard\libg-musl.a(__pop_float.o)
                0x0002605e                __pop_float_needed
                0x0002605e                __pop_float

.text.DRV_ETHPHY_Tasks%952
                0x00026088       0x28
 .text.DRV_ETHPHY_Tasks
                0x00026088       0x28 build/default/debug/_ext/444070925/drv_ethphy.o
                0x00026088                DRV_ETHPHY_Tasks

.text.DRV_ETHPHY_PhyAddressGet%953
                0x000260b0       0x28
 .text.DRV_ETHPHY_PhyAddressGet
                0x000260b0       0x28 build/default/debug/_ext/444070925/drv_ethphy.o
                0x000260b0                DRV_ETHPHY_PhyAddressGet

.text._DRV_PHY_SetOperDoneResult%954
                0x000260d8       0x28
 .text._DRV_PHY_SetOperDoneResult
                0x000260d8       0x28 build/default/debug/_ext/444070925/drv_ethphy.o

.text.DRV_ETHPHY_ClientOperationAbort%955
                0x00026100       0x28
 .text.DRV_ETHPHY_ClientOperationAbort
                0x00026100       0x28 build/default/debug/_ext/444070925/drv_ethphy.o
                0x00026100                DRV_ETHPHY_ClientOperationAbort

.text.DRV_PIC32CGMAC_LibSysIntStatus_Clear%956
                0x00026128       0x28
 .text.DRV_PIC32CGMAC_LibSysIntStatus_Clear
                0x00026128       0x28 build/default/debug/_ext/1546807373/drv_gmac_lib_samE5x.o
                0x00026128                DRV_PIC32CGMAC_LibSysIntStatus_Clear

.text.DRV_PIC32CGMAC_LibSysInt_Enable%957
                0x00026150       0x28
 .text.DRV_PIC32CGMAC_LibSysInt_Enable
                0x00026150       0x28 build/default/debug/_ext/1546807373/drv_gmac_lib_samE5x.o
                0x00026150                DRV_PIC32CGMAC_LibSysInt_Enable

.text.DRV_MIIM_Status%958
                0x00026178       0x28
 .text.DRV_MIIM_Status
                0x00026178       0x28 build/default/debug/_ext/438849557/drv_miim.o
                0x00026178                DRV_MIIM_Status

.text.TCPIP_ICMP_Deinitialize%959
                0x000261a0       0x28
 .text.TCPIP_ICMP_Deinitialize
                0x000261a0       0x28 build/default/debug/_ext/1033058136/icmp.o
                0x000261a0                TCPIP_ICMP_Deinitialize

.text._TcpSocketChk%960
                0x000261c8       0x28
 .text._TcpSocketChk
                0x000261c8       0x28 build/default/debug/_ext/1033058136/tcp.o

.text._TcpFlush%961
                0x000261f0       0x28
 .text._TcpFlush
                0x000261f0       0x28 build/default/debug/_ext/1033058136/tcp.o

.text._ARPRemoveCacheEntries%962
                0x00026218       0x28
 .text._ARPRemoveCacheEntries
                0x00026218       0x28 build/default/debug/_ext/1033058136/arp.o

.text.Ipv4DeRegisterFilter%963
                0x00026240       0x28
 .text.Ipv4DeRegisterFilter
                0x00026240       0x28 build/default/debug/_ext/1033058136/ipv4.o
                0x00026240                Ipv4DeRegisterFilter

.text._DHCPOptionWriteParamRequest%964
                0x00026268       0x28
 .text._DHCPOptionWriteParamRequest
                0x00026268       0x28 build/default/debug/_ext/1033058136/dhcp.o

.text.TCPIP_DHCP_IsActive%965
                0x00026290       0x28
 .text.TCPIP_DHCP_IsActive
                0x00026290       0x28 build/default/debug/_ext/1033058136/dhcp.o
                0x00026290                TCPIP_DHCP_IsActive

.text._TCPIP_STACK_TickHandler%966
                0x000262b8       0x28
 .text._TCPIP_STACK_TickHandler
                0x000262b8       0x28 build/default/debug/_ext/1033058136/tcpip_manager.o

.text._TCPIPSignalEntrySetNotify%967
                0x000262e0       0x28
 .text._TCPIPSignalEntrySetNotify
                0x000262e0       0x28 build/default/debug/_ext/1033058136/tcpip_manager.o

.text.TCPIP_STACK_IndexToNet%968
                0x00026308       0x28
 .text.TCPIP_STACK_IndexToNet
                0x00026308       0x28 build/default/debug/_ext/1033058136/tcpip_manager.o
                0x00026308                TCPIP_STACK_IndexToNet

.text.TCPIP_STACK_NetMACStatisticsGet%969
                0x00026330       0x28
 .text.TCPIP_STACK_NetMACStatisticsGet
                0x00026330       0x28 build/default/debug/_ext/1033058136/tcpip_manager.o
                0x00026330                TCPIP_STACK_NetMACStatisticsGet

.text.TCPIP_STACK_NetMACRegisterStatisticsGet%970
                0x00026358       0x28
 .text.TCPIP_STACK_NetMACRegisterStatisticsGet
                0x00026358       0x28 build/default/debug/_ext/1033058136/tcpip_manager.o
                0x00026358                TCPIP_STACK_NetMACRegisterStatisticsGet

.text.TCPIP_STACK_NetIsBcastAddress%971
                0x00026380       0x28
 .text.TCPIP_STACK_NetIsBcastAddress
                0x00026380       0x28 build/default/debug/_ext/1033058136/tcpip_manager.o
                0x00026380                TCPIP_STACK_NetIsBcastAddress

.text._TCPIPStackSignalHandlerSetParams%972
                0x000263a8       0x28
 .text._TCPIPStackSignalHandlerSetParams
                0x000263a8       0x28 build/default/debug/_ext/1033058136/tcpip_manager.o
                0x000263a8                _TCPIPStackSignalHandlerSetParams

.text._UDPSocketDcpt%973
                0x000263d0       0x28
 .text._UDPSocketDcpt
                0x000263d0       0x28 build/default/debug/_ext/1033058136/udp.o

.text._UDPUpdatePacketLock%974
                0x000263f8       0x28
 .text._UDPUpdatePacketLock
                0x000263f8       0x28 build/default/debug/_ext/1033058136/udp.o

.text.TCPIP_UDP_GetIsReady%975
                0x00026420       0x28
 .text.TCPIP_UDP_GetIsReady
                0x00026420       0x28 build/default/debug/_ext/1033058136/udp.o
                0x00026420                TCPIP_UDP_GetIsReady

.text.TC0_Timer16bitCounterGet%976
                0x00026448       0x28
 .text.TC0_Timer16bitCounterGet
                0x00026448       0x28 build/default/debug/_ext/829342655/plib_tc0.o
                0x00026448                TC0_Timer16bitCounterGet

.text.SYS_CMD_Initialize%977
                0x00026470       0x28
 .text.SYS_CMD_Initialize
                0x00026470       0x28 build/default/debug/_ext/1376093119/sys_command.o
                0x00026470                SYS_CMD_Initialize

.text.Console_UART_Initialize%978
                0x00026498       0x28
 .text.Console_UART_Initialize
                0x00026498       0x28 build/default/debug/_ext/1832805299/sys_console_uart.o
                0x00026498                Console_UART_Initialize

.text.SYS_FS_MEDIA_MANAGER_CommandStatusGet%979
                0x000264c0       0x28
 .text.SYS_FS_MEDIA_MANAGER_CommandStatusGet
                0x000264c0       0x28 build/default/debug/_ext/1269487135/sys_fs_media_manager.o
                0x000264c0                SYS_FS_MEDIA_MANAGER_CommandStatusGet

.rodata%980     0x000264e8       0x28
 .rodata        0x000264e8       0x28 build/default/debug/_ext/1269487135/sys_fs_media_manager.o

.text.SYS_TMR_TickCountGet%981
                0x00026510       0x28
 .text.SYS_TMR_TickCountGet
                0x00026510       0x28 build/default/debug/_ext/753841488/sys_time_h2_adapter.o
                0x00026510                SYS_TMR_TickCountGet

.text.SYS_TMR_TickCountGetLong%982
                0x00026538       0x28
 .text.SYS_TMR_TickCountGetLong
                0x00026538       0x28 build/default/debug/_ext/753841488/sys_time_h2_adapter.o
                0x00026538                SYS_TMR_TickCountGetLong

.text.SYS_TMR_TickCounterFrequencyGet%983
                0x00026560       0x28
 .text.SYS_TMR_TickCounterFrequencyGet
                0x00026560       0x28 build/default/debug/_ext/753841488/sys_time_h2_adapter.o
                0x00026560                SYS_TMR_TickCounterFrequencyGet

.rodata.drvMemory0InitData%984
                0x00026588       0x28
 .rodata.drvMemory0InitData
                0x00026588       0x28 build/default/debug/_ext/1171490990/initialization.o
                0x00026588                drvMemory0InitData

.rodata.tcpipARPInitData%985
                0x000265b0       0x28
 .rodata.tcpipARPInitData
                0x000265b0       0x28 build/default/debug/_ext/1171490990/initialization.o
                0x000265b0                tcpipARPInitData

.text.prvPortStartFirstTask%986
                0x000265d8       0x28
 .text.prvPortStartFirstTask
                0x000265d8       0x28 build/default/debug/_ext/246609638/port.o

.text.vPortSetupTimerInterrupt%987
                0x00026600       0x28
 .text.vPortSetupTimerInterrupt
                0x00026600       0x28 build/default/debug/_ext/246609638/port.o
                0x00026600                vPortSetupTimerInterrupt

.text.TCPIP_HTTP_Print_btn%988
                0x00026628       0x28
 .text.TCPIP_HTTP_Print_btn
                0x00026628       0x28 build/default/debug/_ext/1360937237/custom_http_app.o
                0x00026628                TCPIP_HTTP_Print_btn

.text.strncmp%989
                0x00026650       0x28
 .text.strncmp  0x00026650       0x28 d:/microchip/bin/bin/../../lib/gcc/pic32c/8.3.1/../../../../pic32c/lib/thumb/v7e-m+fp/hard\libg-musl.a(strncmp.o)
                0x00026650                strncmp

.text.__uflow%990
                0x00026678       0x28
 .text.__uflow  0x00026678       0x28 d:/microchip/bin/bin/../../lib/gcc/pic32c/8.3.1/../../../../pic32c/lib/thumb/v7e-m+fp/hard\libg-musl.a(__uflow.o)
                0x00026678                __uflow

.text._DRV_ETHPHY_NegResultPhase_ANEXP%991
                0x000266a0       0x26
 .text._DRV_ETHPHY_NegResultPhase_ANEXP
                0x000266a0       0x26 build/default/debug/_ext/444070925/drv_ethphy.o

.text._DRV_ETHPHY_NegResultPhase_ANLPAD%992
                0x000266c6       0x26
 .text._DRV_ETHPHY_NegResultPhase_ANLPAD
                0x000266c6       0x26 build/default/debug/_ext/444070925/drv_ethphy.o

.text.TCPIP_SNMP_TrapSpecificNotificationSet%993
                0x000266ec       0x26
 .text.TCPIP_SNMP_TrapSpecificNotificationSet
                0x000266ec       0x26 build/default/debug/_ext/1033058136/snmp.o
                0x000266ec                TCPIP_SNMP_TrapSpecificNotificationSet

.text.TCPIP_TCP_IsConnected%994
                0x00026712       0x26
 .text.TCPIP_TCP_IsConnected
                0x00026712       0x26 build/default/debug/_ext/1033058136/tcp.o
                0x00026712                TCPIP_TCP_IsConnected

.text.TCPIP_TCP_Flush%995
                0x00026738       0x26
 .text.TCPIP_TCP_Flush
                0x00026738       0x26 build/default/debug/_ext/1033058136/tcp.o
                0x00026738                TCPIP_TCP_Flush

.text.TCPIP_TCP_Discard%996
                0x0002675e       0x26
 .text.TCPIP_TCP_Discard
                0x0002675e       0x26 build/default/debug/_ext/1033058136/tcp.o
                0x0002675e                TCPIP_TCP_Discard

.text.TCPIP_OAHASH_Initialize%997
                0x00026784       0x26
 .text.TCPIP_OAHASH_Initialize
                0x00026784       0x26 build/default/debug/_ext/1033058136/oahash.o
                0x00026784                TCPIP_OAHASH_Initialize

.text.TCPIP_STACK_DNSServiceSelect%998
                0x000267aa       0x26
 .text.TCPIP_STACK_DNSServiceSelect
                0x000267aa       0x26 build/default/debug/_ext/1033058136/tcpip_manager.o
                0x000267aa                TCPIP_STACK_DNSServiceSelect

.text.TCPIP_STACK_AddressServiceSelect%999
                0x000267d0       0x26
 .text.TCPIP_STACK_AddressServiceSelect
                0x000267d0       0x26 build/default/debug/_ext/1033058136/tcpip_manager.o
                0x000267d0                TCPIP_STACK_AddressServiceSelect

.text.SYS_RANDOM_CryptoBlockGet%1000
                0x000267f6       0x26
 .text.SYS_RANDOM_CryptoBlockGet
                0x000267f6       0x26 build/default/debug/_ext/753841488/sys_random_h2_adapter.o
                0x000267f6                SYS_RANDOM_CryptoBlockGet

.text.__malloc0%1001
                0x0002681c       0x26
 .text.__malloc0
                0x0002681c       0x26 d:/microchip/bin/bin/../../lib/gcc/pic32c/8.3.1/../../../../pic32c/lib/thumb/v7e-m+fp/hard\libg-musl.a(malloc.o)
                0x0002681c                __malloc0

.text.__string_out%1002
                0x00026842       0x26
 .text.__string_out
                0x00026842       0x26 d:/microchip/bin/bin/../../lib/gcc/pic32c/8.3.1/../../../../pic32c/lib/thumb/v7e-m+fp/hard\libg-musl.a(__printf_core.o)
                0x00026842                __out

.text.DRV_ETHPHY_VendorDataSet%1003
                0x00026868       0x24
 .text.DRV_ETHPHY_VendorDataSet
                0x00026868       0x24 build/default/debug/_ext/444070925/drv_ethphy.o
                0x00026868                DRV_ETHPHY_VendorDataSet

.rodata%1004    0x0002688c       0x24
 .rodata        0x0002688c       0x24 build/default/debug/_ext/1546807373/drv_gmac.o

.text.DRV_PIC32CGMAC_LibSysInt_Disable%1005
                0x000268b0       0x24
 .text.DRV_PIC32CGMAC_LibSysInt_Disable
                0x000268b0       0x24 build/default/debug/_ext/1546807373/drv_gmac_lib_samE5x.o
                0x000268b0                DRV_PIC32CGMAC_LibSysInt_Disable

.text.Shell_Delete%1006
                0x000268d4       0x24
 .text.Shell_Delete
                0x000268d4       0x24 build/default/debug/_ext/1751889202/sys_fs_shell.o

.text.TCPIP_SNMP_GetDataFromUDPBuff%1007
                0x000268f8       0x24
 .text.TCPIP_SNMP_GetDataFromUDPBuff
                0x000268f8       0x24 build/default/debug/_ext/1033058136/snmp.o
                0x000268f8                TCPIP_SNMP_GetDataFromUDPBuff

.text.TCPIP_SNMP_DataIsASNNull%1008
                0x0002691c       0x24
 .text.TCPIP_SNMP_DataIsASNNull
                0x0002691c       0x24 build/default/debug/_ext/1033058136/snmp.o
                0x0002691c                TCPIP_SNMP_DataIsASNNull

.text.TCPIP_SNMP_DataTypeInfoGet%1009
                0x00026940       0x24
 .text.TCPIP_SNMP_DataTypeInfoGet
                0x00026940       0x24 build/default/debug/_ext/1033058136/snmp.o
                0x00026940                TCPIP_SNMP_DataTypeInfoGet

.text._ICMPAllocateTxPacketStruct%1010
                0x00026964       0x24
 .text._ICMPAllocateTxPacketStruct
                0x00026964       0x24 build/default/debug/_ext/1033058136/icmp.o

.text.TCPIP_ICMP_EchoRequestCancel%1011
                0x00026988       0x24
 .text.TCPIP_ICMP_EchoRequestCancel
                0x00026988       0x24 build/default/debug/_ext/1033058136/icmp.o
                0x00026988                TCPIP_ICMP_EchoRequestCancel

.text._ARPAllocateTxPacket%1012
                0x000269ac       0x24
 .text._ARPAllocateTxPacket
                0x000269ac       0x24 build/default/debug/_ext/1033058136/arp.o

.text.TCPIP_ARP_HandlerDeRegister%1013
                0x000269d0       0x24
 .text.TCPIP_ARP_HandlerDeRegister
                0x000269d0       0x24 build/default/debug/_ext/1033058136/arp.o
                0x000269d0                TCPIP_ARP_HandlerDeRegister

.rodata._tcpip_heap_object%1014
                0x000269f4       0x24
 .rodata._tcpip_heap_object
                0x000269f4       0x24 build/default/debug/_ext/1033058136/tcpip_heap_internal.o

.text._DHCPOptionProcessSrvIdent%1015
                0x00026a18       0x24
 .text._DHCPOptionProcessSrvIdent
                0x00026a18       0x24 build/default/debug/_ext/1033058136/dhcp.o

.text._DHCPOptionWriteMsgType%1016
                0x00026a3c       0x24
 .text._DHCPOptionWriteMsgType
                0x00026a3c       0x24 build/default/debug/_ext/1033058136/dhcp.o

.text.TCPIP_STACK_IPAddToNet%1017
                0x00026a60       0x24
 .text.TCPIP_STACK_IPAddToNet
                0x00026a60       0x24 build/default/debug/_ext/1033058136/tcpip_manager.o
                0x00026a60                TCPIP_STACK_IPAddToNet

.rodata._builtinCmdTbl%1018
                0x00026a84       0x24
 .rodata._builtinCmdTbl
                0x00026a84       0x24 build/default/debug/_ext/1376093119/sys_command.o

.text.MPFSIsHandleValid%1019
                0x00026aa8       0x24
 .text.MPFSIsHandleValid
                0x00026aa8       0x24 build/default/debug/_ext/699575981/mpfs.o

.text.MPFS_DirClose%1020
                0x00026acc       0x24
 .text.MPFS_DirClose
                0x00026acc       0x24 build/default/debug/_ext/699575981/mpfs.o
                0x00026acc                MPFS_DirClose

.text.SYS_RESET_SoftwareReset%1021
                0x00026af0       0x24
 .text.SYS_RESET_SoftwareReset
                0x00026af0       0x24 build/default/debug/_ext/1000052432/sys_reset.o
                0x00026af0                SYS_RESET_SoftwareReset

.text.SYS_RANDOM_CryptoGet%1022
                0x00026b14       0x24
 .text.SYS_RANDOM_CryptoGet
                0x00026b14       0x24 build/default/debug/_ext/753841488/sys_random_h2_adapter.o
                0x00026b14                SYS_RANDOM_CryptoGet

.rodata.drvMemory0DeviceAPI%1023
                0x00026b38       0x24
 .rodata.drvMemory0DeviceAPI
                0x00026b38       0x24 build/default/debug/_ext/1171490990/initialization.o
                0x00026b38                drvMemory0DeviceAPI

.text.vPortSVCHandler%1024
                0x00026b60       0x24
 .text.vPortSVCHandler
                0x00026b60       0x24 build/default/debug/_ext/246609638/port.o
                0x00026b60                vPortSVCHandler

.text.uxListRemove%1025
                0x00026b84       0x24
 .text.uxListRemove
                0x00026b84       0x24 build/default/debug/_ext/404212886/list.o
                0x00026b84                uxListRemove

.text.xQueueCreateMutex%1026
                0x00026ba8       0x24
 .text.xQueueCreateMutex
                0x00026ba8       0x24 build/default/debug/_ext/404212886/queue.o
                0x00026ba8                xQueueCreateMutex

.text.TCPIP_HTTP_Print_config_dhcpchecked%1027
                0x00026bcc       0x24
 .text.TCPIP_HTTP_Print_config_dhcpchecked
                0x00026bcc       0x24 build/default/debug/_ext/1360937237/custom_http_app.o
                0x00026bcc                TCPIP_HTTP_Print_config_dhcpchecked

.text.__aeabi_d2uiz%1028
                0x00026bf0       0x24
 .text.__aeabi_d2uiz
                0x00026bf0       0x24 d:/microchip/bin/bin/../../lib/gcc/pic32c/8.3.1/../../../../pic32c/lib/thumb/v7e-m+fp/hard\libm-fast-emfloat.a(__aeabi_d2uiz.o)
                0x00026bf0                __aeabi_d2uiz

.text._DRV_PHY_SMITransfer_Wait%1029
                0x00026c14       0x22
 .text._DRV_PHY_SMITransfer_Wait
                0x00026c14       0x22 build/default/debug/_ext/444070925/drv_ethphy.o

.text.TCPIP_SNMP_ErrorStatusSet%1030
                0x00026c36       0x22
 .text.TCPIP_SNMP_ErrorStatusSet
                0x00026c36       0x22 build/default/debug/_ext/1033058136/snmp.o

.text.TCPIP_TCP_Find%1031
                0x00026c58       0x22
 .text.TCPIP_TCP_Find
                0x00026c58       0x22 build/default/debug/_ext/1033058136/tcp.o
                0x00026c58                TCPIP_TCP_Find

.text.TCPIP_HTTP_PostNameRead%1032
                0x00026c7a       0x22
 .text.TCPIP_HTTP_PostNameRead
                0x00026c7a       0x22 build/default/debug/_ext/1033058136/http.o
                0x00026c7a                TCPIP_HTTP_PostNameRead

.text.TCPIP_Helper_ProtectedSingleListInitialize%1033
                0x00026c9c       0x22
 .text.TCPIP_Helper_ProtectedSingleListInitialize
                0x00026c9c       0x22 build/default/debug/_ext/1033058136/tcpip_helpers.o
                0x00026c9c                TCPIP_Helper_ProtectedSingleListInitialize

.text.TCPIP_STACK_NetAddressMacSet%1034
                0x00026cbe       0x22
 .text.TCPIP_STACK_NetAddressMacSet
                0x00026cbe       0x22 build/default/debug/_ext/1033058136/tcpip_manager.o
                0x00026cbe                TCPIP_STACK_NetAddressMacSet

.text._UDPFreeRxQueue%1035
                0x00026ce0       0x22
 .text._UDPFreeRxQueue
                0x00026ce0       0x22 build/default/debug/_ext/1033058136/udp.o

.text.TCPIP_UDP_Discard%1036
                0x00026d02       0x22
 .text.TCPIP_UDP_Discard
                0x00026d02       0x22 build/default/debug/_ext/1033058136/udp.o
                0x00026d02                TCPIP_UDP_Discard

.text.TCPIP_HTTP_Print_pot%1037
                0x00026d24       0x22
 .text.TCPIP_HTTP_Print_pot
                0x00026d24       0x22 build/default/debug/_ext/1360937237/custom_http_app.o
                0x00026d24                TCPIP_HTTP_Print_pot

.text.__aeabi_i2d%1038
                0x00026d46       0x22
 .text.__aeabi_i2d
                0x00026d46       0x22 d:/microchip/bin/bin/../../lib/gcc/pic32c/8.3.1/../../../../pic32c/lib/thumb/v7e-m+fp/hard\libm-fast-emfloat.a(__aeabi_i2d.o)
                0x00026d46                __aeabi_i2d

.text.DRV_ETHPHY_Status%1039
                0x00026d68       0x20
 .text.DRV_ETHPHY_Status
                0x00026d68       0x20 build/default/debug/_ext/444070925/drv_ethphy.o
                0x00026d68                DRV_ETHPHY_Status

.text.DRV_ETHPHY_ClientStatus%1040
                0x00026d88       0x20
 .text.DRV_ETHPHY_ClientStatus
                0x00026d88       0x20 build/default/debug/_ext/444070925/drv_ethphy.o
                0x00026d88                DRV_ETHPHY_ClientStatus

.text.DRV_ETHPHY_ClientOperationResult%1041
                0x00026da8       0x20
 .text.DRV_ETHPHY_ClientOperationResult
                0x00026da8       0x20 build/default/debug/_ext/444070925/drv_ethphy.o
                0x00026da8                DRV_ETHPHY_ClientOperationResult

.text._DRV_ETHPHY_ClientOpReset%1042
                0x00026dc8       0x20
 .text._DRV_ETHPHY_ClientOpReset
                0x00026dc8       0x20 build/default/debug/_ext/444070925/drv_ethphy.o

.text._DRV_ETHPHY_ClientOpNegRestart%1043
                0x00026de8       0x20
 .text._DRV_ETHPHY_ClientOpNegRestart
                0x00026de8       0x20 build/default/debug/_ext/444070925/drv_ethphy.o

.text._DRV_ETHPHY_ClientOpNegResult%1044
                0x00026e08       0x20
 .text._DRV_ETHPHY_ClientOpNegResult
                0x00026e08       0x20 build/default/debug/_ext/444070925/drv_ethphy.o

.text._DRV_ETHPHY_ClientOpNegComplete%1045
                0x00026e28       0x20
 .text._DRV_ETHPHY_ClientOpNegComplete
                0x00026e28       0x20 build/default/debug/_ext/444070925/drv_ethphy.o

.text._DRV_ETHPHY_ClientOpLinkStat%1046
                0x00026e48       0x20
 .text._DRV_ETHPHY_ClientOpLinkStat
                0x00026e48       0x20 build/default/debug/_ext/444070925/drv_ethphy.o

.text._DRV_ETHPHY_ClientOpSetup%1047
                0x00026e68       0x20
 .text._DRV_ETHPHY_ClientOpSetup
                0x00026e68       0x20 build/default/debug/_ext/444070925/drv_ethphy.o

.text._DRV_ETHPHY_SetupPhaseNegotiate%1048
                0x00026e88       0x20
 .text._DRV_ETHPHY_SetupPhaseNegotiate
                0x00026e88       0x20 build/default/debug/_ext/444070925/drv_ethphy.o

.rodata%1049    0x00026ea8       0x20
 .rodata        0x00026ea8       0x20 build/default/debug/_ext/444070925/drv_ethphy.o

.rodata._DRV_PHY_SetupPhaseNegotiateSubPhaseTbl%1050
                0x00026ec8       0x20
 .rodata._DRV_PHY_SetupPhaseNegotiateSubPhaseTbl
                0x00026ec8       0x20 build/default/debug/_ext/444070925/drv_ethphy.o

.text.DRV_GMAC_Close%1051
                0x00026ee8       0x20
 .text.DRV_GMAC_Close
                0x00026ee8       0x20 build/default/debug/_ext/1546807373/drv_gmac.o
                0x00026ee8                DRV_GMAC_Close

.text.DRV_GMAC_Deinitialize%1052
                0x00026f08       0x20
 .text.DRV_GMAC_Deinitialize
                0x00026f08       0x20 build/default/debug/_ext/1546807373/drv_gmac.o
                0x00026f08                DRV_GMAC_Deinitialize

.text.DRV_PIC32CGMAC_LibTransferEnable%1053
                0x00026f28       0x20
 .text.DRV_PIC32CGMAC_LibTransferEnable
                0x00026f28       0x20 build/default/debug/_ext/1546807373/drv_gmac_lib_samE5x.o
                0x00026f28                DRV_PIC32CGMAC_LibTransferEnable

.text.DRV_GMAC_LibDescriptorsPoolAdd%1054
                0x00026f48       0x20
 .text.DRV_GMAC_LibDescriptorsPoolAdd
                0x00026f48       0x20 build/default/debug/_ext/1546807373/drv_gmac_lib_samE5x.o
                0x00026f48                DRV_GMAC_LibDescriptorsPoolAdd

.text.TCPIP_SNMP_PacketProcStubPtrsGet%1055
                0x00026f68       0x20
 .text.TCPIP_SNMP_PacketProcStubPtrsGet
                0x00026f68       0x20 build/default/debug/_ext/1033058136/snmp.o
                0x00026f68                TCPIP_SNMP_PacketProcStubPtrsGet

.text._SwapARPPacket%1056
                0x00026f88       0x20
 .text._SwapARPPacket
                0x00026f88       0x20 build/default/debug/_ext/1033058136/arp.o

.text.TCPIP_DNS_OAHASH_KeyHash%1057
                0x00026fa8       0x20
 .text.TCPIP_DNS_OAHASH_KeyHash
                0x00026fa8       0x20 build/default/debug/_ext/1033058136/dns.o

.text.TCPIP_Helper_ProtectedSingleListLock%1058
                0x00026fc8       0x20
 .text.TCPIP_Helper_ProtectedSingleListLock
                0x00026fc8       0x20 build/default/debug/_ext/1033058136/tcpip_helpers.o
                0x00026fc8                TCPIP_Helper_ProtectedSingleListLock

.rodata.TCPIP_MAC_POWER_TBL%1059
                0x00026fe8       0x20
 .rodata.TCPIP_MAC_POWER_TBL
                0x00026fe8       0x20 build/default/debug/_ext/1033058136/tcpip_helpers.o

.text.TCPIP_STACK_NetDefaultSet%1060
                0x00027008       0x20
 .text.TCPIP_STACK_NetDefaultSet
                0x00027008       0x20 build/default/debug/_ext/1033058136/tcpip_manager.o
                0x00027008                TCPIP_STACK_NetDefaultSet

.text._TCPIPStackHandleToNetLinked%1061
                0x00027028       0x20
 .text._TCPIPStackHandleToNetLinked
                0x00027028       0x20 build/default/debug/_ext/1033058136/tcpip_manager.o
                0x00027028                _TCPIPStackHandleToNetLinked

.text.TCPIP_Notification_Remove%1062
                0x00027048       0x20
 .text.TCPIP_Notification_Remove
                0x00027048       0x20 build/default/debug/_ext/1033058136/tcpip_notify.o
                0x00027048                TCPIP_Notification_Remove

.rodata%1063    0x00027068       0x20
 .rodata        0x00027068       0x20 build/default/debug/_ext/1033058136/tcpip_packet.o

.text.TCPIP_UDP_DestinationPortSet%1064
                0x00027088       0x20
 .text.TCPIP_UDP_DestinationPortSet
                0x00027088       0x20 build/default/debug/_ext/1033058136/udp.o
                0x00027088                TCPIP_UDP_DestinationPortSet

.text._keyRightProcess%1065
                0x000270a8       0x20
 .text._keyRightProcess
                0x000270a8       0x20 build/default/debug/_ext/1376093119/sys_command.o

.text.GetCommandCharacter%1066
                0x000270c8       0x20
 .text.GetCommandCharacter
                0x000270c8       0x20 build/default/debug/_ext/1376093119/sys_command.o

.text.MPFS_GetSize%1067
                0x000270e8       0x20
 .text.MPFS_GetSize
                0x000270e8       0x20 build/default/debug/_ext/699575981/mpfs.o
                0x000270e8                MPFS_GetSize

.text.SYS_FS_MEDIA_MANAGER_TransferTask%1068
                0x00027108       0x20
 .text.SYS_FS_MEDIA_MANAGER_TransferTask
                0x00027108       0x20 build/default/debug/_ext/1269487135/sys_fs_media_manager.o
                0x00027108                SYS_FS_MEDIA_MANAGER_TransferTask

.text.SYS_INT_SourceRestore%1069
                0x00027128       0x20
 .text.SYS_INT_SourceRestore
                0x00027128       0x20 build/default/debug/_ext/1881668453/sys_int.o
                0x00027128                SYS_INT_SourceRestore

.text.SYS_RANDOM_CryptoInitialize%1070
                0x00027148       0x20
 .text.SYS_RANDOM_CryptoInitialize
                0x00027148       0x20 build/default/debug/_ext/753841488/sys_random_h2_adapter.o
                0x00027148                SYS_RANDOM_CryptoInitialize

.rodata.tcpipPhyInitData_KSZ8081%1071
                0x00027168       0x20
 .rodata.tcpipPhyInitData_KSZ8081
                0x00027168       0x20 build/default/debug/_ext/1171490990/initialization.o
                0x00027168                tcpipPhyInitData_KSZ8081

.text.prvTaskExitError%1072
                0x00027188       0x20
 .text.prvTaskExitError
                0x00027188       0x20 build/default/debug/_ext/246609638/port.o

.text.vPortEnterCritical%1073
                0x000271a8       0x20
 .text.vPortEnterCritical
                0x000271a8       0x20 build/default/debug/_ext/246609638/port.o
                0x000271a8                vPortEnterCritical

.rodata.reseedSeedA_data%1074
                0x000271c8       0x20
 .rodata.reseedSeedA_data
                0x000271c8       0x20 build/default/debug/_ext/1664057780/random.o
                0x000271c8                reseedSeedA_data

.text.TCPIP_SNMP_IsValidLength%1075
                0x000271e8       0x20
 .text.TCPIP_SNMP_IsValidLength
                0x000271e8       0x20 build/default/debug/_ext/1360937237/custom_snmp_app.o
                0x000271e8                TCPIP_SNMP_IsValidLength

.text.lock_bin%1076
                0x00027208       0x20
 .text.lock_bin
                0x00027208       0x20 d:/microchip/bin/bin/../../lib/gcc/pic32c/8.3.1/../../../../pic32c/lib/thumb/v7e-m+fp/hard\libg-musl.a(malloc.o)

.text._DRV_GMAC_LinkStateDown%1077
                0x00027228       0x1e
 .text._DRV_GMAC_LinkStateDown
                0x00027228       0x1e build/default/debug/_ext/1546807373/drv_gmac.o

.text._SNMP_BuildIntegerLen%1078
                0x00027246       0x1e
 .text._SNMP_BuildIntegerLen
                0x00027246       0x1e build/default/debug/_ext/1033058136/snmp.o
                0x00027246                _SNMP_BuildIntegerLen

.text.TCPIP_SNMP_DataCopyToProcessBuffer%1079
                0x00027264       0x1e
 .text.TCPIP_SNMP_DataCopyToProcessBuffer
                0x00027264       0x1e build/default/debug/_ext/1033058136/snmp.o
                0x00027264                TCPIP_SNMP_DataCopyToProcessBuffer

.text._TCPIsGetReady%1080
                0x00027282       0x1e
 .text._TCPIsGetReady
                0x00027282       0x1e build/default/debug/_ext/1033058136/tcp.o

.text.TCPIP_TCP_FifoRxFreeGet%1081
                0x000272a0       0x1e
 .text.TCPIP_TCP_FifoRxFreeGet
                0x000272a0       0x1e build/default/debug/_ext/1033058136/tcp.o
                0x000272a0                TCPIP_TCP_FifoRxFreeGet

.text.TCPIP_STACK_NetAddressBcast%1082
                0x000272be       0x1e
 .text.TCPIP_STACK_NetAddressBcast
                0x000272be       0x1e build/default/debug/_ext/1033058136/tcpip_manager.o
                0x000272be                TCPIP_STACK_NetAddressBcast

.text.TCPIP_STACK_NetAddress%1083
                0x000272dc       0x1e
 .text.TCPIP_STACK_NetAddress
                0x000272dc       0x1e build/default/debug/_ext/1033058136/tcpip_manager.o
                0x000272dc                TCPIP_STACK_NetAddress

.text.TCPIP_STACK_NetworkIsLinked%1084
                0x000272fa       0x1e
 .text.TCPIP_STACK_NetworkIsLinked
                0x000272fa       0x1e build/default/debug/_ext/1033058136/tcpip_manager.o
                0x000272fa                TCPIP_STACK_NetworkIsLinked

.text.TCPIP_PKT_PayloadLen%1085
                0x00027318       0x1e
 .text.TCPIP_PKT_PayloadLen
                0x00027318       0x1e build/default/debug/_ext/1033058136/tcpip_packet.o
                0x00027318                TCPIP_PKT_PayloadLen

.text.OSAL_SEM_Pend%1086
                0x00027336       0x1e
 .text.OSAL_SEM_Pend
                0x00027336       0x1e build/default/debug/_ext/1529399856/osal_freertos.o
                0x00027336                OSAL_SEM_Pend

.text.OSAL_MUTEX_Lock%1087
                0x00027354       0x1e
 .text.OSAL_MUTEX_Lock
                0x00027354       0x1e build/default/debug/_ext/1529399856/osal_freertos.o
                0x00027354                OSAL_MUTEX_Lock

.text._keyUpProcess%1088
                0x00027372       0x1e
 .text._keyUpProcess
                0x00027372       0x1e build/default/debug/_ext/1376093119/sys_command.o

.rodata%1089    0x00027390       0x1e
 .rodata        0x00027390       0x1e d:/microchip/bin/bin/../../lib/gcc/pic32c/8.3.1/../../../../pic32c/lib/thumb/v7e-m+fp/hard\libg-musl.a(__printf_core.o)

.text.__dinit_copy_emb%1090
                0x000273ae       0x1e
 .text.__dinit_copy_emb
                0x000273ae       0x1e d:/microchip/bin/bin/../../lib/gcc/pic32c/8.3.1/../../../../pic32c/lib/thumb/v7e-m+fp/hard\libpic32c.a(pic32_data_init_copy_emb.o)
                0x000273ae                __dinit_copy_emb
                0x000273ae                __dinit_copy_emb_needed

.text.__dinit_copy%1091
                0x000273cc       0x1e
 .text.__dinit_copy
                0x000273cc       0x1e d:/microchip/bin/bin/../../lib/gcc/pic32c/8.3.1/../../../../pic32c/lib/thumb/v7e-m+fp/hard\libpic32c.a(pic32_data_init_copy.o)
                0x000273cc                __dinit_copy_needed
                0x000273cc                __dinit_copy

.text._DRV_ETHPHY_ResetPhaseIdle%1092
                0x000273ea       0x1c
 .text._DRV_ETHPHY_ResetPhaseIdle
                0x000273ea       0x1c build/default/debug/_ext/444070925/drv_ethphy.o

.rodata._DRV_PHY_ClientOpTbl%1093
                0x00027408       0x1c
 .rodata._DRV_PHY_ClientOpTbl
                0x00027408       0x1c build/default/debug/_ext/444070925/drv_ethphy.o

.text.DRV_GMAC_EventPendingGet%1094
                0x00027424       0x1c
 .text.DRV_GMAC_EventPendingGet
                0x00027424       0x1c build/default/debug/_ext/1546807373/drv_gmac.o
                0x00027424                DRV_GMAC_EventPendingGet

.text.DRV_PIC32CGMAC_LibClose%1095
                0x00027440       0x1c
 .text.DRV_PIC32CGMAC_LibClose
                0x00027440       0x1c build/default/debug/_ext/1546807373/drv_gmac_lib_samE5x.o
                0x00027440                DRV_PIC32CGMAC_LibClose

.text.DRV_PIC32CGMAC_SingleListHeadRemove%1096
                0x0002745c       0x1c
 .text.DRV_PIC32CGMAC_SingleListHeadRemove
                0x0002745c       0x1c build/default/debug/_ext/1546807373/drv_gmac_lib_samE5x.o
                0x0002745c                DRV_PIC32CGMAC_SingleListHeadRemove

.text.DRV_MEMORY_EraseWrite%1097
                0x00027478       0x1c
 .text.DRV_MEMORY_EraseWrite
                0x00027478       0x1c build/default/debug/_ext/992804092/drv_memory.o
                0x00027478                DRV_MEMORY_EraseWrite

.text.Helper_SingleListHeadRemove%1098
                0x00027494       0x1c
 .text.Helper_SingleListHeadRemove
                0x00027494       0x1c build/default/debug/_ext/438849557/drv_miim.o
                0x00027494                Helper_SingleListHeadRemove

.text.Shell_LastError%1099
                0x000274b0       0x1c
 .text.Shell_LastError
                0x000274b0       0x1c build/default/debug/_ext/1751889202/sys_fs_shell.o

.text._ARPTxAckFnc%1100
                0x000274cc       0x1c
 .text._ARPTxAckFnc
                0x000274cc       0x1c build/default/debug/_ext/1033058136/arp.o

.text.TCPIP_IPV4_MaxDatagramDataSizeGet%1101
                0x000274e8       0x1c
 .text.TCPIP_IPV4_MaxDatagramDataSizeGet
                0x000274e8       0x1c build/default/debug/_ext/1033058136/ipv4.o
                0x000274e8                TCPIP_IPV4_MaxDatagramDataSizeGet

.text._TCPIP_HEAP_Calloc%1102
                0x00027504       0x1c
 .text._TCPIP_HEAP_Calloc
                0x00027504       0x1c build/default/debug/_ext/1033058136/tcpip_heap_internal.o

.rodata._DHCPOptWriteTbl%1103
                0x00027520       0x1c
 .rodata._DHCPOptWriteTbl
                0x00027520       0x1c build/default/debug/_ext/1033058136/dhcp.o

.text.TCPIP_Helper_SingleListHeadRemove%1104
                0x0002753c       0x1c
 .text.TCPIP_Helper_SingleListHeadRemove
                0x0002753c       0x1c build/default/debug/_ext/1033058136/tcpip_helpers.o
                0x0002753c                TCPIP_Helper_SingleListHeadRemove

.text.TCPIP_Helper_ProtectedSingleListUnlock%1105
                0x00027558       0x1c
 .text.TCPIP_Helper_ProtectedSingleListUnlock
                0x00027558       0x1c build/default/debug/_ext/1033058136/tcpip_helpers.o
                0x00027558                TCPIP_Helper_ProtectedSingleListUnlock

.text._TCPIPSignalEntryNotify%1106
                0x00027574       0x1c
 .text._TCPIPSignalEntryNotify
                0x00027574       0x1c build/default/debug/_ext/1033058136/tcpip_manager.o

.text.TCPIP_STACK_NetAddressGatewaySet%1107
                0x00027590       0x1c
 .text.TCPIP_STACK_NetAddressGatewaySet
                0x00027590       0x1c build/default/debug/_ext/1033058136/tcpip_manager.o
                0x00027590                TCPIP_STACK_NetAddressGatewaySet

.text.TCPIP_STACK_NetAddressDnsPrimarySet%1108
                0x000275ac       0x1c
 .text.TCPIP_STACK_NetAddressDnsPrimarySet
                0x000275ac       0x1c build/default/debug/_ext/1033058136/tcpip_manager.o
                0x000275ac                TCPIP_STACK_NetAddressDnsPrimarySet

.text.TCPIP_STACK_NetAddressDnsSecondSet%1109
                0x000275c8       0x1c
 .text.TCPIP_STACK_NetAddressDnsSecondSet
                0x000275c8       0x1c build/default/debug/_ext/1033058136/tcpip_manager.o
                0x000275c8                TCPIP_STACK_NetAddressDnsSecondSet

.text.TCPIP_STACK_NetIsUp%1110
                0x000275e4       0x1c
 .text.TCPIP_STACK_NetIsUp
                0x000275e4       0x1c build/default/debug/_ext/1033058136/tcpip_manager.o
                0x000275e4                TCPIP_STACK_NetIsUp

.text.TCPIP_STACK_NetMask%1111
                0x00027600       0x1c
 .text.TCPIP_STACK_NetMask
                0x00027600       0x1c build/default/debug/_ext/1033058136/tcpip_manager.o
                0x00027600                TCPIP_STACK_NetMask

.text.TCPIP_STACK_NetIsLinked%1112
                0x0002761c       0x1c
 .text.TCPIP_STACK_NetIsLinked
                0x0002761c       0x1c build/default/debug/_ext/1033058136/tcpip_manager.o
                0x0002761c                TCPIP_STACK_NetIsLinked

.text.TCPIP_STACK_Deinitialize%1113
                0x00027638       0x1c
 .text.TCPIP_STACK_Deinitialize
                0x00027638       0x1c build/default/debug/_ext/1033058136/tcpip_manager.o
                0x00027638                TCPIP_STACK_Deinitialize

.text.NVMCTRL_BlockErase%1114
                0x00027654       0x1c
 .text.NVMCTRL_BlockErase
                0x00027654       0x1c build/default/debug/_ext/1593096446/plib_nvmctrl.o
                0x00027654                NVMCTRL_BlockErase

.text._keyLeftProcess%1115
                0x00027670       0x1c
 .text._keyLeftProcess
                0x00027670       0x1c build/default/debug/_ext/1376093119/sys_command.o

.text.SendCommandMessage%1116
                0x0002768c       0x1c
 .text.SendCommandMessage
                0x0002768c       0x1c build/default/debug/_ext/1376093119/sys_command.o

.text.SYS_DEBUG_Initialize%1117
                0x000276a8       0x1c
 .text.SYS_DEBUG_Initialize
                0x000276a8       0x1c build/default/debug/_ext/944882569/sys_debug.o
                0x000276a8                SYS_DEBUG_Initialize

.text.SYS_FS_FileWrite%1118
                0x000276c4       0x1c
 .text.SYS_FS_FileWrite
                0x000276c4       0x1c build/default/debug/_ext/1269487135/sys_fs.o
                0x000276c4                SYS_FS_FileWrite

.text.SYS_FS_MEDIA_MANAGER_AddressGet%1119
                0x000276e0       0x1c
 .text.SYS_FS_MEDIA_MANAGER_AddressGet
                0x000276e0       0x1c build/default/debug/_ext/1269487135/sys_fs_media_manager.o
                0x000276e0                SYS_FS_MEDIA_MANAGER_AddressGet

.text.SYS_TIME_MSToCount%1120
                0x000276fc       0x1c
 .text.SYS_TIME_MSToCount
                0x000276fc       0x1c build/default/debug/_ext/101884895/sys_time.o
                0x000276fc                SYS_TIME_MSToCount

.text.SYS_TMR_CallbackPeriodic%1121
                0x00027718       0x1c
 .text.SYS_TMR_CallbackPeriodic
                0x00027718       0x1c build/default/debug/_ext/753841488/sys_time_h2_adapter.o
                0x00027718                SYS_TMR_CallbackPeriodic

.rodata.sysTimePlibAPI%1122
                0x00027734       0x1c
 .rodata.sysTimePlibAPI
                0x00027734       0x1c build/default/debug/_ext/1171490990/initialization.o
                0x00027734                sysTimePlibAPI

.rodata.tcpipHTTPInitData%1123
                0x00027750       0x1c
 .rodata.tcpipHTTPInitData
                0x00027750       0x1c build/default/debug/_ext/1171490990/initialization.o
                0x00027750                tcpipHTTPInitData

.rodata.tcpipSNMPInitData%1124
                0x0002776c       0x1c
 .rodata.tcpipSNMPInitData
                0x0002776c       0x1c build/default/debug/_ext/1171490990/initialization.o
                0x0002776c                tcpipSNMPInitData

.text.vTaskPlaceOnEventList%1125
                0x00027788       0x1c
 .text.vTaskPlaceOnEventList
                0x00027788       0x1c build/default/debug/_ext/404212886/FreeRTOS_tasks.o
                0x00027788                vTaskPlaceOnEventList

.text.pvTaskIncrementMutexHeldCount%1126
                0x000277a4       0x1c
 .text.pvTaskIncrementMutexHeldCount
                0x000277a4       0x1c build/default/debug/_ext/404212886/FreeRTOS_tasks.o
                0x000277a4                pvTaskIncrementMutexHeldCount

.text.__aeabi_ui2d%1127
                0x000277c0       0x1c
 .text.__aeabi_ui2d
                0x000277c0       0x1c d:/microchip/bin/bin/../../lib/gcc/pic32c/8.3.1/../../../../pic32c/lib/thumb/v7e-m+fp/hard\libm-fast-emfloat.a(__aeabi_ui2d.o)
                0x000277c0                __aeabi_ui2d

.text.isxdigit%1128
                0x000277dc       0x1c
 .text.isxdigit
                0x000277dc       0x1c d:/microchip/bin/bin/../../lib/gcc/pic32c/8.3.1/../../../../pic32c/lib/thumb/v7e-m+fp/hard\libg-musl.a(isxdigit.o)
                0x000277dc                isxdigit

.text.calloc%1129
                0x000277f8       0x1c
 .text.calloc   0x000277f8       0x1c d:/microchip/bin/bin/../../lib/gcc/pic32c/8.3.1/../../../../pic32c/lib/thumb/v7e-m+fp/hard\libg-musl.a(calloc.o)
                0x000277f8                calloc

.text.memcmp%1130
                0x00027814       0x1c
 .text.memcmp   0x00027814       0x1c d:/microchip/bin/bin/../../lib/gcc/pic32c/8.3.1/../../../../pic32c/lib/thumb/v7e-m+fp/hard\libg-musl.a(memcmp.o)
                0x00027814                memcmp

.text.memcpy%1131
                0x00027830       0x1c
 .text.memcpy   0x00027830       0x1c d:/microchip/bin/bin/../../lib/gcc/pic32c/8.3.1/../../../../pic32c/lib/thumb/v7e-m+fp/hard\libg-musl.a(memcpy.o)
                0x00027830                memcpy

.text.vfprintf%1132
                0x0002784c       0x1c
 .text.vfprintf
                0x0002784c       0x1c d:/microchip/bin/bin/../../lib/gcc/pic32c/8.3.1/../../../../pic32c/lib/thumb/v7e-m+fp/hard\libg-musl.a(vfprintf.o)
                0x0002784c                vfprintf

.text.DRV_PIC32CGMAC_SingleListTailAdd%1133
                0x00027868       0x1a
 .text.DRV_PIC32CGMAC_SingleListTailAdd
                0x00027868       0x1a build/default/debug/_ext/1546807373/drv_gmac_lib_samE5x.o
                0x00027868                DRV_PIC32CGMAC_SingleListTailAdd

.text.DRV_MEMORY_Read%1134
                0x00027882       0x1a
 .text.DRV_MEMORY_Read
                0x00027882       0x1a build/default/debug/_ext/992804092/drv_memory.o
                0x00027882                DRV_MEMORY_Read

.text.DRV_MEMORY_Erase%1135
                0x0002789c       0x1a
 .text.DRV_MEMORY_Erase
                0x0002789c       0x1a build/default/debug/_ext/992804092/drv_memory.o
                0x0002789c                DRV_MEMORY_Erase

.text.Helper_SingleListTailAdd%1136
                0x000278b6       0x1a
 .text.Helper_SingleListTailAdd
                0x000278b6       0x1a build/default/debug/_ext/438849557/drv_miim.o
                0x000278b6                Helper_SingleListTailAdd

.text.DRV_MIIM_Read%1137
                0x000278d0       0x1a
 .text.DRV_MIIM_Read
                0x000278d0       0x1a build/default/debug/_ext/438849557/drv_miim.o
                0x000278d0                DRV_MIIM_Read

.text.DRV_MIIM_Write%1138
                0x000278ea       0x1a
 .text.DRV_MIIM_Write
                0x000278ea       0x1a build/default/debug/_ext/438849557/drv_miim.o
                0x000278ea                DRV_MIIM_Write

.text.DRV_MIIM_Scan%1139
                0x00027904       0x1a
 .text.DRV_MIIM_Scan
                0x00027904       0x1a build/default/debug/_ext/438849557/drv_miim.o
                0x00027904                DRV_MIIM_Scan

.text.TCPIP_TCP_ClientOpen%1140
                0x0002791e       0x1a
 .text.TCPIP_TCP_ClientOpen
                0x0002791e       0x1a build/default/debug/_ext/1033058136/tcp.o
                0x0002791e                TCPIP_TCP_ClientOpen

.text.TCPIP_TCP_Disconnect%1141
                0x00027938       0x1a
 .text.TCPIP_TCP_Disconnect
                0x00027938       0x1a build/default/debug/_ext/1033058136/tcp.o
                0x00027938                TCPIP_TCP_Disconnect

.text.TCPIP_TCP_PutIsReady%1142
                0x00027952       0x1a
 .text.TCPIP_TCP_PutIsReady
                0x00027952       0x1a build/default/debug/_ext/1033058136/tcp.o
                0x00027952                TCPIP_TCP_PutIsReady

.text.TCPIP_TCP_StringPut%1143
                0x0002796c       0x1a
 .text.TCPIP_TCP_StringPut
                0x0002796c       0x1a build/default/debug/_ext/1033058136/tcp.o
                0x0002796c                TCPIP_TCP_StringPut

.text.TCPIP_DNS_IsResolved%1144
                0x00027986       0x1a
 .text.TCPIP_DNS_IsResolved
                0x00027986       0x1a build/default/debug/_ext/1033058136/dns.o
                0x00027986                TCPIP_DNS_IsResolved

.text.TCPIP_Helper_SingleListTailAdd%1145
                0x000279a0       0x1a
 .text.TCPIP_Helper_SingleListTailAdd
                0x000279a0       0x1a build/default/debug/_ext/1033058136/tcpip_helpers.o
                0x000279a0                TCPIP_Helper_SingleListTailAdd

.text.TCPIP_Helper_SingleListAppend%1146
                0x000279ba       0x1a
 .text.TCPIP_Helper_SingleListAppend
                0x000279ba       0x1a build/default/debug/_ext/1033058136/tcpip_helpers.o
                0x000279ba                TCPIP_Helper_SingleListAppend

.text.TCPIP_STACK_NetIsReady%1147
                0x000279d4       0x1a
 .text.TCPIP_STACK_NetIsReady
                0x000279d4       0x1a build/default/debug/_ext/1033058136/tcpip_manager.o
                0x000279d4                TCPIP_STACK_NetIsReady

.text.TCPIP_Notification_RemoveAll%1148
                0x000279ee       0x1a
 .text.TCPIP_Notification_RemoveAll
                0x000279ee       0x1a build/default/debug/_ext/1033058136/tcpip_notify.o
                0x000279ee                TCPIP_Notification_RemoveAll

.text._UDPTxPktValid%1149
                0x00027a08       0x1a
 .text._UDPTxPktValid
                0x00027a08       0x1a build/default/debug/_ext/1033058136/udp.o

.text.TCPIP_UDP_TxPointerGet%1150
                0x00027a22       0x1a
 .text.TCPIP_UDP_TxPointerGet
                0x00027a22       0x1a build/default/debug/_ext/1033058136/udp.o
                0x00027a22                TCPIP_UDP_TxPointerGet

.text.wc_InitRng%1151
                0x00027a3c       0x1a
 .text.wc_InitRng
                0x00027a3c       0x1a build/default/debug/_ext/1664057780/random.o
                0x00027a3c                wc_InitRng

.text.TCPIP_HTTP_Print_config_hostname%1152
                0x00027a56       0x1a
 .text.TCPIP_HTTP_Print_config_hostname
                0x00027a56       0x1a build/default/debug/_ext/1360937237/custom_http_app.o
                0x00027a56                TCPIP_HTTP_Print_config_hostname

.text.TCPIP_HTTP_Print_rebootaddr%1153
                0x00027a70       0x1a
 .text.TCPIP_HTTP_Print_rebootaddr
                0x00027a70       0x1a build/default/debug/_ext/1360937237/custom_http_app.o
                0x00027a70                TCPIP_HTTP_Print_rebootaddr

.text.isalnum%1154
                0x00027a8a       0x1a
 .text.isalnum  0x00027a8a       0x1a d:/microchip/bin/bin/../../lib/gcc/pic32c/8.3.1/../../../../pic32c/lib/thumb/v7e-m+fp/hard\libg-musl.a(isalnum.o)
                0x00027a8a                isalnum

.text.snprintf%1155
                0x00027aa4       0x1a
 .text.snprintf
                0x00027aa4       0x1a d:/microchip/bin/bin/../../lib/gcc/pic32c/8.3.1/../../../../pic32c/lib/thumb/v7e-m+fp/hard\libg-musl.a(snprintf.o)
                0x00027aa4                snprintf

.text.sprintf%1156
                0x00027abe       0x1a
 .text.sprintf  0x00027abe       0x1a d:/microchip/bin/bin/../../lib/gcc/pic32c/8.3.1/../../../../pic32c/lib/thumb/v7e-m+fp/hard\libg-musl.a(sprintf.o)
                0x00027abe                sprintf

.text.CRYPT_MD5_DataAdd%1157
                0x00027ad8       0x18
 .text.CRYPT_MD5_DataAdd
                0x00027ad8       0x18 build/default/debug/_ext/1645245335/crypto.o
                0x00027ad8                CRYPT_MD5_DataAdd

.text.CRYPT_MD5_Finalize%1158
                0x00027af0       0x18
 .text.CRYPT_MD5_Finalize
                0x00027af0       0x18 build/default/debug/_ext/1645245335/crypto.o
                0x00027af0                CRYPT_MD5_Finalize

.text.CRYPT_RNG_BlockGenerate%1159
                0x00027b08       0x18
 .text.CRYPT_RNG_BlockGenerate
                0x00027b08       0x18 build/default/debug/_ext/1645245335/crypto.o
                0x00027b08                CRYPT_RNG_BlockGenerate

.text.DRV_ETHPHY_Deinitialize%1160
                0x00027b20       0x18
 .text.DRV_ETHPHY_Deinitialize
                0x00027b20       0x18 build/default/debug/_ext/444070925/drv_ethphy.o
                0x00027b20                DRV_ETHPHY_Deinitialize

.text._DRV_ETHPHY_NegCompletePhaseResultNoWait%1161
                0x00027b38       0x18
 .text._DRV_ETHPHY_NegCompletePhaseResultNoWait
                0x00027b38       0x18 build/default/debug/_ext/444070925/drv_ethphy.o

.text._DRV_ETHPHY_SetupPhaseNegotiate_SubPhase5%1162
                0x00027b50       0x18
 .text._DRV_ETHPHY_SetupPhaseNegotiate_SubPhase5
                0x00027b50       0x18 build/default/debug/_ext/444070925/drv_ethphy.o

.text._DRV_ETHPHY_LinkStatPhaseIdle%1163
                0x00027b68       0x18
 .text._DRV_ETHPHY_LinkStatPhaseIdle
                0x00027b68       0x18 build/default/debug/_ext/444070925/drv_ethphy.o

.text._DRV_ETHPHY_NegCompletePhaseIdle%1164
                0x00027b80       0x18
 .text._DRV_ETHPHY_NegCompletePhaseIdle
                0x00027b80       0x18 build/default/debug/_ext/444070925/drv_ethphy.o

.text._DRV_ETHPHY_NegResultPhaseIdle%1165
                0x00027b98       0x18
 .text._DRV_ETHPHY_NegResultPhaseIdle
                0x00027b98       0x18 build/default/debug/_ext/444070925/drv_ethphy.o

.text._DRV_ETHPHY_NegRestartPhaseIdle%1166
                0x00027bb0       0x18
 .text._DRV_ETHPHY_NegRestartPhaseIdle
                0x00027bb0       0x18 build/default/debug/_ext/444070925/drv_ethphy.o

.rodata._DRV_PHY_NegCompletePhasesTbl%1167
                0x00027bc8       0x18
 .rodata._DRV_PHY_NegCompletePhasesTbl
                0x00027bc8       0x18 build/default/debug/_ext/444070925/drv_ethphy.o

.text.DRV_PIC32CGMAC_SingleListHeadAdd%1168
                0x00027be0       0x18
 .text.DRV_PIC32CGMAC_SingleListHeadAdd
                0x00027be0       0x18 build/default/debug/_ext/1546807373/drv_gmac_lib_samE5x.o
                0x00027be0                DRV_PIC32CGMAC_SingleListHeadAdd

.text.DRV_PIC32CGMAC_LibSysInt_Restore%1169
                0x00027bf8       0x18
 .text.DRV_PIC32CGMAC_LibSysInt_Restore
                0x00027bf8       0x18 build/default/debug/_ext/1546807373/drv_gmac_lib_samE5x.o
                0x00027bf8                DRV_PIC32CGMAC_LibSysInt_Restore

.text.DRV_MIIM_Close%1170
                0x00027c10       0x18
 .text.DRV_MIIM_Close
                0x00027c10       0x18 build/default/debug/_ext/438849557/drv_miim.o
                0x00027c10                DRV_MIIM_Close

.text.TCPIP_TCP_Put%1171
                0x00027c28       0x18
 .text.TCPIP_TCP_Put
                0x00027c28       0x18 build/default/debug/_ext/1033058136/tcp.o
                0x00027c28                TCPIP_TCP_Put

.text.TCPIP_ARP_HashKeyHash%1172
                0x00027c40       0x18
 .text.TCPIP_ARP_HashKeyHash
                0x00027c40       0x18 build/default/debug/_ext/1033058136/arp.o
                0x00027c40                TCPIP_ARP_HashKeyHash

.text.TCPIP_OAHASH_EntryRemove%1173
                0x00027c58       0x18
 .text.TCPIP_OAHASH_EntryRemove
                0x00027c58       0x18 build/default/debug/_ext/1033058136/oahash.o
                0x00027c58                TCPIP_OAHASH_EntryRemove

.text.TCPIP_STACK_NetAddressGateway%1174
                0x00027c70       0x18
 .text.TCPIP_STACK_NetAddressGateway
                0x00027c70       0x18 build/default/debug/_ext/1033058136/tcpip_manager.o
                0x00027c70                TCPIP_STACK_NetAddressGateway

.text.TCPIP_STACK_NetAddressDnsPrimary%1175
                0x00027c88       0x18
 .text.TCPIP_STACK_NetAddressDnsPrimary
                0x00027c88       0x18 build/default/debug/_ext/1033058136/tcpip_manager.o
                0x00027c88                TCPIP_STACK_NetAddressDnsPrimary

.text.TCPIP_STACK_NetAddressDnsSecond%1176
                0x00027ca0       0x18
 .text.TCPIP_STACK_NetAddressDnsSecond
                0x00027ca0       0x18 build/default/debug/_ext/1033058136/tcpip_manager.o
                0x00027ca0                TCPIP_STACK_NetAddressDnsSecond

.text.TCPIP_STACK_NetAddressGet%1177
                0x00027cb8       0x18
 .text.TCPIP_STACK_NetAddressGet
                0x00027cb8       0x18 build/default/debug/_ext/1033058136/tcpip_manager.o
                0x00027cb8                TCPIP_STACK_NetAddressGet

.text.TCPIP_STACK_NetMaskGet%1178
                0x00027cd0       0x18
 .text.TCPIP_STACK_NetMaskGet
                0x00027cd0       0x18 build/default/debug/_ext/1033058136/tcpip_manager.o
                0x00027cd0                TCPIP_STACK_NetMaskGet

.rodata.TCPIP_FRAME_PROCESS_TBL%1179
                0x00027ce8       0x18
 .rodata.TCPIP_FRAME_PROCESS_TBL
                0x00027ce8       0x18 build/default/debug/_ext/1033058136/tcpip_manager.o

.text.OSAL_CRIT_Enter%1180
                0x00027d00       0x18
 .text.OSAL_CRIT_Enter
                0x00027d00       0x18 build/default/debug/_ext/1529399856/osal_freertos.o
                0x00027d00                OSAL_CRIT_Enter

.text.OSAL_SEM_Post%1181
                0x00027d18       0x18
 .text.OSAL_SEM_Post
                0x00027d18       0x18 build/default/debug/_ext/1529399856/osal_freertos.o
                0x00027d18                OSAL_SEM_Post

.text.OSAL_MUTEX_Create%1182
                0x00027d30       0x18
 .text.OSAL_MUTEX_Create
                0x00027d30       0x18 build/default/debug/_ext/1529399856/osal_freertos.o
                0x00027d30                OSAL_MUTEX_Create

.text.OSAL_MUTEX_Unlock%1183
                0x00027d48       0x18
 .text.OSAL_MUTEX_Unlock
                0x00027d48       0x18 build/default/debug/_ext/1529399856/osal_freertos.o
                0x00027d48                OSAL_MUTEX_Unlock

.text.SERCOM1_USART_WritePendingBytesGet%1184
                0x00027d60       0x18
 .text.SERCOM1_USART_WritePendingBytesGet
                0x00027d60       0x18 build/default/debug/_ext/504274921/plib_sercom1_usart.o

.text.SERCOM1_USART_ReadCountGet%1185
                0x00027d78       0x18
 .text.SERCOM1_USART_ReadCountGet
                0x00027d78       0x18 build/default/debug/_ext/504274921/plib_sercom1_usart.o
                0x00027d78                SERCOM1_USART_ReadCountGet

.text.TC0_TimerStart%1186
                0x00027d90       0x18
 .text.TC0_TimerStart
                0x00027d90       0x18 build/default/debug/_ext/829342655/plib_tc0.o
                0x00027d90                TC0_TimerStart

.text.TC0_TimerStop%1187
                0x00027da8       0x18
 .text.TC0_TimerStop
                0x00027da8       0x18 build/default/debug/_ext/829342655/plib_tc0.o
                0x00027da8                TC0_TimerStop

.text._keyDownProcess%1188
                0x00027dc0       0x18
 .text._keyDownProcess
                0x00027dc0       0x18 build/default/debug/_ext/1376093119/sys_command.o

.text.CommandReset%1189
                0x00027dd8       0x18
 .text.CommandReset
                0x00027dd8       0x18 build/default/debug/_ext/1376093119/sys_command.o

.text.SYS_TIME_GetElapsedCount%1190
                0x00027df0       0x18
 .text.SYS_TIME_GetElapsedCount
                0x00027df0       0x18 build/default/debug/_ext/101884895/sys_time.o

.text._SYS_RANDOM_CryptoContext%1191
                0x00027e08       0x18
 .text._SYS_RANDOM_CryptoContext
                0x00027e08       0x18 build/default/debug/_ext/753841488/sys_random_h2_adapter.o

.rodata.sysConsole0UARTPlibAPI%1192
                0x00027e20       0x18
 .rodata.sysConsole0UARTPlibAPI
                0x00027e20       0x18 build/default/debug/_ext/1171490990/initialization.o
                0x00027e20                sysConsole0UARTPlibAPI

.rodata.tcpipDNSClientInitData%1193
                0x00027e38       0x18
 .rodata.tcpipDNSClientInitData
                0x00027e38       0x18 build/default/debug/_ext/1171490990/initialization.o
                0x00027e38                tcpipDNSClientInitData

.text._TCPIP_STACK_Task%1194
                0x00027e50       0x18
 .text._TCPIP_STACK_Task
                0x00027e50       0x18 build/default/debug/_ext/1171490990/tasks.o
                0x00027e50                _TCPIP_STACK_Task

.text._DRV_MIIM_Task%1195
                0x00027e68       0x18
 .text._DRV_MIIM_Task
                0x00027e68       0x18 build/default/debug/_ext/1171490990/tasks.o
                0x00027e68                _DRV_MIIM_Task

.text.vTaskInternalSetTimeOutState%1196
                0x00027e80       0x18
 .text.vTaskInternalSetTimeOutState
                0x00027e80       0x18 build/default/debug/_ext/404212886/FreeRTOS_tasks.o
                0x00027e80                vTaskInternalSetTimeOutState

.text.TCPIP_HTTP_Print_ledSelected%1197
                0x00027e98       0x18
 .text.TCPIP_HTTP_Print_ledSelected
                0x00027e98       0x18 build/default/debug/_ext/1360937237/custom_http_app.o
                0x00027e98                TCPIP_HTTP_Print_ledSelected

.text.rand%1198
                0x00027eb0       0x18
 .text.rand     0x00027eb0       0x18 d:/microchip/bin/bin/../../lib/gcc/pic32c/8.3.1/../../../../pic32c/lib/thumb/v7e-m+fp/hard\libg-musl.a(rand.o)
                0x00027eb0                rand

.text.strlen%1199
                0x00027ec8       0x18
 .text.strlen   0x00027ec8       0x18 d:/microchip/bin/bin/../../lib/gcc/pic32c/8.3.1/../../../../pic32c/lib/thumb/v7e-m+fp/hard\libg-musl.a(strlen.o)
                0x00027ec8                strlen

.text.__shlim%1200
                0x00027ee0       0x18
 .text.__shlim  0x00027ee0       0x18 d:/microchip/bin/bin/../../lib/gcc/pic32c/8.3.1/../../../../pic32c/lib/thumb/v7e-m+fp/hard\libg-musl.a(shgetc.o)
                0x00027ee0                __shlim

.text.DRV_MIIM_ClientStatus%1201
                0x00027ef8       0x16
 .text.DRV_MIIM_ClientStatus
                0x00027ef8       0x16 build/default/debug/_ext/438849557/drv_miim.o
                0x00027ef8                DRV_MIIM_ClientStatus

.text._SNMPSocketRxSignalHandler%1202
                0x00027f0e       0x16
 .text._SNMPSocketRxSignalHandler
                0x00027f0e       0x16 build/default/debug/_ext/1033058136/snmp.o

.text.TCPIP_TCP_WasDisconnected%1203
                0x00027f24       0x16
 .text.TCPIP_TCP_WasDisconnected
                0x00027f24       0x16 build/default/debug/_ext/1033058136/tcp.o
                0x00027f24                TCPIP_TCP_WasDisconnected

.text._HTTPSocketRxSignalHandler%1204
                0x00027f3a       0x16
 .text._HTTPSocketRxSignalHandler
                0x00027f3a       0x16 build/default/debug/_ext/1033058136/http.o

.text._IperfUDPRxSignalHandler%1205
                0x00027f50       0x16
 .text._IperfUDPRxSignalHandler
                0x00027f50       0x16 build/default/debug/_ext/1033058136/iperf.o

.text._IperfTCPRxSignalHandler%1206
                0x00027f66       0x16
 .text._IperfTCPRxSignalHandler
                0x00027f66       0x16 build/default/debug/_ext/1033058136/iperf.o

.text._TCPIP_HEAP_LastError%1207
                0x00027f7c       0x16
 .text._TCPIP_HEAP_LastError
                0x00027f7c       0x16 build/default/debug/_ext/1033058136/tcpip_heap_internal.o

.text._DHCPSocketRxSignalHandler%1208
                0x00027f92       0x16
 .text._DHCPSocketRxSignalHandler
                0x00027f92       0x16 build/default/debug/_ext/1033058136/dhcp.o

.text._DNSSocketRxSignalHandler%1209
                0x00027fa8       0x16
 .text._DNSSocketRxSignalHandler
                0x00027fa8       0x16 build/default/debug/_ext/1033058136/dns.o

.text.TCPIP_STACK_AddressServiceCanStart%1210
                0x00027fbe       0x16
 .text.TCPIP_STACK_AddressServiceCanStart
                0x00027fbe       0x16 build/default/debug/_ext/1033058136/tcpip_manager.o
                0x00027fbe                TCPIP_STACK_AddressServiceCanStart

.text._TCPIPStackPacketTx%1211
                0x00027fd4       0x16
 .text._TCPIPStackPacketTx
                0x00027fd4       0x16 build/default/debug/_ext/1033058136/tcpip_manager.o
                0x00027fd4                _TCPIPStackPacketTx

.text.OSAL_CRIT_Leave%1212
                0x00027fea       0x16
 .text.OSAL_CRIT_Leave
                0x00027fea       0x16 build/default/debug/_ext/1529399856/osal_freertos.o
                0x00027fea                OSAL_CRIT_Leave

.text.vListInitialise%1213
                0x00028000       0x16
 .text.vListInitialise
                0x00028000       0x16 build/default/debug/_ext/404212886/list.o
                0x00028000                vListInitialise

.text.vListInsertEnd%1214
                0x00028016       0x16
 .text.vListInsertEnd
                0x00028016       0x16 build/default/debug/_ext/404212886/list.o
                0x00028016                vListInsertEnd

.text.prvIsQueueEmpty%1215
                0x0002802c       0x16
 .text.prvIsQueueEmpty
                0x0002802c       0x16 build/default/debug/_ext/404212886/queue.o

.text.xQueueCreateCountingSemaphore%1216
                0x00028042       0x16
 .text.xQueueCreateCountingSemaphore
                0x00028042       0x16 build/default/debug/_ext/404212886/queue.o
                0x00028042                xQueueCreateCountingSemaphore

.text.wc_InitMd5%1217
                0x00028058       0x16
 .text.wc_InitMd5
                0x00028058       0x16 build/default/debug/_ext/1664057780/md5.o
                0x00028058                wc_InitMd5

.text.__expand_heap%1218
                0x0002806e       0x16
 .text.__expand_heap
                0x0002806e       0x16 d:/microchip/bin/bin/../../lib/gcc/pic32c/8.3.1/../../../../pic32c/lib/thumb/v7e-m+fp/hard\libg-musl.a(expand_heap.o)
                0x0002806e                __expand_heap

.text.strcmp%1219
                0x00028084       0x16
 .text.strcmp   0x00028084       0x16 d:/microchip/bin/bin/../../lib/gcc/pic32c/8.3.1/../../../../pic32c/lib/thumb/v7e-m+fp/hard\libg-musl.a(strcmp.o)
                0x00028084                strcmp

.rodata._DRV_PHY_NegResultPhasesTbl%1220
                0x0002809c       0x14
 .rodata._DRV_PHY_NegResultPhasesTbl
                0x0002809c       0x14 build/default/debug/_ext/444070925/drv_ethphy.o

.rodata.DRV_ETHPHY_OBJECT_KSZ8081%1221
                0x000280b0       0x14
 .rodata.DRV_ETHPHY_OBJECT_KSZ8081
                0x000280b0       0x14 build/default/debug/_ext/444070925/drv_extphy_ksz8081.o
                0x000280b0                DRV_ETHPHY_OBJECT_KSZ8081

.rodata._DRV_GMAC_LinkStateTbl%1222
                0x000280c4       0x14
 .rodata._DRV_GMAC_LinkStateTbl
                0x000280c4       0x14 build/default/debug/_ext/1546807373/drv_gmac.o

.text.DRV_PIC32CGMAC_LibGetHighPrioReadyQue%1223
                0x000280d8       0x14
 .text.DRV_PIC32CGMAC_LibGetHighPrioReadyQue
                0x000280d8       0x14 build/default/debug/_ext/1546807373/drv_gmac_lib_samE5x.o
                0x000280d8                DRV_PIC32CGMAC_LibGetHighPrioReadyQue

.text.DRV_MEMORY_RegisterWithSysFs%1224
                0x000280ec       0x14
 .text.DRV_MEMORY_RegisterWithSysFs
                0x000280ec       0x14 build/default/debug/_ext/992804092/drv_memory_file_system.o
                0x000280ec                DRV_MEMORY_RegisterWithSysFs

.rodata.dataTypeTable%1225
                0x00028100       0x14
 .rodata.dataTypeTable
                0x00028100       0x14 build/default/debug/_ext/1033058136/snmp.o

.text.Ipv4DeRegisterCallback%1226
                0x00028114       0x14
 .text.Ipv4DeRegisterCallback
                0x00028114       0x14 build/default/debug/_ext/1033058136/ipv4.o

.text.TCPIP_HEAP_Create%1227
                0x00028128       0x14
 .text.TCPIP_HEAP_Create
                0x00028128       0x14 build/default/debug/_ext/1033058136/tcpip_heap_alloc.o
                0x00028128                TCPIP_HEAP_Create

.text._DHCPOptionWriteEnd%1228
                0x0002813c       0x14
 .text._DHCPOptionWriteEnd
                0x0002813c       0x14 build/default/debug/_ext/1033058136/dhcp.o

.text.TCPIP_STACK_NetUpMACAddressGet%1229
                0x00028150       0x14
 .text.TCPIP_STACK_NetUpMACAddressGet
                0x00028150       0x14 build/default/debug/_ext/1033058136/tcpip_manager.o
                0x00028150                TCPIP_STACK_NetUpMACAddressGet

.text.TCPIP_STACK_HeapHandleGet%1230
                0x00028164       0x14
 .text.TCPIP_STACK_HeapHandleGet
                0x00028164       0x14 build/default/debug/_ext/1033058136/tcpip_manager.o
                0x00028164                TCPIP_STACK_HeapHandleGet

.text.NVMCTRL_IsBusy%1231
                0x00028178       0x14
 .text.NVMCTRL_IsBusy
                0x00028178       0x14 build/default/debug/_ext/1593096446/plib_nvmctrl.o
                0x00028178                NVMCTRL_IsBusy

.text.SERCOM1_USART_ReadFreeBufferCountGet%1232
                0x0002818c       0x14
 .text.SERCOM1_USART_ReadFreeBufferCountGet
                0x0002818c       0x14 build/default/debug/_ext/504274921/plib_sercom1_usart.o
                0x0002818c                SERCOM1_USART_ReadFreeBufferCountGet

.text.SERCOM1_USART_WriteFreeBufferCountGet%1233
                0x000281a0       0x14
 .text.SERCOM1_USART_WriteFreeBufferCountGet
                0x000281a0       0x14 build/default/debug/_ext/504274921/plib_sercom1_usart.o
                0x000281a0                SERCOM1_USART_WriteFreeBufferCountGet

.text.TC0_Timer16bitPeriodSet%1234
                0x000281b4       0x14
 .text.TC0_Timer16bitPeriodSet
                0x000281b4       0x14 build/default/debug/_ext/829342655/plib_tc0.o
                0x000281b4                TC0_Timer16bitPeriodSet

.text.TC0_Timer16bitCompareSet%1235
                0x000281c8       0x14
 .text.TC0_Timer16bitCompareSet
                0x000281c8       0x14 build/default/debug/_ext/829342655/plib_tc0.o
                0x000281c8                TC0_Timer16bitCompareSet

.rodata.sysConsoleApi%1236
                0x000281dc       0x14
 .rodata.sysConsoleApi
                0x000281dc       0x14 build/default/debug/_ext/1376093119/sys_command.o
                0x000281dc                sysConsoleApi

.text.Console_UART_ResourceLock%1237
                0x000281f0       0x14
 .text.Console_UART_ResourceLock
                0x000281f0       0x14 build/default/debug/_ext/1832805299/sys_console_uart.o

.text.vPortEnableVFP%1238
                0x00028204       0x14
 .text.vPortEnableVFP
                0x00028204       0x14 build/default/debug/_ext/246609638/port.o

.text.vPortExitCritical%1239
                0x00028218       0x14
 .text.vPortExitCritical
                0x00028218       0x14 build/default/debug/_ext/246609638/port.o
                0x00028218                vPortExitCritical

.text.CRYPT_WCCB_Initialize%1240
                0x0002822c       0x14
 .text.CRYPT_WCCB_Initialize
                0x0002822c       0x14 build/default/debug/_ext/172253694/crypt_wolfcryptcb.o
                0x0002822c                CRYPT_WCCB_Initialize

.text.TCPIP_HTTP_Print_version%1241
                0x00028240       0x14
 .text.TCPIP_HTTP_Print_version
                0x00028240       0x14 build/default/debug/_ext/1360937237/custom_http_app.o
                0x00028240                TCPIP_HTTP_Print_version

.text.TCPIP_HTTP_Print_ddns_status%1242
                0x00028254       0x14
 .text.TCPIP_HTTP_Print_ddns_status
                0x00028254       0x14 build/default/debug/_ext/1360937237/custom_http_app.o
                0x00028254                TCPIP_HTTP_Print_ddns_status

.text.TCPIP_HTTP_Print_snmp_en%1243
                0x00028268       0x14
 .text.TCPIP_HTTP_Print_snmp_en
                0x00028268       0x14 build/default/debug/_ext/1360937237/custom_http_app.o
                0x00028268                TCPIP_HTTP_Print_snmp_en

.rodata%1244    0x0002827c       0x14
 .rodata        0x0002827c       0x14 d:/microchip/bin/bin/../../lib/gcc/pic32c/8.3.1/../../../../pic32c/lib/thumb/v7e-m+fp/hard\libpic32c.a(data_init.o)

.text.strtol%1245
                0x00028290       0x14
 .text.strtol   0x00028290       0x14 d:/microchip/bin/bin/../../lib/gcc/pic32c/8.3.1/../../../../pic32c/lib/thumb/v7e-m+fp/hard\libg-musl.a(strtol.o)
                0x00028290                strtol
                0x00028290                __strtol_internal

.text.memset%1246
                0x000282a4       0x14
 .text.memset   0x000282a4       0x14 d:/microchip/bin/bin/../../lib/gcc/pic32c/8.3.1/../../../../pic32c/lib/thumb/v7e-m+fp/hard\libg-musl.a(memset.o)
                0x000282a4                memset

.text.strchr%1247
                0x000282b8       0x14
 .text.strchr   0x000282b8       0x14 d:/microchip/bin/bin/../../lib/gcc/pic32c/8.3.1/../../../../pic32c/lib/thumb/v7e-m+fp/hard\libg-musl.a(strchr.o)
                0x000282b8                strchr

.text.stpcpy%1248
                0x000282cc       0x14
 .text.stpcpy   0x000282cc       0x14 d:/microchip/bin/bin/../../lib/gcc/pic32c/8.3.1/../../../../pic32c/lib/thumb/v7e-m+fp/hard\libg-musl.a(stpcpy.o)
                0x000282cc                __stpcpy
                0x000282cc                stpcpy

.text.CRYPT_MD5_Initialize%1249
                0x000282e0       0x12
 .text.CRYPT_MD5_Initialize
                0x000282e0       0x12 build/default/debug/_ext/1645245335/crypto.o
                0x000282e0                CRYPT_MD5_Initialize

.text.TCPIP_TCP_GetIsReady%1250
                0x000282f2       0x12
 .text.TCPIP_TCP_GetIsReady
                0x000282f2       0x12 build/default/debug/_ext/1033058136/tcp.o
                0x000282f2                TCPIP_TCP_GetIsReady

.text._TCPIP_HEAP_FreeSize%1251
                0x00028304       0x12
 .text._TCPIP_HEAP_FreeSize
                0x00028304       0x12 build/default/debug/_ext/1033058136/tcpip_heap_internal.o

.text.TCPIP_OAHASH_EntryGet%1252
                0x00028316       0x12
 .text.TCPIP_OAHASH_EntryGet
                0x00028316       0x12 build/default/debug/_ext/1033058136/oahash.o
                0x00028316                TCPIP_OAHASH_EntryGet

.text.OSAL_SEM_Delete%1253
                0x00028328       0x12
 .text.OSAL_SEM_Delete
                0x00028328       0x12 build/default/debug/_ext/1529399856/osal_freertos.o
                0x00028328                OSAL_SEM_Delete

.text.NVIC_INT_Disable%1254
                0x0002833a       0x12
 .text.NVIC_INT_Disable
                0x0002833a       0x12 build/default/debug/_ext/1865468468/plib_nvic.o
                0x0002833a                NVIC_INT_Disable

.text.NVIC_INT_Restore%1255
                0x0002834c       0x12
 .text.NVIC_INT_Restore
                0x0002834c       0x12 build/default/debug/_ext/1865468468/plib_nvic.o
                0x0002834c                NVIC_INT_Restore

.text.vApplicationStackOverflowHook%1256
                0x0002835e       0x12
 .text.vApplicationStackOverflowHook
                0x0002835e       0x12 build/default/debug/_ext/1171490990/freertos_hooks.o
                0x0002835e                vApplicationStackOverflowHook

.text.vApplicationMallocFailedHook%1257
                0x00028370       0x12
 .text.vApplicationMallocFailedHook
                0x00028370       0x12 build/default/debug/_ext/1171490990/freertos_hooks.o
                0x00028370                vApplicationMallocFailedHook

.text.__dinit_clear%1258
                0x00028382       0x12
 .text.__dinit_clear
                0x00028382       0x12 d:/microchip/bin/bin/../../lib/gcc/pic32c/8.3.1/../../../../pic32c/lib/thumb/v7e-m+fp/hard\libpic32c.a(pic32_data_init_clear.o)
                0x00028382                __dinit_clear
                0x00028382                __dinit_clear_needed

.text.CRYPT_RNG_Initialize%1259
                0x00028394       0x10
 .text.CRYPT_RNG_Initialize
                0x00028394       0x10 build/default/debug/_ext/1645245335/crypto.o
                0x00028394                CRYPT_RNG_Initialize

.rodata._DRV_PHY_SetupPhasesTbl%1260
                0x000283a4       0x10
 .rodata._DRV_PHY_SetupPhasesTbl
                0x000283a4       0x10 build/default/debug/_ext/444070925/drv_ethphy.o

.text.DRV_EXTPHY_MIIConfigure%1261
                0x000283b4       0x10
 .text.DRV_EXTPHY_MIIConfigure
                0x000283b4       0x10 build/default/debug/_ext/444070925/drv_extphy_ksz8081.o

.text.DRV_PIC32CGMAC_LibSetInterruptSrc%1262
                0x000283c4       0x10
 .text.DRV_PIC32CGMAC_LibSetInterruptSrc
                0x000283c4       0x10 build/default/debug/_ext/1546807373/drv_gmac_lib_samE5x.o
                0x000283c4                DRV_PIC32CGMAC_LibSetInterruptSrc

.text.DRV_MEMORY_EventHandler%1263
                0x000283d4       0x10
 .text.DRV_MEMORY_EventHandler
                0x000283d4       0x10 build/default/debug/_ext/992804092/drv_memory.o

.rodata.gMemoryXferFuncPtr%1264
                0x000283e4       0x10
 .rodata.gMemoryXferFuncPtr
                0x000283e4       0x10 build/default/debug/_ext/992804092/drv_memory.o

.text._Shell_ObjectLock%1265
                0x000283f4       0x10
 .text._Shell_ObjectLock
                0x000283f4       0x10 build/default/debug/_ext/1751889202/sys_fs_shell.o

.text.TCPIP_SNMP_AuthTrapFlagSet%1266
                0x00028404       0x10
 .text.TCPIP_SNMP_AuthTrapFlagSet
                0x00028404       0x10 build/default/debug/_ext/1033058136/snmp.o
                0x00028404                TCPIP_SNMP_AuthTrapFlagSet

.text.TCPIP_TCP_SocketNetGet%1267
                0x00028414       0x10
 .text.TCPIP_TCP_SocketNetGet
                0x00028414       0x10 build/default/debug/_ext/1033058136/tcp.o
                0x00028414                TCPIP_TCP_SocketNetGet

.rodata.heapTypeStr.14632%1268
                0x00028424       0x10
 .rodata.heapTypeStr.14632
                0x00028424       0x10 build/default/debug/_ext/1033058136/tcpip_commands.o

.text.TCPIP_DNS_GetIPv4Addresses%1269
                0x00028434       0x10
 .text.TCPIP_DNS_GetIPv4Addresses
                0x00028434       0x10 build/default/debug/_ext/1033058136/dns.o
                0x00028434                TCPIP_DNS_GetIPv4Addresses

.text.TCPIP_DNS_GetIPv6Addresses%1270
                0x00028444       0x10
 .text.TCPIP_DNS_GetIPv6Addresses
                0x00028444       0x10 build/default/debug/_ext/1033058136/dns.o
                0x00028444                TCPIP_DNS_GetIPv6Addresses

.text.TCPIP_Notification_Deinitialize%1271
                0x00028454       0x10
 .text.TCPIP_Notification_Deinitialize
                0x00028454       0x10 build/default/debug/_ext/1033058136/tcpip_notify.o
                0x00028454                TCPIP_Notification_Deinitialize

.text.TCPIP_UDP_SocketNetGet%1272
                0x00028464       0x10
 .text.TCPIP_UDP_SocketNetGet
                0x00028464       0x10 build/default/debug/_ext/1033058136/udp.o
                0x00028464                TCPIP_UDP_SocketNetGet

.text.NVMCTRL_Initialize%1273
                0x00028474       0x10
 .text.NVMCTRL_Initialize
                0x00028474       0x10 build/default/debug/_ext/1593096446/plib_nvmctrl.o
                0x00028474                NVMCTRL_Initialize

.text.NVMCTRL_Read%1274
                0x00028484       0x10
 .text.NVMCTRL_Read
                0x00028484       0x10 build/default/debug/_ext/1593096446/plib_nvmctrl.o
                0x00028484                NVMCTRL_Read

.text.IsCommandReady%1275
                0x00028494       0x10
 .text.IsCommandReady
                0x00028494       0x10 build/default/debug/_ext/1376093119/sys_command.o

.text.Console_UART_Status%1276
                0x000284a4       0x10
 .text.Console_UART_Status
                0x000284a4       0x10 build/default/debug/_ext/1832805299/sys_console_uart.o
                0x000284a4                Console_UART_Status

.text.SYS_FS_DirectoryMake%1277
                0x000284b4       0x10
 .text.SYS_FS_DirectoryMake
                0x000284b4       0x10 build/default/debug/_ext/1269487135/sys_fs.o
                0x000284b4                SYS_FS_DirectoryMake

.text.SYS_FS_FileDirectoryRemove%1278
                0x000284c4       0x10
 .text.SYS_FS_FileDirectoryRemove
                0x000284c4       0x10 build/default/debug/_ext/1269487135/sys_fs.o
                0x000284c4                SYS_FS_FileDirectoryRemove

.text.sy_time_h2_adapter_callback%1279
                0x000284d4       0x10
 .text.sy_time_h2_adapter_callback
                0x000284d4       0x10 build/default/debug/_ext/753841488/sys_time_h2_adapter.o
                0x000284d4                sy_time_h2_adapter_callback

.rodata.tcpipDHCPInitData%1280
                0x000284e4       0x10
 .rodata.tcpipDHCPInitData
                0x000284e4       0x10 build/default/debug/_ext/1171490990/initialization.o
                0x000284e4                tcpipDHCPInitData

.rodata.tcpipIPv4InitData%1281
                0x000284f4       0x10
 .rodata.tcpipIPv4InitData
                0x000284f4       0x10 build/default/debug/_ext/1171490990/initialization.o
                0x000284f4                tcpipIPv4InitData

.text._APP_Tasks%1282
                0x00028504       0x10
 .text._APP_Tasks
                0x00028504       0x10 build/default/debug/_ext/1171490990/tasks.o
                0x00028504                _APP_Tasks

.text._SYS_CMD_Tasks%1283
                0x00028514       0x10
 .text._SYS_CMD_Tasks
                0x00028514       0x10 build/default/debug/_ext/1171490990/tasks.o
                0x00028514                _SYS_CMD_Tasks

.text._SYS_FS_Tasks%1284
                0x00028524       0x10
 .text._SYS_FS_Tasks
                0x00028524       0x10 build/default/debug/_ext/1171490990/tasks.o
                0x00028524                _SYS_FS_Tasks

.text.vTaskSuspendAll%1285
                0x00028534       0x10
 .text.vTaskSuspendAll
                0x00028534       0x10 build/default/debug/_ext/404212886/FreeRTOS_tasks.o
                0x00028534                vTaskSuspendAll

.text.APP_Initialize%1286
                0x00028544       0x10
 .text.APP_Initialize
                0x00028544       0x10 build/default/debug/_ext/1360937237/app.o
                0x00028544                APP_Initialize

.rodata%1287    0x00028554       0x10
 .rodata        0x00028554       0x10 d:/microchip/bin/bin/../../lib/gcc/pic32c/8.3.1/../../../../pic32c/lib/thumb/v7e-m+fp/hard\libg-musl.a(__fmt_a.o)

.rodata%1288    0x00028564       0x10
 .rodata        0x00028564       0x10 d:/microchip/bin/bin/../../lib/gcc/pic32c/8.3.1/../../../../pic32c/lib/thumb/v7e-m+fp/hard\libg-musl.a(__fmt_fp.o)

.text.DRV_PIC32CGMAC_LibSetPriorityToQueueNum%1289
                0x00028574        0xe
 .text.DRV_PIC32CGMAC_LibSetPriorityToQueueNum
                0x00028574        0xe build/default/debug/_ext/1546807373/drv_gmac_lib_samE5x.o
                0x00028574                DRV_PIC32CGMAC_LibSetPriorityToQueueNum

.text.DRV_NVMCTRL_TransferStatusGet%1290
                0x00028582        0xe
 .text.DRV_NVMCTRL_TransferStatusGet
                0x00028582        0xe build/default/debug/_ext/992804092/drv_memory_nvmctrl.o
                0x00028582                DRV_NVMCTRL_TransferStatusGet

.text.DRV_NVMCTRL_Read%1291
                0x00028590        0xe
 .text.DRV_NVMCTRL_Read
                0x00028590        0xe build/default/debug/_ext/992804092/drv_memory_nvmctrl.o
                0x00028590                DRV_NVMCTRL_Read

.text.Shell_FileWrite%1292
                0x0002859e        0xe
 .text.Shell_FileWrite
                0x0002859e        0xe build/default/debug/_ext/1751889202/sys_fs_shell.o

.text.Shell_FileRead%1293
                0x000285ac        0xe
 .text.Shell_FileRead
                0x000285ac        0xe build/default/debug/_ext/1751889202/sys_fs_shell.o

.text.Shell_FileSeek%1294
                0x000285ba        0xe
 .text.Shell_FileSeek
                0x000285ba        0xe build/default/debug/_ext/1751889202/sys_fs_shell.o

.text.btohexa_low%1295
                0x000285c8        0xe
 .text.btohexa_low
                0x000285c8        0xe build/default/debug/_ext/1033058136/helpers.o
                0x000285c8                btohexa_low

.text.TCPIP_HTTP_CurrentConnectionCallbackPosSet%1296
                0x000285d6        0xe
 .text.TCPIP_HTTP_CurrentConnectionCallbackPosSet
                0x000285d6        0xe build/default/debug/_ext/1033058136/http.o
                0x000285d6                TCPIP_HTTP_CurrentConnectionCallbackPosSet

.text.TCPIP_Helper_ChecksumFold%1297
                0x000285e4        0xe
 .text.TCPIP_Helper_ChecksumFold
                0x000285e4        0xe build/default/debug/_ext/1033058136/tcpip_helpers.o
                0x000285e4                TCPIP_Helper_ChecksumFold

.text.TCPIP_STACK_NetIndexGet%1298
                0x000285f2        0xe
 .text.TCPIP_STACK_NetIndexGet
                0x000285f2        0xe build/default/debug/_ext/1033058136/tcpip_manager.o
                0x000285f2                TCPIP_STACK_NetIndexGet

.text.TCPIP_STACK_NetIxGet%1299
                0x00028600        0xe
 .text.TCPIP_STACK_NetIxGet
                0x00028600        0xe build/default/debug/_ext/1033058136/tcpip_manager.o
                0x00028600                TCPIP_STACK_NetIxGet

.text._TCPIPStackSignalHandlerDeregister%1300
                0x0002860e        0xe
 .text._TCPIPStackSignalHandlerDeregister
                0x0002860e        0xe build/default/debug/_ext/1033058136/tcpip_manager.o
                0x0002860e                _TCPIPStackSignalHandlerDeregister

.text.main%1301
                0x0002861c        0xe
 .text.main     0x0002861c        0xe build/default/debug/_ext/1360937237/main.o
                0x0002861c                main

.text.TCPIP_HTTP_Print_myVariable%1302
                0x0002862a        0xe
 .text.TCPIP_HTTP_Print_myVariable
                0x0002862a        0xe build/default/debug/_ext/1360937237/http_print.o
                0x0002862a                TCPIP_HTTP_Print_myVariable

.text.TCPIP_HTTP_Print_led%1303
                0x00028638        0xe
 .text.TCPIP_HTTP_Print_led
                0x00028638        0xe build/default/debug/_ext/1360937237/custom_http_app.o
                0x00028638                TCPIP_HTTP_Print_led

.text.tolower%1304
                0x00028646        0xe
 .text.tolower  0x00028646        0xe d:/microchip/bin/bin/../../lib/gcc/pic32c/8.3.1/../../../../pic32c/lib/thumb/v7e-m+fp/hard\libg-musl.a(tolower.o)
                0x00028646                tolower

.text.toupper%1305
                0x00028654        0xe
 .text.toupper  0x00028654        0xe d:/microchip/bin/bin/../../lib/gcc/pic32c/8.3.1/../../../../pic32c/lib/thumb/v7e-m+fp/hard\libg-musl.a(toupper.o)
                0x00028654                toupper

.rodata._DRV_PHY_LinkStatPhasesTbl%1306
                0x00028664        0xc
 .rodata._DRV_PHY_LinkStatPhasesTbl
                0x00028664        0xc build/default/debug/_ext/444070925/drv_ethphy.o

.rodata._DRV_PHY_NegRestartPhasesTbl%1307
                0x00028670        0xc
 .rodata._DRV_PHY_NegRestartPhasesTbl
                0x00028670        0xc build/default/debug/_ext/444070925/drv_ethphy.o

.rodata._DRV_PHY_ResetPhasesTbl%1308
                0x0002867c        0xc
 .rodata._DRV_PHY_ResetPhasesTbl
                0x0002867c        0xc build/default/debug/_ext/444070925/drv_ethphy.o

.text._DRV_GMAC_GetTxOctetLow%1309
                0x00028688        0xc
 .text._DRV_GMAC_GetTxOctetLow
                0x00028688        0xc build/default/debug/_ext/1546807373/drv_gmac.o

.text._DRV_GMAC_GetTxOctetHigh%1310
                0x00028694        0xc
 .text._DRV_GMAC_GetTxOctetHigh
                0x00028694        0xc build/default/debug/_ext/1546807373/drv_gmac.o

.text._DRV_GMAC_GetTxFrameCount%1311
                0x000286a0        0xc
 .text._DRV_GMAC_GetTxFrameCount
                0x000286a0        0xc build/default/debug/_ext/1546807373/drv_gmac.o

.text._DRV_GMAC_GetTxBCastFrameCount%1312
                0x000286ac        0xc
 .text._DRV_GMAC_GetTxBCastFrameCount
                0x000286ac        0xc build/default/debug/_ext/1546807373/drv_gmac.o

.text._DRV_GMAC_GetTxMCastFrameCount%1313
                0x000286b8        0xc
 .text._DRV_GMAC_GetTxMCastFrameCount
                0x000286b8        0xc build/default/debug/_ext/1546807373/drv_gmac.o

.text._DRV_GMAC_GetTxPauseFrameCount%1314
                0x000286c4        0xc
 .text._DRV_GMAC_GetTxPauseFrameCount
                0x000286c4        0xc build/default/debug/_ext/1546807373/drv_gmac.o

.text._DRV_GMAC_GetTx64ByteFrameCount%1315
                0x000286d0        0xc
 .text._DRV_GMAC_GetTx64ByteFrameCount
                0x000286d0        0xc build/default/debug/_ext/1546807373/drv_gmac.o

.text._DRV_GMAC_GetTx127ByteFrameCount%1316
                0x000286dc        0xc
 .text._DRV_GMAC_GetTx127ByteFrameCount
                0x000286dc        0xc build/default/debug/_ext/1546807373/drv_gmac.o

.text._DRV_GMAC_GetTx255ByteFrameCount%1317
                0x000286e8        0xc
 .text._DRV_GMAC_GetTx255ByteFrameCount
                0x000286e8        0xc build/default/debug/_ext/1546807373/drv_gmac.o

.text._DRV_GMAC_GetTx511ByteFrameCount%1318
                0x000286f4        0xc
 .text._DRV_GMAC_GetTx511ByteFrameCount
                0x000286f4        0xc build/default/debug/_ext/1546807373/drv_gmac.o

.text._DRV_GMAC_GetTx1023ByteFrameCount%1319
                0x00028700        0xc
 .text._DRV_GMAC_GetTx1023ByteFrameCount
                0x00028700        0xc build/default/debug/_ext/1546807373/drv_gmac.o

.text._DRV_GMAC_GetTx1518ByteFrameCount%1320
                0x0002870c        0xc
 .text._DRV_GMAC_GetTx1518ByteFrameCount
                0x0002870c        0xc build/default/debug/_ext/1546807373/drv_gmac.o

.text._DRV_GMAC_GetTxGT1518ByteFrameCount%1321
                0x00028718        0xc
 .text._DRV_GMAC_GetTxGT1518ByteFrameCount
                0x00028718        0xc build/default/debug/_ext/1546807373/drv_gmac.o

.text._DRV_GMAC_GetTxUnderRunFrameCount%1322
                0x00028724        0xc
 .text._DRV_GMAC_GetTxUnderRunFrameCount
                0x00028724        0xc build/default/debug/_ext/1546807373/drv_gmac.o

.text._DRV_GMAC_GetTxSingleCollFrameCount%1323
                0x00028730        0xc
 .text._DRV_GMAC_GetTxSingleCollFrameCount
                0x00028730        0xc build/default/debug/_ext/1546807373/drv_gmac.o

.text._DRV_GMAC_GetTxMultiCollFrameCount%1324
                0x0002873c        0xc
 .text._DRV_GMAC_GetTxMultiCollFrameCount
                0x0002873c        0xc build/default/debug/_ext/1546807373/drv_gmac.o

.text._DRV_GMAC_GetTxExcessCollFrameCount%1325
                0x00028748        0xc
 .text._DRV_GMAC_GetTxExcessCollFrameCount
                0x00028748        0xc build/default/debug/_ext/1546807373/drv_gmac.o

.text._DRV_GMAC_GetTxLateCollFrameCount%1326
                0x00028754        0xc
 .text._DRV_GMAC_GetTxLateCollFrameCount
                0x00028754        0xc build/default/debug/_ext/1546807373/drv_gmac.o

.text._DRV_GMAC_GetTxDeferFrameCount%1327
                0x00028760        0xc
 .text._DRV_GMAC_GetTxDeferFrameCount
                0x00028760        0xc build/default/debug/_ext/1546807373/drv_gmac.o

.text._DRV_GMAC_GetTxCSErrorFrameCount%1328
                0x0002876c        0xc
 .text._DRV_GMAC_GetTxCSErrorFrameCount
                0x0002876c        0xc build/default/debug/_ext/1546807373/drv_gmac.o

.text._DRV_GMAC_GetRxOctetLow%1329
                0x00028778        0xc
 .text._DRV_GMAC_GetRxOctetLow
                0x00028778        0xc build/default/debug/_ext/1546807373/drv_gmac.o

.text._DRV_GMAC_GetRxOctetHigh%1330
                0x00028784        0xc
 .text._DRV_GMAC_GetRxOctetHigh
                0x00028784        0xc build/default/debug/_ext/1546807373/drv_gmac.o

.text._DRV_GMAC_GetRxFrameCount%1331
                0x00028790        0xc
 .text._DRV_GMAC_GetRxFrameCount
                0x00028790        0xc build/default/debug/_ext/1546807373/drv_gmac.o

.text._DRV_GMAC_GetRxBCastFrameCount%1332
                0x0002879c        0xc
 .text._DRV_GMAC_GetRxBCastFrameCount
                0x0002879c        0xc build/default/debug/_ext/1546807373/drv_gmac.o

.text._DRV_GMAC_GetRxMCastFrameCount%1333
                0x000287a8        0xc
 .text._DRV_GMAC_GetRxMCastFrameCount
                0x000287a8        0xc build/default/debug/_ext/1546807373/drv_gmac.o

.text._DRV_GMAC_GetRxPauseFrameCount%1334
                0x000287b4        0xc
 .text._DRV_GMAC_GetRxPauseFrameCount
                0x000287b4        0xc build/default/debug/_ext/1546807373/drv_gmac.o

.text._DRV_GMAC_GetRx64ByteFrameCount%1335
                0x000287c0        0xc
 .text._DRV_GMAC_GetRx64ByteFrameCount
                0x000287c0        0xc build/default/debug/_ext/1546807373/drv_gmac.o

.text._DRV_GMAC_GetRx127ByteFrameCount%1336
                0x000287cc        0xc
 .text._DRV_GMAC_GetRx127ByteFrameCount
                0x000287cc        0xc build/default/debug/_ext/1546807373/drv_gmac.o

.text._DRV_GMAC_GetRx255ByteFrameCount%1337
                0x000287d8        0xc
 .text._DRV_GMAC_GetRx255ByteFrameCount
                0x000287d8        0xc build/default/debug/_ext/1546807373/drv_gmac.o

.text._DRV_GMAC_GetRx511ByteFrameCount%1338
                0x000287e4        0xc
 .text._DRV_GMAC_GetRx511ByteFrameCount
                0x000287e4        0xc build/default/debug/_ext/1546807373/drv_gmac.o

.text._DRV_GMAC_GetRx1023ByteFrameCount%1339
                0x000287f0        0xc
 .text._DRV_GMAC_GetRx1023ByteFrameCount
                0x000287f0        0xc build/default/debug/_ext/1546807373/drv_gmac.o

.text._DRV_GMAC_GetRx1518ByteFrameCount%1340
                0x000287fc        0xc
 .text._DRV_GMAC_GetRx1518ByteFrameCount
                0x000287fc        0xc build/default/debug/_ext/1546807373/drv_gmac.o

.text._DRV_GMAC_GetRxGT1518ByteFrameCount%1341
                0x00028808        0xc
 .text._DRV_GMAC_GetRxGT1518ByteFrameCount
                0x00028808        0xc build/default/debug/_ext/1546807373/drv_gmac.o

.text._DRV_GMAC_GetRxUnderSizeFrameCount%1342
                0x00028814        0xc
 .text._DRV_GMAC_GetRxUnderSizeFrameCount
                0x00028814        0xc build/default/debug/_ext/1546807373/drv_gmac.o

.text._DRV_GMAC_GetRxOverSizeFrameCount%1343
                0x00028820        0xc
 .text._DRV_GMAC_GetRxOverSizeFrameCount
                0x00028820        0xc build/default/debug/_ext/1546807373/drv_gmac.o

.text._DRV_GMAC_GetRxJabberFrameCount%1344
                0x0002882c        0xc
 .text._DRV_GMAC_GetRxJabberFrameCount
                0x0002882c        0xc build/default/debug/_ext/1546807373/drv_gmac.o

.text._DRV_GMAC_GetRxFCSErrorFrameCount%1345
                0x00028838        0xc
 .text._DRV_GMAC_GetRxFCSErrorFrameCount
                0x00028838        0xc build/default/debug/_ext/1546807373/drv_gmac.o

.text._DRV_GMAC_GetRxLFErrorFrameCount%1346
                0x00028844        0xc
 .text._DRV_GMAC_GetRxLFErrorFrameCount
                0x00028844        0xc build/default/debug/_ext/1546807373/drv_gmac.o

.text._DRV_GMAC_GetRxSymErrorFrameCount%1347
                0x00028850        0xc
 .text._DRV_GMAC_GetRxSymErrorFrameCount
                0x00028850        0xc build/default/debug/_ext/1546807373/drv_gmac.o

.text._DRV_GMAC_GetRxAlignErrorFrameCount%1348
                0x0002885c        0xc
 .text._DRV_GMAC_GetRxAlignErrorFrameCount
                0x0002885c        0xc build/default/debug/_ext/1546807373/drv_gmac.o

.text._DRV_GMAC_GetRxResErrorFrameCount%1349
                0x00028868        0xc
 .text._DRV_GMAC_GetRxResErrorFrameCount
                0x00028868        0xc build/default/debug/_ext/1546807373/drv_gmac.o

.text._DRV_GMAC_GetRxOverRunFrameCount%1350
                0x00028874        0xc
 .text._DRV_GMAC_GetRxOverRunFrameCount
                0x00028874        0xc build/default/debug/_ext/1546807373/drv_gmac.o

.text._DRV_GMAC_GetRxIPHdrCSErrorFrameCount%1351
                0x00028880        0xc
 .text._DRV_GMAC_GetRxIPHdrCSErrorFrameCount
                0x00028880        0xc build/default/debug/_ext/1546807373/drv_gmac.o

.text._DRV_GMAC_GetRxTCPCSErrorFrameCount%1352
                0x0002888c        0xc
 .text._DRV_GMAC_GetRxTCPCSErrorFrameCount
                0x0002888c        0xc build/default/debug/_ext/1546807373/drv_gmac.o

.text._DRV_GMAC_GetRxUDPCSErrorFrameCount%1353
                0x00028898        0xc
 .text._DRV_GMAC_GetRxUDPCSErrorFrameCount
                0x00028898        0xc build/default/debug/_ext/1546807373/drv_gmac.o

.text.DRV_PIC32CGMAC_LibReadInterruptStatus%1354
                0x000288a4        0xc
 .text.DRV_PIC32CGMAC_LibReadInterruptStatus
                0x000288a4        0xc build/default/debug/_ext/1546807373/drv_gmac_lib_samE5x.o
                0x000288a4                DRV_PIC32CGMAC_LibReadInterruptStatus

.text.DRV_PIC32CGMAC_LibEnableInterrupt%1355
                0x000288b0        0xc
 .text.DRV_PIC32CGMAC_LibEnableInterrupt
                0x000288b0        0xc build/default/debug/_ext/1546807373/drv_gmac_lib_samE5x.o
                0x000288b0                DRV_PIC32CGMAC_LibEnableInterrupt

.text.DRV_PIC32CGMAC_LibDisableInterrupt%1356
                0x000288bc        0xc
 .text.DRV_PIC32CGMAC_LibDisableInterrupt
                0x000288bc        0xc build/default/debug/_ext/1546807373/drv_gmac_lib_samE5x.o
                0x000288bc                DRV_PIC32CGMAC_LibDisableInterrupt

.text.DRV_NVMCTRL_PageWrite%1357
                0x000288c8        0xc
 .text.DRV_NVMCTRL_PageWrite
                0x000288c8        0xc build/default/debug/_ext/992804092/drv_memory_nvmctrl.o
                0x000288c8                DRV_NVMCTRL_PageWrite

.text.btohexa_high%1358
                0x000288d4        0xc
 .text.btohexa_high
                0x000288d4        0xc build/default/debug/_ext/1033058136/helpers.o
                0x000288d4                btohexa_high

.text.TCPIP_SNMP_IsTrapEnabled%1359
                0x000288e0        0xc
 .text.TCPIP_SNMP_IsTrapEnabled
                0x000288e0        0xc build/default/debug/_ext/1033058136/snmp.o
                0x000288e0                TCPIP_SNMP_IsTrapEnabled

.text.TCPIP_ARP_HashKeyCompare%1360
                0x000288ec        0xc
 .text.TCPIP_ARP_HashKeyCompare
                0x000288ec        0xc build/default/debug/_ext/1033058136/arp.o
                0x000288ec                TCPIP_ARP_HashKeyCompare

.text.TCPIP_HTTP_CurrentConnectionDataBufferSizeGet%1361
                0x000288f8        0xc
 .text.TCPIP_HTTP_CurrentConnectionDataBufferSizeGet
                0x000288f8        0xc build/default/debug/_ext/1033058136/http.o
                0x000288f8                TCPIP_HTTP_CurrentConnectionDataBufferSizeGet

.text.TCPIP_IPV4_PacketTransmit%1362
                0x00028904        0xc
 .text.TCPIP_IPV4_PacketTransmit
                0x00028904        0xc build/default/debug/_ext/1033058136/ipv4.o
                0x00028904                TCPIP_IPV4_PacketTransmit

.text._TCPIP_HEAP_Size%1363
                0x00028910        0xc
 .text._TCPIP_HEAP_Size
                0x00028910        0xc build/default/debug/_ext/1033058136/tcpip_heap_internal.o

.text._TCPIP_HEAP_HighWatermark%1364
                0x0002891c        0xc
 .text._TCPIP_HEAP_HighWatermark
                0x0002891c        0xc build/default/debug/_ext/1033058136/tcpip_heap_internal.o

.text.TCPIP_DNS_OAHASH_KeyCompare%1365
                0x00028928        0xc
 .text.TCPIP_DNS_OAHASH_KeyCompare
                0x00028928        0xc build/default/debug/_ext/1033058136/dns.o

.text.TCPIP_DNS_Enable%1366
                0x00028934        0xc
 .text.TCPIP_DNS_Enable
                0x00028934        0xc build/default/debug/_ext/1033058136/dns.o
                0x00028934                TCPIP_DNS_Enable

.text.TCPIP_STACK_NetDefaultGet%1367
                0x00028940        0xc
 .text.TCPIP_STACK_NetDefaultGet
                0x00028940        0xc build/default/debug/_ext/1033058136/tcpip_manager.o
                0x00028940                TCPIP_STACK_NetDefaultGet

.text.TCPIP_STACK_NumberOfNetworksGet%1368
                0x0002894c        0xc
 .text.TCPIP_STACK_NumberOfNetworksGet
                0x0002894c        0xc build/default/debug/_ext/1033058136/tcpip_manager.o
                0x0002894c                TCPIP_STACK_NumberOfNetworksGet

.rodata.TCPIP_STACK_IF_ALIAS_NAME_TBL%1369
                0x00028958        0xc
 .rodata.TCPIP_STACK_IF_ALIAS_NAME_TBL
                0x00028958        0xc build/default/debug/_ext/1033058136/tcpip_manager.o

.text.TCPIP_PKT_Deinitialize%1370
                0x00028964        0xc
 .text.TCPIP_PKT_Deinitialize
                0x00028964        0xc build/default/debug/_ext/1033058136/tcpip_packet.o
                0x00028964                TCPIP_PKT_Deinitialize

.text.TC0_TimerCallbackRegister%1371
                0x00028970        0xc
 .text.TC0_TimerCallbackRegister
                0x00028970        0xc build/default/debug/_ext/829342655/plib_tc0.o
                0x00028970                TC0_TimerCallbackRegister

.text.SYS_DEBUG_ConsoleInstanceGet%1372
                0x0002897c        0xc
 .text.SYS_DEBUG_ConsoleInstanceGet
                0x0002897c        0xc build/default/debug/_ext/944882569/sys_debug.o
                0x0002897c                SYS_DEBUG_ConsoleInstanceGet

.text.SYS_DEBUG_ErrorLevelGet%1373
                0x00028988        0xc
 .text.SYS_DEBUG_ErrorLevelGet
                0x00028988        0xc build/default/debug/_ext/944882569/sys_debug.o
                0x00028988                SYS_DEBUG_ErrorLevelGet

.text.SYS_FS_Error%1374
                0x00028994        0xc
 .text.SYS_FS_Error
                0x00028994        0xc build/default/debug/_ext/1269487135/sys_fs.o
                0x00028994                SYS_FS_Error

.text.SYS_TIME_FrequencyGet%1375
                0x000289a0        0xc
 .text.SYS_TIME_FrequencyGet
                0x000289a0        0xc build/default/debug/_ext/101884895/sys_time.o
                0x000289a0                SYS_TIME_FrequencyGet

.rodata.sysConsole0Init%1376
                0x000289ac        0xc
 .rodata.sysConsole0Init
                0x000289ac        0xc build/default/debug/_ext/1171490990/initialization.o
                0x000289ac                sysConsole0Init

.rodata.sysfsMountTable%1377
                0x000289b8        0xc
 .rodata.sysfsMountTable
                0x000289b8        0xc build/default/debug/_ext/1171490990/initialization.o
                0x000289b8                sysfsMountTable

.text.vTaskMissedYield%1378
                0x000289c4        0xc
 .text.vTaskMissedYield
                0x000289c4        0xc build/default/debug/_ext/404212886/FreeRTOS_tasks.o
                0x000289c4                vTaskMissedYield

.text.srand%1379
                0x000289d0        0xc
 .text.srand    0x000289d0        0xc d:/microchip/bin/bin/../../lib/gcc/pic32c/8.3.1/../../../../pic32c/lib/thumb/v7e-m+fp/hard\libg-musl.a(rand.o)
                0x000289d0                srand

.text.vsprintf%1380
                0x000289dc        0xc
 .text.vsprintf
                0x000289dc        0xc d:/microchip/bin/bin/../../lib/gcc/pic32c/8.3.1/../../../../pic32c/lib/thumb/v7e-m+fp/hard\libg-musl.a(vsprintf.o)
                0x000289dc                vsprintf

.text.strcpy%1381
                0x000289e8        0xc
 .text.strcpy   0x000289e8        0xc d:/microchip/bin/bin/../../lib/gcc/pic32c/8.3.1/../../../../pic32c/lib/thumb/v7e-m+fp/hard\libg-musl.a(strcpy.o)
                0x000289e8                strcpy

.text.strncpy%1382
                0x000289f4        0xc
 .text.strncpy  0x000289f4        0xc d:/microchip/bin/bin/../../lib/gcc/pic32c/8.3.1/../../../../pic32c/lib/thumb/v7e-m+fp/hard\libg-musl.a(strncpy.o)
                0x000289f4                strncpy

.text._DRV_ETHPHY_NegRestartPhaseWrite%1383
                0x00028a00        0xa
 .text._DRV_ETHPHY_NegRestartPhaseWrite
                0x00028a00        0xa build/default/debug/_ext/444070925/drv_ethphy.o

.text.DRV_MEMORY_TimerHandler%1384
                0x00028a0a        0xa
 .text.DRV_MEMORY_TimerHandler
                0x00028a0a        0xa build/default/debug/_ext/992804092/drv_memory.o

.text.DRV_NVMCTRL_SectorErase%1385
                0x00028a14        0xa
 .text.DRV_NVMCTRL_SectorErase
                0x00028a14        0xa build/default/debug/_ext/992804092/drv_memory_nvmctrl.o
                0x00028a14                DRV_NVMCTRL_SectorErase

.text.Shell_DirClose%1386
                0x00028a1e        0xa
 .text.Shell_DirClose
                0x00028a1e        0xa build/default/debug/_ext/1751889202/sys_fs_shell.o

.text.Shell_FileEof%1387
                0x00028a28        0xa
 .text.Shell_FileEof
                0x00028a28        0xa build/default/debug/_ext/1751889202/sys_fs_shell.o

.text.Shell_FileTell%1388
                0x00028a32        0xa
 .text.Shell_FileTell
                0x00028a32        0xa build/default/debug/_ext/1751889202/sys_fs_shell.o

.text.Shell_FileSize%1389
                0x00028a3c        0xa
 .text.Shell_FileSize
                0x00028a3c        0xa build/default/debug/_ext/1751889202/sys_fs_shell.o

.text.Shell_FileClose%1390
                0x00028a46        0xa
 .text.Shell_FileClose
                0x00028a46        0xa build/default/debug/_ext/1751889202/sys_fs_shell.o

.text._ICMPTxPktAcknowledge%1391
                0x00028a50        0xa
 .text._ICMPTxPktAcknowledge
                0x00028a50        0xa build/default/debug/_ext/1033058136/icmp.o

.text.TCPIP_TCP_Get%1392
                0x00028a5a        0xa
 .text.TCPIP_TCP_Get
                0x00028a5a        0xa build/default/debug/_ext/1033058136/tcp.o
                0x00028a5a                TCPIP_TCP_Get

.text._Command_ZcllOnOff%1393
                0x00028a64        0xa
 .text._Command_ZcllOnOff
                0x00028a64        0xa build/default/debug/_ext/1033058136/tcpip_commands.o

.text._Command_DHCPSOnOff%1394
                0x00028a6e        0xa
 .text._Command_DHCPSOnOff
                0x00028a6e        0xa build/default/debug/_ext/1033058136/tcpip_commands.o

.text.TCPIP_DNS_Resolve%1395
                0x00028a78        0xa
 .text.TCPIP_DNS_Resolve
                0x00028a78        0xa build/default/debug/_ext/1033058136/dns.o
                0x00028a78                TCPIP_DNS_Resolve

.text.TCPIP_DNS_IsNameResolved%1396
                0x00028a82        0xa
 .text.TCPIP_DNS_IsNameResolved
                0x00028a82        0xa build/default/debug/_ext/1033058136/dns.o
                0x00028a82                TCPIP_DNS_IsNameResolved

.text.TCPIP_Helper_SingleListInitialize%1397
                0x00028a8c        0xa
 .text.TCPIP_Helper_SingleListInitialize
                0x00028a8c        0xa build/default/debug/_ext/1033058136/tcpip_helpers.o
                0x00028a8c                TCPIP_Helper_SingleListInitialize

.text.TCPIP_STACK_NetNameGet%1398
                0x00028a96        0xa
 .text.TCPIP_STACK_NetNameGet
                0x00028a96        0xa build/default/debug/_ext/1033058136/tcpip_manager.o
                0x00028a96                TCPIP_STACK_NetNameGet

.text._TCPIPStackAddressServiceIsRunning%1399
                0x00028aa0        0xa
 .text._TCPIPStackAddressServiceIsRunning
                0x00028aa0        0xa build/default/debug/_ext/1033058136/tcpip_manager.o
                0x00028aa0                _TCPIPStackAddressServiceIsRunning

.text.TCPIP_UDP_ServerOpen%1400
                0x00028aaa        0xa
 .text.TCPIP_UDP_ServerOpen
                0x00028aaa        0xa build/default/debug/_ext/1033058136/udp.o
                0x00028aaa                TCPIP_UDP_ServerOpen

.text.TCPIP_UDP_ClientOpen%1401
                0x00028ab4        0xa
 .text.TCPIP_UDP_ClientOpen
                0x00028ab4        0xa build/default/debug/_ext/1033058136/udp.o
                0x00028ab4                TCPIP_UDP_ClientOpen

.text.DRV_EXTPHY_SMIClockGet%1402
                0x00028ac0        0x8
 .text.DRV_EXTPHY_SMIClockGet
                0x00028ac0        0x8 build/default/debug/_ext/444070925/drv_extphy_ksz8081.o

.rodata%1403    0x00028ac8        0x8
 .rodata        0x00028ac8        0x8 build/default/debug/_ext/1751889202/sys_fs_shell.o

.text.TCPIP_HTTP_CurrentConnectionByteCountDec%1404
                0x00028ad0        0x8
 .text.TCPIP_HTTP_CurrentConnectionByteCountDec
                0x00028ad0        0x8 build/default/debug/_ext/1033058136/http.o
                0x00028ad0                TCPIP_HTTP_CurrentConnectionByteCountDec

.text.TCPIP_HEAP_MallocOutline%1405
                0x00028ad8        0x8
 .text.TCPIP_HEAP_MallocOutline
                0x00028ad8        0x8 build/default/debug/_ext/1033058136/tcpip_heap_alloc.o
                0x00028ad8                TCPIP_HEAP_MallocOutline

.text.TCPIP_HEAP_CallocOutline%1406
                0x00028ae0        0x8
 .text.TCPIP_HEAP_CallocOutline
                0x00028ae0        0x8 build/default/debug/_ext/1033058136/tcpip_heap_alloc.o
                0x00028ae0                TCPIP_HEAP_CallocOutline

.text.TCPIP_HEAP_FreeOutline%1407
                0x00028ae8        0x8
 .text.TCPIP_HEAP_FreeOutline
                0x00028ae8        0x8 build/default/debug/_ext/1033058136/tcpip_heap_alloc.o
                0x00028ae8                TCPIP_HEAP_FreeOutline

.text.TCPIP_STACK_GatewayAddressSet%1408
                0x00028af0        0x8
 .text.TCPIP_STACK_GatewayAddressSet
                0x00028af0        0x8 build/default/debug/_ext/1033058136/tcpip_manager.o
                0x00028af0                TCPIP_STACK_GatewayAddressSet

.text.TCPIP_STACK_PrimaryDNSAddressSet%1409
                0x00028af8        0x8
 .text.TCPIP_STACK_PrimaryDNSAddressSet
                0x00028af8        0x8 build/default/debug/_ext/1033058136/tcpip_manager.o
                0x00028af8                TCPIP_STACK_PrimaryDNSAddressSet

.text.TCPIP_STACK_SecondaryDNSAddressSet%1410
                0x00028b00        0x8
 .text.TCPIP_STACK_SecondaryDNSAddressSet
                0x00028b00        0x8 build/default/debug/_ext/1033058136/tcpip_manager.o
                0x00028b00                TCPIP_STACK_SecondaryDNSAddressSet

.text.TCPIP_STACK_NetAddressMac%1411
                0x00028b08        0x8
 .text.TCPIP_STACK_NetAddressMac
                0x00028b08        0x8 build/default/debug/_ext/1033058136/tcpip_manager.o
                0x00028b08                TCPIP_STACK_NetAddressMac

.text._TCPIPStackHeapConfig%1412
                0x00028b10        0x8
 .text._TCPIPStackHeapConfig
                0x00028b10        0x8 build/default/debug/_ext/1033058136/tcpip_manager.o
                0x00028b10                _TCPIPStackHeapConfig

.text.TCPIP_STACK_NetGetType%1413
                0x00028b18        0x8
 .text.TCPIP_STACK_NetGetType
                0x00028b18        0x8 build/default/debug/_ext/1033058136/tcpip_manager.o
                0x00028b18                TCPIP_STACK_NetGetType

.text.TCPIP_Notification_Initialize%1414
                0x00028b20        0x8
 .text.TCPIP_Notification_Initialize
                0x00028b20        0x8 build/default/debug/_ext/1033058136/tcpip_notify.o
                0x00028b20                TCPIP_Notification_Initialize

.text.TCPIP_UDP_TxPutIsReady%1415
                0x00028b28        0x8
 .text.TCPIP_UDP_TxPutIsReady
                0x00028b28        0x8 build/default/debug/_ext/1033058136/udp.o
                0x00028b28                TCPIP_UDP_TxPutIsReady

.text.OSAL_Malloc%1416
                0x00028b30        0x8
 .text.OSAL_Malloc
                0x00028b30        0x8 build/default/debug/_ext/1529399856/osal_freertos.o
                0x00028b30                OSAL_Malloc

.text.SERCOM1_USART_WriteCountGet%1417
                0x00028b38        0x8
 .text.SERCOM1_USART_WriteCountGet
                0x00028b38        0x8 build/default/debug/_ext/504274921/plib_sercom1_usart.o
                0x00028b38                SERCOM1_USART_WriteCountGet

.text.TC0_TimerFrequencyGet%1418
                0x00028b40        0x8
 .text.TC0_TimerFrequencyGet
                0x00028b40        0x8 build/default/debug/_ext/829342655/plib_tc0.o
                0x00028b40                TC0_TimerFrequencyGet

.rodata%1419    0x00028b48        0x8
 .rodata        0x00028b48        0x8 build/default/debug/_ext/699575981/mpfs.o

.text.SYS_FS_Tasks%1420
                0x00028b50        0x8
 .text.SYS_FS_Tasks
                0x00028b50        0x8 build/default/debug/_ext/1269487135/sys_fs.o
                0x00028b50                SYS_FS_Tasks

.rodata%1421    0x00028b58        0x8
 .rodata        0x00028b58        0x8 build/default/debug/_ext/1269487135/sys_fs.o

.text.SYS_INT_Disable%1422
                0x00028b60        0x8
 .text.SYS_INT_Disable
                0x00028b60        0x8 build/default/debug/_ext/1881668453/sys_int.o
                0x00028b60                SYS_INT_Disable

.text.SYS_INT_Restore%1423
                0x00028b68        0x8
 .text.SYS_INT_Restore
                0x00028b68        0x8 build/default/debug/_ext/1881668453/sys_int.o
                0x00028b68                SYS_INT_Restore

.text.SYS_TIME_CounterGet%1424
                0x00028b70        0x8
 .text.SYS_TIME_CounterGet
                0x00028b70        0x8 build/default/debug/_ext/101884895/sys_time.o
                0x00028b70                SYS_TIME_CounterGet

.rodata.drvMiimInitData%1425
                0x00028b78        0x8
 .rodata.drvMiimInitData
                0x00028b78        0x8 build/default/debug/_ext/1171490990/initialization.o

.rodata.sysFSInit%1426
                0x00028b80        0x8
 .rodata.sysFSInit
                0x00028b80        0x8 build/default/debug/_ext/1171490990/initialization.o
                0x00028b80                sysFSInit

.rodata.sysTimeInitData%1427
                0x00028b88        0x8
 .rodata.sysTimeInitData
                0x00028b88        0x8 build/default/debug/_ext/1171490990/initialization.o
                0x00028b88                sysTimeInitData

.rodata.tcpipTCPInitData%1428
                0x00028b90        0x8
 .rodata.tcpipTCPInitData
                0x00028b90        0x8 build/default/debug/_ext/1171490990/initialization.o
                0x00028b90                tcpipTCPInitData

.rodata.tcpipUDPInitData%1429
                0x00028b98        0x8
 .rodata.tcpipUDPInitData
                0x00028b98        0x8 build/default/debug/_ext/1171490990/initialization.o
                0x00028b98                tcpipUDPInitData

.text.vQueueDelete%1430
                0x00028ba0        0x8
 .text.vQueueDelete
                0x00028ba0        0x8 build/default/debug/_ext/404212886/queue.o
                0x00028ba0                vQueueDelete

.rodata%1431    0x00028ba8        0x8
 .rodata        0x00028ba8        0x8 build/default/debug/_ext/404212886/FreeRTOS_tasks.o

.rodata%1432    0x00028bb0        0x8
 .rodata        0x00028bb0        0x8 build/default/debug/_ext/1360937237/http_print.o

.text.__aeabi_dsub%1433
                0x00028bb8        0x8
 .text.__aeabi_dsub
                0x00028bb8        0x8 d:/microchip/bin/bin/../../lib/gcc/pic32c/8.3.1/../../../../pic32c/lib/thumb/v7e-m+fp/hard\libm-fast-emfloat.a(__aeabi_dsub.o)
                0x00028bb8                __aeabi_dsub

.rodata%1434    0x00028bc0        0x7
 .rodata        0x00028bc0        0x7 d:/microchip/bin/bin/../../lib/gcc/pic32c/8.3.1/../../../../pic32c/lib/thumb/v7e-m+fp/hard\libg-musl.a(__fmt_s.o)

.text.TCPIP_ARP_HashKeyCopy%1435
                0x00028bc8        0x6
 .text.TCPIP_ARP_HashKeyCopy
                0x00028bc8        0x6 build/default/debug/_ext/1033058136/arp.o
                0x00028bc8                TCPIP_ARP_HashKeyCopy

.text.TCPIP_HTTP_CurrentConnectionPostSmGet%1436
                0x00028bce        0x6
 .text.TCPIP_HTTP_CurrentConnectionPostSmGet
                0x00028bce        0x6 build/default/debug/_ext/1033058136/http.o
                0x00028bce                TCPIP_HTTP_CurrentConnectionPostSmGet

.text.TCPIP_HTTP_CurrentConnectionPostSmSet%1437
                0x00028bd4        0x6
 .text.TCPIP_HTTP_CurrentConnectionPostSmSet
                0x00028bd4        0x6 build/default/debug/_ext/1033058136/http.o
                0x00028bd4                TCPIP_HTTP_CurrentConnectionPostSmSet

.text.TCPIP_HTTP_CurrentConnectionStatusSet%1438
                0x00028bda        0x6
 .text.TCPIP_HTTP_CurrentConnectionStatusSet
                0x00028bda        0x6 build/default/debug/_ext/1033058136/http.o
                0x00028bda                TCPIP_HTTP_CurrentConnectionStatusSet

.text.TCPIP_HTTP_CurrentConnectionHasArgsSet%1439
                0x00028be0        0x6
 .text.TCPIP_HTTP_CurrentConnectionHasArgsSet
                0x00028be0        0x6 build/default/debug/_ext/1033058136/http.o
                0x00028be0                TCPIP_HTTP_CurrentConnectionHasArgsSet

.text.TCPIP_HTTP_CurrentConnectionSocketGet%1440
                0x00028be6        0x6
 .text.TCPIP_HTTP_CurrentConnectionSocketGet
                0x00028be6        0x6 build/default/debug/_ext/1033058136/http.o
                0x00028be6                TCPIP_HTTP_CurrentConnectionSocketGet

.text.TCPIP_STACK_MACObjectGet%1441
                0x00028bec        0x6
 .text.TCPIP_STACK_MACObjectGet
                0x00028bec        0x6 build/default/debug/_ext/1033058136/tcpip_manager.o
                0x00028bec                TCPIP_STACK_MACObjectGet

.text.TCPIP_STACK_NetBIOSName%1442
                0x00028bf2        0x6
 .text.TCPIP_STACK_NetBIOSName
                0x00028bf2        0x6 build/default/debug/_ext/1033058136/tcpip_manager.o
                0x00028bf2                TCPIP_STACK_NetBIOSName

.text.TCPIP_PKT_GapDcptOffset%1443
                0x00028bf8        0x6
 .text.TCPIP_PKT_GapDcptOffset
                0x00028bf8        0x6 build/default/debug/_ext/1033058136/tcpip_packet.o
                0x00028bf8                TCPIP_PKT_GapDcptOffset

.text.vListInitialiseItem%1444
                0x00028bfe        0x6
 .text.vListInitialiseItem
                0x00028bfe        0x6 build/default/debug/_ext/404212886/list.o
                0x00028bfe                vListInitialiseItem

.text.CRYPT_WCCB_Callback%1445
                0x00028c04        0x6
 .text.CRYPT_WCCB_Callback
                0x00028c04        0x6 build/default/debug/_ext/172253694/crypt_wolfcryptcb.o
                0x00028c04                CRYPT_WCCB_Callback

.text.DRV_GMAC_PowerMode%1446
                0x0000aee4        0x4
 .text.DRV_GMAC_PowerMode
                0x0000aee4        0x4 build/default/debug/_ext/1546807373/drv_gmac.o
                0x0000aee4                DRV_GMAC_PowerMode

.text.DRV_PIC32CGMAC_LibRxQueFilterInit%1447
                0x00026b5c        0x4
 .text.DRV_PIC32CGMAC_LibRxQueFilterInit
                0x00026b5c        0x4 build/default/debug/_ext/1546807373/drv_gmac_lib_samE5x.o
                0x00026b5c                DRV_PIC32CGMAC_LibRxQueFilterInit

.text.DRV_PIC32CGMAC_LibGetPriorityFromQueueNum%1448
                0x00028c0a        0x4
 .text.DRV_PIC32CGMAC_LibGetPriorityFromQueueNum
                0x00028c0a        0x4 build/default/debug/_ext/1546807373/drv_gmac_lib_samE5x.o
                0x00028c0a                DRV_PIC32CGMAC_LibGetPriorityFromQueueNum

.text.DRV_NVMCTRL_Status%1449
                0x00028c0e        0x4
 .text.DRV_NVMCTRL_Status
                0x00028c0e        0x4 build/default/debug/_ext/992804092/drv_memory_nvmctrl.o
                0x00028c0e                DRV_NVMCTRL_Status

.text.TCPIP_HTTP_CurrentConnectionFileGet%1450
                0x00028c12        0x4
 .text.TCPIP_HTTP_CurrentConnectionFileGet
                0x00028c12        0x4 build/default/debug/_ext/1033058136/http.o
                0x00028c12                TCPIP_HTTP_CurrentConnectionFileGet

.text.TCPIP_HTTP_CurrentConnectionDataBufferGet%1451
                0x00028c16        0x4
 .text.TCPIP_HTTP_CurrentConnectionDataBufferGet
                0x00028c16        0x4 build/default/debug/_ext/1033058136/http.o
                0x00028c16                TCPIP_HTTP_CurrentConnectionDataBufferGet

.text.TCPIP_HTTP_CurrentConnectionByteCountGet%1452
                0x00028c1a        0x4
 .text.TCPIP_HTTP_CurrentConnectionByteCountGet
                0x00028c1a        0x4 build/default/debug/_ext/1033058136/http.o
                0x00028c1a                TCPIP_HTTP_CurrentConnectionByteCountGet

.rodata.HTTP_CRLF%1453
                0x00028c20        0x4
 .rodata.HTTP_CRLF
                0x00028c20        0x4 build/default/debug/_ext/1033058136/http.o

.text.TCPIP_IPV4_IsFragmentationEnabled%1454
                0x00028c24        0x4
 .text.TCPIP_IPV4_IsFragmentationEnabled
                0x00028c24        0x4 build/default/debug/_ext/1033058136/ipv4.o
                0x00028c24                TCPIP_IPV4_IsFragmentationEnabled

.text._DHCPOptionProcessEnd%1455
                0x00028c28        0x4
 .text._DHCPOptionProcessEnd
                0x00028c28        0x4 build/default/debug/_ext/1033058136/dhcp.o

.rodata._DHCPRequestParamsTbl%1456
                0x00028c2c        0x4
 .rodata._DHCPRequestParamsTbl
                0x00028c2c        0x4 build/default/debug/_ext/1033058136/dhcp.o

.rodata.dhcpMagicCookie%1457
                0x00028c30        0x4
 .rodata.dhcpMagicCookie
                0x00028c30        0x4 build/default/debug/_ext/1033058136/dhcp.o

.text.TCPIP_PKT_GapDcptSize%1458
                0x00028c34        0x4
 .text.TCPIP_PKT_GapDcptSize
                0x00028c34        0x4 build/default/debug/_ext/1033058136/tcpip_packet.o
                0x00028c34                TCPIP_PKT_GapDcptSize

.text.Console_UART_Flush%1459
                0x00028c38        0x4
 .text.Console_UART_Flush
                0x00028c38        0x4 build/default/debug/_ext/1832805299/sys_console_uart.o
                0x00028c38                Console_UART_Flush

.rodata.debugInit%1460
                0x00028c3c        0x4
 .rodata.debugInit
                0x00028c3c        0x4 build/default/debug/_ext/1171490990/initialization.o
                0x00028c3c                debugInit

.rodata.sysConsole0UARTInitData%1461
                0x00028c40        0x4
 .rodata.sysConsole0UARTInitData
                0x00028c40        0x4 build/default/debug/_ext/1171490990/initialization.o
                0x00028c40                sysConsole0UARTInitData

.text.Dummy_Handler%1462
                0x00028c44        0x4
 .text.Dummy_Handler
                0x00028c44        0x4 build/default/debug/_ext/1171490990/interrupts.o
                0x00028c44                EIC_EXTINT_9_Handler
                0x00028c44                TCC0_MC5_Handler
                0x00028c44                SERCOM0_2_Handler
                0x00028c44                USB_SOF_HSOF_Handler
                0x00028c44                TCC4_OTHER_Handler
                0x00028c44                TCC2_MC2_Handler
                0x00028c44                EVSYS_0_Handler
                0x00028c44                TRNG_Handler
                0x00028c44                TC2_Handler
                0x00028c44                USB_TRCPT0_Handler
                0x00028c44                DAC_OTHER_Handler
                0x00028c44                AC_Handler
                0x00028c44                DAC_EMPTY_0_Handler
                0x00028c44                DMAC_OTHER_Handler
                0x00028c44                EIC_EXTINT_5_Handler
                0x00028c44                SERCOM3_1_Handler
                0x00028c44                SERCOM4_OTHER_Handler
                0x00028c44                SERCOM3_2_Handler
                0x00028c44                EIC_EXTINT_6_Handler
                0x00028c44                TC7_Handler
                0x00028c44                TCC4_MC0_Handler
                0x00028c44                EVSYS_3_Handler
                0x00028c44                QSPI_Handler
                0x00028c44                TCC2_MC0_Handler
                0x00028c44                PDEC_OTHER_Handler
                0x00028c44                TCC3_MC0_Handler
                0x00028c44                PDEC_MC1_Handler
                0x00028c44                TCC2_MC1_Handler
                0x00028c44                OSCCTRL_XOSC1_Handler
                0x00028c44                PDEC_MC0_Handler
                0x00028c44                EIC_EXTINT_4_Handler
                0x00028c44                EIC_EXTINT_7_Handler
                0x00028c44                SERCOM0_OTHER_Handler
                0x00028c44                EVSYS_OTHER_Handler
                0x00028c44                SERCOM0_0_Handler
                0x00028c44                RTC_Handler
                0x00028c44                SERCOM4_0_Handler
                0x00028c44                TCC1_MC0_Handler
                0x00028c44                TCC2_OTHER_Handler
                0x00028c44                EIC_EXTINT_11_Handler
                0x00028c44                SUPC_BODDET_Handler
                0x00028c44                EIC_EXTINT_14_Handler
                0x00028c44                OSC32KCTRL_Handler
                0x00028c44                SERCOM6_2_Handler
                0x00028c44                EVSYS_1_Handler
                0x00028c44                TC6_Handler
                0x00028c44                TCC4_MC1_Handler
                0x00028c44                DMAC_0_Handler
                0x00028c44                SUPC_OTHER_Handler
                0x00028c44                WDT_Handler
                0x00028c44                EIC_EXTINT_15_Handler
                0x00028c44                SERCOM6_0_Handler
                0x00028c44                EIC_EXTINT_1_Handler
                0x00028c44                TCC3_MC1_Handler
                0x00028c44                SERCOM5_0_Handler
                0x00028c44                TC4_Handler
                0x00028c44                TC1_Handler
                0x00028c44                TCC1_MC1_Handler
                0x00028c44                EIC_EXTINT_0_Handler
                0x00028c44                TCC1_OTHER_Handler
                0x00028c44                PAC_Handler
                0x00028c44                SERCOM4_1_Handler
                0x00028c44                TC3_Handler
                0x00028c44                Dummy_Handler
                0x00028c44                DAC_RESRDY_0_Handler
                0x00028c44                SERCOM5_1_Handler
                0x00028c44                DMAC_2_Handler
                0x00028c44                TCC0_MC4_Handler
                0x00028c44                USB_TRCPT1_Handler
                0x00028c44                SERCOM0_1_Handler
                0x00028c44                TCC0_MC3_Handler
                0x00028c44                EIC_EXTINT_12_Handler
                0x00028c44                OSCCTRL_DPLL0_Handler
                0x00028c44                SERCOM6_OTHER_Handler
                0x00028c44                SERCOM7_1_Handler
                0x00028c44                SERCOM5_OTHER_Handler
                0x00028c44                PM_Handler
                0x00028c44                OSCCTRL_DFLL_Handler
                0x00028c44                SERCOM7_0_Handler
                0x00028c44                DAC_RESRDY_1_Handler
                0x00028c44                DMAC_1_Handler
                0x00028c44                USB_OTHER_Handler
                0x00028c44                SDHC1_Handler
                0x00028c44                SERCOM7_2_Handler
                0x00028c44                TCC0_OTHER_Handler
                0x00028c44                EIC_EXTINT_10_Handler
                0x00028c44                TCC1_MC3_Handler
                0x00028c44                OSCCTRL_XOSC0_Handler
                0x00028c44                SERCOM6_1_Handler
                0x00028c44                TCC0_MC0_Handler
                0x00028c44                EIC_EXTINT_2_Handler
                0x00028c44                SDHC0_Handler
                0x00028c44                I2S_Handler
                0x00028c44                PCC_Handler
                0x00028c44                TCC3_OTHER_Handler
                0x00028c44                EIC_EXTINT_13_Handler
                0x00028c44                PUKCC_Handler
                0x00028c44                SERCOM2_1_Handler
                0x00028c44                SERCOM3_0_Handler
                0x00028c44                SERCOM4_2_Handler
                0x00028c44                TCC1_MC2_Handler
                0x00028c44                ADC1_RESRDY_Handler
                0x00028c44                NVMCTRL_1_Handler
                0x00028c44                SERCOM5_2_Handler
                0x00028c44                SERCOM2_2_Handler
                0x00028c44                DAC_EMPTY_1_Handler
                0x00028c44                ADC1_OTHER_Handler
                0x00028c44                OSCCTRL_DPLL1_Handler
                0x00028c44                EIC_EXTINT_3_Handler
                0x00028c44                SERCOM3_OTHER_Handler
                0x00028c44                EIC_EXTINT_8_Handler
                0x00028c44                NVMCTRL_0_Handler
                0x00028c44                ADC0_RESRDY_Handler
                0x00028c44                ADC0_OTHER_Handler
                0x00028c44                MCLK_Handler
                0x00028c44                SERCOM7_OTHER_Handler
                0x00028c44                EVSYS_2_Handler
                0x00028c44                SERCOM2_OTHER_Handler
                0x00028c44                FREQM_Handler
                0x00028c44                TCC0_MC1_Handler
                0x00028c44                DMAC_3_Handler
                0x00028c44                RAMECC_Handler
                0x00028c44                TC5_Handler
                0x00028c44                SERCOM2_0_Handler
                0x00028c44                AES_Handler
                0x00028c44                ICM_Handler
                0x00028c44                TCC0_MC2_Handler

.text.NonMaskableInt_Handler%1463
                0x00028c48        0x4
 .text.NonMaskableInt_Handler
                0x00028c48        0x4 build/default/debug/_ext/1171490990/exceptions.o
                0x00028c48                NonMaskableInt_Handler

.text.HardFault_Handler%1464
                0x00028c4c        0x4
 .text.HardFault_Handler
                0x00028c4c        0x4 build/default/debug/_ext/1171490990/exceptions.o
                0x00028c4c                HardFault_Handler

.text.DebugMonitor_Handler%1465
                0x00028c50        0x4
 .text.DebugMonitor_Handler
                0x00028c50        0x4 build/default/debug/_ext/1171490990/exceptions.o
                0x00028c50                DebugMonitor_Handler

.text.MemoryManagement_Handler%1466
                0x00028c54        0x4
 .text.MemoryManagement_Handler
                0x00028c54        0x4 build/default/debug/_ext/1171490990/exceptions.o
                0x00028c54                MemoryManagement_Handler

.text.BusFault_Handler%1467
                0x00028c58        0x4
 .text.BusFault_Handler
                0x00028c58        0x4 build/default/debug/_ext/1171490990/exceptions.o
                0x00028c58                BusFault_Handler

.text.UsageFault_Handler%1468
                0x00028c5c        0x4
 .text.UsageFault_Handler
                0x00028c5c        0x4 build/default/debug/_ext/1171490990/exceptions.o
                0x00028c5c                UsageFault_Handler

.text.__dummy_decompress%1469
                0x00028c60        0x4
 .text.__dummy_decompress
                0x00028c60        0x4 d:/microchip/bin/bin/../../lib/gcc/pic32c/8.3.1/../../../../pic32c/lib/thumb/v7e-m+fp/hard\libpic32c.a(data_init.o)
                0x00028c60                __dinit_copy_val_data
                0x00028c60                __dinit_decompress

.text%1470      0x00028c64        0x4
 .text          0x00028c64        0x4 d:/microchip/bin/bin/../../lib/gcc/pic32c/8.3.1/thumb/v7e-m+fp/hard\libgcc.a(_dvmd_tls.o)
                0x00028c64                __aeabi_idiv0
                0x00028c64                __aeabi_ldiv0

.text._DRV_ETHPHY_ClientOpNone%1471
                0x00010fee        0x2
 .text._DRV_ETHPHY_ClientOpNone
                0x00010fee        0x2 build/default/debug/_ext/444070925/drv_ethphy.o

.text.DRV_GMAC_Reinitialize%1472
                0x00011f2a        0x2
 .text.DRV_GMAC_Reinitialize
                0x00011f2a        0x2 build/default/debug/_ext/1546807373/drv_gmac.o
                0x00011f2a                DRV_GMAC_Reinitialize

.text.DRV_NVMCTRL_Open%1473
                0x0001424a        0x2
 .text.DRV_NVMCTRL_Open
                0x0001424a        0x2 build/default/debug/_ext/992804092/drv_memory_nvmctrl.o
                0x0001424a                DRV_NVMCTRL_Open

.text.DRV_NVMCTRL_Close%1474
                0x0001530e        0x2
 .text.DRV_NVMCTRL_Close
                0x0001530e        0x2 build/default/debug/_ext/992804092/drv_memory_nvmctrl.o
                0x0001530e                DRV_NVMCTRL_Close

.text.DRV_MIIM_Reinitialize%1475
                0x00016472        0x2
 .text.DRV_MIIM_Reinitialize
                0x00016472        0x2 build/default/debug/_ext/438849557/drv_miim.o
                0x00016472                DRV_MIIM_Reinitialize

.text._TCPIP_HEAP_BufferMapNonCached%1476
                0x0001850a        0x2
 .text._TCPIP_HEAP_BufferMapNonCached
                0x0001850a        0x2 build/default/debug/_ext/1033058136/tcpip_heap_alloc.o
                0x0001850a                _TCPIP_HEAP_BufferMapNonCached

.text.EVSYS_Initialize%1477
                0x0001890e        0x2
 .text.EVSYS_Initialize
                0x0001890e        0x2 build/default/debug/_ext/1986646378/plib_evsys.o
                0x0001890e                EVSYS_Initialize

.text.Console_UART_Tasks%1478
                0x00018df2        0x2
 .text.Console_UART_Tasks
                0x00018df2        0x2 build/default/debug/_ext/1832805299/sys_console_uart.o
                0x00018df2                Console_UART_Tasks

.text.Dummy_App_Func%1479
                0x0001a342        0x2
 .text.Dummy_App_Func
                0x0001a342        0x2 build/default/debug/_ext/1171490990/startup_xc32.o
                0x0001a342                _on_reset
                0x0001a342                _on_bootstrap
                0x0001a342                __xc32_on_reset
                0x0001a342                Dummy_App_Func
                0x0001a342                __xc32_on_bootstrap

.text.vPortFree%1480
                0x0001b1da        0x2
 .text.vPortFree
                0x0001b1da        0x2 build/default/debug/_ext/1665200909/heap_1.o
                0x0001b1da                vPortFree

.text.wc_Sha256Free%1481
                0x0001bc42        0x2
 .text.wc_Sha256Free
                0x0001bc42        0x2 build/default/debug/_ext/1664057780/sha256.o
                0x0001bc42                wc_Sha256Free

.text.APP_Tasks%1482
                0x0001d64e        0x2
 .text.APP_Tasks
                0x0001d64e        0x2 build/default/debug/_ext/1360937237/app.o
                0x0001d64e                APP_Tasks

.text.TCPIP_HTTP_Print_ddns_user%1483
                0x0001f1be        0x2
 .text.TCPIP_HTTP_Print_ddns_user
                0x0001f1be        0x2 build/default/debug/_ext/1360937237/custom_http_app.o
                0x0001f1be                TCPIP_HTTP_Print_ddns_user

.text.TCPIP_HTTP_Print_ddns_pass%1484
                0x0001f80e        0x2
 .text.TCPIP_HTTP_Print_ddns_pass
                0x0001f80e        0x2 build/default/debug/_ext/1360937237/custom_http_app.o
                0x0001f80e                TCPIP_HTTP_Print_ddns_pass

.text.TCPIP_HTTP_Print_ddns_host%1485
                0x0001fbfe        0x2
 .text.TCPIP_HTTP_Print_ddns_host
                0x0001fbfe        0x2 build/default/debug/_ext/1360937237/custom_http_app.o
                0x0001fbfe                TCPIP_HTTP_Print_ddns_host

.text.TCPIP_HTTP_Print_ddns_service%1486
                0x000223e6        0x2
 .text.TCPIP_HTTP_Print_ddns_service
                0x000223e6        0x2 build/default/debug/_ext/1360937237/custom_http_app.o
                0x000223e6                TCPIP_HTTP_Print_ddns_service

.text.__dummy%1487
                0x00022852        0x2
 .text.__dummy  0x00022852        0x2 d:/microchip/bin/bin/../../lib/gcc/pic32c/8.3.1/../../../../pic32c/lib/thumb/v7e-m+fp/hard\libg-musl.a(__libc_start_main.o)
                0x00022852                __init_stdio
                0x00022852                __init_host
