Archive member included to satisfy reference by file (symbol)

c:/program files/microchip/xc32/v3.01/bin/bin/../../lib/gcc/pic32c/8.3.1/../../../../pic32c/lib/thumb/v7e-m+fp/hard\libpic32c.a(data_init.o)
                              build/default/production/_ext/1171490990/startup_xc32.o (__pic32c_data_initialization)
c:/program files/microchip/xc32/v3.01/bin/bin/../../lib/gcc/pic32c/8.3.1/thumb/v7e-m+fp/hard\libgcc.a(_arm_addsubdf3.o)
                              build/default/production/_ext/1033058136/iperf.o (__aeabi_dsub)
c:/program files/microchip/xc32/v3.01/bin/bin/../../lib/gcc/pic32c/8.3.1/thumb/v7e-m+fp/hard\libgcc.a(_arm_muldivdf3.o)
                              build/default/production/_ext/1033058136/iperf.o (__aeabi_dmul)
c:/program files/microchip/xc32/v3.01/bin/bin/../../lib/gcc/pic32c/8.3.1/thumb/v7e-m+fp/hard\libgcc.a(_arm_cmpdf2.o)
                              build/default/production/_ext/1033058136/iperf.o (__aeabi_dcmpgt)
c:/program files/microchip/xc32/v3.01/bin/bin/../../lib/gcc/pic32c/8.3.1/thumb/v7e-m+fp/hard\libgcc.a(_arm_fixunsdfsi.o)
                              build/default/production/_ext/1033058136/iperf.o (__aeabi_d2uiz)
c:/program files/microchip/xc32/v3.01/bin/bin/../../lib/gcc/pic32c/8.3.1/thumb/v7e-m+fp/hard\libgcc.a(_aeabi_uldivmod.o)
                              build/default/production/_ext/1033058136/tcp.o (__aeabi_uldivmod)
c:/program files/microchip/xc32/v3.01/bin/bin/../../lib/gcc/pic32c/8.3.1/thumb/v7e-m+fp/hard\libgcc.a(_udivmoddi4.o)
                              c:/program files/microchip/xc32/v3.01/bin/bin/../../lib/gcc/pic32c/8.3.1/thumb/v7e-m+fp/hard\libgcc.a(_aeabi_uldivmod.o) (__udivmoddi4)
c:/program files/microchip/xc32/v3.01/bin/bin/../../lib/gcc/pic32c/8.3.1/thumb/v7e-m+fp/hard\libgcc.a(_dvmd_tls.o)
                              c:/program files/microchip/xc32/v3.01/bin/bin/../../lib/gcc/pic32c/8.3.1/thumb/v7e-m+fp/hard\libgcc.a(_aeabi_uldivmod.o) (__aeabi_ldiv0)
c:/program files/microchip/xc32/v3.01/bin/bin/../../lib/gcc/pic32c/8.3.1/../../../../pic32c/lib/thumb/v7e-m+fp/hard\libc_nano.a(lib_a-atoi.o)
                              build/default/production/_ext/1033058136/tcpip_commands.o (atoi)
c:/program files/microchip/xc32/v3.01/bin/bin/../../lib/gcc/pic32c/8.3.1/../../../../pic32c/lib/thumb/v7e-m+fp/hard\libc_nano.a(lib_a-atol.o)
                              build/default/production/_ext/1033058136/http.o (atol)
c:/program files/microchip/xc32/v3.01/bin/bin/../../lib/gcc/pic32c/8.3.1/../../../../pic32c/lib/thumb/v7e-m+fp/hard\libc_nano.a(lib_a-calloc.o)
                              build/default/production/_ext/1171490990/initialization.o (calloc)
c:/program files/microchip/xc32/v3.01/bin/bin/../../lib/gcc/pic32c/8.3.1/../../../../pic32c/lib/thumb/v7e-m+fp/hard\libc_nano.a(lib_a-ctype_.o)
                              build/default/production/_ext/1033058136/helpers.o (_ctype_)
c:/program files/microchip/xc32/v3.01/bin/bin/../../lib/gcc/pic32c/8.3.1/../../../../pic32c/lib/thumb/v7e-m+fp/hard\libc_nano.a(lib_a-gmtime.o)
                              build/default/production/_ext/1664057780/asn.o (gmtime)
c:/program files/microchip/xc32/v3.01/bin/bin/../../lib/gcc/pic32c/8.3.1/../../../../pic32c/lib/thumb/v7e-m+fp/hard\libc_nano.a(lib_a-gmtime_r.o)
                              c:/program files/microchip/xc32/v3.01/bin/bin/../../lib/gcc/pic32c/8.3.1/../../../../pic32c/lib/thumb/v7e-m+fp/hard\libc_nano.a(lib_a-gmtime.o) (gmtime_r)
c:/program files/microchip/xc32/v3.01/bin/bin/../../lib/gcc/pic32c/8.3.1/../../../../pic32c/lib/thumb/v7e-m+fp/hard\libc_nano.a(lib_a-impure.o)
                              c:/program files/microchip/xc32/v3.01/bin/bin/../../lib/gcc/pic32c/8.3.1/../../../../pic32c/lib/thumb/v7e-m+fp/hard\libc_nano.a(lib_a-calloc.o) (_impure_ptr)
c:/program files/microchip/xc32/v3.01/bin/bin/../../lib/gcc/pic32c/8.3.1/../../../../pic32c/lib/thumb/v7e-m+fp/hard\libc_nano.a(lib_a-init.o)
                              build/default/production/_ext/1171490990/startup_xc32.o (__libc_init_array)
c:/program files/microchip/xc32/v3.01/bin/bin/../../lib/gcc/pic32c/8.3.1/../../../../pic32c/lib/thumb/v7e-m+fp/hard\libc_nano.a(lib_a-malloc.o)
                              build/default/production/_ext/1645245335/crypto.o (malloc)
c:/program files/microchip/xc32/v3.01/bin/bin/../../lib/gcc/pic32c/8.3.1/../../../../pic32c/lib/thumb/v7e-m+fp/hard\libc_nano.a(lib_a-memcmp.o)
                              build/default/production/_ext/1546807373/drv_gmac.o (memcmp)
c:/program files/microchip/xc32/v3.01/bin/bin/../../lib/gcc/pic32c/8.3.1/../../../../pic32c/lib/thumb/v7e-m+fp/hard\libc_nano.a(lib_a-memcpy-stub.o)
                              build/default/production/_ext/992804092/drv_memory.o (memcpy)
c:/program files/microchip/xc32/v3.01/bin/bin/../../lib/gcc/pic32c/8.3.1/../../../../pic32c/lib/thumb/v7e-m+fp/hard\libc_nano.a(lib_a-memmove.o)
                              build/default/production/_ext/1664057780/asn.o (memmove)
c:/program files/microchip/xc32/v3.01/bin/bin/../../lib/gcc/pic32c/8.3.1/../../../../pic32c/lib/thumb/v7e-m+fp/hard\libc_nano.a(lib_a-memset.o)
                              build/default/production/_ext/444070925/drv_ethphy.o (memset)
c:/program files/microchip/xc32/v3.01/bin/bin/../../lib/gcc/pic32c/8.3.1/../../../../pic32c/lib/thumb/v7e-m+fp/hard\libc_nano.a(lib_a-nano-callocr.o)
                              c:/program files/microchip/xc32/v3.01/bin/bin/../../lib/gcc/pic32c/8.3.1/../../../../pic32c/lib/thumb/v7e-m+fp/hard\libc_nano.a(lib_a-calloc.o) (_calloc_r)
c:/program files/microchip/xc32/v3.01/bin/bin/../../lib/gcc/pic32c/8.3.1/../../../../pic32c/lib/thumb/v7e-m+fp/hard\libc_nano.a(lib_a-nano-freer.o)
                              c:/program files/microchip/xc32/v3.01/bin/bin/../../lib/gcc/pic32c/8.3.1/../../../../pic32c/lib/thumb/v7e-m+fp/hard\libc_nano.a(lib_a-malloc.o) (_free_r)
c:/program files/microchip/xc32/v3.01/bin/bin/../../lib/gcc/pic32c/8.3.1/../../../../pic32c/lib/thumb/v7e-m+fp/hard\libc_nano.a(lib_a-nano-mallocr.o)
                              c:/program files/microchip/xc32/v3.01/bin/bin/../../lib/gcc/pic32c/8.3.1/../../../../pic32c/lib/thumb/v7e-m+fp/hard\libc_nano.a(lib_a-malloc.o) (_malloc_r)
c:/program files/microchip/xc32/v3.01/bin/bin/../../lib/gcc/pic32c/8.3.1/../../../../pic32c/lib/thumb/v7e-m+fp/hard\libc_nano.a(lib_a-rand.o)
                              build/default/production/_ext/1664057780/random.o (srand)
c:/program files/microchip/xc32/v3.01/bin/bin/../../lib/gcc/pic32c/8.3.1/../../../../pic32c/lib/thumb/v7e-m+fp/hard\libc_nano.a(lib_a-sbrkr.o)
                              c:/program files/microchip/xc32/v3.01/bin/bin/../../lib/gcc/pic32c/8.3.1/../../../../pic32c/lib/thumb/v7e-m+fp/hard\libc_nano.a(lib_a-nano-mallocr.o) (_sbrk_r)
c:/program files/microchip/xc32/v3.01/bin/bin/../../lib/gcc/pic32c/8.3.1/../../../../pic32c/lib/thumb/v7e-m+fp/hard\libc_nano.a(lib_a-snprintf.o)
                              (snprintf)
c:/program files/microchip/xc32/v3.01/bin/bin/../../lib/gcc/pic32c/8.3.1/../../../../pic32c/lib/thumb/v7e-m+fp/hard\libc_nano.a(lib_a-sprintf.o)
                              (sprintf)
c:/program files/microchip/xc32/v3.01/bin/bin/../../lib/gcc/pic32c/8.3.1/../../../../pic32c/lib/thumb/v7e-m+fp/hard\libc_nano.a(lib_a-strchr.o)
                              build/default/production/_ext/1376093119/sys_command.o (strchr)
c:/program files/microchip/xc32/v3.01/bin/bin/../../lib/gcc/pic32c/8.3.1/../../../../pic32c/lib/thumb/v7e-m+fp/hard\libc_nano.a(lib_a-strcmp.o)
                              build/default/production/_ext/1033058136/tcpip_commands.o (strcmp)
c:/program files/microchip/xc32/v3.01/bin/bin/../../lib/gcc/pic32c/8.3.1/../../../../pic32c/lib/thumb/v7e-m+fp/hard\libc_nano.a(lib_a-strcpy.o)
                              build/default/production/_ext/1751889202/sys_fs_shell.o (strcpy)
c:/program files/microchip/xc32/v3.01/bin/bin/../../lib/gcc/pic32c/8.3.1/../../../../pic32c/lib/thumb/v7e-m+fp/hard\libc_nano.a(lib_a-strlen.o)
                              build/default/production/_ext/1751889202/sys_fs_shell.o (strlen)
c:/program files/microchip/xc32/v3.01/bin/bin/../../lib/gcc/pic32c/8.3.1/../../../../pic32c/lib/thumb/v7e-m+fp/hard\libc_nano.a(lib_a-strncmp.o)
                              build/default/production/_ext/1033058136/snmp.o (strncmp)
c:/program files/microchip/xc32/v3.01/bin/bin/../../lib/gcc/pic32c/8.3.1/../../../../pic32c/lib/thumb/v7e-m+fp/hard\libc_nano.a(lib_a-strncpy.o)
                              build/default/production/_ext/1645245335/crypto.o (strncpy)
c:/program files/microchip/xc32/v3.01/bin/bin/../../lib/gcc/pic32c/8.3.1/../../../../pic32c/lib/thumb/v7e-m+fp/hard\libc_nano.a(lib_a-strstr.o)
                              build/default/production/_ext/1751889202/sys_fs_shell.o (strstr)
c:/program files/microchip/xc32/v3.01/bin/bin/../../lib/gcc/pic32c/8.3.1/../../../../pic32c/lib/thumb/v7e-m+fp/hard\libc_nano.a(lib_a-strtok.o)
                              build/default/production/_ext/1376093119/sys_command.o (strtok)
c:/program files/microchip/xc32/v3.01/bin/bin/../../lib/gcc/pic32c/8.3.1/../../../../pic32c/lib/thumb/v7e-m+fp/hard\libc_nano.a(lib_a-strtok_r.o)
                              c:/program files/microchip/xc32/v3.01/bin/bin/../../lib/gcc/pic32c/8.3.1/../../../../pic32c/lib/thumb/v7e-m+fp/hard\libc_nano.a(lib_a-strtok.o) (__strtok_r)
c:/program files/microchip/xc32/v3.01/bin/bin/../../lib/gcc/pic32c/8.3.1/../../../../pic32c/lib/thumb/v7e-m+fp/hard\libc_nano.a(lib_a-strtol.o)
                              c:/program files/microchip/xc32/v3.01/bin/bin/../../lib/gcc/pic32c/8.3.1/../../../../pic32c/lib/thumb/v7e-m+fp/hard\libc_nano.a(lib_a-atoi.o) (_strtol_r)
c:/program files/microchip/xc32/v3.01/bin/bin/../../lib/gcc/pic32c/8.3.1/../../../../pic32c/lib/thumb/v7e-m+fp/hard\libc_nano.a(lib_a-time.o)
                              build/default/production/_ext/1664057780/asn.o (time)
c:/program files/microchip/xc32/v3.01/bin/bin/../../lib/gcc/pic32c/8.3.1/../../../../pic32c/lib/thumb/v7e-m+fp/hard\libc_nano.a(lib_a-vsnprintf.o)
                              build/default/production/_ext/1376093119/sys_command.o (vsnprintf)
c:/program files/microchip/xc32/v3.01/bin/bin/../../lib/gcc/pic32c/8.3.1/../../../../pic32c/lib/thumb/v7e-m+fp/hard\libc_nano.a(lib_a-gettimeofdayr.o)
                              c:/program files/microchip/xc32/v3.01/bin/bin/../../lib/gcc/pic32c/8.3.1/../../../../pic32c/lib/thumb/v7e-m+fp/hard\libc_nano.a(lib_a-time.o) (_gettimeofday_r)
c:/program files/microchip/xc32/v3.01/bin/bin/../../lib/gcc/pic32c/8.3.1/../../../../pic32c/lib/thumb/v7e-m+fp/hard\libc_nano.a(lib_a-mlock.o)
                              c:/program files/microchip/xc32/v3.01/bin/bin/../../lib/gcc/pic32c/8.3.1/../../../../pic32c/lib/thumb/v7e-m+fp/hard\libc_nano.a(lib_a-nano-freer.o) (__malloc_lock)
c:/program files/microchip/xc32/v3.01/bin/bin/../../lib/gcc/pic32c/8.3.1/../../../../pic32c/lib/thumb/v7e-m+fp/hard\libc_nano.a(lib_a-nano-svfprintf.o)
                              c:/program files/microchip/xc32/v3.01/bin/bin/../../lib/gcc/pic32c/8.3.1/../../../../pic32c/lib/thumb/v7e-m+fp/hard\libc_nano.a(lib_a-snprintf.o) (_svfprintf_r)
c:/program files/microchip/xc32/v3.01/bin/bin/../../lib/gcc/pic32c/8.3.1/../../../../pic32c/lib/thumb/v7e-m+fp/hard\libc_nano.a(lib_a-nano-vfprintf_float.o)
                              c:/program files/microchip/xc32/v3.01/bin/bin/../../lib/gcc/pic32c/8.3.1/../../../../pic32c/lib/thumb/v7e-m+fp/hard\libc_nano.a(lib_a-nano-svfprintf.o) (_printf_float)
c:/program files/microchip/xc32/v3.01/bin/bin/../../lib/gcc/pic32c/8.3.1/../../../../pic32c/lib/thumb/v7e-m+fp/hard\libc_nano.a(lib_a-nano-vfprintf_i.o)
                              c:/program files/microchip/xc32/v3.01/bin/bin/../../lib/gcc/pic32c/8.3.1/../../../../pic32c/lib/thumb/v7e-m+fp/hard\libc_nano.a(lib_a-nano-vfprintf_float.o) (_printf_common)
c:/program files/microchip/xc32/v3.01/bin/bin/../../lib/gcc/pic32c/8.3.1/../../../../pic32c/lib/thumb/v7e-m+fp/hard\libc_nano.a(lib_a-reent.o)
                              c:/program files/microchip/xc32/v3.01/bin/bin/../../lib/gcc/pic32c/8.3.1/../../../../pic32c/lib/thumb/v7e-m+fp/hard\libc_nano.a(lib_a-sbrkr.o) (errno)
c:/program files/microchip/xc32/v3.01/bin/bin/../../lib/gcc/pic32c/8.3.1/../../../../pic32c/lib/thumb/v7e-m+fp/hard\libc_nano.a(lib_a-__ssputs.o)
                              c:/program files/microchip/xc32/v3.01/bin/bin/../../lib/gcc/pic32c/8.3.1/../../../../pic32c/lib/thumb/v7e-m+fp/hard\libc_nano.a(lib_a-nano-svfprintf.o) (__ssputs_r)
c:/program files/microchip/xc32/v3.01/bin/bin/../../lib/gcc/pic32c/8.3.1/../../../../pic32c/lib/thumb/v7e-m+fp/hard\libc_nano.a(lib_a-dtoa.o)
                              c:/program files/microchip/xc32/v3.01/bin/bin/../../lib/gcc/pic32c/8.3.1/../../../../pic32c/lib/thumb/v7e-m+fp/hard\libc_nano.a(lib_a-nano-vfprintf_float.o) (_dtoa_r)
c:/program files/microchip/xc32/v3.01/bin/bin/../../lib/gcc/pic32c/8.3.1/../../../../pic32c/lib/thumb/v7e-m+fp/hard\libc_nano.a(lib_a-localeconv.o)
                              c:/program files/microchip/xc32/v3.01/bin/bin/../../lib/gcc/pic32c/8.3.1/../../../../pic32c/lib/thumb/v7e-m+fp/hard\libc_nano.a(lib_a-nano-vfprintf_float.o) (_localeconv_r)
c:/program files/microchip/xc32/v3.01/bin/bin/../../lib/gcc/pic32c/8.3.1/../../../../pic32c/lib/thumb/v7e-m+fp/hard\libc_nano.a(lib_a-memchr.o)
                              c:/program files/microchip/xc32/v3.01/bin/bin/../../lib/gcc/pic32c/8.3.1/../../../../pic32c/lib/thumb/v7e-m+fp/hard\libc_nano.a(lib_a-nano-svfprintf.o) (memchr)
c:/program files/microchip/xc32/v3.01/bin/bin/../../lib/gcc/pic32c/8.3.1/../../../../pic32c/lib/thumb/v7e-m+fp/hard\libc_nano.a(lib_a-mprec.o)
                              c:/program files/microchip/xc32/v3.01/bin/bin/../../lib/gcc/pic32c/8.3.1/../../../../pic32c/lib/thumb/v7e-m+fp/hard\libc_nano.a(lib_a-dtoa.o) (_Balloc)
c:/program files/microchip/xc32/v3.01/bin/bin/../../lib/gcc/pic32c/8.3.1/../../../../pic32c/lib/thumb/v7e-m+fp/hard\libc_nano.a(lib_a-nano-reallocr.o)
                              c:/program files/microchip/xc32/v3.01/bin/bin/../../lib/gcc/pic32c/8.3.1/../../../../pic32c/lib/thumb/v7e-m+fp/hard\libc_nano.a(lib_a-__ssputs.o) (_realloc_r)
c:/program files/microchip/xc32/v3.01/bin/bin/../../lib/gcc/pic32c/8.3.1/../../../../pic32c/lib/thumb/v7e-m+fp/hard\libc_nano.a(lib_a-locale.o)
                              c:/program files/microchip/xc32/v3.01/bin/bin/../../lib/gcc/pic32c/8.3.1/../../../../pic32c/lib/thumb/v7e-m+fp/hard\libc_nano.a(lib_a-localeconv.o) (__global_locale)
c:/program files/microchip/xc32/v3.01/bin/bin/../../lib/gcc/pic32c/8.3.1/../../../../pic32c/lib/thumb/v7e-m+fp/hard\libc_nano.a(lib_a-mbtowc_r.o)
                              c:/program files/microchip/xc32/v3.01/bin/bin/../../lib/gcc/pic32c/8.3.1/../../../../pic32c/lib/thumb/v7e-m+fp/hard\libc_nano.a(lib_a-locale.o) (__ascii_mbtowc)
c:/program files/microchip/xc32/v3.01/bin/bin/../../lib/gcc/pic32c/8.3.1/../../../../pic32c/lib/thumb/v7e-m+fp/hard\libc_nano.a(lib_a-nano-msizer.o)
                              c:/program files/microchip/xc32/v3.01/bin/bin/../../lib/gcc/pic32c/8.3.1/../../../../pic32c/lib/thumb/v7e-m+fp/hard\libc_nano.a(lib_a-nano-reallocr.o) (_malloc_usable_size_r)
c:/program files/microchip/xc32/v3.01/bin/bin/../../lib/gcc/pic32c/8.3.1/../../../../pic32c/lib/thumb/v7e-m+fp/hard\libc_nano.a(lib_a-wctomb_r.o)
                              c:/program files/microchip/xc32/v3.01/bin/bin/../../lib/gcc/pic32c/8.3.1/../../../../pic32c/lib/thumb/v7e-m+fp/hard\libc_nano.a(lib_a-locale.o) (__ascii_wctomb)
c:/program files/microchip/xc32/v3.01/bin/bin/../../lib/gcc/pic32c/8.3.1/../../../../pic32c/lib/thumb/v7e-m+fp/hard\libpic32c.a(sbrk.o)
                              c:/program files/microchip/xc32/v3.01/bin/bin/../../lib/gcc/pic32c/8.3.1/../../../../pic32c/lib/thumb/v7e-m+fp/hard\libc_nano.a(lib_a-sbrkr.o) (_sbrk)
c:/program files/microchip/xc32/v3.01/bin/bin/../../lib/gcc/pic32c/8.3.1/thumb/v7e-m+fp/hard\libgcc.a(_arm_unorddf2.o)
                              c:/program files/microchip/xc32/v3.01/bin/bin/../../lib/gcc/pic32c/8.3.1/../../../../pic32c/lib/thumb/v7e-m+fp/hard\libc_nano.a(lib_a-nano-vfprintf_float.o) (__aeabi_dcmpun)
c:/program files/microchip/xc32/v3.01/bin/bin/../../lib/gcc/pic32c/8.3.1/thumb/v7e-m+fp/hard\libgcc.a(_arm_fixdfsi.o)
                              c:/program files/microchip/xc32/v3.01/bin/bin/../../lib/gcc/pic32c/8.3.1/../../../../pic32c/lib/thumb/v7e-m+fp/hard\libc_nano.a(lib_a-dtoa.o) (__aeabi_d2iz)

Allocating common symbols
Common symbol       size              file

errno               0x4               c:/program files/microchip/xc32/v3.01/bin/bin/../../lib/gcc/pic32c/8.3.1/../../../../pic32c/lib/thumb/v7e-m+fp/hard\libc_nano.a(lib_a-reent.o)

Microchip PIC32 Memory-Usage Report

ROM Program-Memory Usage
section                    address  length [bytes]      (dec)  Description
-------                 ----------  -------------------------  -----------
.vectors                         0          0x264         612   
.text                        0x264           0x20          32  App's exec code 
.ARM.exidx                   0x284            0x8           8   
.rodata                      0x28c         0x1a58        6744  Read-only const 
.text.TCPIP_SNMP_Task       0x1ce4         0x1238        4664   
.dinit                      0x2f1c          0xf70        3952   
.text.TCPIP_HTTP_Proces     0x3e8c          0xf34        3892   
.text.TCPIP_TCP_Task        0x4dc0          0xe40        3648   
.text.TCPIP_IPERF_Task      0x5c00          0xd34        3380   
.text.DRV_GMAC_PowerMod     0x6934            0x4           4   
.text._dtoa_r               0x6938          0xb6c        2924   
.rodata                     0x74a4         0x13b8        5048  Read-only const 
.rodata.macPIC32CHwRegD     0x885c          0x708        1800   
.text.Transform             0x8f64          0x6d0        1744   
.text.TCPIP_STACK_Task      0x9634          0x630        1584   
.text.CommandIperfStart     0x9c64          0x5c0        1472   
.text._TcpSend              0xa224          0x5b0        1456   
.text._printf_float         0xa7d4          0x52c        1324   
.text._Command_DNS_Serv     0xad00          0x518        1304   
.text.TCPIP_COMMAND_Tas     0xb218          0x4d8        1240   
.text.TCPIP_HTTP_PostEx     0xb6f0          0x4d0        1232   
.text.TCPIP_DHCP_Task       0xbbc0          0x4c0        1216   
.rodata                     0xc080          0x490        1168  Read-only const 
.text.SYS_CMD_Tasks         0xc510          0x470        1136   
.text._TCPIP_DoInitiali     0xc980          0x424        1060   
.text                       0xcda4          0x424        1060  App's exec code 
.text._DNS_ProcessPacke     0xd1c8          0x3f8        1016   
.text.GenericTxStart        0xd5c0          0x3cc         972   
.text.DRV_PIC32CGMAC_Li     0xd98c          0x380         896   
.text                       0xdd0c          0x378         888  App's exec code 
.text.TCPIP_SNMP_OIDFin     0xe084          0x36c         876   
.text.TCPIP_SNMP_Proces     0xe3f0          0x368         872   
.text.TCPIP_Helper_Stri     0xe758          0x364         868   
.text.Transform_Sha256      0xeabc          0x30c         780   
.text.DRV_GMAC_Initiali     0xedc8          0x308         776   
.text.TCPIP_TCP_FifoSiz     0xf0d0          0x2f0         752   
.text.TCPIP_SNMP_Proces     0xf3c0          0x2e8         744   
.rodata                     0xf6a8          0x2e4         740  Read-only const 
.text.TCPIP_SNMP_Proces     0xf98c          0x2d0         720   
.text.Hash_DRBG_Generat     0xfc5c          0x2d0         720   
.text                       0xff2c          0x2d0         720  App's exec code 
.text._TCP_Open            0x101fc          0x2c0         704   
.text.TCPIP_ARP_Task       0x104bc          0x2c0         704   
.text._DNS_Send_Query      0x1077c          0x290         656   
.rodata                    0x10a0c          0x290         656  Read-only const 
.text.SYS_FS_MEDIA_MANA    0x10c9c          0x288         648   
.text._CommandDhcpOptio    0x10f24          0x26c         620   
.text.DRV_MEMORY_SetupX    0x11190          0x264         612   
.text._CommandMiim         0x113f4          0x25c         604   
.text.ReportBW_Jitter_L    0x11650          0x25c         604   
.text._CommandPing         0x118ac          0x254         596   
.text.TCPIP_UDP_Task       0x11b00          0x24c         588   
.text.TCPIP_HTTP_Initia    0x11d4c          0x240         576   
.text.TCPIP_TCP_ArrayFi    0x11f8c          0x23c         572   
.text.TCPIP_STACK_Bring    0x121c8          0x23c         572   
.text.TCPIP_IPV4_Task      0x12404          0x234         564   
.text._printf_i            0x12638          0x228         552   
.text.TCPIP_UDP_Flush      0x12860          0x220         544   
.text.TCPIP_IPV4_PktTx     0x12a80          0x210         528   
.text.DRV_MEMORY_Open      0x12c90          0x20c         524   
.text._Command_NetInfo     0x12e9c          0x20c         524   
.text.TCPIP_DNS_ClientI    0x130a8          0x20c         524   
.text.TCPIP_UDP_Options    0x132b4          0x204         516   
.text.TCPIP_SNMP_Initia    0x134b8          0x1e8         488   
.text.TCPIP_SNMP_Proces    0x136a0          0x1e4         484   
.text.TCPIP_ICMP_Task      0x13884          0x1e4         484   
.text.TCPIP_ARP_Initial    0x13a68          0x1e4         484   
.text.xTaskCreate          0x13c4c          0x1e4         484   
.text._DHCPReceive         0x13e30          0x1dc         476   
.text.SERCOM1_USART_Int    0x1400c          0x1d4         468   
.text.GenericTxEnd         0x141e0          0x1cc         460   
.text._svfprintf_r         0x143ac          0x1cc         460   
.text._DHCPSend            0x14578          0x1bc         444   
.rodata                    0x14734          0x1bc         444  Read-only const 
.text.DRV_GMAC_PacketRx    0x148f0          0x1b0         432   
.text.DRV_PIC32CGMAC_Li    0x14aa0          0x1b0         432   
.text.SYS_FS_Mount         0x14c50          0x1a8         424   
.text._DRV_ETHPHY_Defau    0x14df8          0x1a6         422   
.text._DRV_ETHPHY_Clien    0x14f9e            0x2           2   
.text.CommandIperfSize     0x14fa0          0x190         400   
.text.TCPIP_DHCP_Initia    0x15130          0x190         400   
.text._Command_MacInfo     0x152c0          0x188         392   
.text.SYS_FS_MEDIA_MANA    0x15448          0x188         392   
.text.wc_Sha256Final       0x155d0          0x188         392   
.text.TCPIP_HTTP_Print     0x15758          0x188         392   
.text._InitRng             0x158e0          0x184         388   
.text.Shell_FileAbsPath    0x15a64          0x180         384   
.text._TcpCloseSocket      0x15be4          0x172         370   
.text.DRV_GMAC_Reinitia    0x15d56            0x2           2   
.text.TCPIP_TCP_ArrayPu    0x15d58          0x170         368   
.text._DHCPOptionHostNa    0x15ec8          0x16c         364   
.text.DRV_PIC32CGMAC_Li    0x16034          0x164         356   
.text._Command_NetworkO    0x16198          0x164         356   
.text.CommandHelp          0x162fc          0x164         356   
.text.SYS_FS_FileOpen      0x16460          0x160         352   
.text._UDPOpen             0x165c0          0x15c         348   
.text.TCPIP_DNS_EntryQu    0x1671c          0x154         340   
.text.xQueueSemaphoreTa    0x16870          0x154         340   
.text.DRV_MIIM_Tasks       0x169c4          0x150         336   
.text.TCPIP_TCP_Initial    0x16b14          0x150         336   
.text.wc_Sha256Update      0x16c64          0x144         324   
.text.Hash_df              0x16da8          0x13e         318   
.text.DRV_NVMCTRL_Open     0x16ee6            0x2           2   
.text._MACDeinit           0x16ee8          0x13c         316   
.text.TCPIP_UDP_Deiniti    0x17024          0x13c         316   
.text._LoadNetworkConfi    0x17160          0x138         312   
.text.TCPIP_SNMP_NextLe    0x17298          0x134         308   
.text.CommandIperfNetIf    0x173cc          0x130         304   
.text._DNS_Resolve         0x174fc          0x130         304   
.text.TCPIP_SNMP_Varbin    0x1762c          0x130         304   
.text.__multiply           0x1775c          0x130         304   
.text.quorem               0x1788c          0x12e         302   
.text.DRV_NVMCTRL_Close    0x179ba            0x2           2   
.text._CommandMiimOp       0x179bc          0x12c         300   
.text.TCPIP_IPV4_Initia    0x17ae8          0x128         296   
.text.TCPIP_UDP_Options    0x17c10          0x128         296   
.text.TCPIP_SNMP_Varbin    0x17d38          0x128         296   
.text.TCPIP_UDP_Bind       0x17e60          0x124         292   
.text.xQueueGenericSend    0x17f84          0x124         292   
.text.DRV_GMAC_Tasks       0x180a8          0x120         288   
.text.DRV_PIC32CGMAC_Li    0x181c8          0x120         288   
.text._Command_StackOnO    0x182e8          0x120         288   
.text.TCPIP_IPV4_Packet    0x18408          0x120         288   
.text.TCPIP_Helper_Stri    0x18528          0x120         288   
.text.DRV_GMAC_EventMas    0x18648          0x11c         284   
.text._UDPv4TxAckFnc       0x18764          0x11c         284   
.text.wc_RNG_GenerateBl    0x18880          0x11c         284   
.text.xTaskIncrementTic    0x1899c          0x114         276   
.text.CommandPingHandle    0x18ab0          0x110         272   
.text                      0x18bc0          0x110         272  App's exec code 
.text._Tcpv4TxAckFnc       0x18cd0          0x10c         268   
.text._TCPIP_HEAP_Free     0x18ddc          0x10a         266   
.text.DRV_MIIM_Reinitia    0x18ee6            0x2           2   
.text.SYS_FS_Unmount       0x18ee8          0x108         264   
.text.TCPIP_TCP_Options    0x18ff0          0x106         262   
.text._TCPIP_HEAP_Buffe    0x190f6            0x2           2   
.text.TCPIP_UDP_Initial    0x190f8          0x104         260   
.rodata._ctype_            0x191fc          0x101         257   
.rodata.K                  0x19300          0x100         256   
.text.wc_Md5Update         0x19400           0xfe         254   
.text.EVSYS_Initialize     0x194fe            0x2           2   
.text.TCPIP_ICMP_EchoRe    0x19500           0xfc         252   
.text._Command_AddressS    0x195fc           0xfc         252   
.text._Command_HeapInfo    0x196f8           0xfc         252   
.text.SYS_FS_DirOpen       0x197f4           0xfc         252   
.text.TCPIP_SNMP_MIBRec    0x198f0           0xf6         246   
.text.Console_UART_Task    0x199e6            0x2           2   
.text.TCPIP_TCP_Deiniti    0x199e8           0xf0         240   
.text.TCPIP_ARP_EntryRe    0x19ad8           0xf0         240   
.text._DNS_IsNameResolv    0x19bc8           0xf0         240   
.text.TCPIP_DNS_ClientT    0x19cb8           0xf0         240   
.text.MPFS_DirRead         0x19da8           0xf0         240   
.text.Shell_Cwd            0x19e98           0xec         236   
.text._ARPProbeAddress     0x19f84           0xec         236   
.text._DNS_GetAddresses    0x1a070           0xec         236   
.text._strtol_l.isra.0     0x1a15c           0xec         236   
.text._printf_common       0x1a248           0xea         234   
.text.Dummy_Handler        0x1a332            0x2           2   
.text.DRV_PIC32CGMAC_Li    0x1a334           0xe8         232   
.text.SYS_FS_Shell_Crea    0x1a41c           0xe8         232   
.text._Command_IPAddres    0x1a504           0xe8         232   
.text.CLOCK_Initialize     0x1a5ec           0xe4         228   
.text.MPFSFindFile         0x1a6d0           0xe4         228   
.text.xTaskResumeAll       0x1a7b4           0xe4         228   
.text._HTTP_ReadTo         0x1a898           0xe2         226   
.text.DRV_MEMORY_Handle    0x1a97a           0xe0         224   
.text.TCPIP_UDP_ArrayGe    0x1aa5a           0xde         222   
.text.DRV_ETHPHY_Setup     0x1ab38           0xdc         220   
.text.SYS_FS_FileSeek      0x1ac14           0xdc         220   
.text.SYS_TIME_PLIBCall    0x1acf0           0xdc         220   
.text.SERCOM1_USART_Wri    0x1adcc           0xd8         216   
.text.TCPIP_Commands_In    0x1aea4           0xd4         212   
.text._DRV_ETHPHY_NegRe    0x1af78           0xd2         210   
.text.DRV_EXTPHY_MDIXCo    0x1b04a           0xd0         208   
.text.NonMaskableInt_Ha    0x1b11a            0x2           2   
.text.TCPIP_SNMP_IsVali    0x1b11c           0xd0         208   
.text.DRV_GMAC_PacketTx    0x1b1ec           0xcc         204   
.text.TCPIP_TCP_ArrayGe    0x1b2b8           0xcc         204   
.rodata.tcpipCmdTbl        0x1b384           0xcc         204   
.text.TCPIP_HTTP_Task      0x1b450           0xcc         204   
.text.TCPIP_HEAP_Create    0x1b51c           0xcc         204   
.text.DRV_PIC32CGMAC_Li    0x1b5e8           0xc8         200   
.text._Command_DNSAddre    0x1b6b0           0xc8         200   
.text.__mdiff              0x1b778           0xc8         200   
.rodata.__mprec_tens       0x1b840           0xc8         200   
.text._DRV_MIIM_StartOp    0x1b908           0xc4         196   
.text.TCPIP_UDP_OpenSer    0x1b9cc           0xc4         196   
.text.SYS_FS_GetDisk       0x1ba90           0xc4         196   
.text.TCPIP_TCP_Bind       0x1bb54           0xc0         192   
.text._Command_DefaultI    0x1bc14           0xc0         192   
.text.TCPIP_Helper_Stri    0x1bcd4           0xc0         192   
.rodata                    0x1bd94           0xc0         192  Read-only const 
.text._DRV_MIIM_ClientD    0x1be54           0xbc         188   
.text.TCPIP_IPV4_DeInit    0x1bf10           0xbc         188   
.text.TCPIP_STACK_KillS    0x1bfcc           0xbc         188   
.text.TCPIP_HTTP_Print_    0x1c088           0xbc         188   
.text._GetMaxSegSizeOpt    0x1c144           0xba         186   
.text.HardFault_Handler    0x1c1fe            0x2           2   
.text.CommandIperfStop     0x1c200           0xb8         184   
.text.TCPIP_IPERF_Initi    0x1c2b8           0xb8         184   
.text.TCPIP_IPV4_ArpHan    0x1c370           0xb8         184   
.text.wc_Md5Final          0x1c428           0xb8         184   
.text.__ssputs_r           0x1c4e0           0xb6         182   
.text.DebugMonitor_Hand    0x1c596            0x2           2   
.text._ARPSendIfPkt        0x1c598           0xb4         180   
.text.SYS_TIME_HwTimerC    0x1c64c           0xb4         180   
.text.SYS_TIME_Initiali    0x1c700           0xb4         180   
.text._malloc_r            0x1c7b4           0xb4         180   
.text.TCPIP_STACK_NetUp    0x1c868           0xb0         176   
.text.MPFS_Open            0x1c918           0xb0         176   
.text.SYS_TIME_TimerObj    0x1c9c8           0xb0         176   
.text._TcpDisconnect       0x1ca78           0xaa         170   
.text._TCPIP_HEAP_Mallo    0x1cb22           0xaa         170   
.text.Hash_DRBG_Reseed     0x1cbcc           0xaa         170   
.text.MemoryManagement_    0x1cc76            0x2           2   
.text._DRV_ETHPHY_Setup    0x1cc78           0xa8         168   
.text.DRV_MEMORY_Initia    0x1cd20           0xa8         168   
.text._TCP_SktSetSequen    0x1cdc8           0xa8         168   
.text.TCPIP_TCP_ServerO    0x1ce70           0xa8         168   
.text.vTaskSwitchContex    0x1cf18           0xa8         168   
.text.xTaskPriorityInhe    0x1cfc0           0xa8         168   
.text.TCPIP_HTTP_URLDec    0x1d068           0xa6         166   
.text.__lshift             0x1d10e           0xa6         166   
.text._DHCPProcessRecei    0x1d1b4           0xa4         164   
.text._DRV_ETHPHY_Setup    0x1d258           0xa2         162   
.text.TCPIP_Helper_IPv6    0x1d2fa           0xa2         162   
.text.wc_RNG_HealthTest    0x1d39c           0xa2         162   
.text.BusFault_Handler     0x1d43e            0x2           2   
.text._ARPDeleteResourc    0x1d440           0xa0         160   
.text._HTTP_CloseConnec    0x1d4e0           0xa0         160   
.text._UDPv4AllocateSkt    0x1d580           0xa0         160   
.text.TCPIP_UDP_Disconn    0x1d620           0xa0         160   
.text                      0x1d6c0           0xa0         160  App's exec code 
.text._DRV_PHY_SMITrans    0x1d760           0x9e         158   
.text.__d2b                0x1d7fe           0x9e         158   
.text.DRV_MIIM_Setup       0x1d89c           0x9c         156   
.text._Command_MACAddre    0x1d938           0x9c         156   
.text.MPFS_Mount           0x1d9d4           0x9c         156   
.text.MPFS_Stat            0x1da70           0x9c         156   
.text.SYS_FS_FileStat      0x1db0c           0x9c         156   
.text._free_r              0x1dba8           0x9c         156   
.text.__pow5mult           0x1dc44           0x9c         156   
.text._DRV_ETHPHY_Setup    0x1dce0           0x98         152   
.text.DRV_GMAC_Statisti    0x1dd78           0x98         152   
.text._DHCPEnable          0x1de10           0x98         152   
.text.TCPIP_DHCP_Reques    0x1dea8           0x98         152   
.text.TCPIP_DHCP_InfoGe    0x1df40           0x98         152   
.text.PORT_Initialize      0x1dfd8           0x98         152   
.text.DisplayNodeMsg       0x1e070           0x98         152   
.text.prvAddCurrentTask    0x1e108           0x98         152   
.text.DRV_PIC32CGMAC_Li    0x1e1a0           0x94         148   
.text.TCPIP_ARP_IsResol    0x1e234           0x94         148   
.text.ascii_to_u32s        0x1e2c8           0x94         148   
.text.SYS_Tasks            0x1e35c           0x94         148   
.text.TCPIP_SNMP_Record    0x1e3f0           0x94         148   
.text.TCPIP_HTTP_Print_    0x1e484           0x92         146   
.text.DRV_MIIM_Operatio    0x1e516           0x90         144   
.text.UsageFault_Handle    0x1e5a6            0x2           2   
.text._DHCPCleanup         0x1e5a8           0x90         144   
.text._TCPIPStackModule    0x1e638           0x90         144   
.text.SYS_FS_Initialize    0x1e6c8           0x90         144   
.text.SYS_TIME_AddToLis    0x1e758           0x90         144   
.text.SYS_Initialize       0x1e7e8           0x90         144   
.text.TCPIP_SNMP_FreeMe    0x1e878           0x8c         140   
.text._DHCPClientClose     0x1e904           0x8c         140   
.text.TCPIP_STACK_Initi    0x1e990           0x8c         140   
.text._UDPsetPacketInfo    0x1ea1c           0x8c         140   
.text._Command_GatewayA    0x1eaa8           0x88         136   
.text._DHCPPacketFilter    0x1eb30           0x88         136   
.text._DHCPSetLeaseTime    0x1ebb8           0x88         136   
.text._OAHashFindBkt       0x1ec40           0x88         136   
.text.SYS_CMDIO_ADD        0x1ecc8           0x88         136   
.rodata.MPFSFunctions      0x1ed50           0x88         136   
.text.Reset_Handler        0x1edd8           0x88         136   
.text.__pic32c_data_ini    0x1ee60           0x88         136   
.text.TCPIP_IPV4_MacPac    0x1eee8           0x84         132   
.text.TCPIP_STACK_NetAd    0x1ef6c           0x84         132   
.rodata.TCPIP_STACK_MOD    0x1eff0           0x84         132   
.text._TCPIP_PKT_Packet    0x1f074           0x84         132   
.text.NVIC_Initialize      0x1f0f8           0x84         132   
.text.SYS_FS_FileRead      0x1f17c           0x84         132   
.text.DRV_PIC32CGMAC_Li    0x1f200           0x82         130   
.text._DNS_ValidateIf      0x1f282           0x82         130   
.text.TCPIP_Helper_Pack    0x1f304           0x82         130   
.text.Dummy_App_Func       0x1f386            0x2           2   
.text.DRV_ETHPHY_Vendor    0x1f388           0x80         128   
.text.DRV_ETHPHY_Vendor    0x1f408           0x80         128   
.text.SERCOM1_USART_Ini    0x1f488           0x80         128   
.text.SendCommandPrint     0x1f508           0x80         128   
.text.MPFS_Read            0x1f588           0x80         128   
.text.xTaskPriorityDisi    0x1f608           0x80         128   
.text.vTaskPriorityDisi    0x1f688           0x80         128   
.rodata.outputA_data       0x1f708           0x80         128   
.rodata.outputB_data       0x1f788           0x80         128   
.text.TCPIP_HTTP_GetExe    0x1f808           0x80         128   
.text.prvUnlockQueue       0x1f888           0x7e         126   
.text.__multadd            0x1f906           0x7e         126   
.text.DRV_ETHPHY_Vendor    0x1f984           0x7c         124   
.text.DRV_PIC32CGMAC_Li    0x1fa00           0x7c         124   
.text.DRV_MEMORY_Comman    0x1fa7c           0x7c         124   
.text.SERCOM1_USART_Rea    0x1faf8           0x7c         124   
.text.SYS_FS_FileClose     0x1fb74           0x7c         124   
.text.SYS_FS_FileTell      0x1fbf0           0x7c         124   
.text.SYS_FS_FileSize      0x1fc6c           0x7c         124   
.text.SYS_FS_DirClose      0x1fce8           0x7c         124   
.text.TCPIP_TCP_SocketI    0x1fd64           0x7a         122   
.text._DRV_ETHPHY_Setup    0x1fdde           0x78         120   
.text.vPortFree            0x1fe56            0x2           2   
.text.DRV_PIC32CGMAC_Li    0x1fe58           0x78         120   
.text.DRV_MIIM_Open        0x1fed0           0x78         120   
.text.DRV_MIIM_Initiali    0x1ff48           0x78         120   
.text.TCPIP_SNMP_Deinit    0x1ffc0           0x78         120   
.text._HTTP_Cleanup        0x20038           0x78         120   
.rodata                    0x200b0           0x78         120  Read-only const 
.text.TCPIP_Helper_Pack    0x20128           0x78         120   
.text._DRV_GMAC_LinkSta    0x201a0           0x76         118   
.text.prvCopyDataToQueu    0x20216           0x76         118   
.text.DRV_GMAC_Process     0x2028c           0x74         116   
.text._ARPUpdateEntry      0x20300           0x74         116   
.text.TCPIP_ARP_EntryRe    0x20374           0x74         116   
.text.GenericTxDone        0x203e8           0x74         116   
.text.TCPIP_DHCP_Connec    0x2045c           0x74         116   
.text.xTaskRemoveFromEv    0x204d0           0x74         116   
.text.wc_GenerateSeed      0x20544           0x74         116   
.text.TCPIP_HTTP_Print_    0x205b8           0x74         116   
.text._MacTxPendingPack    0x2062c           0x72         114   
.text._TCPIP_StackSyncF    0x2069e           0x72         114   
.text.TCPIP_PKT_DataSeg    0x20710           0x72         114   
.text.Hash_DRBG_Instant    0x20782           0x72         114   
.text._DRV_ETHPHY_NegCo    0x207f4           0x70         112   
.text.DRV_GMAC_EventAck    0x20864           0x70         112   
.text.DRV_GMAC_Tasks_IS    0x208d4           0x70         112   
.text.DRV_MEMORY_Driver    0x20944           0x70         112   
.text.TCPIP_SNMP_OIDStr    0x209b4           0x70         112   
.text.TCPIP_SNMP_VarDat    0x20a24           0x70         112   
.text.TCPIP_IPV4_Cleanu    0x20a94           0x70         112   
.text.TCPIP_Helper_Calc    0x20b04           0x70         112   
.text.xQueueGenericRese    0x20b74           0x70         112   
.text.prvIdleTask          0x20be4           0x70         112   
.text.DRV_PIC32CGMAC_Li    0x20c54           0x6c         108   
.text._AllocateRxPacket    0x20cc0           0x6c         108   
.text.TCPIP_ICMP_Initia    0x20d2c           0x6c         108   
.text._TcpCleanup          0x20d98           0x6c         108   
.text._Command_BIOSName    0x20e04           0x6c         108   
.text.TCPIP_DNS_Disable    0x20e70           0x6c         108   
.text.SYS_CMD_ADDGRP       0x20edc           0x6c         108   
.text.SYS_CONSOLE_Print    0x20f48           0x6c         108   
.text.pvPortMalloc         0x20fb4           0x6c         108   
.text.snprintf             0x21020           0x6c         108   
.text.DRV_MEMORY_Handle    0x2108c           0x6a         106   
.text.wc_CryptoCb_Sha25    0x210f6           0x6a         106   
.text.DRV_ETHPHY_Open      0x21160           0x68         104   
.text.TCPIP_SNMP_Length    0x211c8           0x68         104   
.text._TcpSwapHeader       0x21230           0x68         104   
.text._DNS_AddSelection    0x21298           0x68         104   
.text.TCPIP_OAHASH_Entr    0x21300           0x68         104   
.text._TCPIPStackInsert    0x21368           0x68         104   
.text.SYS_CONSOLE_Initi    0x213d0           0x68         104   
.text.SYS_FS_FileEOF       0x21438           0x68         104   
.text.wc_RNG_TestSeed      0x214a0           0x68         104   
.text.rand                 0x21508           0x68         104   
.text._Balloc              0x21570           0x68         104   
.text._DRV_ETHPHY_NegRe    0x215d8           0x64         100   
.text._DRV_ETHPHY_Reset    0x2163c           0x64         100   
.text.DRV_GMAC_Register    0x216a0           0x64         100   
.text._MacRxPacketAck      0x21704           0x64         100   
.text.DRV_MEMORY_Close     0x21768           0x64         100   
.text.TCPIP_SNMP_OIDIsV    0x217cc           0x64         100   
.text.TCPIP_OAHASH_Entr    0x21830           0x64         100   
.text.TCPIP_STACK_Bring    0x21894           0x64         100   
.text.TCPIP_UDP_SocketI    0x218f8           0x64         100   
.text.MPFS_DirOpen         0x2195c           0x64         100   
.text.xPortPendSVHandle    0x219c0           0x64         100   
.text.xQueueGiveFromISR    0x21a24           0x64         100   
.text.vTaskStartSchedul    0x21a88           0x64         100   
.text.wc_InitSha256_ex     0x21aec           0x64         100   
.text.TCPIP_ARP_EntryGe    0x21b50           0x62          98   
.text.DRV_MEMORY_Handle    0x21bb2           0x60          96   
.text.wc_Sha256Free        0x21c12            0x2           2   
.text._PingStop            0x21c14           0x60          96   
.text.Ipv4FilterSetActi    0x21c74           0x60          96   
.text._DHCPOptionProces    0x21cd4           0x60          96   
.text.TCPIP_DHCP_Disabl    0x21d34           0x60          96   
.text.TCPIP_DNS_ClientD    0x21d94           0x60          96   
.text.TCPIP_DNS_GetIPAd    0x21df4           0x60          96   
.text._TCPIP_SelectDefa    0x21e54           0x60          96   
.text.__lo0bits            0x21eb4           0x60          96   
.text._DRV_ETHPHY_NegCo    0x21f14           0x5c          92   
.rodata.DRV_ETHPHY_OBJE    0x21f70           0x5c          92   
.text._DRV_GMAC_LinkSta    0x21fcc           0x5c          92   
.text.uitoa                0x22028           0x5c          92   
.text._TcpClientSocketC    0x22084           0x5c          92   
.text.TCPIP_ARP_Probe      0x220e0           0x5c          92   
.text.TCPIP_DHCP_Enable    0x2213c           0x5c          92   
.text._TCPIPStackIpAddF    0x22198           0x5c          92   
.text.SYS_FS_MEDIA_MANA    0x221f4           0x5c          92   
.text.SYS_TIME_RemoveFr    0x22250           0x5c          92   
.text.xTaskCheckForTime    0x222ac           0x5c          92   
.text.wc_CryptoCb_Rando    0x22308           0x5c          92   
.text._vsnprintf_r         0x22364           0x5c          92   
.text.DRV_PIC32CGMAC_Li    0x223c0           0x5a          90   
.text.TCPIP_UDP_BcastIP    0x2241a           0x5a          90   
.text.DRV_ETHPHY_Initia    0x22474           0x58          88   
.text.DRV_GMAC_RxFilter    0x224cc           0x58          88   
.rodata.DRV_GMAC_Object    0x22524           0x58          88   
.text._DNS_Enable          0x2257c           0x58          88   
.text._TCPIPStackModule    0x225d4           0x58          88   
.text.OSAL_SEM_Create      0x2262c           0x58          88   
.text.MPFSGetArray         0x22684           0x58          88   
.text.SYS_TIME_TimerAdd    0x226dc           0x58          88   
.text.SYS_TIME_TimerSta    0x22734           0x58          88   
.text.SYS_TIME_Callback    0x2278c           0x58          88   
.rodata.TCPIP_STACK_MOD    0x227e4           0x58          88   
.text.DRV_MIIM_Operatio    0x2283c           0x56          86   
.text._DRV_PHY_SMITrans    0x22892           0x54          84   
.text.APP_Tasks            0x228e6            0x2           2   
.text._ARPNotifyClients    0x228e8           0x54          84   
.text.IperfSetState        0x2293c           0x54          84   
.text.TCPIP_IPERF_Deini    0x22990           0x54          84   
.text.IPv4RegisterFilte    0x229e4           0x54          84   
.text._DHCPOptionWriteS    0x22a38           0x54          84   
.text._DNS_DeleteHash      0x22a8c           0x54          84   
.text.TCPIP_DNS_RemoveA    0x22ae0           0x54          84   
.text.TCPIP_STACK_Strin    0x22b34           0x54          84   
.text._TCPIPStackAnyNet    0x22b88           0x54          84   
.text._SYS_FS_MEDIA_MAN    0x22bdc           0x54          84   
.text.SYS_TIME_Callback    0x22c30           0x54          84   
.text.strtok               0x22c84           0x54          84   
.text._TcpAbort            0x22cd8           0x52          82   
.text.TCPIP_TCP_RemoteB    0x22d2a           0x52          82   
.text.__strtok_r           0x22d7c           0x52          82   
.text.TCPIP_HTTP_Print_    0x22dce            0x2           2   
.text.DRV_ETHPHY_LinkSt    0x22dd0           0x50          80   
.text.DRV_GMAC_Paramete    0x22e20           0x50          80   
.rodata                    0x22e70           0xa0         160  Read-only const 
.text._DHCPOptionWriteI    0x22f10           0x50          80   
.text.TCPIP_DHCP_Renew     0x22f60           0x50          80   
.text.TCPIP_DNS_OAHASH_    0x22fb0           0x50          80   
.text.TCPIP_Helper_Form    0x23000           0x50          80   
.text.SYS_CONSOLE_Statu    0x23050           0x50          80   
.text.MPFSGetFileRecord    0x230a0           0x50          80   
.text.SYS_FS_FileNameGe    0x230f0           0x50          80   
.rodata                    0x23140           0x50          80  Read-only const 
.text                      0x23190           0x50          80  App's exec code 
.text._DRV_ETHPHY_Setup    0x231e0           0x4e          78   
.text._DRV_MIIM_GetClie    0x2322e           0x4e          78   
.text.TCPIP_HTTP_PostVa    0x2327c           0x4e          78   
.text.TCPIP_IPV4_Select    0x232ca           0x4e          78   
.text.TCPIP_UDP_PutIsRe    0x23318           0x4e          78   
.text._DRV_ETHPHY_LinkS    0x23366           0x4c          76   
.text.TCPIP_HTTP_Print_    0x233b2            0x2           2   
.text.stricmp              0x233b4           0x4c          76   
.text.TCPIP_SNMP_WriteC    0x23400           0x4c          76   
.text.TCPIP_SNMP_ReadCo    0x2344c           0x4c          76   
.text._TcpSocketKill       0x23498           0x4c          76   
.text.ResetIperfCounter    0x234e4           0x4c          76   
.text._DHCPSetRunFail      0x23530           0x4c          76   
.text.TCPIP_Helper_IPAd    0x2357c           0x4c          76   
.text._TCPIP_MacEventCB    0x235c8           0x4c          76   
.text._UDPClose            0x23614           0x4c          76   
.text.SYS_FS_MEDIA_MANA    0x23660           0x4c          76   
.text._realloc_r           0x236ac           0x4c          76   
.text.TCPIP_IPV4_Select    0x236f8           0x4a          74   
.text.TCPIP_UDP_ArrayPu    0x23742           0x4a          74   
.text.TCPIP_UDP_Destina    0x2378c           0x4a          74   
.text.TCPIP_HTTP_Print_    0x237d6            0x2           2   
.text.DRV_ETHPHY_Negoti    0x237d8           0x48          72   
.text.DRV_GMAC_LinkChec    0x23820           0x48          72   
.rodata.default_shell_o    0x23868           0x48          72   
.text._TCPSendWinIncUpd    0x238b0           0x48          72   
.text.TCPIP_TCP_Destina    0x238f8           0x48          72   
.text.TCPIP_ARP_Deiniti    0x23940           0x48          72   
.rodata._DHCPOptProcTbl    0x23988           0x48          72   
.text.TCPIP_STACK_MACId    0x239d0           0x48          72   
.text.TCPIP_STACK_Match    0x23a18           0x48          72   
.text._TCPIPStackSignal    0x23a60           0x48          72   
.rodata.keySeqTbl          0x23aa8           0x48          72   
.text.xPortStartSchedul    0x23af0           0x48          72   
.text.wc_CryptoCb_FindD    0x23b38           0x48          72   
.text.__libc_init_array    0x23b80           0x48          72   
.text.srand                0x23bc8           0x48          72   
.text._DRV_GMAC_LinkSta    0x23c10           0x46          70   
.text.Shell_GetCwd         0x23c56           0x46          70   
.text.Shell_GetRoot        0x23c9c           0x46          70   
.text.TCPIP_TCP_FifoTxF    0x23ce2           0x46          70   
.text.TCPIP_ARP_Resolve    0x23d28           0x46          70   
.text._TCPIP_HEAP_Delet    0x23d6e           0x46          70   
.text.TCPIP_Helper_Sing    0x23db4           0x46          70   
.text.TCPIP_Notificatio    0x23dfa           0x46          70   
.text.TCPIP_UDP_SignalH    0x23e40           0x46          70   
.text.TCPIP_HTTP_Print_    0x23e86            0x2           2   
.text.DRV_GMAC_ConfigGe    0x23e88           0x44          68   
.text._MacTxDiscardQueu    0x23ecc           0x44          68   
.text.Helper_SingleList    0x23f10           0x44          68   
.text._SNMP_Trap_Initia    0x23f54           0x44          68   
.text.TCPIP_SNMP_GetArr    0x23f98           0x44          68   
.text.TCPIP_SNMP_WriteC    0x23fdc           0x44          68   
.text.TCPIP_SNMP_ReadCo    0x24020           0x44          68   
.text.TCPIP_TCP_SignalH    0x24064           0x44          68   
.text._MiimClose           0x240a8           0x44          68   
.text.TCPIP_Helper_MACA    0x240ec           0x44          68   
.text.TCPIP_STACK_NetBy    0x24130           0x44          68   
.text.TCPIP_STACK_Addre    0x24174           0x44          68   
.text._TCPIPStackModule    0x241b8           0x44          68   
.rodata                    0x241fc           0x44          68  Read-only const 
.text.MPFS_Seek            0x24240           0x44          68   
.text.SYS_INT_SourceDis    0x24284           0x44          68   
.text.TCPIP_SNMP_NextIn    0x242c8           0x44          68   
.text.sprintf              0x2430c           0x44          68   
.text._DRV_GMAC_LinkSta    0x24350           0x42          66   
.text.DRV_MEMORY_Handle    0x24392           0x42          66   
.text._TcpSocketSetSour    0x243d4           0x42          66   
.text.TCPIP_HTTP_ArgGet    0x24416           0x42          66   
.text._UDPSetNewRxPacke    0x24458           0x42          66   
.text.TCPIP_UDP_SourceI    0x2449a           0x42          66   
.text                      0x244dc           0x40          64  App's exec code 
.text.DRV_ETHPHY_Reset     0x2451c           0x40          64   
.text.DRV_ETHPHY_Negoti    0x2455c           0x40          64   
.text.DRV_ETHPHY_Restar    0x2459c           0x40          64   
.text._DRV_ETHPHY_Reset    0x245dc           0x40          64   
.rodata.DRV_MIIM_OBJECT    0x2461c           0x40          64   
.text._TCP_PortIsAvaila    0x2465c           0x40          64   
.text._MiimOpen            0x2469c           0x40          64   
.rodata.HTTPResponseHea    0x246dc           0x40          64   
.text._DHCPSetBoundStat    0x2471c           0x40          64   
.text.TCPIP_DHCP_Deinit    0x2475c           0x40          64   
.text.TCPIP_DNS_RemoveE    0x2479c           0x40          64   
.rodata                    0x247dc           0x40          64  Read-only const 
.text.TCPIP_STACK_NetHa    0x2481c           0x40          64   
.text._TCPIP_PKT_Packet    0x2485c           0x40          64   
.text._UDPIsAvailablePo    0x2489c           0x40          64   
.text.TCPIP_UDP_SocketN    0x248dc           0x40          64   
.text.NVMCTRL_PageWrite    0x2491c           0x40          64   
.text.TC0_TimerInitiali    0x2495c           0x40          64   
.text.SYS_FS_MEDIA_MANA    0x2499c           0x40          64   
.text.TCPIP_SNMP_ExactI    0x249dc           0x40          64   
.text                      0x24a1c           0x40          64  App's exec code 
.text.__hi0bits            0x24a5c           0x40          64   
.text._TCPSetHalfFlushF    0x24a9c           0x3e          62   
.text._DHCPOptionProces    0x24ada           0x3e          62   
.text.TCPIP_STACK_Addre    0x24b18           0x3e          62   
.text.TCPIP_UDP_TxOffse    0x24b56           0x3e          62   
.text._DRV_ETHPHY_NegCo    0x24b94           0x3c          60   
.text.DRV_MIIM_Register    0x24bd0           0x3c          60   
.text.hexatob              0x24c0c           0x3c          60   
.text.TCPIP_TCP_Close      0x24c48           0x3c          60   
.text._DHCPOptionProces    0x24c84           0x3c          60   
.text._DHCPNotifyClient    0x24cc0           0x3c          60   
.text.TCPIP_DHCP_IsEnab    0x24cfc           0x3c          60   
.text._TCPIPStackModule    0x24d38           0x3c          60   
.text._TCPIP_PKT_Packet    0x24d74           0x3c          60   
.text.TCPIP_UDP_OpenCli    0x24db0           0x3c          60   
.text.OSAL_SEM_PostISR     0x24dec           0x3c          60   
.text.Console_UART_Read    0x24e28           0x3c          60   
.text.Console_UART_Writ    0x24e64           0x3c          60   
.text.SYS_TIME_GetTimer    0x24ea0           0x3c          60   
.text.SYS_TIME_Resource    0x24edc           0x3c          60   
.text.SYS_TIME_TimerDes    0x24f18           0x3c          60   
.text.wc_InitMd5_ex        0x24f54           0x3c          60   
.text._DRV_ETHPHY_Setup    0x24f90           0x3a          58   
.text._DRV_ETHPHY_NegRe    0x24fca           0x3a          58   
.text._DRV_MIIM_Release    0x25004           0x3a          58   
.text.DRV_MIIM_Deinitia    0x2503e           0x3a          58   
.text.Shell_FileOpen       0x25078           0x3a          58   
.text.Shell_FileStat       0x250b2           0x3a          58   
.text.TCPIP_TCP_SignalH    0x250ec           0x3a          58   
.text._TCPIP_HEAP_MaxSi    0x25126           0x3a          58   
.text._DHCPOptionProces    0x25160           0x3a          58   
.text.TCPIP_STACK_NetAl    0x2519a           0x3a          58   
.text.SNMPGetTimeStamp     0x251d4           0x3a          58   
.text.TCPIP_HTTP_Print_    0x2520e           0x3a          58   
.text.TCPIP_HTTP_Print_    0x25248           0x3a          58   
.text.__malloc_lock        0x25282            0x2           2   
.text.DRV_ETHPHY_HWConf    0x25284           0x38          56   
.text._DRV_ETHPHY_Setup    0x252bc           0x38          56   
.text.DRV_GMAC_Open        0x252f4           0x38          56   
.text.DRV_PIC32CGMAC_Li    0x2532c           0x38          56   
.text.DRV_MEMORY_Geomet    0x25364           0x38          56   
.text.DRV_MEMORY_Addres    0x2539c           0x38          56   
.text.TCPIP_SNMP_Struct    0x253d4           0x38          56   
.text.TCPIP_SNMP_PDUPro    0x2540c           0x38          56   
.text._TCP_EphemeralPor    0x25444           0x38          56   
.text.TCPIP_Commands_De    0x2547c           0x38          56   
.rodata.httpContentType    0x254b4           0x38          56   
.rodata.httpFileExtensi    0x254ec           0x38          56   
.text.TCPIP_DNS_ClientI    0x25524           0x38          56   
.text.TCPIP_PKT_PacketM    0x2555c           0x38          56   
.text._UDPAllocateEphem    0x25594           0x38          56   
.text.MPFS_EOF             0x255cc           0x38          56   
.text.SYS_TIME_Resource    0x25604           0x38          56   
.rodata.TCPIP_HOSTS_CON    0x2563c           0x38          56   
.text._DRV_ETHPHY_NegCo    0x25674           0x36          54   
.text.Shell_FileDelete     0x256aa           0x36          54   
.text.Shell_DirMake        0x256e0           0x36          54   
.text.Shell_DirOpen        0x25716           0x36          54   
.text._TCPSetSourceAddr    0x2574c           0x36          54   
.text._DNS_NetIsValid      0x25782           0x36          54   
.text._TCPIPStackSetCon    0x257b8           0x36          54   
.text.__malloc_unlock      0x257ee            0x2           2   
.text._DRV_ETHPHY_Setup    0x257f0           0x34          52   
.text.DRV_PIC32CGMAC_Li    0x25824           0x34          52   
.text._SNMP_BuildIntege    0x25858           0x34          52   
.text._TCP_SktFlagsGet     0x2588c           0x34          52   
.text._ARPSetEntry         0x258c0           0x34          52   
.text.TCPIP_ARP_Handler    0x258f4           0x34          52   
.text.TCPIP_HTTP_Deinit    0x25928           0x34          52   
.rodata                    0x2595c           0x34          52  Read-only const 
.text._DNSGetData          0x25990           0x34          52   
.text.TCPIP_STACK_NetDo    0x259c4           0x34          52   
.text.TCPIP_UDP_RxOffse    0x259f8           0x34          52   
.text.CommandQuit          0x25a2c           0x34          52   
.text.Console_UART_Writ    0x25a60           0x34          52   
.text.Console_UART_Writ    0x25a94           0x34          52   
.text.Console_UART_Read    0x25ac8           0x34          52   
.text.Console_UART_Read    0x25afc           0x34          52   
.text.SYS_CONSOLE_Read     0x25b30           0x34          52   
.text.SYS_CONSOLE_ReadC    0x25b64           0x34          52   
.text.SYS_CONSOLE_Write    0x25b98           0x34          52   
.text.MPFS_Close           0x25bcc           0x34          52   
.text.SYS_FS_MEDIA_MANA    0x25c00           0x34          52   
.rodata.tcpipMACPIC32CI    0x25c34           0x34          52   
.text.vListInsert          0x25c68           0x34          52   
.text.vTaskDelay           0x25c9c           0x34          52   
.text.Hash_DRBG_Uninsta    0x25cd0           0x34          52   
.text.TCPIP_HTTP_Print_    0x25d04           0x34          52   
.text.TCPIP_HTTP_Print_    0x25d38           0x34          52   
.text.TCPIP_HTTP_Print_    0x25d6c           0x34          52   
.text.TCPIP_HTTP_Print_    0x25da0           0x34          52   
.text.TCPIP_HTTP_Print_    0x25dd4           0x34          52   
.text.TCPIP_HTTP_Print_    0x25e08           0x34          52   
.text.TCPIP_HTTP_Print_    0x25e3c           0x34          52   
.text.TCPIP_HTTP_Print_    0x25e70           0x34          52   
.text.TCPIP_HTTP_Print_    0x25ea4           0x34          52   
.text.TCPIP_HTTP_Print_    0x25ed8           0x34          52   
.text.memmove              0x25f0c           0x34          52   
.text.__mcmp               0x25f40           0x34          52   
.text._DRV_PHY_SMIReadS    0x25f74           0x32          50   
.text._DRV_PHY_SMIWrite    0x25fa6           0x32          50   
.text._DRV_ETHPHY_Setup    0x25fd8           0x32          50   
.text.DRV_PIC32CGMAC_Li    0x2600a           0x32          50   
.text.TCPIP_STACK_NetBi    0x2603c           0x32          50   
.text._DRV_PHY_NegCompl    0x2606e           0x30          48   
.text._DRV_ETHPHY_Setup    0x260a0           0x30          48   
.text.DRV_GMAC_Status      0x260d0           0x30          48   
.text.DRV_PIC32CGMAC_Li    0x26100           0x30          48   
.text.GMAC_InterruptHan    0x26130           0x30          48   
.rodata.memoryMediaFunc    0x26160           0x30          48   
.text.TCPIP_ICMP_Cleanu    0x26190           0x30          48   
.text._TCPSocketTxFreeS    0x261c0           0x30          48   
.text.TCPIP_ARP_HashEnt    0x261f0           0x30          48   
.rodata.iperfCmdTbl        0x26220           0x30          48   
.text.TCPIP_IPV4_CheckP    0x26250           0x30          48   
.text.fnv_32_hash          0x26280           0x30          48   
.text.TCPIP_OAHASH_Entr    0x262b0           0x30          48   
.text.TCPIP_Helper_Stri    0x262e0           0x30          48   
.text.TCPIP_Helper_Prot    0x26310           0x30          48   
.text.TCPIP_Helper_Prot    0x26340           0x30          48   
.text.TCPIP_STACK_Initi    0x26370           0x30          48   
.text.TCPIP_PKT_Initial    0x263a0           0x30          48   
.text.TCPIP_UDP_Close      0x263d0           0x30          48   
.text.SendCommandCharac    0x26400           0x30          48   
.text._keyEndProcess       0x26430           0x30          48   
.text._keyHomeProcess      0x26460           0x30          48   
.text.SYS_CONSOLE_Messa    0x26490           0x30          48   
.text.MPFS_Unmount         0x264c0           0x30          48   
.text.SYS_FS_MEDIA_MANA    0x264f0           0x30          48   
.text.SYS_TIME_UpdateTi    0x26520           0x30          48   
.text.xQueueGenericCrea    0x26550           0x30          48   
.text.wc_CryptoCb_FindD    0x26580           0x30          48   
.rodata.seedA_data         0x265b0           0x30          48   
.rodata.seedB_data         0x265e0           0x30          48   
.text.TCPIP_HTTP_Print_    0x26610           0x30          48   
.text.TCPIP_HTTP_Print_    0x26640           0x30          48   
.text                      0x26670           0x30          48  App's exec code 
.text._XtlEventsTcp2Eth    0x266a0           0x2e          46   
.text._DRV_MIIM_GetObje    0x266ce           0x2e          46   
.text.DRV_MIIM_Deregist    0x266fc           0x2e          46   
.text.TCPIP_TCP_Connect    0x2672a           0x2e          46   
.text._DHCPOptionProces    0x26758           0x2e          46   
.text._DHCPOptionProces    0x26786           0x2e          46   
.text._DHCPOptionProces    0x267b4           0x2e          46   
.text._DHCPOptionClient    0x267e2           0x2e          46   
.text._DHCPSetTimeout      0x26810           0x2e          46   
.text._DNS_CleanCacheEn    0x2683e           0x2e          46   
.text._DNSClientCleanup    0x2686c           0x2e          46   
.text.TCPIP_STACK_DNSSe    0x2689a           0x2e          46   
.text._TxSktGetLockedV4    0x268c8           0x2e          46   
.text.wc_CryptoCb_Regis    0x268f6           0x2e          46   
.text.strstr               0x26924           0x2e          46   
.text._Bfree               0x26952           0x2e          46   
.text.DRV_ETHPHY_Close     0x26980           0x2c          44   
.text.DRV_ETHPHY_Vendor    0x269ac           0x2c          44   
.text.DRV_ETHPHY_Reinit    0x269d8           0x2c          44   
.text._DRV_ETHPHY_LinkS    0x26a04           0x2c          44   
.text.DRV_MEMORY_Transf    0x26a30           0x2c          44   
.text.DRV_MEMORY_IsAtta    0x26a5c           0x2c          44   
.text._ARPRemoveEntry      0x26a88           0x2c          44   
.text.TCPIP_Helper_Prot    0x26ab4           0x2c          44   
.text.TCPIP_STACK_IsBca    0x26ae0           0x2c          44   
.text._TCPIPStackModule    0x26b0c           0x2c          44   
.text._TCPIP_PKT_Socket    0x26b38           0x2c          44   
.text._UDPFreeTxResourc    0x26b64           0x2c          44   
.text.TC0_TimerInterrup    0x26b90           0x2c          44   
.rodata.sysConsoleUARTD    0x26bbc           0x2c          44   
.text.MPFS_GetPosition     0x26be8           0x2c          44   
.text.SYS_TIME_Counter6    0x26c14           0x2c          44   
.text.TCPIP_STACK_Init     0x26c40           0x2c          44   
.text.pxPortInitialiseS    0x26c6c           0x2c          44   
.text.xPortSysTickHandl    0x26c98           0x2c          44   
.text.prvResetNextTaskU    0x26cc4           0x2c          44   
.text.wc_RNG_HealthTest    0x26cf0           0x2c          44   
.text._sbrk                0x26d1c           0x2c          44   
.text                      0x26d48           0x2c          44  App's exec code 
.text._DRV_GMAC_LinkSta    0x26d74           0x2a          42   
.text.DRV_NVMCTRL_Geome    0x26d9e           0x2a          42   
.text.TCPIP_TCP_WasRese    0x26dc8           0x2a          42   
.text.TCPIP_DNS_OAHASH_    0x26df2           0x2a          42   
.text.TCPIP_Helper_Prot    0x26e1c           0x2a          42   
.text.TCPIP_Helper_Prot    0x26e46           0x2a          42   
.text.TCPIP_Notificatio    0x26e70           0x2a          42   
.text.DRV_ETHPHY_Tasks     0x26e9c           0x28          40   
.text.DRV_ETHPHY_PhyAdd    0x26ec4           0x28          40   
.text._DRV_PHY_SetOperD    0x26eec           0x28          40   
.text.DRV_ETHPHY_Client    0x26f14           0x28          40   
.text.DRV_PIC32CGMAC_Li    0x26f3c           0x28          40   
.text.DRV_PIC32CGMAC_Li    0x26f64           0x28          40   
.text.DRV_MIIM_Status      0x26f8c           0x28          40   
.text.TCPIP_ICMP_Deinit    0x26fb4           0x28          40   
.text._TcpSocketChk        0x26fdc           0x28          40   
.text._TcpFlush            0x27004           0x28          40   
.text._ARPRemoveCacheEn    0x2702c           0x28          40   
.text.Ipv4DeRegisterFil    0x27054           0x28          40   
.text._DHCPOptionWriteP    0x2707c           0x28          40   
.text.TCPIP_DHCP_IsActi    0x270a4           0x28          40   
.text._TCPIP_STACK_Tick    0x270cc           0x28          40   
.text._TCPIPSignalEntry    0x270f4           0x28          40   
.text.TCPIP_STACK_Index    0x2711c           0x28          40   
.text.TCPIP_STACK_NetMA    0x27144           0x28          40   
.text.TCPIP_STACK_NetMA    0x2716c           0x28          40   
.text.TCPIP_STACK_NetIs    0x27194           0x28          40   
.text._TCPIPStackSignal    0x271bc           0x28          40   
.text._UDPSocketDcpt       0x271e4           0x28          40   
.text._UDPUpdatePacketL    0x2720c           0x28          40   
.text.TCPIP_UDP_GetIsRe    0x27234           0x28          40   
.text.TC0_Timer16bitCou    0x2725c           0x28          40   
.text.SYS_CMD_Initializ    0x27284           0x28          40   
.text.Console_UART_Init    0x272ac           0x28          40   
.text.SYS_FS_MEDIA_MANA    0x272d4           0x28          40   
.rodata                    0x272fc           0x28          40  Read-only const 
.text.SYS_TMR_TickCount    0x27324           0x28          40   
.text.SYS_TMR_TickCount    0x2734c           0x28          40   
.text.SYS_TMR_TickCount    0x27374           0x28          40   
.rodata.drvMemory0InitD    0x2739c           0x28          40   
.rodata.tcpipARPInitDat    0x273c4           0x28          40   
.text.prvPortStartFirst    0x273ec           0x28          40   
.text.vPortSetupTimerIn    0x27414           0x28          40   
.text.TCPIP_HTTP_Print_    0x2743c           0x28          40   
.text.DRV_PIC32CGMAC_Li    0x27464            0x4           4   
.rodata.__mprec_bigtens    0x27468           0x28          40   
.text._DRV_ETHPHY_NegRe    0x27490           0x26          38   
.text._DRV_ETHPHY_NegRe    0x274b6           0x26          38   
.text.TCPIP_SNMP_TrapSp    0x274dc           0x26          38   
.text.TCPIP_TCP_IsConne    0x27502           0x26          38   
.text.TCPIP_TCP_Flush      0x27528           0x26          38   
.text.TCPIP_TCP_Discard    0x2754e           0x26          38   
.text.TCPIP_OAHASH_Init    0x27574           0x26          38   
.text.TCPIP_STACK_DNSSe    0x2759a           0x26          38   
.text.TCPIP_STACK_Addre    0x275c0           0x26          38   
.text.SYS_RANDOM_Crypto    0x275e6           0x26          38   
.text.strncpy              0x2760c           0x26          38   
.text.DRV_ETHPHY_Vendor    0x27634           0x24          36   
.rodata                    0x27658           0x24          36  Read-only const 
.text.DRV_PIC32CGMAC_Li    0x2767c           0x24          36   
.text.Shell_Delete         0x276a0           0x24          36   
.text.TCPIP_SNMP_GetDat    0x276c4           0x24          36   
.text.TCPIP_SNMP_DataIs    0x276e8           0x24          36   
.text.TCPIP_SNMP_DataTy    0x2770c           0x24          36   
.text._ICMPAllocateTxPa    0x27730           0x24          36   
.text.TCPIP_ICMP_EchoRe    0x27754           0x24          36   
.text._ARPAllocateTxPac    0x27778           0x24          36   
.text.TCPIP_ARP_Handler    0x2779c           0x24          36   
.rodata._tcpip_heap_obj    0x277c0           0x24          36   
.text._DHCPOptionProces    0x277e4           0x24          36   
.text._DHCPOptionWriteM    0x27808           0x24          36   
.text.TCPIP_STACK_IPAdd    0x2782c           0x24          36   
.text._UDPFreeRxQueue      0x27850           0x24          36   
.rodata._builtinCmdTbl     0x27874           0x24          36   
.text.MPFSIsHandleValid    0x27898           0x24          36   
.text.MPFS_DirClose        0x278bc           0x24          36   
.text.SYS_RESET_Softwar    0x278e0           0x24          36   
.text.SYS_RANDOM_Crypto    0x27904           0x24          36   
.rodata.drvMemory0Devic    0x27928           0x24          36   
.text.DRV_PIC32CGMAC_Li    0x2794c            0x4           4   
.text.vPortSVCHandler      0x27950           0x24          36   
.text.uxListRemove         0x27974           0x24          36   
.text.xQueueCreateMutex    0x27998           0x24          36   
.text.TCPIP_HTTP_Print_    0x279bc           0x24          36   
.text.strncmp              0x279e0           0x24          36   
.text.__ascii_mbtowc       0x27a04           0x24          36   
.text._DRV_PHY_SMITrans    0x27a28           0x22          34   
.text.TCPIP_SNMP_ErrorS    0x27a4a           0x22          34   
.text.TCPIP_TCP_Find       0x27a6c           0x22          34   
.text.TCPIP_HTTP_PostNa    0x27a8e           0x22          34   
.text.TCPIP_Helper_Prot    0x27ab0           0x22          34   
.text.TCPIP_STACK_NetAd    0x27ad2           0x22          34   
.text.TCPIP_UDP_Discard    0x27af4           0x22          34   
.text.TCPIP_HTTP_Print_    0x27b16           0x22          34   
.rodata                    0x27b38           0x22          34  Read-only const 
.text.DRV_ETHPHY_Status    0x27b5c           0x20          32   
.text.DRV_ETHPHY_Client    0x27b7c           0x20          32   
.text.DRV_ETHPHY_Client    0x27b9c           0x20          32   
.text._DRV_ETHPHY_Clien    0x27bbc           0x20          32   
.text._DRV_ETHPHY_Clien    0x27bdc           0x20          32   
.text._DRV_ETHPHY_Clien    0x27bfc           0x20          32   
.text._DRV_ETHPHY_Clien    0x27c1c           0x20          32   
.text._DRV_ETHPHY_Clien    0x27c3c           0x20          32   
.text._DRV_ETHPHY_Clien    0x27c5c           0x20          32   
.text._DRV_ETHPHY_Setup    0x27c7c           0x20          32   
.rodata                    0x27c9c           0x20          32  Read-only const 
.rodata._DRV_PHY_SetupP    0x27cbc           0x20          32   
.text.DRV_GMAC_Close       0x27cdc           0x20          32   
.text.DRV_GMAC_Deinitia    0x27cfc           0x20          32   
.text.DRV_PIC32CGMAC_Li    0x27d1c           0x20          32   
.text.DRV_GMAC_LibDescr    0x27d3c           0x20          32   
.text.TCPIP_SNMP_Packet    0x27d5c           0x20          32   
.text._SwapARPPacket       0x27d7c           0x20          32   
.text.TCPIP_DNS_OAHASH_    0x27d9c           0x20          32   
.text.TCPIP_Helper_Prot    0x27dbc           0x20          32   
.rodata.TCPIP_MAC_POWER    0x27ddc           0x20          32   
.text.TCPIP_STACK_NetDe    0x27dfc           0x20          32   
.text._TCPIPStackHandle    0x27e1c           0x20          32   
.text.TCPIP_Notificatio    0x27e3c           0x20          32   
.rodata                    0x27e5c           0x20          32  Read-only const 
.text.TCPIP_UDP_Destina    0x27e7c           0x20          32   
.text._keyRightProcess     0x27e9c           0x20          32   
.text.GetCommandCharact    0x27ebc           0x20          32   
.text.MPFS_GetSize         0x27edc           0x20          32   
.text.SYS_FS_MEDIA_MANA    0x27efc           0x20          32   
.text.SYS_INT_SourceRes    0x27f1c           0x20          32   
.text.SYS_RANDOM_Crypto    0x27f3c           0x20          32   
.rodata.tcpipPhyInitDat    0x27f5c           0x20          32   
.text.prvTaskExitError     0x27f7c           0x20          32   
.text.vPortEnterCritica    0x27f9c           0x20          32   
.rodata.reseedSeedA_dat    0x27fbc           0x20          32   
.text.TCPIP_SNMP_IsVali    0x27fdc           0x20          32   
.text._sbrk_r              0x27ffc           0x20          32   
.text._DRV_GMAC_LinkSta    0x2801c           0x1e          30   
.text._SNMP_BuildIntege    0x2803a           0x1e          30   
.text.TCPIP_SNMP_DataCo    0x28058           0x1e          30   
.text._TCPIsGetReady       0x28076           0x1e          30   
.text.TCPIP_TCP_FifoRxF    0x28094           0x1e          30   
.text.TCPIP_STACK_NetAd    0x280b2           0x1e          30   
.text.TCPIP_STACK_NetAd    0x280d0           0x1e          30   
.text.TCPIP_STACK_Netwo    0x280ee           0x1e          30   
.text.TCPIP_PKT_Payload    0x2810c           0x1e          30   
.text.OSAL_SEM_Pend        0x2812a           0x1e          30   
.text.OSAL_MUTEX_Lock      0x28148           0x1e          30   
.text._keyUpProcess        0x28166           0x1e          30   
.text._DRV_ETHPHY_Reset    0x28184           0x1c          28   
.rodata._DRV_PHY_Client    0x281a0           0x1c          28   
.text.DRV_GMAC_EventPen    0x281bc           0x1c          28   
.text.DRV_PIC32CGMAC_Li    0x281d8           0x1c          28   
.text.DRV_PIC32CGMAC_Si    0x281f4           0x1c          28   
.text.DRV_MEMORY_EraseW    0x28210           0x1c          28   
.text.Helper_SingleList    0x2822c           0x1c          28   
.text.Shell_LastError      0x28248           0x1c          28   
.text._ARPTxAckFnc         0x28264           0x1c          28   
.text.TCPIP_IPV4_MaxDat    0x28280           0x1c          28   
.text._TCPIP_HEAP_Callo    0x2829c           0x1c          28   
.rodata._DHCPOptWriteTb    0x282b8           0x1c          28   
.text.TCPIP_Helper_Sing    0x282d4           0x1c          28   
.text.TCPIP_Helper_Prot    0x282f0           0x1c          28   
.text._TCPIPSignalEntry    0x2830c           0x1c          28   
.text.TCPIP_STACK_NetAd    0x28328           0x1c          28   
.text.TCPIP_STACK_NetAd    0x28344           0x1c          28   
.text.TCPIP_STACK_NetAd    0x28360           0x1c          28   
.text.TCPIP_STACK_NetIs    0x2837c           0x1c          28   
.text.TCPIP_STACK_NetMa    0x28398           0x1c          28   
.text.TCPIP_STACK_NetIs    0x283b4           0x1c          28   
.text.TCPIP_STACK_Deini    0x283d0           0x1c          28   
.text.NVMCTRL_BlockEras    0x283ec           0x1c          28   
.text._keyLeftProcess      0x28408           0x1c          28   
.text.SendCommandMessag    0x28424           0x1c          28   
.text.SYS_DEBUG_Initial    0x28440           0x1c          28   
.text.SYS_FS_FileWrite     0x2845c           0x1c          28   
.text.SYS_FS_MEDIA_MANA    0x28478           0x1c          28   
.text.SYS_TIME_MSToCoun    0x28494           0x1c          28   
.text.SYS_TMR_CallbackP    0x284b0           0x1c          28   
.rodata.sysTimePlibAPI     0x284cc           0x1c          28   
.rodata.tcpipHTTPInitDa    0x284e8           0x1c          28   
.rodata.tcpipSNMPInitDa    0x28504           0x1c          28   
.text.vTaskPlaceOnEvent    0x28520           0x1c          28   
.text.pvTaskIncrementMu    0x2853c           0x1c          28   
.text.memcmp               0x28558           0x1c          28   
.text.memcpy               0x28574           0x1c          28   
.text._calloc_r            0x28590           0x1c          28   
.text.vsnprintf            0x285ac           0x1c          28   
.text.DRV_PIC32CGMAC_Si    0x285c8           0x1a          26   
.text.DRV_MEMORY_Read      0x285e2           0x1a          26   
.text.DRV_MEMORY_Erase     0x285fc           0x1a          26   
.text.Helper_SingleList    0x28616           0x1a          26   
.text.DRV_MIIM_Read        0x28630           0x1a          26   
.text.DRV_MIIM_Write       0x2864a           0x1a          26   
.text.DRV_MIIM_Scan        0x28664           0x1a          26   
.text.TCPIP_TCP_ClientO    0x2867e           0x1a          26   
.text.TCPIP_TCP_Disconn    0x28698           0x1a          26   
.text.TCPIP_TCP_PutIsRe    0x286b2           0x1a          26   
.text.TCPIP_TCP_StringP    0x286cc           0x1a          26   
.text.TCPIP_DNS_IsResol    0x286e6           0x1a          26   
.text.TCPIP_Helper_Sing    0x28700           0x1a          26   
.text.TCPIP_Helper_Sing    0x2871a           0x1a          26   
.text.TCPIP_STACK_NetIs    0x28734           0x1a          26   
.text.TCPIP_Notificatio    0x2874e           0x1a          26   
.text._UDPTxPktValid       0x28768           0x1a          26   
.text.TCPIP_UDP_TxPoint    0x28782           0x1a          26   
.text.wc_InitRng           0x2879c           0x1a          26   
.text.TCPIP_HTTP_Print_    0x287b6           0x1a          26   
.text.TCPIP_HTTP_Print_    0x287d0           0x1a          26   
.text.strchr               0x287ea           0x1a          26   
.text.__ascii_wctomb       0x28804           0x1a          26   
.text.CRYPT_MD5_DataAdd    0x2881e           0x18          24   
.text.CRYPT_MD5_Finaliz    0x28836           0x18          24   
.text.CRYPT_RNG_BlockGe    0x2884e           0x18          24   
.text.DRV_ETHPHY_Deinit    0x28868           0x18          24   
.text._DRV_ETHPHY_NegCo    0x28880           0x18          24   
.text._DRV_ETHPHY_Setup    0x28898           0x18          24   
.text._DRV_ETHPHY_LinkS    0x288b0           0x18          24   
.text._DRV_ETHPHY_NegCo    0x288c8           0x18          24   
.text._DRV_ETHPHY_NegRe    0x288e0           0x18          24   
.text._DRV_ETHPHY_NegRe    0x288f8           0x18          24   
.rodata._DRV_PHY_NegCom    0x28910           0x18          24   
.text.DRV_PIC32CGMAC_Si    0x28928           0x18          24   
.text.DRV_PIC32CGMAC_Li    0x28940           0x18          24   
.text.DRV_MIIM_Close       0x28958           0x18          24   
.text.TCPIP_TCP_Put        0x28970           0x18          24   
.text.TCPIP_ARP_HashKey    0x28988           0x18          24   
.text.TCPIP_OAHASH_Entr    0x289a0           0x18          24   
.text.TCPIP_STACK_NetAd    0x289b8           0x18          24   
.text.TCPIP_STACK_NetAd    0x289d0           0x18          24   
.text.TCPIP_STACK_NetAd    0x289e8           0x18          24   
.text.TCPIP_STACK_NetAd    0x28a00           0x18          24   
.text.TCPIP_STACK_NetMa    0x28a18           0x18          24   
.rodata.TCPIP_FRAME_PRO    0x28a30           0x18          24   
.text.OSAL_CRIT_Enter      0x28a48           0x18          24   
.text.OSAL_SEM_Post        0x28a60           0x18          24   
.text.OSAL_MUTEX_Create    0x28a78           0x18          24   
.text.OSAL_MUTEX_Unlock    0x28a90           0x18          24   
.text.SERCOM1_USART_Wri    0x28aa8           0x18          24   
.text.SERCOM1_USART_Rea    0x28ac0           0x18          24   
.text.TC0_TimerStart       0x28ad8           0x18          24   
.text.TC0_TimerStop        0x28af0           0x18          24   
.text._keyDownProcess      0x28b08           0x18          24   
.text.CommandReset         0x28b20           0x18          24   
.text.SYS_TIME_GetElaps    0x28b38           0x18          24   
.text._SYS_RANDOM_Crypt    0x28b50           0x18          24   
.rodata.sysConsole0UART    0x28b68           0x18          24   
.rodata.tcpipDNSClientI    0x28b80           0x18          24   
.text._TCPIP_STACK_Task    0x28b98           0x18          24   
.text._DRV_MIIM_Task       0x28bb0           0x18          24   
.text.vTaskInternalSetT    0x28bc8           0x18          24   
.text.TCPIP_HTTP_Print_    0x28be0           0x18          24   
.text.DRV_MIIM_ClientSt    0x28bf8           0x16          22   
.text._SNMPSocketRxSign    0x28c0e           0x16          22   
.text.TCPIP_TCP_WasDisc    0x28c24           0x16          22   
.text._HTTPSocketRxSign    0x28c3a           0x16          22   
.text._IperfUDPRxSignal    0x28c50           0x16          22   
.text._IperfTCPRxSignal    0x28c66           0x16          22   
.text._TCPIP_HEAP_LastE    0x28c7c           0x16          22   
.text._DHCPSocketRxSign    0x28c92           0x16          22   
.text._DNSSocketRxSigna    0x28ca8           0x16          22   
.text.TCPIP_STACK_Addre    0x28cbe           0x16          22   
.text._TCPIPStackPacket    0x28cd4           0x16          22   
.text.OSAL_CRIT_Leave      0x28cea           0x16          22   
.text.vListInitialise      0x28d00           0x16          22   
.text.vListInsertEnd       0x28d16           0x16          22   
.text.prvIsQueueEmpty      0x28d2c           0x16          22   
.text.xQueueCreateCount    0x28d42           0x16          22   
.text.wc_InitMd5           0x28d58           0x16          22   
.rodata._DRV_PHY_NegRes    0x28d70           0x14          20   
.rodata.DRV_ETHPHY_OBJE    0x28d84           0x14          20   
.rodata._DRV_GMAC_LinkS    0x28d98           0x14          20   
.text.DRV_PIC32CGMAC_Li    0x28dac           0x14          20   
.text.DRV_MEMORY_Regist    0x28dc0           0x14          20   
.rodata.dataTypeTable      0x28dd4           0x14          20   
.text.Ipv4DeRegisterCal    0x28de8           0x14          20   
.text.TCPIP_HEAP_Create    0x28dfc           0x14          20   
.text._DHCPOptionWriteE    0x28e10           0x14          20   
.text.TCPIP_STACK_NetUp    0x28e24           0x14          20   
.text.TCPIP_STACK_HeapH    0x28e38           0x14          20   
.text.NVMCTRL_IsBusy       0x28e4c           0x14          20   
.text.SERCOM1_USART_Rea    0x28e60           0x14          20   
.text.SERCOM1_USART_Wri    0x28e74           0x14          20   
.text.TC0_Timer16bitPer    0x28e88           0x14          20   
.text.TC0_Timer16bitCom    0x28e9c           0x14          20   
.rodata.sysConsoleApi      0x28eb0           0x14          20   
.text.Console_UART_Reso    0x28ec4           0x14          20   
.text.vPortEnableVFP       0x28ed8           0x14          20   
.text.vPortExitCritical    0x28eec           0x14          20   
.text.CRYPT_WCCB_Initia    0x28f00           0x14          20   
.text.TCPIP_HTTP_Print_    0x28f14           0x14          20   
.text.TCPIP_HTTP_Print_    0x28f28           0x14          20   
.text.TCPIP_HTTP_Print_    0x28f3c           0x14          20   
.text                      0x28f50           0x14          20  App's exec code 
.text.strtol               0x28f64           0x14          20   
.text.CRYPT_MD5_Initial    0x28f78           0x12          18   
.text.TCPIP_TCP_GetIsRe    0x28f8a           0x12          18   
.text._TCPIP_HEAP_FreeS    0x28f9c           0x12          18   
.text.TCPIP_OAHASH_Entr    0x28fae           0x12          18   
.text.OSAL_SEM_Delete      0x28fc0           0x12          18   
.text.NVIC_INT_Disable     0x28fd2           0x12          18   
.text.NVIC_INT_Restore     0x28fe4           0x12          18   
.text.vApplicationStack    0x28ff6           0x12          18   
.text.vApplicationMallo    0x29008           0x12          18   
.rodata                    0x2901a           0x12          18  Read-only const 
.text.__i2b                0x2902c           0x12          18   
.rodata                    0x2903e           0x11          17  Read-only const 
.text.CRYPT_RNG_Initial    0x29050           0x10          16   
.rodata._DRV_PHY_SetupP    0x29060           0x10          16   
.text.DRV_EXTPHY_MIICon    0x29070           0x10          16   
.text.DRV_PIC32CGMAC_Li    0x29080           0x10          16   
.text.DRV_MEMORY_EventH    0x29090           0x10          16   
.rodata.gMemoryXferFunc    0x290a0           0x10          16   
.text._Shell_ObjectLock    0x290b0           0x10          16   
.text.TCPIP_SNMP_AuthTr    0x290c0           0x10          16   
.text.TCPIP_TCP_SocketN    0x290d0           0x10          16   
.rodata.heapTypeStr.155    0x290e0           0x10          16   
.text.TCPIP_DNS_GetIPv4    0x290f0           0x10          16   
.text.TCPIP_DNS_GetIPv6    0x29100           0x10          16   
.text.TCPIP_Notificatio    0x29110           0x10          16   
.text.TCPIP_UDP_SocketN    0x29120           0x10          16   
.text.NVMCTRL_Initializ    0x29130           0x10          16   
.text.NVMCTRL_Read         0x29140           0x10          16   
.text.IsCommandReady       0x29150           0x10          16   
.text.Console_UART_Stat    0x29160           0x10          16   
.text.SYS_FS_DirectoryM    0x29170           0x10          16   
.text.SYS_FS_FileDirect    0x29180           0x10          16   
.text.sy_time_h2_adapte    0x29190           0x10          16   
.rodata.tcpipDHCPInitDa    0x291a0           0x10          16   
.rodata.tcpipIPv4InitDa    0x291b0           0x10          16   
.text._APP_Tasks           0x291c0           0x10          16   
.text._SYS_CMD_Tasks       0x291d0           0x10          16   
.text._SYS_FS_Tasks        0x291e0           0x10          16   
.text.vTaskSuspendAll      0x291f0           0x10          16   
.text.APP_Initialize       0x29200           0x10          16   
.text.calloc               0x29210           0x10          16   
.text.malloc               0x29220           0x10          16   
.text.free                 0x29230           0x10          16   
.text.memset               0x29240           0x10          16   
.text.strcpy               0x29250           0x10          16   
.text                      0x29260           0x10          16  App's exec code 
.text._malloc_usable_si    0x29270           0x10          16   
.rodata                    0x29280            0xf          15  Read-only const 
.text.DRV_PIC32CGMAC_Li    0x29290            0xe          14   
.text.DRV_NVMCTRL_Trans    0x2929e            0xe          14   
.text.DRV_NVMCTRL_Read     0x292ac            0xe          14   
.text.Shell_FileWrite      0x292ba            0xe          14   
.text.Shell_FileRead       0x292c8            0xe          14   
.text.Shell_FileSeek       0x292d6            0xe          14   
.text.btohexa_low          0x292e4            0xe          14   
.text.TCPIP_HTTP_Curren    0x292f2            0xe          14   
.text.TCPIP_Helper_Chec    0x29300            0xe          14   
.text.TCPIP_STACK_NetIn    0x2930e            0xe          14   
.text.TCPIP_STACK_NetIx    0x2931c            0xe          14   
.text._TCPIPStackSignal    0x2932a            0xe          14   
.text.main                 0x29338            0xe          14   
.text.TCPIP_HTTP_Print_    0x29346            0xe          14   
.text.TCPIP_HTTP_Print_    0x29354            0xe          14   
.rodata._DRV_PHY_LinkSt    0x29364            0xc          12   
.rodata._DRV_PHY_NegRes    0x29370            0xc          12   
.rodata._DRV_PHY_ResetP    0x2937c            0xc          12   
.text._DRV_GMAC_GetTxOc    0x29388            0xc          12   
.text._DRV_GMAC_GetTxOc    0x29394            0xc          12   
.text._DRV_GMAC_GetTxFr    0x293a0            0xc          12   
.text._DRV_GMAC_GetTxBC    0x293ac            0xc          12   
.text._DRV_GMAC_GetTxMC    0x293b8            0xc          12   
.text._DRV_GMAC_GetTxPa    0x293c4            0xc          12   
.text._DRV_GMAC_GetTx64    0x293d0            0xc          12   
.text._DRV_GMAC_GetTx12    0x293dc            0xc          12   
.text._DRV_GMAC_GetTx25    0x293e8            0xc          12   
.text._DRV_GMAC_GetTx51    0x293f4            0xc          12   
.text._DRV_GMAC_GetTx10    0x29400            0xc          12   
.text._DRV_GMAC_GetTx15    0x2940c            0xc          12   
.text._DRV_GMAC_GetTxGT    0x29418            0xc          12   
.text._DRV_GMAC_GetTxUn    0x29424            0xc          12   
.text._DRV_GMAC_GetTxSi    0x29430            0xc          12   
.text._DRV_GMAC_GetTxMu    0x2943c            0xc          12   
.text._DRV_GMAC_GetTxEx    0x29448            0xc          12   
.text._DRV_GMAC_GetTxLa    0x29454            0xc          12   
.text._DRV_GMAC_GetTxDe    0x29460            0xc          12   
.text._DRV_GMAC_GetTxCS    0x2946c            0xc          12   
.text._DRV_GMAC_GetRxOc    0x29478            0xc          12   
.text._DRV_GMAC_GetRxOc    0x29484            0xc          12   
.text._DRV_GMAC_GetRxFr    0x29490            0xc          12   
.text._DRV_GMAC_GetRxBC    0x2949c            0xc          12   
.text._DRV_GMAC_GetRxMC    0x294a8            0xc          12   
.text._DRV_GMAC_GetRxPa    0x294b4            0xc          12   
.text._DRV_GMAC_GetRx64    0x294c0            0xc          12   
.text._DRV_GMAC_GetRx12    0x294cc            0xc          12   
.text._DRV_GMAC_GetRx25    0x294d8            0xc          12   
.text._DRV_GMAC_GetRx51    0x294e4            0xc          12   
.text._DRV_GMAC_GetRx10    0x294f0            0xc          12   
.text._DRV_GMAC_GetRx15    0x294fc            0xc          12   
.text._DRV_GMAC_GetRxGT    0x29508            0xc          12   
.text._DRV_GMAC_GetRxUn    0x29514            0xc          12   
.text._DRV_GMAC_GetRxOv    0x29520            0xc          12   
.text._DRV_GMAC_GetRxJa    0x2952c            0xc          12   
.text._DRV_GMAC_GetRxFC    0x29538            0xc          12   
.text._DRV_GMAC_GetRxLF    0x29544            0xc          12   
.text._DRV_GMAC_GetRxSy    0x29550            0xc          12   
.text._DRV_GMAC_GetRxAl    0x2955c            0xc          12   
.text._DRV_GMAC_GetRxRe    0x29568            0xc          12   
.text._DRV_GMAC_GetRxOv    0x29574            0xc          12   
.text._DRV_GMAC_GetRxIP    0x29580            0xc          12   
.text._DRV_GMAC_GetRxTC    0x2958c            0xc          12   
.text._DRV_GMAC_GetRxUD    0x29598            0xc          12   
.text.DRV_PIC32CGMAC_Li    0x295a4            0xc          12   
.text.DRV_PIC32CGMAC_Li    0x295b0            0xc          12   
.text.DRV_PIC32CGMAC_Li    0x295bc            0xc          12   
.text.DRV_NVMCTRL_PageW    0x295c8            0xc          12   
.text.btohexa_high         0x295d4            0xc          12   
.text.TCPIP_SNMP_IsTrap    0x295e0            0xc          12   
.text.TCPIP_ARP_HashKey    0x295ec            0xc          12   
.text.TCPIP_HTTP_Curren    0x295f8            0xc          12   
.text.TCPIP_IPV4_Packet    0x29604            0xc          12   
.text._TCPIP_HEAP_Size     0x29610            0xc          12   
.text._TCPIP_HEAP_HighW    0x2961c            0xc          12   
.text.TCPIP_DNS_OAHASH_    0x29628            0xc          12   
.text.TCPIP_DNS_Enable     0x29634            0xc          12   
.text.TCPIP_STACK_NetDe    0x29640            0xc          12   
.text.TCPIP_STACK_Numbe    0x2964c            0xc          12   
.rodata.TCPIP_STACK_IF_    0x29658            0xc          12   
.text.TCPIP_PKT_Deiniti    0x29664            0xc          12   
.text.TC0_TimerCallback    0x29670            0xc          12   
.text.SYS_DEBUG_Console    0x2967c            0xc          12   
.text.SYS_DEBUG_ErrorLe    0x29688            0xc          12   
.text.SYS_FS_Error         0x29694            0xc          12   
.text.SYS_TIME_Frequenc    0x296a0            0xc          12   
.rodata.sysConsole0Init    0x296ac            0xc          12   
.rodata.sysfsMountTable    0x296b8            0xc          12   
.text.vTaskMissedYield     0x296c4            0xc          12   
.rodata.p05.7453           0x296d0            0xc          12   
.rodata                    0x296dc            0xb          11  Read-only const 
.text._DRV_ETHPHY_NegRe    0x296e8            0xa          10   
.text.DRV_MEMORY_TimerH    0x296f2            0xa          10   
.text.DRV_NVMCTRL_Secto    0x296fc            0xa          10   
.text.Shell_DirClose       0x29706            0xa          10   
.text.Shell_FileEof        0x29710            0xa          10   
.text.Shell_FileTell       0x2971a            0xa          10   
.text.Shell_FileSize       0x29724            0xa          10   
.text.Shell_FileClose      0x2972e            0xa          10   
.text._ICMPTxPktAcknowl    0x29738            0xa          10   
.text.TCPIP_TCP_Get        0x29742            0xa          10   
.text._Command_ZcllOnOf    0x2974c            0xa          10   
.text._Command_DHCPSOnO    0x29756            0xa          10   
.text.TCPIP_DNS_Resolve    0x29760            0xa          10   
.text.TCPIP_DNS_IsNameR    0x2976a            0xa          10   
.text.TCPIP_Helper_Sing    0x29774            0xa          10   
.text.TCPIP_STACK_NetNa    0x2977e            0xa          10   
.text._TCPIPStackAddres    0x29788            0xa          10   
.text.TCPIP_UDP_ServerO    0x29792            0xa          10   
.text.TCPIP_UDP_ClientO    0x2979c            0xa          10   
.text.DRV_EXTPHY_SMIClo    0x297a8            0x8           8   
.rodata                    0x297b0            0x8           8  Read-only const 
.text.TCPIP_HTTP_Curren    0x297b8            0x8           8   
.text.TCPIP_HEAP_Malloc    0x297c0            0x8           8   
.text.TCPIP_HEAP_Calloc    0x297c8            0x8           8   
.text.TCPIP_HEAP_FreeOu    0x297d0            0x8           8   
.text.TCPIP_STACK_Gatew    0x297d8            0x8           8   
.text.TCPIP_STACK_Prima    0x297e0            0x8           8   
.text.TCPIP_STACK_Secon    0x297e8            0x8           8   
.text.TCPIP_STACK_NetAd    0x297f0            0x8           8   
.text._TCPIPStackHeapCo    0x297f8            0x8           8   
.text.TCPIP_STACK_NetGe    0x29800            0x8           8   
.text.TCPIP_Notificatio    0x29808            0x8           8   
.text.TCPIP_UDP_TxPutIs    0x29810            0x8           8   
.text.OSAL_Malloc          0x29818            0x8           8   
.text.SERCOM1_USART_Wri    0x29820            0x8           8   
.text.TC0_TimerFrequenc    0x29828            0x8           8   
.rodata                    0x29830            0x8           8  Read-only const 
.text.SYS_FS_Tasks         0x29838            0x8           8   
.rodata                    0x29840            0x8           8  Read-only const 
.text.SYS_INT_Disable      0x29848            0x8           8   
.text.SYS_INT_Restore      0x29850            0x8           8   
.text.SYS_TIME_CounterG    0x29858            0x8           8   
.rodata.drvMiimInitData    0x29860            0x8           8   
.rodata.sysFSInit          0x29868            0x8           8   
.rodata.sysTimeInitData    0x29870            0x8           8   
.rodata.tcpipTCPInitDat    0x29878            0x8           8   
.rodata.tcpipUDPInitDat    0x29880            0x8           8   
.text.vQueueDelete         0x29888            0x8           8   
.rodata                    0x29890           0x10          16  Read-only const 
.text.atoi                 0x298a0            0x8           8   
.text.atol                 0x298a8            0x8           8   
.text._localeconv_r        0x298b0            0x8           8   
.text.TCPIP_ARP_HashKey    0x298b8            0x6           6   
.text.TCPIP_HTTP_Curren    0x298be            0x6           6   
.text.TCPIP_HTTP_Curren    0x298c4            0x6           6   
.text.TCPIP_HTTP_Curren    0x298ca            0x6           6   
.text.TCPIP_HTTP_Curren    0x298d0            0x6           6   
.text.TCPIP_HTTP_Curren    0x298d6            0x6           6   
.text.TCPIP_STACK_MACOb    0x298dc            0x6           6   
.text.TCPIP_STACK_NetBI    0x298e2            0x6           6   
.text.TCPIP_PKT_GapDcpt    0x298e8            0x6           6   
.text.vListInitialiseIt    0x298ee            0x6           6   
.text.CRYPT_WCCB_Callba    0x298f4            0x6           6   
.text.DRV_NVMCTRL_Statu    0x298fa            0x4           4   
.text.TCPIP_HTTP_Curren    0x298fe            0x4           4   
.text.TCPIP_HTTP_Curren    0x29902            0x4           4   
.text.TCPIP_HTTP_Curren    0x29906            0x4           4   
.rodata.HTTP_CRLF          0x2990c            0x4           4   
.text.TCPIP_IPV4_IsFrag    0x29910            0x4           4   
.text._DHCPOptionProces    0x29914            0x4           4   
.rodata._DHCPRequestPar    0x29918            0x4           4   
.rodata.dhcpMagicCookie    0x2991c            0x4           4   
.text.TCPIP_PKT_GapDcpt    0x29920            0x4           4   
.text.Console_UART_Flus    0x29924            0x4           4   
.rodata.debugInit          0x29928            0x4           4   
.rodata.sysConsole0UART    0x2992c            0x4           4   
.text                      0x29930            0x4           4  App's exec code 
.rodata.NVM_MEDIA_DATA     0x80000        0x80000      524288   
      Total ROM used  :     0xa991c      694556  66.2% of 0x100000
        --------------------------------------------------------------------------
         Total Program Memory used  :     0xa991c      694556  66.2% of 0x100000
        --------------------------------------------------------------------------


RAM Data-Memory Usage
section                    address  length [bytes]      (dec)  Description
-------                 ----------  -------------------------  -----------
.bss                    0x20000000            0x4           4  Uninitialized data 
.bss.ucHeap             0x20000004         0xa000       40960   
.bss.ipv4ArpPool        0x2000a004            0xc          12   
.bss.gDrvMemory0EraseBu 0x2000a010         0x2000        8192   
.bss.gSYSFSFileObj      0x2000c010         0x1a90        6800   
.bss.SERCOM1_USART_Read 0x2000daa0         0x1000        4096   
.bss.SERCOM1_USART_Writ 0x2000eaa0         0x1000        4096   
.bss.gSYSFSMediaBlockBu 0x2000faa0          0x800        2048   
.bss.icmpPingBuff       0x200102a0          0x7d0        2000   
.bss.printBuff          0x20010a70          0x400        1024   
.bss.TCPIP_STACK_MODULE 0x20010e70          0x270         624   
.bss.gSYSFSMediaBuffer  0x200110e0          0x200         512   
.bss.getBuffer          0x200112e0          0x1f1         497   
.bss.smSnmp.15726       0x200114d1            0x1           1   
.bss.tcpDefTxSize       0x200114d2            0x2           2   
.bss.md5.15584          0x200114d4          0x1b8         440   
.bss._hEventMac         0x2001168c            0x4           4   
.bss.gSysMpfsFileObj    0x20011690          0x190         400   
.bss.gSYSFSDirObj       0x20011820          0x190         400   
.data.__global_locale   0x200119b0          0x16c         364   
.bss.sysRandCtx         0x20011b1c          0x108         264   
.bss.gConsoleUartData   0x20011c24            0xc          12   
.bss.fileName.9063      0x20011c30          0x100         256   
.bss.fileName.9172      0x20011d30          0x100         256   
.data._gmac_drv_dcpt    0x20011e30           0xf8         248   
.bss.gIperfState        0x20011f28           0xd8         216   
.bss.consolePrintBuffer 0x20012000           0xc8         200   
.bss.httpNetData        0x200120c8           0xbc         188   
.bss.gDrvMemoryObj      0x20012184           0xa8         168   
.bss.timers             0x2001222c           0xa0         160   
.bss.gDrvMIIMObj        0x200122cc           0x94         148   
.bss.TCPIP_MODULES_QUEU 0x20012360           0x90         144   
.bss.gmac_dcpt_array    0x200123f0           0x80         128   
.bss._usrCmdTbl         0x20012470           0x80         128   
.bss.gPhyDrvInst        0x200124f0           0x68         104   
.bss.pxReadyTasksLists  0x20012558           0x64         100   
.bss.gCryptoDev         0x200125bc           0x60          96   
.data.impure_data       0x2001261c           0x60          96   
.bss.arpMod             0x2001267c           0x4c          76   
.bss.sercom1USARTObj    0x200126c8           0x40          64   
.bss.snmpReqVarErrStatu 0x20012708            0x8           8   
.bss.hashBuffer.9062    0x20012710           0x40          64   
.bss.gSystemCounterObj  0x20012750           0x40          64   
.data.trapInfo          0x20012790           0x3c          60   
.bss.g_bfr              0x200127cc           0x34          52   
.data.gSnmpNonMibRecInf 0x20012800           0x33          51   
.data.queueIndex.10697  0x20012833            0x1           1   
.bss.gDnsDcpt           0x20012834           0x28          40   
.bss.gSYSFSMediaObject  0x2001285c           0x28          40   
.bss.gSnmpDcpt          0x20012884           0x20          32   
.bss.tcpip_stack_ctrl_d 0x200128a4           0x20          32   
.bss.consoleDeviceInsta 0x200128c4            0xc          12   
.bss.fileRecord.9148    0x200128d0           0x20          32   
.bss.fileRecord.9171    0x200128f0           0x20          32   
.bss.gSysMpfsFileRecord 0x20012910           0x20          32   
.bss.dnslookupTargetHos 0x20012930           0x1f          31   
.bss.indexBytes.15789   0x2001294f            0x1           1   
.bss.icmpTargetHost     0x20012950           0x1f          31   
.bss.indexBytes.15812   0x2001296f            0x1           1   
.bss                    0x20012970           0x1c          28  Uninitialized data 
.bss.gSYSFSVolumeObject 0x2001298c           0x1c          28   
.bss.icmpEchoRequest    0x200129a8           0x18          24   
.bss.cmdTcpipInitData   0x200129c0           0x18          24   
.bss.tcpip_init_data    0x200129d8           0x18          24   
.data.gSYSFSMediaManage 0x200129f0           0x18          24   
.bss.sysObj             0x20012a08           0x18          24   
.bss.icmpRegisteredUser 0x20012a20           0x14          20   
.bss.ipv4ArpQueue       0x20012a34           0x14          20   
.bss.ipv4PacketFilters  0x20012a48           0x14          20   
.bss.dhcpRegisteredUser 0x20012a5c           0x14          20   
.data.gSysMpfsObj       0x20012a70           0x14          20   
.bss.gSYSFSMountPoint   0x20012a84           0x14          20   
.data.gSYSFSVolumeName  0x20012a98           0x14          20   
.data.tcpipHeapConfig   0x20012aac           0x14          20   
.bss.xDelayedTaskList1  0x20012ac0           0x14          20   
.bss.xDelayedTaskList2  0x20012ad4           0x14          20   
.bss.xPendingReadyList  0x20012ae8           0x14          20   
.bss.xSuspendedTaskList 0x20012afc           0x14          20   
.bss.xTasksWaitingTermi 0x20012b10           0x14          20   
.bss.s_buf_ipv4addr     0x20012b24           0x14          20   
.bss.icmpTargetAddrStr  0x20012b38           0x11          17   
.bss.varDataType.15788  0x20012b49            0x1           1   
.bss.icmpIdentifier     0x20012b4a            0x2           2   
.bss.tcpip_heap_config  0x20012b4c           0x10          16   
.bss.gDrvMemory0ClientO 0x20012b5c           0x10          16   
.data.tcpipSNMPInitRead 0x20012b6c            0xc          12   
.data.tcpipSNMPInitWrit 0x20012b78            0xc          12   
.bss.TC0_CallbackObject 0x20012b84            0x8           8   
.bss.cmdIODevList       0x20012b8c            0x8           8   
.bss.gSYSFSCurrentMount 0x20012b94            0x8           8   
.bss.gSYSFSObj          0x20012b9c            0x8           8   
.bss.gSYSFSEventHandler 0x20012ba4            0x8           8   
.bss.AN0String.15725    0x20012bac            0x8           8   
.bss.appData            0x20012bb4            0x8           8   
.data.arpBcastAdd       0x20012bbc            0x6           6   
.bss.SNMPTxOffset       0x20012bc2            0x2           2   
.bss.drvGmacQueEvents   0x20012bc4            0x4           4   
.bss.SnmpStackDcptMemSt 0x20012bc8            0x4           4   
.bss.SnmpStackMemH      0x20012bcc            0x4           4   
.bss.snmpFileShell      0x20012bd0            0x4           4   
.bss.snmpInitCount      0x20012bd4            0x4           4   
.data.snmpFileDescrptr  0x20012bd8            0x4           4   
.data.snmpMountPath     0x20012bdc            0x4           4   
.bss.icmpEchoStart      0x20012be0            0x4           4   
.bss.icmpEchoTmo        0x20012be4            0x4           4   
.bss.icmpInitCount      0x20012be8            0x4           4   
.bss.icmpMemH           0x20012bec            0x4           4   
.bss.pIcmpEchoRequest   0x20012bf0            0x4           4   
.bss.signalHandle       0x20012bf4            0x4           4   
.bss.TCBStubs           0x20012bf8            0x4           4   
.bss.TcpSockets         0x20012bfc            0x4           4   
.bss.tcpHeapH           0x20012c00            0x4           4   
.bss.tcpInitCount       0x20012c04            0x4           4   
.bss.tcpLockCount       0x20012c08            0x4           4   
.bss.tcpSemaphore       0x20012c0c            0x4           4   
.bss.tcpSignalHandle    0x20012c10            0x4           4   
.bss.commandInitCount   0x20012c14            0x4           4   
.bss.dnsLookUpStartTick 0x20012c18            0x4           4   
.bss.dnsLookupCmdIoPara 0x20012c1c            0x4           4   
.bss.icmpAckRecv        0x20012c20            0x4           4   
.bss.icmpCmdIoParam     0x20012c24            0x4           4   
.bss.icmpNetH           0x20012c28            0x4           4   
.bss.icmpReqCount       0x20012c2c            0x4           4   
.bss.icmpReqDelay       0x20012c30            0x4           4   
.bss.icmpReqHandle      0x20012c34            0x4           4   
.bss.icmpReqNo          0x20012c38            0x4           4   
.bss.icmpStartTick      0x20012c3c            0x4           4   
.bss.icmpTargetAddr     0x20012c40            0x4           4   
.bss.initialNetIfs      0x20012c44            0x4           4   
.bss.miimAdd            0x20012c48            0x4           4   
.bss.miimCmdIoParam     0x20012c4c            0x4           4   
.bss.miimHandle         0x20012c50            0x4           4   
.bss.miimObj            0x20012c54            0x4           4   
.bss.miimOpHandle       0x20012c58            0x4           4   
.bss.miimRegEnd         0x20012c5c            0x4           4   
.bss.miimRegIx          0x20012c60            0x4           4   
.bss.miimRegStart       0x20012c64            0x4           4   
.bss.pCmdTcpipInitData  0x20012c68            0x4           4   
.bss.pTcpipCmdDevice    0x20012c6c            0x4           4   
.bss.tcpipCmdSignalHand 0x20012c70            0x4           4   
.data.icmpPingSize      0x20012c74            0x4           4   
.bss.httpConnCtrl       0x20012c78            0x4           4   
.bss.httpConnData       0x20012c7c            0x4           4   
.bss.httpConnNo         0x20012c80            0x4           4   
.bss.httpFileShell      0x20012c84            0x4           4   
.bss.httpInitCount      0x20012c88            0x4           4   
.bss.httpSignalHandle   0x20012c8c            0x4           4   
.bss.http_free_fnc      0x20012c90            0x4           4   
.bss.http_malloc_fnc    0x20012c94            0x4           4   
.bss.iperfInitCount     0x20012c98            0x4           4   
.bss.nIperfSessions     0x20012c9c            0x4           4   
.bss.ipv4ActFilterCount 0x20012ca0            0x4           4   
.bss.ipv4ArpEntries     0x20012ca4            0x4           4   
.bss.ipv4ArpHandle      0x20012ca8            0x4           4   
.bss.ipv4MemH           0x20012cac            0x4           4   
.bss.signalHandle       0x20012cb0            0x4           4   
.bss.DHCPClients        0x20012cb4            0x4           4   
.bss.dhcpInitCount      0x20012cb8            0x4           4   
.bss.dhcpInterfaces     0x20012cbc            0x4           4   
.bss.dhcpMemH           0x20012cc0            0x4           4   
.bss.dhcpSecondCount    0x20012cc4            0x4           4   
.bss.dhcpSignalHandle   0x20012cc8            0x4           4   
.bss.dnsInitCount       0x20012ccc            0x4           4   
.bss.pgDnsDcpt          0x20012cd0            0x4           4   
.bss.newTcpipErrorEvent 0x20012cd4            0x4           4   
.bss.newTcpipStackEvent 0x20012cd8            0x4           4   
.bss.newTcpipTickAvlbl  0x20012cdc            0x4           4   
.bss.stackAsyncSignalCo 0x20012ce0            0x4           4   
.bss.stackTaskRate      0x20012ce4            0x4           4   
.bss.tcpipDefIf         0x20012ce8            0x4           4   
.bss.tcpipNetIf         0x20012cec            0x4           4   
.bss.tcpip_stack_init_c 0x20012cf0            0x4           4   
.bss.totTcpipEventsCnt  0x20012cf4            0x4           4   
.data.tcpip_stack_tickH 0x20012cf8            0x4           4   
.bss.pktMemH            0x20012cfc            0x4           4   
.bss.UDPSocketDcpt      0x20012d00            0x4           4   
.bss.nUdpSockets        0x20012d04            0x4           4   
.bss.signalHandle       0x20012d08            0x4           4   
.bss.udpInitCount       0x20012d0c            0x4           4   
.bss.udpMemH            0x20012d10            0x4           4   
.bss.userSem            0x20012d14            0x4           4   
.bss._cmdInitData       0x20012d18            0x4           4   
.bss.printBuffPtr       0x20012d1c            0x4           4   
.bss.consolePrintBuffer 0x20012d20            0x4           4   
.bss.sysDebugInstance   0x20012d24            0x4           4   
.bss.gSysFsMutex        0x20012d28            0x4           4   
.bss.gTickConv          0x20012d2c            0x4           4   
.bss.systemAdaptObj     0x20012d30            0x4           4   
.bss.pRandCtx           0x20012d34            0x4           4   
.bss.sysCmdInit         0x20012d38            0x4           4   
.bss.xAPP_Tasks         0x20012d3c            0x4           4   
.data.uxCriticalNesting 0x20012d40            0x4           4   
.bss.pucAlignedHeap.655 0x20012d44            0x4           4   
.bss.xNextFreeByte      0x20012d48            0x4           4   
.bss.pxCurrentTCB       0x20012d4c            0x4           4   
.bss.pxDelayedTaskList  0x20012d50            0x4           4   
.bss.pxOverflowDelayedT 0x20012d54            0x4           4   
.bss.uxCurrentNumberOfT 0x20012d58            0x4           4   
.bss.uxDeletedTasksWait 0x20012d5c            0x4           4   
.bss.uxSchedulerSuspend 0x20012d60            0x4           4   
.bss.uxTaskNumber       0x20012d64            0x4           4   
.bss.uxTopReadyPriority 0x20012d68            0x4           4   
.bss.xIdleTaskHandle    0x20012d6c            0x4           4   
.bss.xNextTaskUnblockTi 0x20012d70            0x4           4   
.bss.xNumOfOverflows    0x20012d74            0x4           4   
.bss.xPendedTicks       0x20012d78            0x4           4   
.bss.xSchedulerRunning  0x20012d7c            0x4           4   
.bss.xTickCount         0x20012d80            0x4           4   
.bss.xYieldPending      0x20012d84            0x4           4   
.bss                    0x20012d88            0x4           4  Uninitialized data 
.data._impure_ptr       0x20012d8c            0x4           4   
.bss.__malloc_free_list 0x20012d90            0x4           4   
.bss.__malloc_sbrk_star 0x20012d94            0x4           4   
.bss                    0x20012d98            0x4           4  Uninitialized data 
.bss.MPFS_VolToPart     0x20012d9c            0x2           2   
.bss.tcpDefRxSize       0x20012d9e            0x2           2   
.bss.varBindLen.15708   0x20012da0            0x2           2   
.bss.icmpSequenceNo     0x20012da2            0x2           2   
.bss.miimObjIx          0x20012da4            0x2           2   
.bss.miimWrData         0x20012da6            0x2           2   
.bss.httpConnDataSize   0x20012da8            0x2           2   
.bss.ipv4Identifier     0x20012daa            0x2           2   
.bss.ipv4InitCount      0x20012dac            0x2           2   
.bss.dhcpClientPort     0x20012dae            0x2           2   
.bss.dhcpClientSocket   0x20012db0            0x2           2   
.bss.dhcpServerPort     0x20012db2            0x2           2   
.bss.udpDefTxSize       0x20012db4            0x2           2   
.bss.nvm_error          0x20012db6            0x2           2   
.data.gSysTimeTokenCoun 0x20012db8            0x2           2   
.bss.SNMPRxOffset       0x20012dba            0x2           2   
.bss.SNMPStatus         0x20012dbc            0x1           1   
.bss.varDataType.15811  0x20012dbd            0x1           1   
.bss.tcpipCmdStat       0x20012dbe            0x1           1   
.data.dnsType           0x20012dbf            0x1           1   
.data.drvGmacIRQ        0x20012dc0            0x2           2   
.bss.fileErr            0x20012dc2            0x1           1   
.bss.httpConfigFlags    0x20012dc3            0x1           1   
.bss.iperf_async_reques 0x20012dc4            0x1           1   
.bss.ipv4FilterType     0x20012dc5            0x1           1   
.bss.tcpip_stack_status 0x20012dc6            0x1           1   
.bss.error_reported.104 0x20012dc7            0x1           1   
.bss.isConsoleMutexCrea 0x20012dc8            0x1           1   
.bss.gblErrLvl          0x20012dc9            0x1           1   
.bss.gSysMpfsHandleToke 0x20012dca            0x1           1   
.bss.errorValue         0x20012dcb            0x1           1   
.bss.lastFailure        0x20012dcc            0x1           1   
.bss.lastSuccess        0x20012dcd            0x1           1   
         Total RAM used  :     0x12dce       77262  29.5% of 0x40000
        --------------------------------------------------------------------------
            Total Data Memory used  :     0x12dce       77262  29.5% of 0x40000
        --------------------------------------------------------------------------


Dynamic Data-Memory Reservation
section                    address  length [bytes]      (dec)  Description
-------                 ----------  -------------------------  -----------
heap                    0x20012dd0        0x17ac0       96960  Reserved for heap 
stack                   0x2002a8a8        0x15748       87880  Reserved for stack 

        --------------------------------------------------------------------------

Discarded input sections

 .text          0x00000000        0x0 c:/program files/microchip/xc32/v3.01/bin/bin/../../lib/gcc/pic32c/8.3.1/thumb/v7e-m+fp/hard/crti.o
 .data          0x00000000        0x0 c:/program files/microchip/xc32/v3.01/bin/bin/../../lib/gcc/pic32c/8.3.1/thumb/v7e-m+fp/hard/crti.o
 .bss           0x00000000        0x0 c:/program files/microchip/xc32/v3.01/bin/bin/../../lib/gcc/pic32c/8.3.1/thumb/v7e-m+fp/hard/crti.o
 .xc_stack_usage.hdr
                0x00000000        0xe c:/program files/microchip/xc32/v3.01/bin/bin/../../lib/gcc/pic32c/8.3.1/thumb/v7e-m+fp/hard/crti.o
 .xc_stack_usage
                0x00000000       0x26 c:/program files/microchip/xc32/v3.01/bin/bin/../../lib/gcc/pic32c/8.3.1/thumb/v7e-m+fp/hard/crti.o
 .data          0x00000000        0x4 c:/program files/microchip/xc32/v3.01/bin/bin/../../lib/gcc/pic32c/8.3.1/thumb/v7e-m+fp/hard/crtbegin.o
 .xc_stack_usage
                0x00000000       0x3c c:/program files/microchip/xc32/v3.01/bin/bin/../../lib/gcc/pic32c/8.3.1/thumb/v7e-m+fp/hard/crtbegin.o
 .xc_stack_usage.hdr
                0x00000000        0xe c:/program files/microchip/xc32/v3.01/bin/bin/../../lib/gcc/pic32c/8.3.1/thumb/v7e-m+fp/hard/crtbegin.o
 .text          0x00000000        0x0 build/default/production/_ext/1645245335/crypto.o
 .data          0x00000000        0x0 build/default/production/_ext/1645245335/crypto.o
 .bss           0x00000000        0x0 build/default/production/_ext/1645245335/crypto.o
 .text.CRYPT_MD5_DataSizeSet
                0x00000000        0xc build/default/production/_ext/1645245335/crypto.o
 .text.CRYPT_SHA_Initialize
                0x00000000       0x10 build/default/production/_ext/1645245335/crypto.o
 .text.CRYPT_SHA_DataSizeSet
                0x00000000        0xc build/default/production/_ext/1645245335/crypto.o
 .text.CRYPT_SHA_DataAdd
                0x00000000       0x18 build/default/production/_ext/1645245335/crypto.o
 .text.CRYPT_SHA_Finalize
                0x00000000       0x18 build/default/production/_ext/1645245335/crypto.o
 .text.CRYPT_SHA256_Initialize
                0x00000000       0x10 build/default/production/_ext/1645245335/crypto.o
 .text.CRYPT_SHA256_DataSizeSet
                0x00000000        0xc build/default/production/_ext/1645245335/crypto.o
 .text.CRYPT_SHA256_DataAdd
                0x00000000       0x18 build/default/production/_ext/1645245335/crypto.o
 .text.CRYPT_SHA256_Finalize
                0x00000000       0x18 build/default/production/_ext/1645245335/crypto.o
 .text.CRYPT_SHA224_Initialize
                0x00000000       0x10 build/default/production/_ext/1645245335/crypto.o
 .text.CRYPT_SHA224_DataAdd
                0x00000000       0x18 build/default/production/_ext/1645245335/crypto.o
 .text.CRYPT_SHA224_Finalize
                0x00000000       0x18 build/default/production/_ext/1645245335/crypto.o
 .text.CRYPT_HMAC_SetKey
                0x00000000       0x48 build/default/production/_ext/1645245335/crypto.o
 .text.CRYPT_HMAC_DataAdd
                0x00000000       0x18 build/default/production/_ext/1645245335/crypto.o
 .text.CRYPT_HMAC_Finalize
                0x00000000       0x18 build/default/production/_ext/1645245335/crypto.o
 .text.CRYPT_RNG_Deinitialize
                0x00000000       0x12 build/default/production/_ext/1645245335/crypto.o
 .text.CRYPT_RNG_Get
                0x00000000       0x18 build/default/production/_ext/1645245335/crypto.o
 .text.CRYPT_TDES_KeySet
                0x00000000       0x18 build/default/production/_ext/1645245335/crypto.o
 .text.CRYPT_TDES_IvSet
                0x00000000       0x18 build/default/production/_ext/1645245335/crypto.o
 .text.CRYPT_TDES_CBC_Encrypt
                0x00000000       0x20 build/default/production/_ext/1645245335/crypto.o
 .text.CRYPT_TDES_CBC_Decrypt
                0x00000000       0x20 build/default/production/_ext/1645245335/crypto.o
 .text.CRYPT_AES_KeySet
                0x00000000       0x20 build/default/production/_ext/1645245335/crypto.o
 .text.CRYPT_AES_IvSet
                0x00000000       0x18 build/default/production/_ext/1645245335/crypto.o
 .text.CRYPT_AES_CBC_Encrypt
                0x00000000       0x20 build/default/production/_ext/1645245335/crypto.o
 .text.CRYPT_AES_CBC_Decrypt
                0x00000000       0x20 build/default/production/_ext/1645245335/crypto.o
 .text.CRYPT_AES_CTR_Encrypt
                0x00000000       0x20 build/default/production/_ext/1645245335/crypto.o
 .text.CRYPT_AES_GCM_SetKey
                0x00000000       0x18 build/default/production/_ext/1645245335/crypto.o
 .text.CRYPT_AES_GCM_Encrypt
                0x00000000       0x34 build/default/production/_ext/1645245335/crypto.o
 .text.CRYPT_AES_GCM_Decrypt
                0x00000000       0x2c build/default/production/_ext/1645245335/crypto.o
 .text.CRYPT_AES_DIRECT_Encrypt
                0x00000000       0x12 build/default/production/_ext/1645245335/crypto.o
 .text.CRYPT_AES_DIRECT_Decrypt
                0x00000000       0x22 build/default/production/_ext/1645245335/crypto.o
 .text.CRYPT_RSA_Initialize
                0x00000000       0x28 build/default/production/_ext/1645245335/crypto.o
 .text.CRYPT_RSA_Free
                0x00000000       0x20 build/default/production/_ext/1645245335/crypto.o
 .text.CRYPT_RSA_PublicKeyDecode
                0x00000000       0x2a build/default/production/_ext/1645245335/crypto.o
 .text.CRYPT_RSA_PrivateKeyDecode
                0x00000000       0x2a build/default/production/_ext/1645245335/crypto.o
 .text.CRYPT_RSA_PublicEncrypt
                0x00000000       0x3e build/default/production/_ext/1645245335/crypto.o
 .text.CRYPT_RSA_PrivateDecrypt
                0x00000000       0x32 build/default/production/_ext/1645245335/crypto.o
 .text.CRYPT_RSA_EncryptSizeGet
                0x00000000       0x12 build/default/production/_ext/1645245335/crypto.o
 .text.CRYPT_ECC_Initialize
                0x00000000       0x24 build/default/production/_ext/1645245335/crypto.o
 .text.CRYPT_ECC_Free
                0x00000000       0x20 build/default/production/_ext/1645245335/crypto.o
 .text.CRYPT_ECC_PublicExport
                0x00000000       0x28 build/default/production/_ext/1645245335/crypto.o
 .text.CRYPT_ECC_PublicImport
                0x00000000       0x22 build/default/production/_ext/1645245335/crypto.o
 .text.CRYPT_ECC_PrivateImport
                0x00000000       0x36 build/default/production/_ext/1645245335/crypto.o
 .text.CRYPT_ECC_DHE_KeyMake
                0x00000000       0x22 build/default/production/_ext/1645245335/crypto.o
 .text.CRYPT_ECC_DHE_SharedSecretMake
                0x00000000       0x3a build/default/production/_ext/1645245335/crypto.o
 .text.CRYPT_ECC_DSA_HashSign
                0x00000000       0x4a build/default/production/_ext/1645245335/crypto.o
 .text.CRYPT_ECC_DSA_HashVerify
                0x00000000       0x42 build/default/production/_ext/1645245335/crypto.o
 .text.CRYPT_ECC_KeySizeGet
                0x00000000       0x12 build/default/production/_ext/1645245335/crypto.o
 .text.CRYPT_ECC_SignatureSizeGet
                0x00000000       0x12 build/default/production/_ext/1645245335/crypto.o
 .text.CRYPT_ERROR_StringGet
                0x00000000       0x1c build/default/production/_ext/1645245335/crypto.o
 .rodata        0x00000000       0x28 build/default/production/_ext/1645245335/crypto.o
 .text          0x00000000        0x0 build/default/production/_ext/444070925/drv_ethphy.o
 .data          0x00000000        0x0 build/default/production/_ext/444070925/drv_ethphy.o
 .bss           0x00000000        0x0 build/default/production/_ext/444070925/drv_ethphy.o
 .text          0x00000000        0x0 build/default/production/_ext/444070925/drv_extphy_ksz8081.o
 .data          0x00000000        0x0 build/default/production/_ext/444070925/drv_extphy_ksz8081.o
 .bss           0x00000000        0x0 build/default/production/_ext/444070925/drv_extphy_ksz8081.o
 .text          0x00000000        0x0 build/default/production/_ext/1546807373/drv_gmac.o
 .data          0x00000000        0x0 build/default/production/_ext/1546807373/drv_gmac.o
 .bss           0x00000000        0x0 build/default/production/_ext/1546807373/drv_gmac.o
 .text          0x00000000        0x0 build/default/production/_ext/1546807373/drv_gmac_lib_samE5x.o
 .data          0x00000000        0x0 build/default/production/_ext/1546807373/drv_gmac_lib_samE5x.o
 .bss           0x00000000        0x0 build/default/production/_ext/1546807373/drv_gmac_lib_samE5x.o
 .text          0x00000000        0x0 build/default/production/_ext/992804092/drv_memory.o
 .data          0x00000000        0x0 build/default/production/_ext/992804092/drv_memory.o
 .bss           0x00000000        0x0 build/default/production/_ext/992804092/drv_memory.o
 .text.DRV_MEMORY_RegisterWithSysFs
                0x00000000        0x2 build/default/production/_ext/992804092/drv_memory.o
 .text.DRV_MEMORY_Status
                0x00000000       0x30 build/default/production/_ext/992804092/drv_memory.o
 .text.DRV_MEMORY_SyncRead
                0x00000000       0x1e build/default/production/_ext/992804092/drv_memory.o
 .text.DRV_MEMORY_Write
                0x00000000       0x1a build/default/production/_ext/992804092/drv_memory.o
 .text.DRV_MEMORY_SyncWrite
                0x00000000       0x1e build/default/production/_ext/992804092/drv_memory.o
 .text.DRV_MEMORY_SyncErase
                0x00000000       0x1e build/default/production/_ext/992804092/drv_memory.o
 .text.DRV_MEMORY_SyncEraseWrite
                0x00000000       0x20 build/default/production/_ext/992804092/drv_memory.o
 .text.DRV_MEMORY_IsWriteProtected
                0x00000000        0x4 build/default/production/_ext/992804092/drv_memory.o
 .text          0x00000000        0x0 build/default/production/_ext/992804092/drv_memory_file_system.o
 .data          0x00000000        0x0 build/default/production/_ext/992804092/drv_memory_file_system.o
 .bss           0x00000000        0x0 build/default/production/_ext/992804092/drv_memory_file_system.o
 .text          0x00000000        0x0 build/default/production/_ext/992804092/drv_memory_nvmctrl.o
 .data          0x00000000        0x0 build/default/production/_ext/992804092/drv_memory_nvmctrl.o
 .bss           0x00000000        0x0 build/default/production/_ext/992804092/drv_memory_nvmctrl.o
 .text          0x00000000        0x0 build/default/production/_ext/438849557/drv_miim.o
 .data          0x00000000        0x0 build/default/production/_ext/438849557/drv_miim.o
 .bss           0x00000000        0x0 build/default/production/_ext/438849557/drv_miim.o
 .text.Helper_SingleListInitialize
                0x00000000        0xa build/default/production/_ext/438849557/drv_miim.o
 .text          0x00000000        0x0 build/default/production/_ext/1751889202/sys_fs_shell.o
 .data          0x00000000        0x0 build/default/production/_ext/1751889202/sys_fs_shell.o
 .bss           0x00000000        0x0 build/default/production/_ext/1751889202/sys_fs_shell.o
 .text          0x00000000        0x0 build/default/production/_ext/1033058136/helpers.o
 .data          0x00000000        0x0 build/default/production/_ext/1033058136/helpers.o
 .bss           0x00000000        0x0 build/default/production/_ext/1033058136/helpers.o
 .text.strncpy_m
                0x00000000       0x6e build/default/production/_ext/1033058136/helpers.o
 .text          0x00000000        0x0 build/default/production/_ext/1033058136/snmp.o
 .data          0x00000000        0x0 build/default/production/_ext/1033058136/snmp.o
 .bss           0x00000000        0x0 build/default/production/_ext/1033058136/snmp.o
 .text.TCPIP_SNMP_CopyOfDataToINUDPBuff
                0x00000000       0x24 build/default/production/_ext/1033058136/snmp.o
 .text.TCPIP_SNMP_ProcessBufferDataGet
                0x00000000       0x10 build/default/production/_ext/1033058136/snmp.o
 .text.TCPIP_SNMP_NotifyPrepare
                0x00000000       0x28 build/default/production/_ext/1033058136/snmp.o
 .text.TCPIP_SNMP_NotifyIsReady
                0x00000000       0x6c build/default/production/_ext/1033058136/snmp.o
 .text.TCPIP_SNMP_TrapTimeGet
                0x00000000        0xc build/default/production/_ext/1033058136/snmp.o
 .text.TCPIP_SNMP_GenericTrapCodeToTrapOID
                0x00000000       0x4c build/default/production/_ext/1033058136/snmp.o
 .text.TCPIP_SNMP_ValidateTrapIntf
                0x00000000       0x1c build/default/production/_ext/1033058136/snmp.o
 .text.TCPIP_SNMP_ClientGetNet
                0x00000000       0x44 build/default/production/_ext/1033058136/snmp.o
 .text.TCPIP_SNMP_TRAPTypeGet
                0x00000000       0x10 build/default/production/_ext/1033058136/snmp.o
 .text.TCPIP_SNMPV3_TrapTypeGet
                0x00000000       0x10 build/default/production/_ext/1033058136/snmp.o
 .text._SNMP_CheckIfValidV3StructAnd4ByteDataLen
                0x00000000       0x30 build/default/production/_ext/1033058136/snmp.o
 .text.TCPIP_SNMP_OIDStringFindByID
                0x00000000       0x5a build/default/production/_ext/1033058136/snmp.o
 .text.TCPIP_SNMP_TRAPv2Notify
                0x00000000      0x748 build/default/production/_ext/1033058136/snmp.o
 .text.TCPIP_SNMP_TRAPv1Notify
                0x00000000      0x404 build/default/production/_ext/1033058136/snmp.o
 .text.TCPIP_SNMP_FileDescrSet
                0x00000000        0xc build/default/production/_ext/1033058136/snmp.o
 .text.TCPIP_SNMP_FileDescrGet
                0x00000000        0xc build/default/production/_ext/1033058136/snmp.o
 .text.TCPIP_SNMP_TrapSpecificNotificationGet
                0x00000000       0x20 build/default/production/_ext/1033058136/snmp.o
 .text.TCPIP_SNMP_TrapInterFaceSet
                0x00000000       0x10 build/default/production/_ext/1033058136/snmp.o
 .text.TCPIP_SNMP_AuthTrapFlagGet
                0x00000000       0x10 build/default/production/_ext/1033058136/snmp.o
 .text.TCPIP_SNMP_TrapSendFlagSet
                0x00000000       0x10 build/default/production/_ext/1033058136/snmp.o
 .text.TCPIP_SNMP_TrapSendFlagGet
                0x00000000       0x18 build/default/production/_ext/1033058136/snmp.o
 .text.TCPIP_SNMP_SocketIDGet
                0x00000000       0x10 build/default/production/_ext/1033058136/snmp.o
 .text.TCPIP_SNMP_SocketIDSet
                0x00000000        0xc build/default/production/_ext/1033058136/snmp.o
 .text.TCPIP_SNMP_TRAPMibIDGet
                0x00000000       0x10 build/default/production/_ext/1033058136/snmp.o
 .text.TCPIP_SNMP_MibIDSet
                0x00000000       0x10 build/default/production/_ext/1033058136/snmp.o
 .text.TCPIP_SNMP_GetRXOffset
                0x00000000        0xc build/default/production/_ext/1033058136/snmp.o
 .text.TCPIP_SNMP_SetRXOffset
                0x00000000        0xc build/default/production/_ext/1033058136/snmp.o
 .bss.packetStructLenOffset.15545
                0x00000000        0x2 build/default/production/_ext/1033058136/snmp.o
 .bss.pduStructLenOffset.15546
                0x00000000        0x2 build/default/production/_ext/1033058136/snmp.o
 .bss.snmpTrapTimer
                0x00000000        0x4 build/default/production/_ext/1033058136/snmp.o
 .bss.varBindStructLenOffset.15547
                0x00000000        0x2 build/default/production/_ext/1033058136/snmp.o
 .bss.varPairStructLenOffset.15548
                0x00000000        0x2 build/default/production/_ext/1033058136/snmp.o
 .bss.varbindlen.15542
                0x00000000        0x4 build/default/production/_ext/1033058136/snmp.o
 .data.gen_trap_oid.15522
                0x00000000        0x9 build/default/production/_ext/1033058136/snmp.o
 .data.snmpTrapFileDescriptr
                0x00000000        0x4 build/default/production/_ext/1033058136/snmp.o
 .data.snmptrap_oids.15523
                0x00000000        0x9 build/default/production/_ext/1033058136/snmp.o
 .text          0x00000000        0x0 build/default/production/_ext/1033058136/icmp.o
 .data          0x00000000        0x0 build/default/production/_ext/1033058136/icmp.o
 .bss           0x00000000        0x0 build/default/production/_ext/1033058136/icmp.o
 .text.TCPIP_ICMP_CallbackRegister
                0x00000000       0x30 build/default/production/_ext/1033058136/icmp.o
 .text.TCPIP_ICMP_CallbackDeregister
                0x00000000       0x24 build/default/production/_ext/1033058136/icmp.o
 .text.TCPIP_ICMP_EchoRequestSend
                0x00000000       0x90 build/default/production/_ext/1033058136/icmp.o
 .text          0x00000000        0x0 build/default/production/_ext/1033058136/tcp.o
 .data          0x00000000        0x0 build/default/production/_ext/1033058136/tcp.o
 .bss           0x00000000        0x0 build/default/production/_ext/1033058136/tcp.o
 .text.TCPIP_TCP_SocketTraceSet
                0x00000000        0x4 build/default/production/_ext/1033058136/tcp.o
 .text.TCPIP_TCP_Abort
                0x00000000       0x14 build/default/production/_ext/1033058136/tcp.o
 .text.TCPIP_TCP_SocketFlagsGet
                0x00000000       0x12 build/default/production/_ext/1033058136/tcp.o
 .text.TCPIP_TCP_SocketsNumberGet
                0x00000000        0xc build/default/production/_ext/1033058136/tcp.o
 .text.TCPIP_TCP_FifoTxFreeGet
                0x00000000       0x26 build/default/production/_ext/1033058136/tcp.o
 .text.TCPIP_TCP_ArrayPeek
                0x00000000       0x66 build/default/production/_ext/1033058136/tcp.o
 .text.TCPIP_TCP_Peek
                0x00000000       0x1a build/default/production/_ext/1033058136/tcp.o
 .text.TCPIP_TCP_SocketNetSet
                0x00000000       0x28 build/default/production/_ext/1033058136/tcp.o
 .text.TCPIP_TCP_OptionsGet
                0x00000000       0xc4 build/default/production/_ext/1033058136/tcp.o
 .text.TCPIP_TCP_SourceIPAddressSet
                0x00000000       0x32 build/default/production/_ext/1033058136/tcp.o
 .text.TCPIP_TCP_IsReady
                0x00000000        0x4 build/default/production/_ext/1033058136/tcp.o
 .text          0x00000000        0x0 build/default/production/_ext/1033058136/arp.o
 .data          0x00000000        0x0 build/default/production/_ext/1033058136/arp.o
 .bss           0x00000000        0x0 build/default/production/_ext/1033058136/arp.o
 .text.TCPIP_ARP_EntrySet
                0x00000000       0xe8 build/default/production/_ext/1033058136/arp.o
 .text.TCPIP_ARP_EntryRemoveAll
                0x00000000       0x84 build/default/production/_ext/1033058136/arp.o
 .text.TCPIP_ARP_EntryQuery
                0x00000000       0xa8 build/default/production/_ext/1033058136/arp.o
 .text.TCPIP_ARP_CacheEntriesNoGet
                0x00000000       0x58 build/default/production/_ext/1033058136/arp.o
 .text.TCPIP_ARP_CacheThresholdSet
                0x00000000       0x54 build/default/production/_ext/1033058136/arp.o
 .text          0x00000000        0x0 build/default/production/_ext/1033058136/tcpip_commands.o
 .data          0x00000000        0x0 build/default/production/_ext/1033058136/tcpip_commands.o
 .bss           0x00000000        0x0 build/default/production/_ext/1033058136/tcpip_commands.o
 .text          0x00000000        0x0 build/default/production/_ext/1033058136/http.o
 .data          0x00000000        0x0 build/default/production/_ext/1033058136/http.o
 .bss           0x00000000        0x0 build/default/production/_ext/1033058136/http.o
 .text.TCPIP_HTTP_FileInclude
                0x00000000      0x120 build/default/production/_ext/1033058136/http.o
 .text.TCPIP_HTTP_CurrentConnectionCallbackPosGet
                0x00000000        0x4 build/default/production/_ext/1033058136/http.o
 .text.TCPIP_HTTP_CurrentConnectionStatusGet
                0x00000000        0x6 build/default/production/_ext/1033058136/http.o
 .text.TCPIP_HTTP_CurrentConnectionHasArgsGet
                0x00000000        0x6 build/default/production/_ext/1033058136/http.o
 .text.TCPIP_HTTP_CurrentConnectionByteCountSet
                0x00000000        0x4 build/default/production/_ext/1033058136/http.o
 .text.TCPIP_HTTP_CurrentConnectionIsAuthorizedGet
                0x00000000        0x6 build/default/production/_ext/1033058136/http.o
 .text.TCPIP_HTTP_CurrentConnectionIsAuthorizedSet
                0x00000000        0x6 build/default/production/_ext/1033058136/http.o
 .text.TCPIP_HTTP_CurrentConnectionUserDataSet
                0x00000000        0x4 build/default/production/_ext/1033058136/http.o
 .text.TCPIP_HTTP_CurrentConnectionUserDataGet
                0x00000000        0x4 build/default/production/_ext/1033058136/http.o
 .text.TCPIP_HTTP_CurrentConnectionSMSet
                0x00000000        0x6 build/default/production/_ext/1033058136/http.o
 .text.TCPIP_HTTP_CurrentConnectionSMGet
                0x00000000        0x6 build/default/production/_ext/1033058136/http.o
 .text.TCPIP_HTTP_CurrentConnectionUploadBufferStartSet
                0x00000000        0x4 build/default/production/_ext/1033058136/http.o
 .text.TCPIP_HTTP_CurrentConnectionUploadBufferStartGet
                0x00000000        0x4 build/default/production/_ext/1033058136/http.o
 .text.TCPIP_HTTP_CurrentConnectionUploadBufferEndSet
                0x00000000        0x4 build/default/production/_ext/1033058136/http.o
 .text.TCPIP_HTTP_CurrentConnectionUploadBufferEndGet
                0x00000000        0x4 build/default/production/_ext/1033058136/http.o
 .text.TCPIP_HTTP_CurrentConnectionUploadBufferCurrSet
                0x00000000        0x4 build/default/production/_ext/1033058136/http.o
 .text.TCPIP_HTTP_CurrentConnectionUploadBufferCurrGet
                0x00000000        0x4 build/default/production/_ext/1033058136/http.o
 .text.TCPIP_HTTP_CurrentConnectionIndexGet
                0x00000000        0x6 build/default/production/_ext/1033058136/http.o
 .text.TCPIP_HTTP_CurrentConnectionHandleGet
                0x00000000       0x24 build/default/production/_ext/1033058136/http.o
 .text.TCPIP_HTTP_ActiveConnectionCountGet
                0x00000000       0x50 build/default/production/_ext/1033058136/http.o
 .text          0x00000000        0x0 build/default/production/_ext/1033058136/iperf.o
 .data          0x00000000        0x0 build/default/production/_ext/1033058136/iperf.o
 .bss           0x00000000        0x0 build/default/production/_ext/1033058136/iperf.o
 .text          0x00000000        0x0 build/default/production/_ext/1033058136/ipv4.o
 .data          0x00000000        0x0 build/default/production/_ext/1033058136/ipv4.o
 .bss           0x00000000        0x0 build/default/production/_ext/1033058136/ipv4.o
 .text.TCPIP_IPv4_ArpStatGet
                0x00000000        0x4 build/default/production/_ext/1033058136/ipv4.o
 .text.TCPIP_IPv4_ForwardStatGet
                0x00000000        0x4 build/default/production/_ext/1033058136/ipv4.o
 .text.TCPIP_IPV4_PacketFilterSet
                0x00000000       0x24 build/default/production/_ext/1033058136/ipv4.o
 .text.TCPIP_IPV4_PacketFilterClear
                0x00000000       0x24 build/default/production/_ext/1033058136/ipv4.o
 .text.TCPIP_IPV4_MacPacketTransmit
                0x00000000       0x60 build/default/production/_ext/1033058136/ipv4.o
 .text.TCPIP_IPV4_PacketAlloc
                0x00000000       0x78 build/default/production/_ext/1033058136/ipv4.o
 .text.TCPIP_IPV4_PacketOptionFieldSet
                0x00000000       0x36 build/default/production/_ext/1033058136/ipv4.o
 .text.TCPIP_IPV4_PacketOptionListGet
                0x00000000       0x56 build/default/production/_ext/1033058136/ipv4.o
 .text.TCPIP_IPV4_PacketOptionGet
                0x00000000       0x70 build/default/production/_ext/1033058136/ipv4.o
 .text          0x00000000        0x0 build/default/production/_ext/1033058136/tcpip_heap_alloc.o
 .data          0x00000000        0x0 build/default/production/_ext/1033058136/tcpip_heap_alloc.o
 .bss           0x00000000        0x0 build/default/production/_ext/1033058136/tcpip_heap_alloc.o
 .text._TCPIP_HEAP_PointerMapCached
                0x00000000        0x2 build/default/production/_ext/1033058136/tcpip_heap_alloc.o
 .text          0x00000000        0x0 build/default/production/_ext/1033058136/tcpip_heap_internal.o
 .data          0x00000000        0x0 build/default/production/_ext/1033058136/tcpip_heap_internal.o
 .bss           0x00000000        0x0 build/default/production/_ext/1033058136/tcpip_heap_internal.o
 .text          0x00000000        0x0 build/default/production/_ext/1033058136/dhcp.o
 .data          0x00000000        0x0 build/default/production/_ext/1033058136/dhcp.o
 .bss           0x00000000        0x0 build/default/production/_ext/1033058136/dhcp.o
 .text.TCPIP_DHCP_IsBound
                0x00000000       0x3c build/default/production/_ext/1033058136/dhcp.o
 .text.TCPIP_DHCP_IsServerDetected
                0x00000000       0x3c build/default/production/_ext/1033058136/dhcp.o
 .text.TCPIP_DHCP_RequestTimeoutSet
                0x00000000       0x54 build/default/production/_ext/1033058136/dhcp.o
 .text.TCPIP_DHCP_HandlerRegister
                0x00000000       0x34 build/default/production/_ext/1033058136/dhcp.o
 .text.TCPIP_DHCP_HandlerDeRegister
                0x00000000       0x24 build/default/production/_ext/1033058136/dhcp.o
 .text.TCPIP_DHCP_HostNameCallbackRegister
                0x00000000       0x54 build/default/production/_ext/1033058136/dhcp.o
 .text          0x00000000        0x0 build/default/production/_ext/1033058136/dns.o
 .data          0x00000000        0x0 build/default/production/_ext/1033058136/dns.o
 .bss           0x00000000        0x0 build/default/production/_ext/1033058136/dns.o
 .text.TCPIP_DNS_Send_Query
                0x00000000        0xa build/default/production/_ext/1033058136/dns.o
 .text.TCPIP_DNS_IsEnabled
                0x00000000       0x1a build/default/production/_ext/1033058136/dns.o
 .text          0x00000000        0x0 build/default/production/_ext/1033058136/hash_fnv.o
 .data          0x00000000        0x0 build/default/production/_ext/1033058136/hash_fnv.o
 .bss           0x00000000        0x0 build/default/production/_ext/1033058136/hash_fnv.o
 .text.fnv_32a_hash
                0x00000000       0x30 build/default/production/_ext/1033058136/hash_fnv.o
 .text          0x00000000        0x0 build/default/production/_ext/1033058136/oahash.o
 .data          0x00000000        0x0 build/default/production/_ext/1033058136/oahash.o
 .bss           0x00000000        0x0 build/default/production/_ext/1033058136/oahash.o
 .text          0x00000000        0x0 build/default/production/_ext/1033058136/tcpip_helpers.o
 .data          0x00000000        0x0 build/default/production/_ext/1033058136/tcpip_helpers.o
 .bss           0x00000000        0x0 build/default/production/_ext/1033058136/tcpip_helpers.o
 .text._TCPIP_Helper_SecurePortEntry
                0x00000000       0x38 build/default/production/_ext/1033058136/tcpip_helpers.o
 .text.TCPIP_Helper_IsPrivateAddress
                0x00000000       0x2c build/default/production/_ext/1033058136/tcpip_helpers.o
 .text.TCPIP_Helper_PowerModeToString
                0x00000000       0x14 build/default/production/_ext/1033058136/tcpip_helpers.o
 .text.TCPIP_Helper_Base64Decode
                0x00000000      0x104 build/default/production/_ext/1033058136/tcpip_helpers.o
 .text.TCPIP_Helper_Base64Encode
                0x00000000      0x116 build/default/production/_ext/1033058136/tcpip_helpers.o
 .text.TCPIP_Helper_FindCommonPrefix
                0x00000000       0x52 build/default/production/_ext/1033058136/tcpip_helpers.o
 .text.TCPIP_Helper_SingleListHeadAdd
                0x00000000       0x16 build/default/production/_ext/1033058136/tcpip_helpers.o
 .text.TCPIP_Helper_SingleListMidAdd
                0x00000000        0xe build/default/production/_ext/1033058136/tcpip_helpers.o
 .text.TCPIP_Helper_SingleListNextRemove
                0x00000000       0x26 build/default/production/_ext/1033058136/tcpip_helpers.o
 .text.TCPIP_Helper_SingleListFind
                0x00000000       0x20 build/default/production/_ext/1033058136/tcpip_helpers.o
 .text.TCPIP_Helper_ProtectedSingleListHeadAdd
                0x00000000       0x2a build/default/production/_ext/1033058136/tcpip_helpers.o
 .text.TCPIP_Helper_ProtectedSingleListMidAdd
                0x00000000       0x30 build/default/production/_ext/1033058136/tcpip_helpers.o
 .text.TCPIP_Helper_ProtectedSingleListNextRemove
                0x00000000       0x30 build/default/production/_ext/1033058136/tcpip_helpers.o
 .text.TCPIP_Helper_ProtectedSingleListAppend
                0x00000000       0x2a build/default/production/_ext/1033058136/tcpip_helpers.o
 .text.TCPIP_Helper_DoubleListInitialize
                0x00000000        0xa build/default/production/_ext/1033058136/tcpip_helpers.o
 .text.TCPIP_Helper_DoubleListHeadAdd
                0x00000000       0x22 build/default/production/_ext/1033058136/tcpip_helpers.o
 .text.TCPIP_Helper_DoubleListTailAdd
                0x00000000       0x22 build/default/production/_ext/1033058136/tcpip_helpers.o
 .text.TCPIP_Helper_DoubleListMidAdd
                0x00000000       0x14 build/default/production/_ext/1033058136/tcpip_helpers.o
 .text.TCPIP_Helper_DoubleListHeadRemove
                0x00000000       0x24 build/default/production/_ext/1033058136/tcpip_helpers.o
 .text.TCPIP_Helper_DoubleListTailRemove
                0x00000000       0x24 build/default/production/_ext/1033058136/tcpip_helpers.o
 .text.TCPIP_Helper_DoubleListMidRemove
                0x00000000       0x12 build/default/production/_ext/1033058136/tcpip_helpers.o
 .text.TCPIP_Helper_DoubleListNodeRemove
                0x00000000       0x20 build/default/production/_ext/1033058136/tcpip_helpers.o
 .text.TCPIP_Helper_DoubleListFind
                0x00000000       0x20 build/default/production/_ext/1033058136/tcpip_helpers.o
 .text.TCPIP_Helper_ProtectedDoubleListInitialize
                0x00000000       0x22 build/default/production/_ext/1033058136/tcpip_helpers.o
 .text.TCPIP_Helper_ProtectedDoubleListDeinitialize
                0x00000000       0x30 build/default/production/_ext/1033058136/tcpip_helpers.o
 .text.TCPIP_Helper_ProtectedDoubleListHeadAdd
                0x00000000       0x2a build/default/production/_ext/1033058136/tcpip_helpers.o
 .text.TCPIP_Helper_ProtectedDoubleListTailAdd
                0x00000000       0x2a build/default/production/_ext/1033058136/tcpip_helpers.o
 .text.TCPIP_Helper_ProtectedDoubleListMidAdd
                0x00000000       0x2e build/default/production/_ext/1033058136/tcpip_helpers.o
 .text.TCPIP_Helper_ProtectedDoubleListHeadRemove
                0x00000000       0x2c build/default/production/_ext/1033058136/tcpip_helpers.o
 .text.TCPIP_Helper_ProtectedDoubleListTailRemove
                0x00000000       0x2c build/default/production/_ext/1033058136/tcpip_helpers.o
 .text.TCPIP_Helper_ProtectedDoubleListMidRemove
                0x00000000       0x2a build/default/production/_ext/1033058136/tcpip_helpers.o
 .text.TCPIP_Helper_ProtectedDoubleListNodeRemove
                0x00000000       0x2a build/default/production/_ext/1033058136/tcpip_helpers.o
 .text.TCPIP_Helper_ProtectedDoubleListRemoveAll
                0x00000000       0x2a build/default/production/_ext/1033058136/tcpip_helpers.o
 .text.TCPIP_Helper_ProtectedDoubleListLock
                0x00000000       0x14 build/default/production/_ext/1033058136/tcpip_helpers.o
 .text.TCPIP_Helper_ProtectedDoubleListUnlock
                0x00000000       0x10 build/default/production/_ext/1033058136/tcpip_helpers.o
 .text.TCPIP_Helper_TCPSecurePortGet
                0x00000000       0x16 build/default/production/_ext/1033058136/tcpip_helpers.o
 .text.TCPIP_Helper_UDPSecurePortGet
                0x00000000       0x16 build/default/production/_ext/1033058136/tcpip_helpers.o
 .text.TCPIP_Helper_SecurePortGetByIndex
                0x00000000       0x34 build/default/production/_ext/1033058136/tcpip_helpers.o
 .text.TCPIP_Helper_SecurePortSet
                0x00000000       0x5e build/default/production/_ext/1033058136/tcpip_helpers.o
 .data.tcpSecurePortTbl
                0x00000000       0x28 build/default/production/_ext/1033058136/tcpip_helpers.o
 .text          0x00000000        0x0 build/default/production/_ext/1033058136/tcpip_manager.o
 .data          0x00000000        0x0 build/default/production/_ext/1033058136/tcpip_manager.o
 .bss           0x00000000        0x0 build/default/production/_ext/1033058136/tcpip_manager.o
 .text._NetConfigStringToBuffer
                0x00000000       0x52 build/default/production/_ext/1033058136/tcpip_manager.o
 .text.TCPIP_STACK_Status
                0x00000000       0x1c build/default/production/_ext/1033058136/tcpip_manager.o
 .text.TCPIP_STACK_NetMulticastGet
                0x00000000        0x4 build/default/production/_ext/1033058136/tcpip_manager.o
 .text.TCPIP_STACK_NetMulticastSet
                0x00000000        0x4 build/default/production/_ext/1033058136/tcpip_manager.o
 .text.TCPIP_STACK_MacToNet
                0x00000000       0x3c build/default/production/_ext/1033058136/tcpip_manager.o
 .text.TCPIP_STACK_MacToNetIndex
                0x00000000       0x44 build/default/production/_ext/1033058136/tcpip_manager.o
 .text.TCPIP_Stack_UserHandleToNet
                0x00000000       0x3c build/default/production/_ext/1033058136/tcpip_manager.o
 .text.TCPIP_STACK_NetMACIdGet
                0x00000000       0x18 build/default/production/_ext/1033058136/tcpip_manager.o
 .text.TCPIP_STACK_ModuleConfigGet
                0x00000000       0x4c build/default/production/_ext/1033058136/tcpip_manager.o
 .text.TCPIP_STACK_NetConfigGet
                0x00000000       0x50 build/default/production/_ext/1033058136/tcpip_manager.o
 .text.TCPIP_STACK_NetConfigSet
                0x00000000      0x1aa build/default/production/_ext/1033058136/tcpip_manager.o
 .text.TCPIP_STACK_MACIdToString
                0x00000000       0x3c build/default/production/_ext/1033058136/tcpip_manager.o
 .text.TCPIP_STACK_EventsPendingGet
                0x00000000       0x20 build/default/production/_ext/1033058136/tcpip_manager.o
 .text.TCPIP_STACK_NetStaticIPv6AddressGet
                0x00000000        0x4 build/default/production/_ext/1033058136/tcpip_manager.o
 .text.TCPIP_STACK_NetDefaultIPv6GatewayGet
                0x00000000        0x4 build/default/production/_ext/1033058136/tcpip_manager.o
 .text.TCPIP_STACK_AddressIsOfNetUp
                0x00000000       0x30 build/default/production/_ext/1033058136/tcpip_manager.o
 .text._TCPIPStackAnyNetDirected
                0x00000000       0x48 build/default/production/_ext/1033058136/tcpip_manager.o
 .text.TCPIP_STACK_NetMACId
                0x00000000        0xc build/default/production/_ext/1033058136/tcpip_manager.o
 .text.TCPIP_STACK_NetToMAC
                0x00000000        0xa build/default/production/_ext/1033058136/tcpip_manager.o
 .text.TCPIP_STACK_VersionGet
                0x00000000        0x8 build/default/production/_ext/1033058136/tcpip_manager.o
 .text.TCPIP_STACK_VersionStrGet
                0x00000000        0x8 build/default/production/_ext/1033058136/tcpip_manager.o
 .text.TCPIP_MODULE_SignalFunctionRegister
                0x00000000       0x3c build/default/production/_ext/1033058136/tcpip_manager.o
 .text.TCPIP_MODULE_SignalFunctionDeregister
                0x00000000        0xe build/default/production/_ext/1033058136/tcpip_manager.o
 .text.TCPIP_MODULE_SignalGet
                0x00000000       0x28 build/default/production/_ext/1033058136/tcpip_manager.o
 .text.TCPIP_STACK_HEAP_Size
                0x00000000        0xe build/default/production/_ext/1033058136/tcpip_manager.o
 .text.TCPIP_STACK_HEAP_MaxSize
                0x00000000        0xe build/default/production/_ext/1033058136/tcpip_manager.o
 .text.TCPIP_STACK_HEAP_FreeSize
                0x00000000        0xe build/default/production/_ext/1033058136/tcpip_manager.o
 .text.TCPIP_STACK_HEAP_HighWatermark
                0x00000000        0xe build/default/production/_ext/1033058136/tcpip_manager.o
 .text.TCPIP_STACK_HEAP_LastError
                0x00000000       0x10 build/default/production/_ext/1033058136/tcpip_manager.o
 .text          0x00000000        0x0 build/default/production/_ext/1033058136/tcpip_notify.o
 .data          0x00000000        0x0 build/default/production/_ext/1033058136/tcpip_notify.o
 .bss           0x00000000        0x0 build/default/production/_ext/1033058136/tcpip_notify.o
 .text          0x00000000        0x0 build/default/production/_ext/1033058136/tcpip_packet.o
 .data          0x00000000        0x0 build/default/production/_ext/1033058136/tcpip_packet.o
 .bss           0x00000000        0x0 build/default/production/_ext/1033058136/tcpip_packet.o
 .text.TCPIP_PKT_SegmentAppend
                0x00000000       0x14 build/default/production/_ext/1033058136/tcpip_packet.o
 .text._TCPIP_PKT_SegmentAlloc
                0x00000000       0x4c build/default/production/_ext/1033058136/tcpip_packet.o
 .text._TCPIP_PKT_SegmentFree
                0x00000000       0x1c build/default/production/_ext/1033058136/tcpip_packet.o
 .text          0x00000000        0x0 build/default/production/_ext/1033058136/udp.o
 .data          0x00000000        0x0 build/default/production/_ext/1033058136/udp.o
 .bss           0x00000000        0x0 build/default/production/_ext/1033058136/udp.o
 .text.TCPIP_UDP_IsConnected
                0x00000000       0x2c build/default/production/_ext/1033058136/udp.o
 .text.TCPIP_UDP_Put
                0x00000000       0x18 build/default/production/_ext/1033058136/udp.o
 .text.TCPIP_UDP_StringPut
                0x00000000       0x2a build/default/production/_ext/1033058136/udp.o
 .text.TCPIP_UDP_TxCountGet
                0x00000000       0x22 build/default/production/_ext/1033058136/udp.o
 .text.TCPIP_UDP_Get
                0x00000000        0xa build/default/production/_ext/1033058136/udp.o
 .text.TCPIP_UDP_RemoteBind
                0x00000000       0xa6 build/default/production/_ext/1033058136/udp.o
 .text.TCPIP_UDP_SetSplitPayload
                0x00000000       0x56 build/default/production/_ext/1033058136/udp.o
 .text.TCPIP_UDP_SignalHandlerDeregister
                0x00000000       0x3a build/default/production/_ext/1033058136/udp.o
 .text.TCPIP_UDP_SocketsNumberGet
                0x00000000        0xc build/default/production/_ext/1033058136/udp.o
 .text          0x00000000        0x0 build/default/production/_ext/1529399856/osal_freertos.o
 .data          0x00000000        0x0 build/default/production/_ext/1529399856/osal_freertos.o
 .bss           0x00000000        0x0 build/default/production/_ext/1529399856/osal_freertos.o
 .text.OSAL_SEM_GetCount
                0x00000000       0x12 build/default/production/_ext/1529399856/osal_freertos.o
 .text.OSAL_MUTEX_Delete
                0x00000000       0x1a build/default/production/_ext/1529399856/osal_freertos.o
 .text.OSAL_Free
                0x00000000        0x8 build/default/production/_ext/1529399856/osal_freertos.o
 .text.OSAL_Initialize
                0x00000000        0x4 build/default/production/_ext/1529399856/osal_freertos.o
 .text          0x00000000        0x0 build/default/production/_ext/1984496892/plib_clock.o
 .data          0x00000000        0x0 build/default/production/_ext/1984496892/plib_clock.o
 .bss           0x00000000        0x0 build/default/production/_ext/1984496892/plib_clock.o
 .text          0x00000000        0x0 build/default/production/_ext/1865131932/plib_cmcc.o
 .data          0x00000000        0x0 build/default/production/_ext/1865131932/plib_cmcc.o
 .bss           0x00000000        0x0 build/default/production/_ext/1865131932/plib_cmcc.o
 .text.CMCC_Disable
                0x00000000       0x18 build/default/production/_ext/1865131932/plib_cmcc.o
 .text.CMCC_EnableICache
                0x00000000       0x28 build/default/production/_ext/1865131932/plib_cmcc.o
 .text.CMCC_DisableICache
                0x00000000       0x28 build/default/production/_ext/1865131932/plib_cmcc.o
 .text.CMCC_EnableDCache
                0x00000000       0x28 build/default/production/_ext/1865131932/plib_cmcc.o
 .text.CMCC_DisableDCache
                0x00000000       0x28 build/default/production/_ext/1865131932/plib_cmcc.o
 .text.CMCC_InvalidateAll
                0x00000000       0x20 build/default/production/_ext/1865131932/plib_cmcc.o
 .debug_info    0x00000000      0x5c5 build/default/production/_ext/1865131932/plib_cmcc.o
 .debug_abbrev  0x00000000       0x9d build/default/production/_ext/1865131932/plib_cmcc.o
 .debug_aranges
                0x00000000       0x48 build/default/production/_ext/1865131932/plib_cmcc.o
 .debug_ranges  0x00000000       0x38 build/default/production/_ext/1865131932/plib_cmcc.o
 .debug_line    0x00000000      0x285 build/default/production/_ext/1865131932/plib_cmcc.o
 .debug_str     0x00000000        0x0 build/default/production/_ext/1865131932/plib_cmcc.o
 .comment       0x00000000       0x54 build/default/production/_ext/1865131932/plib_cmcc.o
 .debug_frame   0x00000000       0x70 build/default/production/_ext/1865131932/plib_cmcc.o
 .ARM.attributes
                0x00000000       0x34 build/default/production/_ext/1865131932/plib_cmcc.o
 .text          0x00000000        0x0 build/default/production/_ext/1986646378/plib_evsys.o
 .data          0x00000000        0x0 build/default/production/_ext/1986646378/plib_evsys.o
 .bss           0x00000000        0x0 build/default/production/_ext/1986646378/plib_evsys.o
 .text          0x00000000        0x0 build/default/production/_ext/1865468468/plib_nvic.o
 .data          0x00000000        0x0 build/default/production/_ext/1865468468/plib_nvic.o
 .bss           0x00000000        0x0 build/default/production/_ext/1865468468/plib_nvic.o
 .text.NVIC_INT_Enable
                0x00000000        0x8 build/default/production/_ext/1865468468/plib_nvic.o
 .text          0x00000000        0x0 build/default/production/_ext/1593096446/plib_nvmctrl.o
 .data          0x00000000        0x0 build/default/production/_ext/1593096446/plib_nvmctrl.o
 .bss           0x00000000        0x0 build/default/production/_ext/1593096446/plib_nvmctrl.o
 .text.NVMCTRL_SetWriteMode
                0x00000000       0x14 build/default/production/_ext/1593096446/plib_nvmctrl.o
 .text.NVMCTRL_QuadWordWrite
                0x00000000       0x4c build/default/production/_ext/1593096446/plib_nvmctrl.o
 .text.NVMCTRL_DoubleWordWrite
                0x00000000       0x40 build/default/production/_ext/1593096446/plib_nvmctrl.o
 .text.NVMCTRL_PageBufferWrite
                0x00000000       0x2c build/default/production/_ext/1593096446/plib_nvmctrl.o
 .text.NVMCTRL_PageBufferCommit
                0x00000000       0x28 build/default/production/_ext/1593096446/plib_nvmctrl.o
 .text.NVMCTRL_USER_ROW_RowErase
                0x00000000       0x30 build/default/production/_ext/1593096446/plib_nvmctrl.o
 .text.NVMCTRL_ErrorGet
                0x00000000       0x20 build/default/production/_ext/1593096446/plib_nvmctrl.o
 .text.NVMCTRL_StatusGet
                0x00000000        0xc build/default/production/_ext/1593096446/plib_nvmctrl.o
 .text.NVMCTRL_USER_ROW_PageWrite
                0x00000000       0x6c build/default/production/_ext/1593096446/plib_nvmctrl.o
 .text.NVMCTRL_RegionLock
                0x00000000       0x10 build/default/production/_ext/1593096446/plib_nvmctrl.o
 .text.NVMCTRL_RegionUnlock
                0x00000000       0x10 build/default/production/_ext/1593096446/plib_nvmctrl.o
 .text.NVMCTRL_RegionLockStatusGet
                0x00000000        0xc build/default/production/_ext/1593096446/plib_nvmctrl.o
 .text.NVMCTRL_SecurityBitSet
                0x00000000       0x10 build/default/production/_ext/1593096446/plib_nvmctrl.o
 .text.NVMCTRL_SmartEEPROM_IsBusy
                0x00000000       0x10 build/default/production/_ext/1593096446/plib_nvmctrl.o
 .text.NVMCTRL_SmartEEPROMStatusGet
                0x00000000        0xc build/default/production/_ext/1593096446/plib_nvmctrl.o
 .text.NVMCTRL_SmartEEPROM_IsActiveSectorFull
                0x00000000       0x10 build/default/production/_ext/1593096446/plib_nvmctrl.o
 .text.NVMCTRL_BankSwap
                0x00000000       0x10 build/default/production/_ext/1593096446/plib_nvmctrl.o
 .text.NVMCTRL_SmartEEPROMSectorReallocate
                0x00000000       0x10 build/default/production/_ext/1593096446/plib_nvmctrl.o
 .text.NVMCTRL_SmartEEPROMFlushPageBuffer
                0x00000000       0x18 build/default/production/_ext/1593096446/plib_nvmctrl.o
 .text          0x00000000        0x0 build/default/production/_ext/1865521619/plib_port.o
 .data          0x00000000        0x0 build/default/production/_ext/1865521619/plib_port.o
 .bss           0x00000000        0x0 build/default/production/_ext/1865521619/plib_port.o
 .text.PORT_GroupRead
                0x00000000        0x4 build/default/production/_ext/1865521619/plib_port.o
 .text.PORT_GroupWrite
                0x00000000        0xc build/default/production/_ext/1865521619/plib_port.o
 .text.PORT_GroupLatchRead
                0x00000000        0x4 build/default/production/_ext/1865521619/plib_port.o
 .text.PORT_GroupSet
                0x00000000        0x4 build/default/production/_ext/1865521619/plib_port.o
 .text.PORT_GroupClear
                0x00000000        0x4 build/default/production/_ext/1865521619/plib_port.o
 .text.PORT_GroupToggle
                0x00000000        0x4 build/default/production/_ext/1865521619/plib_port.o
 .text.PORT_GroupInputEnable
                0x00000000        0x4 build/default/production/_ext/1865521619/plib_port.o
 .text.PORT_GroupOutputEnable
                0x00000000        0x4 build/default/production/_ext/1865521619/plib_port.o
 .text.PORT_PinPeripheralFunctionConfig
                0x00000000       0x4a build/default/production/_ext/1865521619/plib_port.o
 .text.PORT_PinGPIOConfig
                0x00000000       0x20 build/default/production/_ext/1865521619/plib_port.o
 .text          0x00000000        0x0 build/default/production/_ext/504274921/plib_sercom1_usart.o
 .data          0x00000000        0x0 build/default/production/_ext/504274921/plib_sercom1_usart.o
 .bss           0x00000000        0x0 build/default/production/_ext/504274921/plib_sercom1_usart.o
 .text.SERCOM1_USART_FrequencyGet
                0x00000000        0x8 build/default/production/_ext/504274921/plib_sercom1_usart.o
 .text.SERCOM1_USART_SerialSetup
                0x00000000      0x144 build/default/production/_ext/504274921/plib_sercom1_usart.o
 .text.SERCOM1_USART_ErrorGet
                0x00000000       0x10 build/default/production/_ext/504274921/plib_sercom1_usart.o
 .text.SERCOM1_USART_ReadBufferSizeGet
                0x00000000        0xc build/default/production/_ext/504274921/plib_sercom1_usart.o
 .text.SERCOM1_USART_ReadNotificationEnable
                0x00000000       0x18 build/default/production/_ext/504274921/plib_sercom1_usart.o
 .text.SERCOM1_USART_ReadThresholdSet
                0x00000000        0xc build/default/production/_ext/504274921/plib_sercom1_usart.o
 .text.SERCOM1_USART_ReadCallbackRegister
                0x00000000        0xc build/default/production/_ext/504274921/plib_sercom1_usart.o
 .text.SERCOM1_USART_TransmitComplete
                0x00000000       0x10 build/default/production/_ext/504274921/plib_sercom1_usart.o
 .text.SERCOM1_USART_WriteBufferSizeGet
                0x00000000        0xc build/default/production/_ext/504274921/plib_sercom1_usart.o
 .text.SERCOM1_USART_WriteNotificationEnable
                0x00000000       0x10 build/default/production/_ext/504274921/plib_sercom1_usart.o
 .text.SERCOM1_USART_WriteThresholdSet
                0x00000000        0xc build/default/production/_ext/504274921/plib_sercom1_usart.o
 .text.SERCOM1_USART_WriteCallbackRegister
                0x00000000        0xc build/default/production/_ext/504274921/plib_sercom1_usart.o
 .text          0x00000000        0x0 build/default/production/_ext/829342655/plib_tc0.o
 .data          0x00000000        0x0 build/default/production/_ext/829342655/plib_tc0.o
 .bss           0x00000000        0x0 build/default/production/_ext/829342655/plib_tc0.o
 .text.TC0_TimerCommandSet
                0x00000000       0x18 build/default/production/_ext/829342655/plib_tc0.o
 .text.TC0_Timer16bitCounterSet
                0x00000000       0x14 build/default/production/_ext/829342655/plib_tc0.o
 .text.TC0_Timer16bitPeriodGet
                0x00000000        0xc build/default/production/_ext/829342655/plib_tc0.o
 .text          0x00000000        0x0 build/default/production/_ext/163028504/xc32_monitor.o
 .data          0x00000000        0x0 build/default/production/_ext/163028504/xc32_monitor.o
 .bss           0x00000000        0x0 build/default/production/_ext/163028504/xc32_monitor.o
 .text.read     0x00000000        0x6 build/default/production/_ext/163028504/xc32_monitor.o
 .text.write    0x00000000        0x6 build/default/production/_ext/163028504/xc32_monitor.o
 .debug_info    0x00000000      0x34a build/default/production/_ext/163028504/xc32_monitor.o
 .debug_abbrev  0x00000000       0x96 build/default/production/_ext/163028504/xc32_monitor.o
 .debug_loc     0x00000000       0x4a build/default/production/_ext/163028504/xc32_monitor.o
 .debug_aranges
                0x00000000       0x28 build/default/production/_ext/163028504/xc32_monitor.o
 .debug_ranges  0x00000000       0x18 build/default/production/_ext/163028504/xc32_monitor.o
 .debug_line    0x00000000       0xcc build/default/production/_ext/163028504/xc32_monitor.o
 .debug_str     0x00000000        0x0 build/default/production/_ext/163028504/xc32_monitor.o
 .comment       0x00000000       0x54 build/default/production/_ext/163028504/xc32_monitor.o
 .debug_frame   0x00000000       0x30 build/default/production/_ext/163028504/xc32_monitor.o
 .ARM.attributes
                0x00000000       0x34 build/default/production/_ext/163028504/xc32_monitor.o
 .text          0x00000000        0x0 build/default/production/_ext/1014039709/sys_cache.o
 .data          0x00000000        0x0 build/default/production/_ext/1014039709/sys_cache.o
 .bss           0x00000000        0x0 build/default/production/_ext/1014039709/sys_cache.o
 .text.SYS_CACHE_EnableCaches
                0x00000000        0x2 build/default/production/_ext/1014039709/sys_cache.o
 .text.SYS_CACHE_DisableCaches
                0x00000000        0x2 build/default/production/_ext/1014039709/sys_cache.o
 .text.SYS_CACHE_EnableICache
                0x00000000        0x2 build/default/production/_ext/1014039709/sys_cache.o
 .text.SYS_CACHE_DisableICache
                0x00000000        0x2 build/default/production/_ext/1014039709/sys_cache.o
 .text.SYS_CACHE_InvalidateICache
                0x00000000        0x2 build/default/production/_ext/1014039709/sys_cache.o
 .text.SYS_CACHE_EnableDCache
                0x00000000        0x2 build/default/production/_ext/1014039709/sys_cache.o
 .text.SYS_CACHE_DisableDCache
                0x00000000        0x2 build/default/production/_ext/1014039709/sys_cache.o
 .text.SYS_CACHE_InvalidateDCache
                0x00000000        0x2 build/default/production/_ext/1014039709/sys_cache.o
 .text.SYS_CACHE_CleanDCache
                0x00000000        0x2 build/default/production/_ext/1014039709/sys_cache.o
 .text.SYS_CACHE_CleanInvalidateDCache
                0x00000000        0x2 build/default/production/_ext/1014039709/sys_cache.o
 .text.SYS_CACHE_InvalidateDCache_by_Addr
                0x00000000        0x2 build/default/production/_ext/1014039709/sys_cache.o
 .text.SYS_CACHE_CleanDCache_by_Addr
                0x00000000        0x2 build/default/production/_ext/1014039709/sys_cache.o
 .text.SYS_CACHE_CleanInvalidateDCache_by_Addr
                0x00000000        0x2 build/default/production/_ext/1014039709/sys_cache.o
 .debug_info    0x00000000      0x636 build/default/production/_ext/1014039709/sys_cache.o
 .debug_abbrev  0x00000000       0x9a build/default/production/_ext/1014039709/sys_cache.o
 .debug_aranges
                0x00000000       0x80 build/default/production/_ext/1014039709/sys_cache.o
 .debug_ranges  0x00000000       0x70 build/default/production/_ext/1014039709/sys_cache.o
 .debug_line    0x00000000      0x20f build/default/production/_ext/1014039709/sys_cache.o
 .debug_str     0x00000000        0x0 build/default/production/_ext/1014039709/sys_cache.o
 .comment       0x00000000       0x54 build/default/production/_ext/1014039709/sys_cache.o
 .debug_frame   0x00000000       0xe0 build/default/production/_ext/1014039709/sys_cache.o
 .ARM.attributes
                0x00000000       0x34 build/default/production/_ext/1014039709/sys_cache.o
 .text          0x00000000        0x0 build/default/production/_ext/1376093119/sys_command.o
 .data          0x00000000        0x0 build/default/production/_ext/1376093119/sys_command.o
 .bss           0x00000000        0x0 build/default/production/_ext/1376093119/sys_command.o
 .text.SYS_CMD_READY_TO_READ
                0x00000000        0x4 build/default/production/_ext/1376093119/sys_command.o
 .text.SYS_CMD_MESSAGE
                0x00000000        0xc build/default/production/_ext/1376093119/sys_command.o
 .text.SYS_CMD_PRINT
                0x00000000       0x80 build/default/production/_ext/1376093119/sys_command.o
 .text.SYS_CMDIO_GET_HANDLE
                0x00000000       0x20 build/default/production/_ext/1376093119/sys_command.o
 .text.SYS_CMD_DELETE
                0x00000000       0x64 build/default/production/_ext/1376093119/sys_command.o
 .text          0x00000000        0x0 build/default/production/_ext/1832805299/sys_console_uart.o
 .data          0x00000000        0x0 build/default/production/_ext/1832805299/sys_console_uart.o
 .bss           0x00000000        0x0 build/default/production/_ext/1832805299/sys_console_uart.o
 .text          0x00000000        0x0 build/default/production/_ext/1832805299/sys_console.o
 .data          0x00000000        0x0 build/default/production/_ext/1832805299/sys_console.o
 .bss           0x00000000        0x0 build/default/production/_ext/1832805299/sys_console.o
 .text.SYS_CONSOLE_HandleGet
                0x00000000        0xa build/default/production/_ext/1832805299/sys_console.o
 .text.SYS_CONSOLE_DeviceGet
                0x00000000       0x18 build/default/production/_ext/1832805299/sys_console.o
 .text.SYS_CONSOLE_Tasks
                0x00000000       0x28 build/default/production/_ext/1832805299/sys_console.o
 .text.SYS_CONSOLE_ReadFreeBufferCountGet
                0x00000000       0x34 build/default/production/_ext/1832805299/sys_console.o
 .text.SYS_CONSOLE_WriteFreeBufferCountGet
                0x00000000       0x34 build/default/production/_ext/1832805299/sys_console.o
 .text.SYS_CONSOLE_WriteCountGet
                0x00000000       0x34 build/default/production/_ext/1832805299/sys_console.o
 .text.SYS_CONSOLE_Flush
                0x00000000       0x2c build/default/production/_ext/1832805299/sys_console.o
 .text          0x00000000        0x0 build/default/production/_ext/944882569/sys_debug.o
 .data          0x00000000        0x0 build/default/production/_ext/944882569/sys_debug.o
 .bss           0x00000000        0x0 build/default/production/_ext/944882569/sys_debug.o
 .text.SYS_DEBUG_Status
                0x00000000        0xc build/default/production/_ext/944882569/sys_debug.o
 .text.SYS_DEBUG_ErrorLevelSet
                0x00000000        0xc build/default/production/_ext/944882569/sys_debug.o
 .text.SYS_DEBUG_Redirect
                0x00000000       0x14 build/default/production/_ext/944882569/sys_debug.o
 .text          0x00000000        0x0 build/default/production/_ext/699575981/mpfs.o
 .data          0x00000000        0x0 build/default/production/_ext/699575981/mpfs.o
 .bss           0x00000000        0x0 build/default/production/_ext/699575981/mpfs.o
 .text          0x00000000        0x0 build/default/production/_ext/1269487135/sys_fs.o
 .data          0x00000000        0x0 build/default/production/_ext/1269487135/sys_fs.o
 .bss           0x00000000        0x0 build/default/production/_ext/1269487135/sys_fs.o
 .text.SYS_FS_EventHandlerSet
                0x00000000        0x8 build/default/production/_ext/1269487135/sys_fs.o
 .text.SYS_FS_FileError
                0x00000000       0x16 build/default/production/_ext/1269487135/sys_fs.o
 .text.SYS_FS_DirRead
                0x00000000       0x80 build/default/production/_ext/1269487135/sys_fs.o
 .text.SYS_FS_DirRewind
                0x00000000       0x78 build/default/production/_ext/1269487135/sys_fs.o
 .text.SYS_FS_DirSearch
                0x00000000      0x144 build/default/production/_ext/1269487135/sys_fs.o
 .text.SYS_FS_FileSync
                0x00000000       0x1c build/default/production/_ext/1269487135/sys_fs.o
 .text.SYS_FS_FileTruncate
                0x00000000       0x1c build/default/production/_ext/1269487135/sys_fs.o
 .text.SYS_FS_FileCharacterPut
                0x00000000       0x1c build/default/production/_ext/1269487135/sys_fs.o
 .text.SYS_FS_FileStringPut
                0x00000000       0x1c build/default/production/_ext/1269487135/sys_fs.o
 .text.SYS_FS_FilePrintf
                0x00000000       0x20 build/default/production/_ext/1269487135/sys_fs.o
 .text.SYS_FS_FileTestError
                0x00000000       0x1c build/default/production/_ext/1269487135/sys_fs.o
 .text.SYS_FS_FileDirectoryModeSet
                0x00000000       0x10 build/default/production/_ext/1269487135/sys_fs.o
 .text.SYS_FS_FileDirectoryTimeSet
                0x00000000       0x10 build/default/production/_ext/1269487135/sys_fs.o
 .text.SYS_FS_FileDirectoryRenameMove
                0x00000000       0x10 build/default/production/_ext/1269487135/sys_fs.o
 .text.SYS_FS_CurrentDriveSet
                0x00000000       0x10 build/default/production/_ext/1269487135/sys_fs.o
 .text.SYS_FS_DriveLabelSet
                0x00000000       0x10 build/default/production/_ext/1269487135/sys_fs.o
 .text.SYS_FS_DriveFormat
                0x00000000       0x10 build/default/production/_ext/1269487135/sys_fs.o
 .text.SYS_FS_DrivePartition
                0x00000000       0x10 build/default/production/_ext/1269487135/sys_fs.o
 .text.SYS_FS_DriveSectorGet
                0x00000000       0x10 build/default/production/_ext/1269487135/sys_fs.o
 .text.SYS_FS_FileStringGet
                0x00000000       0x1c build/default/production/_ext/1269487135/sys_fs.o
 .text.SYS_FS_DirectoryChange
                0x00000000       0x10 build/default/production/_ext/1269487135/sys_fs.o
 .text.SYS_FS_CurrentWorkingDirectoryGet
                0x00000000       0x10 build/default/production/_ext/1269487135/sys_fs.o
 .text.SYS_FS_CurrentDriveGet
                0x00000000       0x4c build/default/production/_ext/1269487135/sys_fs.o
 .text.SYS_FS_DriveLabelGet
                0x00000000       0x10 build/default/production/_ext/1269487135/sys_fs.o
 .text          0x00000000        0x0 build/default/production/_ext/1269487135/sys_fs_media_manager.o
 .data          0x00000000        0x0 build/default/production/_ext/1269487135/sys_fs_media_manager.o
 .bss           0x00000000        0x0 build/default/production/_ext/1269487135/sys_fs_media_manager.o
 .text.SYS_FS_MEDIA_MANAGER_DeRegister
                0x00000000        0xc build/default/production/_ext/1269487135/sys_fs_media_manager.o
 .text.SYS_FS_MEDIA_MANAGER_SectorRead
                0x00000000       0x54 build/default/production/_ext/1269487135/sys_fs_media_manager.o
 .text.SYS_FS_MEDIA_MANAGER_EventHandlerSet
                0x00000000       0x24 build/default/production/_ext/1269487135/sys_fs_media_manager.o
 .text.SYS_FS_MEDIA_MANAGER_RegisterTransferHandler
                0x00000000        0xc build/default/production/_ext/1269487135/sys_fs_media_manager.o
 .text.SYS_FS_MEDIA_MANAGER_GetMediaGeometry
                0x00000000       0x1c build/default/production/_ext/1269487135/sys_fs_media_manager.o
 .bss.gNumOfFSClients
                0x00000000        0x1 build/default/production/_ext/1269487135/sys_fs_media_manager.o
 .rodata.gPartitionTypeOffset
                0x00000000        0x8 build/default/production/_ext/1269487135/sys_fs_media_manager.o
 .text          0x00000000        0x0 build/default/production/_ext/1881668453/sys_int.o
 .data          0x00000000        0x0 build/default/production/_ext/1881668453/sys_int.o
 .bss           0x00000000        0x0 build/default/production/_ext/1881668453/sys_int.o
 .text.SYS_INT_Enable
                0x00000000        0x8 build/default/production/_ext/1881668453/sys_int.o
 .text          0x00000000        0x0 build/default/production/_ext/1000052432/sys_reset.o
 .data          0x00000000        0x0 build/default/production/_ext/1000052432/sys_reset.o
 .bss           0x00000000        0x0 build/default/production/_ext/1000052432/sys_reset.o
 .text          0x00000000        0x0 build/default/production/_ext/101884895/sys_time.o
 .data          0x00000000        0x0 build/default/production/_ext/101884895/sys_time.o
 .bss           0x00000000        0x0 build/default/production/_ext/101884895/sys_time.o
 .text.SYS_TIME_Deinitialize
                0x00000000       0x30 build/default/production/_ext/101884895/sys_time.o
 .text.SYS_TIME_Status
                0x00000000       0x14 build/default/production/_ext/101884895/sys_time.o
 .text.SYS_TIME_CounterSet
                0x00000000       0x1c build/default/production/_ext/101884895/sys_time.o
 .text.SYS_TIME_CountToUS
                0x00000000       0x44 build/default/production/_ext/101884895/sys_time.o
 .text.SYS_TIME_CountToMS
                0x00000000       0x3c build/default/production/_ext/101884895/sys_time.o
 .text.SYS_TIME_USToCount
                0x00000000       0x1c build/default/production/_ext/101884895/sys_time.o
 .text.SYS_TIME_TimerCreate
                0x00000000       0x1c build/default/production/_ext/101884895/sys_time.o
 .text.SYS_TIME_TimerReload
                0x00000000       0x88 build/default/production/_ext/101884895/sys_time.o
 .text.SYS_TIME_TimerStop
                0x00000000       0x3c build/default/production/_ext/101884895/sys_time.o
 .text.SYS_TIME_TimerCounterGet
                0x00000000       0x88 build/default/production/_ext/101884895/sys_time.o
 .text.SYS_TIME_TimerPeriodHasExpired
                0x00000000       0x28 build/default/production/_ext/101884895/sys_time.o
 .text.SYS_TIME_DelayUS
                0x00000000       0x50 build/default/production/_ext/101884895/sys_time.o
 .text.SYS_TIME_DelayMS
                0x00000000       0x50 build/default/production/_ext/101884895/sys_time.o
 .text.SYS_TIME_DelayIsComplete
                0x00000000       0x18 build/default/production/_ext/101884895/sys_time.o
 .text          0x00000000        0x0 build/default/production/_ext/753841488/sys_time_h2_adapter.o
 .data          0x00000000        0x0 build/default/production/_ext/753841488/sys_time_h2_adapter.o
 .bss           0x00000000        0x0 build/default/production/_ext/753841488/sys_time_h2_adapter.o
 .text          0x00000000        0x0 build/default/production/_ext/753841488/sys_random_h2_adapter.o
 .data          0x00000000        0x0 build/default/production/_ext/753841488/sys_random_h2_adapter.o
 .bss           0x00000000        0x0 build/default/production/_ext/753841488/sys_random_h2_adapter.o
 .text.SYS_RANDOM_CryptoDeinitialize
                0x00000000       0x18 build/default/production/_ext/753841488/sys_random_h2_adapter.o
 .text.SYS_RANDOM_CryptoByteGet
                0x00000000       0x22 build/default/production/_ext/753841488/sys_random_h2_adapter.o
 .text          0x00000000        0x0 build/default/production/_ext/1171490990/initialization.o
 .data          0x00000000        0x0 build/default/production/_ext/1171490990/initialization.o
 .bss           0x00000000        0x0 build/default/production/_ext/1171490990/initialization.o
 .bss.tcpipICMPInitData
                0x00000000        0x4 build/default/production/_ext/1171490990/initialization.o
 .rodata.TCPIP_HOSTS_CONFIGURATION_SIZE
                0x00000000        0x4 build/default/production/_ext/1171490990/initialization.o
 .rodata.TCPIP_STACK_MODULE_CONFIG_TBL_SIZE
                0x00000000        0x4 build/default/production/_ext/1171490990/initialization.o
 .text          0x00000000        0x0 build/default/production/_ext/1171490990/interrupts.o
 .data          0x00000000        0x0 build/default/production/_ext/1171490990/interrupts.o
 .bss           0x00000000        0x0 build/default/production/_ext/1171490990/interrupts.o
 .text          0x00000000        0x0 build/default/production/_ext/1171490990/exceptions.o
 .data          0x00000000        0x0 build/default/production/_ext/1171490990/exceptions.o
 .bss           0x00000000        0x0 build/default/production/_ext/1171490990/exceptions.o
 .text          0x00000000        0x0 build/default/production/_ext/1171490990/startup_xc32.o
 .data          0x00000000        0x0 build/default/production/_ext/1171490990/startup_xc32.o
 .bss           0x00000000        0x0 build/default/production/_ext/1171490990/startup_xc32.o
 .text          0x00000000        0x0 build/default/production/_ext/1171490990/libc_syscalls.o
 .data          0x00000000        0x0 build/default/production/_ext/1171490990/libc_syscalls.o
 .bss           0x00000000        0x0 build/default/production/_ext/1171490990/libc_syscalls.o
 .text._exit    0x00000000        0x2 build/default/production/_ext/1171490990/libc_syscalls.o
 .debug_info    0x00000000      0xf64 build/default/production/_ext/1171490990/libc_syscalls.o
 .debug_abbrev  0x00000000      0x1d3 build/default/production/_ext/1171490990/libc_syscalls.o
 .debug_loc     0x00000000       0x15 build/default/production/_ext/1171490990/libc_syscalls.o
 .debug_aranges
                0x00000000       0x20 build/default/production/_ext/1171490990/libc_syscalls.o
 .debug_ranges  0x00000000       0x10 build/default/production/_ext/1171490990/libc_syscalls.o
 .debug_line    0x00000000      0x1d5 build/default/production/_ext/1171490990/libc_syscalls.o
 .debug_str     0x00000000        0xe build/default/production/_ext/1171490990/libc_syscalls.o
 .comment       0x00000000       0x54 build/default/production/_ext/1171490990/libc_syscalls.o
 .debug_frame   0x00000000       0x20 build/default/production/_ext/1171490990/libc_syscalls.o
 .ARM.attributes
                0x00000000       0x34 build/default/production/_ext/1171490990/libc_syscalls.o
 .text          0x00000000        0x0 build/default/production/_ext/1171490990/tasks.o
 .data          0x00000000        0x0 build/default/production/_ext/1171490990/tasks.o
 .bss           0x00000000        0x0 build/default/production/_ext/1171490990/tasks.o
 .text          0x00000000        0x0 build/default/production/_ext/1171490990/freertos_hooks.o
 .data          0x00000000        0x0 build/default/production/_ext/1171490990/freertos_hooks.o
 .bss           0x00000000        0x0 build/default/production/_ext/1171490990/freertos_hooks.o
 .text.vApplicationIdleHook
                0x00000000        0x2 build/default/production/_ext/1171490990/freertos_hooks.o
 .text.vApplicationTickHook
                0x00000000        0x2 build/default/production/_ext/1171490990/freertos_hooks.o
 .text.vAssertCalled
                0x00000000       0x1c build/default/production/_ext/1171490990/freertos_hooks.o
 .text          0x00000000        0x0 build/default/production/_ext/246609638/port.o
 .data          0x00000000        0x0 build/default/production/_ext/246609638/port.o
 .bss           0x00000000        0x0 build/default/production/_ext/246609638/port.o
 .text.vPortEndScheduler
                0x00000000        0x2 build/default/production/_ext/246609638/port.o
 .text          0x00000000        0x0 build/default/production/_ext/1665200909/heap_1.o
 .data          0x00000000        0x0 build/default/production/_ext/1665200909/heap_1.o
 .bss           0x00000000        0x0 build/default/production/_ext/1665200909/heap_1.o
 .text.vPortInitialiseBlocks
                0x00000000        0xc build/default/production/_ext/1665200909/heap_1.o
 .text.xPortGetFreeHeapSize
                0x00000000       0x10 build/default/production/_ext/1665200909/heap_1.o
 .text          0x00000000        0x0 build/default/production/_ext/404212886/croutine.o
 .data          0x00000000        0x0 build/default/production/_ext/404212886/croutine.o
 .bss           0x00000000        0x0 build/default/production/_ext/404212886/croutine.o
 .debug_info    0x00000000      0x310 build/default/production/_ext/404212886/croutine.o
 .debug_abbrev  0x00000000       0x1b build/default/production/_ext/404212886/croutine.o
 .debug_aranges
                0x00000000       0x18 build/default/production/_ext/404212886/croutine.o
 .debug_line    0x00000000       0x1d build/default/production/_ext/404212886/croutine.o
 .debug_str     0x00000000        0x0 build/default/production/_ext/404212886/croutine.o
 .comment       0x00000000       0x54 build/default/production/_ext/404212886/croutine.o
 .ARM.attributes
                0x00000000       0x39 build/default/production/_ext/404212886/croutine.o
 .text          0x00000000        0x0 build/default/production/_ext/404212886/list.o
 .data          0x00000000        0x0 build/default/production/_ext/404212886/list.o
 .bss           0x00000000        0x0 build/default/production/_ext/404212886/list.o
 .text          0x00000000        0x0 build/default/production/_ext/404212886/queue.o
 .data          0x00000000        0x0 build/default/production/_ext/404212886/queue.o
 .bss           0x00000000        0x0 build/default/production/_ext/404212886/queue.o
 .text.prvCopyDataFromQueue
                0x00000000       0x24 build/default/production/_ext/404212886/queue.o
 .text.xQueueGenericSendFromISR
                0x00000000       0x70 build/default/production/_ext/404212886/queue.o
 .text.xQueueReceive
                0x00000000      0x110 build/default/production/_ext/404212886/queue.o
 .text.xQueuePeek
                0x00000000      0x10c build/default/production/_ext/404212886/queue.o
 .text.xQueueReceiveFromISR
                0x00000000       0x72 build/default/production/_ext/404212886/queue.o
 .text.xQueuePeekFromISR
                0x00000000       0x30 build/default/production/_ext/404212886/queue.o
 .text.uxQueueMessagesWaiting
                0x00000000       0x12 build/default/production/_ext/404212886/queue.o
 .text.uxQueueSpacesAvailable
                0x00000000       0x16 build/default/production/_ext/404212886/queue.o
 .text.uxQueueMessagesWaitingFromISR
                0x00000000        0x4 build/default/production/_ext/404212886/queue.o
 .text.xQueueIsQueueEmptyFromISR
                0x00000000        0xa build/default/production/_ext/404212886/queue.o
 .text.xQueueIsQueueFullFromISR
                0x00000000        0xe build/default/production/_ext/404212886/queue.o
 .text          0x00000000        0x0 build/default/production/_ext/404212886/FreeRTOS_tasks.o
 .data          0x00000000        0x0 build/default/production/_ext/404212886/FreeRTOS_tasks.o
 .bss           0x00000000        0x0 build/default/production/_ext/404212886/FreeRTOS_tasks.o
 .text.vTaskDelete
                0x00000000       0xcc build/default/production/_ext/404212886/FreeRTOS_tasks.o
 .text.uxTaskPriorityGet
                0x00000000       0x20 build/default/production/_ext/404212886/FreeRTOS_tasks.o
 .text.uxTaskPriorityGetFromISR
                0x00000000       0x28 build/default/production/_ext/404212886/FreeRTOS_tasks.o
 .text.vTaskPrioritySet
                0x00000000       0xd0 build/default/production/_ext/404212886/FreeRTOS_tasks.o
 .text.vTaskResume
                0x00000000       0x88 build/default/production/_ext/404212886/FreeRTOS_tasks.o
 .text.vTaskEndScheduler
                0x00000000       0x24 build/default/production/_ext/404212886/FreeRTOS_tasks.o
 .text.xTaskGetTickCount
                0x00000000        0xc build/default/production/_ext/404212886/FreeRTOS_tasks.o
 .text.xTaskGetTickCountFromISR
                0x00000000        0xc build/default/production/_ext/404212886/FreeRTOS_tasks.o
 .text.uxTaskGetNumberOfTasks
                0x00000000        0xc build/default/production/_ext/404212886/FreeRTOS_tasks.o
 .text.pcTaskGetName
                0x00000000       0x14 build/default/production/_ext/404212886/FreeRTOS_tasks.o
 .text.vTaskDelayUntil
                0x00000000       0x60 build/default/production/_ext/404212886/FreeRTOS_tasks.o
 .text.xTaskCatchUpTicks
                0x00000000       0x1c build/default/production/_ext/404212886/FreeRTOS_tasks.o
 .text.vTaskSuspend
                0x00000000       0xcc build/default/production/_ext/404212886/FreeRTOS_tasks.o
 .text.vTaskPlaceOnUnorderedEventList
                0x00000000       0x24 build/default/production/_ext/404212886/FreeRTOS_tasks.o
 .text.vTaskRemoveFromUnorderedEventList
                0x00000000       0x58 build/default/production/_ext/404212886/FreeRTOS_tasks.o
 .text.vTaskSetTimeOutState
                0x00000000       0x24 build/default/production/_ext/404212886/FreeRTOS_tasks.o
 .text.xTaskGetCurrentTaskHandle
                0x00000000        0xc build/default/production/_ext/404212886/FreeRTOS_tasks.o
 .text.uxTaskResetEventItemValue
                0x00000000       0x18 build/default/production/_ext/404212886/FreeRTOS_tasks.o
 .text.ulTaskNotifyTake
                0x00000000       0x78 build/default/production/_ext/404212886/FreeRTOS_tasks.o
 .text.xTaskNotifyWait
                0x00000000       0x98 build/default/production/_ext/404212886/FreeRTOS_tasks.o
 .text.xTaskGenericNotify
                0x00000000       0xb4 build/default/production/_ext/404212886/FreeRTOS_tasks.o
 .text.xTaskGenericNotifyFromISR
                0x00000000       0xd4 build/default/production/_ext/404212886/FreeRTOS_tasks.o
 .text.vTaskNotifyGiveFromISR
                0x00000000       0xa0 build/default/production/_ext/404212886/FreeRTOS_tasks.o
 .text.xTaskNotifyStateClear
                0x00000000       0x30 build/default/production/_ext/404212886/FreeRTOS_tasks.o
 .text.ulTaskNotifyValueClear
                0x00000000       0x2c build/default/production/_ext/404212886/FreeRTOS_tasks.o
 .text          0x00000000        0x0 build/default/production/_ext/404212886/timers.o
 .data          0x00000000        0x0 build/default/production/_ext/404212886/timers.o
 .bss           0x00000000        0x0 build/default/production/_ext/404212886/timers.o
 .debug_info    0x00000000      0xebd build/default/production/_ext/404212886/timers.o
 .debug_abbrev  0x00000000      0x195 build/default/production/_ext/404212886/timers.o
 .debug_aranges
                0x00000000       0x18 build/default/production/_ext/404212886/timers.o
 .debug_line    0x00000000      0x107 build/default/production/_ext/404212886/timers.o
 .debug_str     0x00000000        0xe build/default/production/_ext/404212886/timers.o
 .comment       0x00000000       0x54 build/default/production/_ext/404212886/timers.o
 .ARM.attributes
                0x00000000       0x39 build/default/production/_ext/404212886/timers.o
 .text          0x00000000        0x0 build/default/production/_ext/404212886/event_groups.o
 .data          0x00000000        0x0 build/default/production/_ext/404212886/event_groups.o
 .bss           0x00000000        0x0 build/default/production/_ext/404212886/event_groups.o
 .text.xEventGroupCreate
                0x00000000       0x1a build/default/production/_ext/404212886/event_groups.o
 .text.xEventGroupWaitBits
                0x00000000       0xc0 build/default/production/_ext/404212886/event_groups.o
 .text.xEventGroupClearBits
                0x00000000       0x1a build/default/production/_ext/404212886/event_groups.o
 .text.xEventGroupGetBitsFromISR
                0x00000000       0x1c build/default/production/_ext/404212886/event_groups.o
 .text.xEventGroupSetBits
                0x00000000       0x66 build/default/production/_ext/404212886/event_groups.o
 .text.xEventGroupSync
                0x00000000       0x90 build/default/production/_ext/404212886/event_groups.o
 .text.vEventGroupDelete
                0x00000000       0x2a build/default/production/_ext/404212886/event_groups.o
 .text.vEventGroupSetBitsCallback
                0x00000000        0x8 build/default/production/_ext/404212886/event_groups.o
 .text.vEventGroupClearBitsCallback
                0x00000000        0x8 build/default/production/_ext/404212886/event_groups.o
 .debug_info    0x00000000     0x1b52 build/default/production/_ext/404212886/event_groups.o
 .debug_abbrev  0x00000000      0x401 build/default/production/_ext/404212886/event_groups.o
 .debug_loc     0x00000000      0xac5 build/default/production/_ext/404212886/event_groups.o
 .debug_aranges
                0x00000000       0x60 build/default/production/_ext/404212886/event_groups.o
 .debug_ranges  0x00000000       0x98 build/default/production/_ext/404212886/event_groups.o
 .debug_line    0x00000000      0x6cb build/default/production/_ext/404212886/event_groups.o
 .debug_str     0x00000000      0x1ba build/default/production/_ext/404212886/event_groups.o
 .comment       0x00000000       0x54 build/default/production/_ext/404212886/event_groups.o
 .debug_frame   0x00000000      0x100 build/default/production/_ext/404212886/event_groups.o
 .ARM.attributes
                0x00000000       0x34 build/default/production/_ext/404212886/event_groups.o
 .text          0x00000000        0x0 build/default/production/_ext/404212886/stream_buffer.o
 .data          0x00000000        0x0 build/default/production/_ext/404212886/stream_buffer.o
 .bss           0x00000000        0x0 build/default/production/_ext/404212886/stream_buffer.o
 .text.prvBytesInBuffer
                0x00000000       0x12 build/default/production/_ext/404212886/stream_buffer.o
 .text.prvWriteBytesToBuffer
                0x00000000       0x44 build/default/production/_ext/404212886/stream_buffer.o
 .text.prvReadBytesFromBuffer
                0x00000000       0x50 build/default/production/_ext/404212886/stream_buffer.o
 .text.xStreamBufferGenericCreate
                0x00000000       0x38 build/default/production/_ext/404212886/stream_buffer.o
 .text.vStreamBufferDelete
                0x00000000       0x1a build/default/production/_ext/404212886/stream_buffer.o
 .text.xStreamBufferReset
                0x00000000       0x44 build/default/production/_ext/404212886/stream_buffer.o
 .text.xStreamBufferSetTriggerLevel
                0x00000000       0x14 build/default/production/_ext/404212886/stream_buffer.o
 .text.xStreamBufferSpacesAvailable
                0x00000000       0x14 build/default/production/_ext/404212886/stream_buffer.o
 .text.xStreamBufferBytesAvailable
                0x00000000        0x8 build/default/production/_ext/404212886/stream_buffer.o
 .text.xStreamBufferSend
                0x00000000       0xde build/default/production/_ext/404212886/stream_buffer.o
 .text.xStreamBufferSendFromISR
                0x00000000       0x98 build/default/production/_ext/404212886/stream_buffer.o
 .text.xStreamBufferReceive
                0x00000000       0xbe build/default/production/_ext/404212886/stream_buffer.o
 .text.xStreamBufferNextMessageLengthBytes
                0x00000000       0x36 build/default/production/_ext/404212886/stream_buffer.o
 .text.xStreamBufferReceiveFromISR
                0x00000000       0x98 build/default/production/_ext/404212886/stream_buffer.o
 .text.xStreamBufferIsEmpty
                0x00000000        0xe build/default/production/_ext/404212886/stream_buffer.o
 .text.xStreamBufferIsFull
                0x00000000       0x18 build/default/production/_ext/404212886/stream_buffer.o
 .text.xStreamBufferSendCompletedFromISR
                0x00000000       0x3e build/default/production/_ext/404212886/stream_buffer.o
 .text.xStreamBufferReceiveCompletedFromISR
                0x00000000       0x3e build/default/production/_ext/404212886/stream_buffer.o
 .debug_info    0x00000000     0x2951 build/default/production/_ext/404212886/stream_buffer.o
 .debug_abbrev  0x00000000      0x495 build/default/production/_ext/404212886/stream_buffer.o
 .debug_loc     0x00000000     0x1b36 build/default/production/_ext/404212886/stream_buffer.o
 .debug_aranges
                0x00000000       0xa8 build/default/production/_ext/404212886/stream_buffer.o
 .debug_ranges  0x00000000      0x128 build/default/production/_ext/404212886/stream_buffer.o
 .debug_line    0x00000000      0xbf7 build/default/production/_ext/404212886/stream_buffer.o
 .debug_str     0x00000000      0x242 build/default/production/_ext/404212886/stream_buffer.o
 .comment       0x00000000       0x54 build/default/production/_ext/404212886/stream_buffer.o
 .debug_frame   0x00000000      0x230 build/default/production/_ext/404212886/stream_buffer.o
 .ARM.attributes
                0x00000000       0x34 build/default/production/_ext/404212886/stream_buffer.o
 .text          0x00000000        0x0 build/default/production/_ext/172253694/pic32mz-crypt.o
 .data          0x00000000        0x0 build/default/production/_ext/172253694/pic32mz-crypt.o
 .bss           0x00000000        0x0 build/default/production/_ext/172253694/pic32mz-crypt.o
 .debug_info    0x00000000      0x368 build/default/production/_ext/172253694/pic32mz-crypt.o
 .debug_abbrev  0x00000000       0x44 build/default/production/_ext/172253694/pic32mz-crypt.o
 .debug_aranges
                0x00000000       0x18 build/default/production/_ext/172253694/pic32mz-crypt.o
 .debug_line    0x00000000       0xe8 build/default/production/_ext/172253694/pic32mz-crypt.o
 .debug_str     0x00000000        0x0 build/default/production/_ext/172253694/pic32mz-crypt.o
 .comment       0x00000000       0x54 build/default/production/_ext/172253694/pic32mz-crypt.o
 .ARM.attributes
                0x00000000       0x39 build/default/production/_ext/172253694/pic32mz-crypt.o
 .text          0x00000000        0x0 build/default/production/_ext/172253694/crypt_aes_sam6149.o
 .data          0x00000000        0x0 build/default/production/_ext/172253694/crypt_aes_sam6149.o
 .bss           0x00000000        0x0 build/default/production/_ext/172253694/crypt_aes_sam6149.o
 .debug_info    0x00000000      0x36c build/default/production/_ext/172253694/crypt_aes_sam6149.o
 .debug_abbrev  0x00000000       0x44 build/default/production/_ext/172253694/crypt_aes_sam6149.o
 .debug_aranges
                0x00000000       0x18 build/default/production/_ext/172253694/crypt_aes_sam6149.o
 .debug_line    0x00000000       0xe8 build/default/production/_ext/172253694/crypt_aes_sam6149.o
 .debug_str     0x00000000        0x0 build/default/production/_ext/172253694/crypt_aes_sam6149.o
 .comment       0x00000000       0x54 build/default/production/_ext/172253694/crypt_aes_sam6149.o
 .ARM.attributes
                0x00000000       0x39 build/default/production/_ext/172253694/crypt_aes_sam6149.o
 .text          0x00000000        0x0 build/default/production/_ext/172253694/crypt_aes_u2238.o
 .data          0x00000000        0x0 build/default/production/_ext/172253694/crypt_aes_u2238.o
 .bss           0x00000000        0x0 build/default/production/_ext/172253694/crypt_aes_u2238.o
 .debug_info    0x00000000      0x36a build/default/production/_ext/172253694/crypt_aes_u2238.o
 .debug_abbrev  0x00000000       0x44 build/default/production/_ext/172253694/crypt_aes_u2238.o
 .debug_aranges
                0x00000000       0x18 build/default/production/_ext/172253694/crypt_aes_u2238.o
 .debug_line    0x00000000       0xe8 build/default/production/_ext/172253694/crypt_aes_u2238.o
 .debug_str     0x00000000        0x0 build/default/production/_ext/172253694/crypt_aes_u2238.o
 .comment       0x00000000       0x54 build/default/production/_ext/172253694/crypt_aes_u2238.o
 .ARM.attributes
                0x00000000       0x39 build/default/production/_ext/172253694/crypt_aes_u2238.o
 .text          0x00000000        0x0 build/default/production/_ext/172253694/crypt_ecc_ba414e.o
 .data          0x00000000        0x0 build/default/production/_ext/172253694/crypt_ecc_ba414e.o
 .bss           0x00000000        0x0 build/default/production/_ext/172253694/crypt_ecc_ba414e.o
 .debug_info    0x00000000      0x36b build/default/production/_ext/172253694/crypt_ecc_ba414e.o
 .debug_abbrev  0x00000000       0x44 build/default/production/_ext/172253694/crypt_ecc_ba414e.o
 .debug_aranges
                0x00000000       0x18 build/default/production/_ext/172253694/crypt_ecc_ba414e.o
 .debug_line    0x00000000       0xe8 build/default/production/_ext/172253694/crypt_ecc_ba414e.o
 .debug_str     0x00000000        0x0 build/default/production/_ext/172253694/crypt_ecc_ba414e.o
 .comment       0x00000000       0x54 build/default/production/_ext/172253694/crypt_ecc_ba414e.o
 .ARM.attributes
                0x00000000       0x39 build/default/production/_ext/172253694/crypt_ecc_ba414e.o
 .text          0x00000000        0x0 build/default/production/_ext/172253694/crypt_ecc_pukcl.o
 .data          0x00000000        0x0 build/default/production/_ext/172253694/crypt_ecc_pukcl.o
 .bss           0x00000000        0x0 build/default/production/_ext/172253694/crypt_ecc_pukcl.o
 .debug_info    0x00000000     0x35a3 build/default/production/_ext/172253694/crypt_ecc_pukcl.o
 .debug_abbrev  0x00000000      0x1d8 build/default/production/_ext/172253694/crypt_ecc_pukcl.o
 .debug_aranges
                0x00000000       0x18 build/default/production/_ext/172253694/crypt_ecc_pukcl.o
 .debug_line    0x00000000      0x5a4 build/default/production/_ext/172253694/crypt_ecc_pukcl.o
 .debug_str     0x00000000      0x219 build/default/production/_ext/172253694/crypt_ecc_pukcl.o
 .comment       0x00000000       0x54 build/default/production/_ext/172253694/crypt_ecc_pukcl.o
 .ARM.attributes
                0x00000000       0x39 build/default/production/_ext/172253694/crypt_ecc_pukcl.o
 .text          0x00000000        0x0 build/default/production/_ext/172253694/crypt_pukcl_functions.o
 .data          0x00000000        0x0 build/default/production/_ext/172253694/crypt_pukcl_functions.o
 .bss           0x00000000        0x0 build/default/production/_ext/172253694/crypt_pukcl_functions.o
 .text.crypt_pukcl_SelfTest
                0x00000000       0x88 build/default/production/_ext/172253694/crypt_pukcl_functions.o
 .text.SecureCopy
                0x00000000       0x4e build/default/production/_ext/172253694/crypt_pukcl_functions.o
 .bss.PUKCLParam
                0x00000000       0x30 build/default/production/_ext/172253694/crypt_pukcl_functions.o
 .bss.SelfTestState
                0x00000000        0x1 build/default/production/_ext/172253694/crypt_pukcl_functions.o
 .bss.pvPUKCLParam
                0x00000000        0x4 build/default/production/_ext/172253694/crypt_pukcl_functions.o
 .debug_info    0x00000000     0x3557 build/default/production/_ext/172253694/crypt_pukcl_functions.o
 .debug_abbrev  0x00000000      0x278 build/default/production/_ext/172253694/crypt_pukcl_functions.o
 .debug_loc     0x00000000      0x223 build/default/production/_ext/172253694/crypt_pukcl_functions.o
 .debug_aranges
                0x00000000       0x28 build/default/production/_ext/172253694/crypt_pukcl_functions.o
 .debug_ranges  0x00000000       0x18 build/default/production/_ext/172253694/crypt_pukcl_functions.o
 .debug_line    0x00000000      0x607 build/default/production/_ext/172253694/crypt_pukcl_functions.o
 .debug_str     0x00000000      0x20c build/default/production/_ext/172253694/crypt_pukcl_functions.o
 .comment       0x00000000       0x54 build/default/production/_ext/172253694/crypt_pukcl_functions.o
 .debug_frame   0x00000000       0x4c build/default/production/_ext/172253694/crypt_pukcl_functions.o
 .ARM.attributes
                0x00000000       0x34 build/default/production/_ext/172253694/crypt_pukcl_functions.o
 .text          0x00000000        0x0 build/default/production/_ext/172253694/crypt_rng_sam6334.o
 .data          0x00000000        0x0 build/default/production/_ext/172253694/crypt_rng_sam6334.o
 .bss           0x00000000        0x0 build/default/production/_ext/172253694/crypt_rng_sam6334.o
 .debug_info    0x00000000      0x36c build/default/production/_ext/172253694/crypt_rng_sam6334.o
 .debug_abbrev  0x00000000       0x44 build/default/production/_ext/172253694/crypt_rng_sam6334.o
 .debug_aranges
                0x00000000       0x18 build/default/production/_ext/172253694/crypt_rng_sam6334.o
 .debug_line    0x00000000       0xe8 build/default/production/_ext/172253694/crypt_rng_sam6334.o
 .debug_str     0x00000000        0x0 build/default/production/_ext/172253694/crypt_rng_sam6334.o
 .comment       0x00000000       0x54 build/default/production/_ext/172253694/crypt_rng_sam6334.o
 .ARM.attributes
                0x00000000       0x39 build/default/production/_ext/172253694/crypt_rng_sam6334.o
 .text          0x00000000        0x0 build/default/production/_ext/172253694/crypt_rng_u2242.o
 .data          0x00000000        0x0 build/default/production/_ext/172253694/crypt_rng_u2242.o
 .bss           0x00000000        0x0 build/default/production/_ext/172253694/crypt_rng_u2242.o
 .debug_info    0x00000000      0x36a build/default/production/_ext/172253694/crypt_rng_u2242.o
 .debug_abbrev  0x00000000       0x44 build/default/production/_ext/172253694/crypt_rng_u2242.o
 .debug_aranges
                0x00000000       0x18 build/default/production/_ext/172253694/crypt_rng_u2242.o
 .debug_line    0x00000000       0xe8 build/default/production/_ext/172253694/crypt_rng_u2242.o
 .debug_str     0x00000000        0x0 build/default/production/_ext/172253694/crypt_rng_u2242.o
 .comment       0x00000000       0x54 build/default/production/_ext/172253694/crypt_rng_u2242.o
 .ARM.attributes
                0x00000000       0x39 build/default/production/_ext/172253694/crypt_rng_u2242.o
 .text          0x00000000        0x0 build/default/production/_ext/172253694/crypt_rsa_pukcl.o
 .data          0x00000000        0x0 build/default/production/_ext/172253694/crypt_rsa_pukcl.o
 .bss           0x00000000        0x0 build/default/production/_ext/172253694/crypt_rsa_pukcl.o
 .debug_info    0x00000000     0x3582 build/default/production/_ext/172253694/crypt_rsa_pukcl.o
 .debug_abbrev  0x00000000      0x1d8 build/default/production/_ext/172253694/crypt_rsa_pukcl.o
 .debug_aranges
                0x00000000       0x18 build/default/production/_ext/172253694/crypt_rsa_pukcl.o
 .debug_line    0x00000000      0x59b build/default/production/_ext/172253694/crypt_rsa_pukcl.o
 .debug_str     0x00000000      0x219 build/default/production/_ext/172253694/crypt_rsa_pukcl.o
 .comment       0x00000000       0x54 build/default/production/_ext/172253694/crypt_rsa_pukcl.o
 .ARM.attributes
                0x00000000       0x39 build/default/production/_ext/172253694/crypt_rsa_pukcl.o
 .text          0x00000000        0x0 build/default/production/_ext/172253694/crypt_sam_u2803.o
 .data          0x00000000        0x0 build/default/production/_ext/172253694/crypt_sam_u2803.o
 .bss           0x00000000        0x0 build/default/production/_ext/172253694/crypt_sam_u2803.o
 .debug_info    0x00000000      0x36a build/default/production/_ext/172253694/crypt_sam_u2803.o
 .debug_abbrev  0x00000000       0x44 build/default/production/_ext/172253694/crypt_sam_u2803.o
 .debug_aranges
                0x00000000       0x18 build/default/production/_ext/172253694/crypt_sam_u2803.o
 .debug_line    0x00000000       0xe8 build/default/production/_ext/172253694/crypt_sam_u2803.o
 .debug_str     0x00000000        0x0 build/default/production/_ext/172253694/crypt_sam_u2803.o
 .comment       0x00000000       0x54 build/default/production/_ext/172253694/crypt_sam_u2803.o
 .ARM.attributes
                0x00000000       0x39 build/default/production/_ext/172253694/crypt_sam_u2803.o
 .text          0x00000000        0x0 build/default/production/_ext/172253694/crypt_sha1_sam11105.o
 .data          0x00000000        0x0 build/default/production/_ext/172253694/crypt_sha1_sam11105.o
 .bss           0x00000000        0x0 build/default/production/_ext/172253694/crypt_sha1_sam11105.o
 .debug_info    0x00000000      0x36e build/default/production/_ext/172253694/crypt_sha1_sam11105.o
 .debug_abbrev  0x00000000       0x44 build/default/production/_ext/172253694/crypt_sha1_sam11105.o
 .debug_aranges
                0x00000000       0x18 build/default/production/_ext/172253694/crypt_sha1_sam11105.o
 .debug_line    0x00000000       0xe8 build/default/production/_ext/172253694/crypt_sha1_sam11105.o
 .debug_str     0x00000000        0x0 build/default/production/_ext/172253694/crypt_sha1_sam11105.o
 .comment       0x00000000       0x54 build/default/production/_ext/172253694/crypt_sha1_sam11105.o
 .ARM.attributes
                0x00000000       0x39 build/default/production/_ext/172253694/crypt_sha1_sam11105.o
 .text          0x00000000        0x0 build/default/production/_ext/172253694/crypt_sha1_sam6156.o
 .data          0x00000000        0x0 build/default/production/_ext/172253694/crypt_sha1_sam6156.o
 .bss           0x00000000        0x0 build/default/production/_ext/172253694/crypt_sha1_sam6156.o
 .debug_info    0x00000000      0x36d build/default/production/_ext/172253694/crypt_sha1_sam6156.o
 .debug_abbrev  0x00000000       0x44 build/default/production/_ext/172253694/crypt_sha1_sam6156.o
 .debug_aranges
                0x00000000       0x18 build/default/production/_ext/172253694/crypt_sha1_sam6156.o
 .debug_line    0x00000000       0xe8 build/default/production/_ext/172253694/crypt_sha1_sam6156.o
 .debug_str     0x00000000        0x0 build/default/production/_ext/172253694/crypt_sha1_sam6156.o
 .comment       0x00000000       0x54 build/default/production/_ext/172253694/crypt_sha1_sam6156.o
 .ARM.attributes
                0x00000000       0x39 build/default/production/_ext/172253694/crypt_sha1_sam6156.o
 .text          0x00000000        0x0 build/default/production/_ext/172253694/crypt_sha224_sam11105.o
 .data          0x00000000        0x0 build/default/production/_ext/172253694/crypt_sha224_sam11105.o
 .bss           0x00000000        0x0 build/default/production/_ext/172253694/crypt_sha224_sam11105.o
 .debug_info    0x00000000      0x370 build/default/production/_ext/172253694/crypt_sha224_sam11105.o
 .debug_abbrev  0x00000000       0x44 build/default/production/_ext/172253694/crypt_sha224_sam11105.o
 .debug_aranges
                0x00000000       0x18 build/default/production/_ext/172253694/crypt_sha224_sam11105.o
 .debug_line    0x00000000       0xe8 build/default/production/_ext/172253694/crypt_sha224_sam11105.o
 .debug_str     0x00000000        0x0 build/default/production/_ext/172253694/crypt_sha224_sam11105.o
 .comment       0x00000000       0x54 build/default/production/_ext/172253694/crypt_sha224_sam11105.o
 .ARM.attributes
                0x00000000       0x39 build/default/production/_ext/172253694/crypt_sha224_sam11105.o
 .text          0x00000000        0x0 build/default/production/_ext/172253694/crypt_sha224_sam6156.o
 .data          0x00000000        0x0 build/default/production/_ext/172253694/crypt_sha224_sam6156.o
 .bss           0x00000000        0x0 build/default/production/_ext/172253694/crypt_sha224_sam6156.o
 .debug_info    0x00000000      0x36f build/default/production/_ext/172253694/crypt_sha224_sam6156.o
 .debug_abbrev  0x00000000       0x44 build/default/production/_ext/172253694/crypt_sha224_sam6156.o
 .debug_aranges
                0x00000000       0x18 build/default/production/_ext/172253694/crypt_sha224_sam6156.o
 .debug_line    0x00000000       0xe8 build/default/production/_ext/172253694/crypt_sha224_sam6156.o
 .debug_str     0x00000000        0x0 build/default/production/_ext/172253694/crypt_sha224_sam6156.o
 .comment       0x00000000       0x54 build/default/production/_ext/172253694/crypt_sha224_sam6156.o
 .ARM.attributes
                0x00000000       0x39 build/default/production/_ext/172253694/crypt_sha224_sam6156.o
 .text          0x00000000        0x0 build/default/production/_ext/172253694/crypt_sha256_sam11105.o
 .data          0x00000000        0x0 build/default/production/_ext/172253694/crypt_sha256_sam11105.o
 .bss           0x00000000        0x0 build/default/production/_ext/172253694/crypt_sha256_sam11105.o
 .debug_info    0x00000000      0x370 build/default/production/_ext/172253694/crypt_sha256_sam11105.o
 .debug_abbrev  0x00000000       0x44 build/default/production/_ext/172253694/crypt_sha256_sam11105.o
 .debug_aranges
                0x00000000       0x18 build/default/production/_ext/172253694/crypt_sha256_sam11105.o
 .debug_line    0x00000000       0xe8 build/default/production/_ext/172253694/crypt_sha256_sam11105.o
 .debug_str     0x00000000        0x0 build/default/production/_ext/172253694/crypt_sha256_sam11105.o
 .comment       0x00000000       0x54 build/default/production/_ext/172253694/crypt_sha256_sam11105.o
 .ARM.attributes
                0x00000000       0x39 build/default/production/_ext/172253694/crypt_sha256_sam11105.o
 .text          0x00000000        0x0 build/default/production/_ext/172253694/crypt_sha256_sam6156.o
 .data          0x00000000        0x0 build/default/production/_ext/172253694/crypt_sha256_sam6156.o
 .bss           0x00000000        0x0 build/default/production/_ext/172253694/crypt_sha256_sam6156.o
 .debug_info    0x00000000      0x36f build/default/production/_ext/172253694/crypt_sha256_sam6156.o
 .debug_abbrev  0x00000000       0x44 build/default/production/_ext/172253694/crypt_sha256_sam6156.o
 .debug_aranges
                0x00000000       0x18 build/default/production/_ext/172253694/crypt_sha256_sam6156.o
 .debug_line    0x00000000       0xe8 build/default/production/_ext/172253694/crypt_sha256_sam6156.o
 .debug_str     0x00000000        0x0 build/default/production/_ext/172253694/crypt_sha256_sam6156.o
 .comment       0x00000000       0x54 build/default/production/_ext/172253694/crypt_sha256_sam6156.o
 .ARM.attributes
                0x00000000       0x39 build/default/production/_ext/172253694/crypt_sha256_sam6156.o
 .text          0x00000000        0x0 build/default/production/_ext/172253694/crypt_sha384_sam6156.o
 .data          0x00000000        0x0 build/default/production/_ext/172253694/crypt_sha384_sam6156.o
 .bss           0x00000000        0x0 build/default/production/_ext/172253694/crypt_sha384_sam6156.o
 .debug_info    0x00000000      0x36f build/default/production/_ext/172253694/crypt_sha384_sam6156.o
 .debug_abbrev  0x00000000       0x44 build/default/production/_ext/172253694/crypt_sha384_sam6156.o
 .debug_aranges
                0x00000000       0x18 build/default/production/_ext/172253694/crypt_sha384_sam6156.o
 .debug_line    0x00000000       0xe8 build/default/production/_ext/172253694/crypt_sha384_sam6156.o
 .debug_str     0x00000000        0x0 build/default/production/_ext/172253694/crypt_sha384_sam6156.o
 .comment       0x00000000       0x54 build/default/production/_ext/172253694/crypt_sha384_sam6156.o
 .ARM.attributes
                0x00000000       0x39 build/default/production/_ext/172253694/crypt_sha384_sam6156.o
 .text          0x00000000        0x0 build/default/production/_ext/172253694/crypt_sha512_sam6156.o
 .data          0x00000000        0x0 build/default/production/_ext/172253694/crypt_sha512_sam6156.o
 .bss           0x00000000        0x0 build/default/production/_ext/172253694/crypt_sha512_sam6156.o
 .debug_info    0x00000000      0x36f build/default/production/_ext/172253694/crypt_sha512_sam6156.o
 .debug_abbrev  0x00000000       0x44 build/default/production/_ext/172253694/crypt_sha512_sam6156.o
 .debug_aranges
                0x00000000       0x18 build/default/production/_ext/172253694/crypt_sha512_sam6156.o
 .debug_line    0x00000000       0xe8 build/default/production/_ext/172253694/crypt_sha512_sam6156.o
 .debug_str     0x00000000        0x0 build/default/production/_ext/172253694/crypt_sha512_sam6156.o
 .comment       0x00000000       0x54 build/default/production/_ext/172253694/crypt_sha512_sam6156.o
 .ARM.attributes
                0x00000000       0x39 build/default/production/_ext/172253694/crypt_sha512_sam6156.o
 .text          0x00000000        0x0 build/default/production/_ext/172253694/crypt_tdes_sam6150.o
 .data          0x00000000        0x0 build/default/production/_ext/172253694/crypt_tdes_sam6150.o
 .bss           0x00000000        0x0 build/default/production/_ext/172253694/crypt_tdes_sam6150.o
 .debug_info    0x00000000      0x36d build/default/production/_ext/172253694/crypt_tdes_sam6150.o
 .debug_abbrev  0x00000000       0x44 build/default/production/_ext/172253694/crypt_tdes_sam6150.o
 .debug_aranges
                0x00000000       0x18 build/default/production/_ext/172253694/crypt_tdes_sam6150.o
 .debug_line    0x00000000       0xe8 build/default/production/_ext/172253694/crypt_tdes_sam6150.o
 .debug_str     0x00000000        0x0 build/default/production/_ext/172253694/crypt_tdes_sam6150.o
 .comment       0x00000000       0x54 build/default/production/_ext/172253694/crypt_tdes_sam6150.o
 .ARM.attributes
                0x00000000       0x39 build/default/production/_ext/172253694/crypt_tdes_sam6150.o
 .text          0x00000000        0x0 build/default/production/_ext/172253694/crypt_wolfcryptcb.o
 .data          0x00000000        0x0 build/default/production/_ext/172253694/crypt_wolfcryptcb.o
 .bss           0x00000000        0x0 build/default/production/_ext/172253694/crypt_wolfcryptcb.o
 .text          0x00000000        0x0 build/default/production/_ext/1664057780/arc4.o
 .data          0x00000000        0x0 build/default/production/_ext/1664057780/arc4.o
 .bss           0x00000000        0x0 build/default/production/_ext/1664057780/arc4.o
 .debug_info    0x00000000      0x354 build/default/production/_ext/1664057780/arc4.o
 .debug_abbrev  0x00000000       0x44 build/default/production/_ext/1664057780/arc4.o
 .debug_aranges
                0x00000000       0x18 build/default/production/_ext/1664057780/arc4.o
 .debug_line    0x00000000       0xe8 build/default/production/_ext/1664057780/arc4.o
 .debug_str     0x00000000        0x0 build/default/production/_ext/1664057780/arc4.o
 .comment       0x00000000       0x54 build/default/production/_ext/1664057780/arc4.o
 .ARM.attributes
                0x00000000       0x39 build/default/production/_ext/1664057780/arc4.o
 .text          0x00000000        0x0 build/default/production/_ext/1664057780/asm.o
 .data          0x00000000        0x0 build/default/production/_ext/1664057780/asm.o
 .bss           0x00000000        0x0 build/default/production/_ext/1664057780/asm.o
 .debug_info    0x00000000      0x353 build/default/production/_ext/1664057780/asm.o
 .debug_abbrev  0x00000000       0x44 build/default/production/_ext/1664057780/asm.o
 .debug_aranges
                0x00000000       0x18 build/default/production/_ext/1664057780/asm.o
 .debug_line    0x00000000       0xe8 build/default/production/_ext/1664057780/asm.o
 .debug_str     0x00000000        0x0 build/default/production/_ext/1664057780/asm.o
 .comment       0x00000000       0x54 build/default/production/_ext/1664057780/asm.o
 .ARM.attributes
                0x00000000       0x39 build/default/production/_ext/1664057780/asm.o
 .text          0x00000000        0x0 build/default/production/_ext/1664057780/asn.o
 .data          0x00000000        0x0 build/default/production/_ext/1664057780/asn.o
 .bss           0x00000000        0x0 build/default/production/_ext/1664057780/asn.o
 .text.GetBoolean
                0x00000000       0x3a build/default/production/_ext/1664057780/asn.o
 .text.MatchBaseName
                0x00000000      0x10c build/default/production/_ext/1664057780/asn.o
 .text.trim_leading_zeros
                0x00000000       0x42 build/default/production/_ext/1664057780/asn.o
 .text.CheckCurve
                0x00000000       0x28 build/default/production/_ext/1664057780/asn.o
 .text.OurPasswordCb
                0x00000000       0x22 build/default/production/_ext/1664057780/asn.o
 .text.GetLength_ex
                0x00000000       0x7a build/default/production/_ext/1664057780/asn.o
 .text.GetLength
                0x00000000       0x10 build/default/production/_ext/1664057780/asn.o
 .text.GetDateInfo
                0x00000000       0x8e build/default/production/_ext/1664057780/asn.o
 .text.GetASNTag
                0x00000000       0x36 build/default/production/_ext/1664057780/asn.o
 .text.GetASNHeader_ex
                0x00000000       0x58 build/default/production/_ext/1664057780/asn.o
 .text.GetASNInt
                0x00000000       0x6c build/default/production/_ext/1664057780/asn.o
 .text.GetSequence
                0x00000000       0x18 build/default/production/_ext/1664057780/asn.o
 .text.GetSequence_ex
                0x00000000       0x18 build/default/production/_ext/1664057780/asn.o
 .text.GetSet   0x00000000       0x18 build/default/production/_ext/1664057780/asn.o
 .text.GetSet_ex
                0x00000000       0x18 build/default/production/_ext/1664057780/asn.o
 .text.GetOctetString
                0x00000000       0x18 build/default/production/_ext/1664057780/asn.o
 .text.GetSigName
                0x00000000       0x7c build/default/production/_ext/1664057780/asn.o
 .text.GetMyVersion
                0x00000000       0x58 build/default/production/_ext/1664057780/asn.o
 .text.GetInt   0x00000000       0x56 build/default/production/_ext/1664057780/asn.o
 .text.CheckBitString
                0x00000000       0xbe build/default/production/_ext/1664057780/asn.o
 .text.OidFromId
                0x00000000      0x630 build/default/production/_ext/1664057780/asn.o
 .text.GetASNObjectId
                0x00000000       0x68 build/default/production/_ext/1664057780/asn.o
 .text.SkipObjectId
                0x00000000       0x26 build/default/production/_ext/1664057780/asn.o
 .text.GetObjectId
                0x00000000       0x94 build/default/production/_ext/1664057780/asn.o
 .text.GetAlgoId
                0x00000000       0x9c build/default/production/_ext/1664057780/asn.o
 .text.wc_RsaPrivateKeyDecode
                0x00000000      0x11a build/default/production/_ext/1664057780/asn.o
 .text.ToTraditionalInline_ex
                0x00000000       0xc2 build/default/production/_ext/1664057780/asn.o
 .text.ToTraditionalInline
                0x00000000       0x10 build/default/production/_ext/1664057780/asn.o
 .text.ToTraditional_ex
                0x00000000       0x40 build/default/production/_ext/1664057780/asn.o
 .text.ToTraditional
                0x00000000       0x10 build/default/production/_ext/1664057780/asn.o
 .text.wc_GetPkcs8TraditionalOffset
                0x00000000       0x30 build/default/production/_ext/1664057780/asn.o
 .text.wc_RsaPublicKeyDecode_ex
                0x00000000      0x17a build/default/production/_ext/1664057780/asn.o
 .text.wc_RsaPublicKeyDecodeRaw
                0x00000000       0x92 build/default/production/_ext/1664057780/asn.o
 .text.wc_RsaPublicKeyDecode
                0x00000000       0x48 build/default/production/_ext/1664057780/asn.o
 .text.FreeAltNames
                0x00000000       0x22 build/default/production/_ext/1664057780/asn.o
 .text.FreeNameSubtrees
                0x00000000       0x22 build/default/production/_ext/1664057780/asn.o
 .text.CalcHashId
                0x00000000        0x8 build/default/production/_ext/1664057780/asn.o
 .text.GetName  0x00000000      0x404 build/default/production/_ext/1664057780/asn.o
 .text.ExtractDate
                0x00000000      0x200 build/default/production/_ext/1664057780/asn.o
 .text.DateGreaterThan
                0x00000000       0x92 build/default/production/_ext/1664057780/asn.o
 .text.wc_ValidateDate
                0x00000000       0xfa build/default/production/_ext/1664057780/asn.o
 .text.GetDate  0x00000000       0xaa build/default/production/_ext/1664057780/asn.o
 .text.wc_GetTime
                0x00000000       0x22 build/default/production/_ext/1664057780/asn.o
 .text.wc_GetDateInfo
                0x00000000       0x1c build/default/production/_ext/1664057780/asn.o
 .text.wc_GetDateAsCalendarTime
                0x00000000       0x22 build/default/production/_ext/1664057780/asn.o
 .text.SetLength
                0x00000000       0x7a build/default/production/_ext/1664057780/asn.o
 .text.SetASNInt
                0x00000000       0x44 build/default/production/_ext/1664057780/asn.o
 .text.SetASNIntMP
                0x00000000       0x8a build/default/production/_ext/1664057780/asn.o
 .text.SetBitString
                0x00000000       0x28 build/default/production/_ext/1664057780/asn.o
 .text.SetObjectId
                0x00000000       0x16 build/default/production/_ext/1664057780/asn.o
 .text.SetCurve
                0x00000000       0x32 build/default/production/_ext/1664057780/asn.o
 .text.SetSequence
                0x00000000       0x16 build/default/production/_ext/1664057780/asn.o
 .text.SetOctetString
                0x00000000       0x10 build/default/production/_ext/1664057780/asn.o
 .text.SetSet   0x00000000       0x10 build/default/production/_ext/1664057780/asn.o
 .text.SetImplicit
                0x00000000       0x24 build/default/production/_ext/1664057780/asn.o
 .text.SetExplicit
                0x00000000       0x18 build/default/production/_ext/1664057780/asn.o
 .text.SetAlgoID
                0x00000000      0x108 build/default/production/_ext/1664057780/asn.o
 .text.SetEccPublicKey
                0x00000000       0xa0 build/default/production/_ext/1664057780/asn.o
 .text.wc_EncodeSignature
                0x00000000       0x66 build/default/production/_ext/1664057780/asn.o
 .text.wc_GetCTC_HashOID
                0x00000000       0x10 build/default/production/_ext/1664057780/asn.o
 .text.InitSignatureCtx
                0x00000000       0x1c build/default/production/_ext/1664057780/asn.o
 .text.InitDecodedCert
                0x00000000       0x4a build/default/production/_ext/1664057780/asn.o
 .text.FreeSignatureCtx
                0x00000000       0x5c build/default/production/_ext/1664057780/asn.o
 .text.FreeDecodedCert
                0x00000000       0x7e build/default/production/_ext/1664057780/asn.o
 .text.GetCA    0x00000000        0x2 build/default/production/_ext/1664057780/asn.o
 .text.GetCAByName
                0x00000000        0x2 build/default/production/_ext/1664057780/asn.o
 .text.MakeSigner
                0x00000000       0x18 build/default/production/_ext/1664057780/asn.o
 .text.FreeSigner
                0x00000000       0x32 build/default/production/_ext/1664057780/asn.o
 .text.FreeSignerTable
                0x00000000       0x3e build/default/production/_ext/1664057780/asn.o
 .text.SetMyVersion
                0x00000000       0x28 build/default/production/_ext/1664057780/asn.o
 .text.wc_CreatePKCS8Key
                0x00000000      0x146 build/default/production/_ext/1664057780/asn.o
 .text.wc_BuildEccKeyDer
                0x00000000      0x1da build/default/production/_ext/1664057780/asn.o
 .text.eccToPKCS8
                0x00000000      0x104 build/default/production/_ext/1664057780/asn.o
 .text.SetSerialNumber
                0x00000000       0x9c build/default/production/_ext/1664057780/asn.o
 .text.GetSerialNumber
                0x00000000       0x64 build/default/production/_ext/1664057780/asn.o
 .text.wc_GetPubX509
                0x00000000      0x16e build/default/production/_ext/1664057780/asn.o
 .text.DecodeToKey
                0x00000000      0x1cc build/default/production/_ext/1664057780/asn.o
 .text.AllocDer
                0x00000000       0x88 build/default/production/_ext/1664057780/asn.o
 .text.FreeDer  0x00000000       0x38 build/default/production/_ext/1664057780/asn.o
 .text.wc_AllocDer
                0x00000000        0x8 build/default/production/_ext/1664057780/asn.o
 .text.wc_FreeDer
                0x00000000        0x8 build/default/production/_ext/1664057780/asn.o
 .text.wc_PemGetHeaderFooter
                0x00000000       0xf0 build/default/production/_ext/1664057780/asn.o
 .text.PemToDer
                0x00000000      0x1d8 build/default/production/_ext/1664057780/asn.o
 .text.wc_PemToDer
                0x00000000       0x18 build/default/production/_ext/1664057780/asn.o
 .text.wc_KeyPemToDer
                0x00000000       0x8c build/default/production/_ext/1664057780/asn.o
 .text.wc_CertPemToDer
                0x00000000       0x7a build/default/production/_ext/1664057780/asn.o
 .text.wc_EccPublicKeyToDer
                0x00000000       0x56 build/default/production/_ext/1664057780/asn.o
 .text.wc_EccPublicKeyDerSize
                0x00000000        0xe build/default/production/_ext/1664057780/asn.o
 .text.StoreECC_DSA_Sig
                0x00000000       0x7a build/default/production/_ext/1664057780/asn.o
 .text.StoreECC_DSA_Sig_Bin
                0x00000000       0xe8 build/default/production/_ext/1664057780/asn.o
 .text.DecodeECC_DSA_Sig_Bin
                0x00000000       0x9a build/default/production/_ext/1664057780/asn.o
 .text.DecodeECC_DSA_Sig
                0x00000000       0x70 build/default/production/_ext/1664057780/asn.o
 .text.wc_EccPrivateKeyDecode
                0x00000000      0x1a0 build/default/production/_ext/1664057780/asn.o
 .text.wc_CheckPrivateKey
                0x00000000      0x18c build/default/production/_ext/1664057780/asn.o
 .text.wc_CheckPrivateKeyCert
                0x00000000       0x26 build/default/production/_ext/1664057780/asn.o
 .text.wc_EccPublicKeyDecode
                0x00000000      0x1f4 build/default/production/_ext/1664057780/asn.o
 .text.ConfirmSignature
                0x00000000      0x35e build/default/production/_ext/1664057780/asn.o
 .text.ParseCertRelative
                0x00000000     0x1176 build/default/production/_ext/1664057780/asn.o
 .text.ParseCert
                0x00000000       0x7e build/default/production/_ext/1664057780/asn.o
 .text.wc_EccKeyToDer
                0x00000000        0xa build/default/production/_ext/1664057780/asn.o
 .text.wc_EccPrivateKeyToDer
                0x00000000        0xa build/default/production/_ext/1664057780/asn.o
 .text.wc_EccPrivateKeyToPKCS8
                0x00000000        0xa build/default/production/_ext/1664057780/asn.o
 .text.wc_EccKeyToPKCS8
                0x00000000        0xa build/default/production/_ext/1664057780/asn.o
 .text.GetNameHash
                0x00000000       0x7c build/default/production/_ext/1664057780/asn.o
 .rodata        0x00000000      0x244 build/default/production/_ext/1664057780/asn.o
 .rodata.BEGIN_CERT
                0x00000000        0x4 build/default/production/_ext/1664057780/asn.o
 .rodata.BEGIN_DSA_PRIV
                0x00000000        0x4 build/default/production/_ext/1664057780/asn.o
 .rodata.BEGIN_EC_PRIV
                0x00000000        0x4 build/default/production/_ext/1664057780/asn.o
 .rodata.BEGIN_ENC_PRIV_KEY
                0x00000000        0x4 build/default/production/_ext/1664057780/asn.o
 .rodata.BEGIN_PRIV_KEY
                0x00000000        0x4 build/default/production/_ext/1664057780/asn.o
 .rodata.BEGIN_PUB_KEY
                0x00000000        0x4 build/default/production/_ext/1664057780/asn.o
 .rodata.BEGIN_RSA_PRIV
                0x00000000        0x4 build/default/production/_ext/1664057780/asn.o
 .rodata.BEGIN_X509_CRL
                0x00000000        0x4 build/default/production/_ext/1664057780/asn.o
 .rodata.END_CERT
                0x00000000        0x4 build/default/production/_ext/1664057780/asn.o
 .rodata.END_DSA_PRIV
                0x00000000        0x4 build/default/production/_ext/1664057780/asn.o
 .rodata.END_EC_PRIV
                0x00000000        0x4 build/default/production/_ext/1664057780/asn.o
 .rodata.END_ENC_PRIV_KEY
                0x00000000        0x4 build/default/production/_ext/1664057780/asn.o
 .rodata.END_PRIV_KEY
                0x00000000        0x4 build/default/production/_ext/1664057780/asn.o
 .rodata.END_PUB_KEY
                0x00000000        0x4 build/default/production/_ext/1664057780/asn.o
 .rodata.END_RSA_PRIV
                0x00000000        0x4 build/default/production/_ext/1664057780/asn.o
 .rodata.END_X509_CRL
                0x00000000        0x4 build/default/production/_ext/1664057780/asn.o
 .rodata.blkAes128CbcOid
                0x00000000        0xc build/default/production/_ext/1664057780/asn.o
 .rodata.blkAes128CcmOid
                0x00000000        0xc build/default/production/_ext/1664057780/asn.o
 .rodata.blkAes128GcmOid
                0x00000000        0xc build/default/production/_ext/1664057780/asn.o
 .rodata.blkAes192CbcOid
                0x00000000        0xc build/default/production/_ext/1664057780/asn.o
 .rodata.blkAes192CcmOid
                0x00000000        0xc build/default/production/_ext/1664057780/asn.o
 .rodata.blkAes192GcmOid
                0x00000000        0xc build/default/production/_ext/1664057780/asn.o
 .rodata.blkAes256CbcOid
                0x00000000        0xc build/default/production/_ext/1664057780/asn.o
 .rodata.blkAes256CcmOid
                0x00000000        0xc build/default/production/_ext/1664057780/asn.o
 .rodata.blkAes256GcmOid
                0x00000000        0xc build/default/production/_ext/1664057780/asn.o
 .rodata.blkDes3CbcOid
                0x00000000        0x8 build/default/production/_ext/1664057780/asn.o
 .rodata.blkDesCbcOid
                0x00000000        0x8 build/default/production/_ext/1664057780/asn.o
 .rodata.dhSinglePass_stdDH_sha1kdf_Oid
                0x00000000        0xc build/default/production/_ext/1664057780/asn.o
 .rodata.dhSinglePass_stdDH_sha224kdf_Oid
                0x00000000        0x8 build/default/production/_ext/1664057780/asn.o
 .rodata.dhSinglePass_stdDH_sha256kdf_Oid
                0x00000000        0x8 build/default/production/_ext/1664057780/asn.o
 .rodata.extAltNamesHwNameOid
                0x00000000        0x8 build/default/production/_ext/1664057780/asn.o
 .rodata.extAltNamesOid
                0x00000000        0x4 build/default/production/_ext/1664057780/asn.o
 .rodata.extAuthInfoCaIssuerOid
                0x00000000        0x8 build/default/production/_ext/1664057780/asn.o
 .rodata.extAuthInfoOid
                0x00000000        0x8 build/default/production/_ext/1664057780/asn.o
 .rodata.extAuthKeyOid
                0x00000000        0x4 build/default/production/_ext/1664057780/asn.o
 .rodata.extBasicCaOid
                0x00000000        0x4 build/default/production/_ext/1664057780/asn.o
 .rodata.extCertPolicyAnyOid
                0x00000000        0x4 build/default/production/_ext/1664057780/asn.o
 .rodata.extCertPolicyOid
                0x00000000        0x4 build/default/production/_ext/1664057780/asn.o
 .rodata.extCrlDistOid
                0x00000000        0x4 build/default/production/_ext/1664057780/asn.o
 .rodata.extExtKeyUsageAnyOid
                0x00000000        0x4 build/default/production/_ext/1664057780/asn.o
 .rodata.extExtKeyUsageClientAuthOid
                0x00000000        0x8 build/default/production/_ext/1664057780/asn.o
 .rodata.extExtKeyUsageCodeSigningOid
                0x00000000        0x8 build/default/production/_ext/1664057780/asn.o
 .rodata.extExtKeyUsageEmailProtectOid
                0x00000000        0x8 build/default/production/_ext/1664057780/asn.o
 .rodata.extExtKeyUsageOcspSignOid
                0x00000000        0x8 build/default/production/_ext/1664057780/asn.o
 .rodata.extExtKeyUsageOid
                0x00000000        0x4 build/default/production/_ext/1664057780/asn.o
 .rodata.extExtKeyUsageServerAuthOid
                0x00000000        0x8 build/default/production/_ext/1664057780/asn.o
 .rodata.extExtKeyUsageTimestampOid
                0x00000000        0x8 build/default/production/_ext/1664057780/asn.o
 .rodata.extInhibitAnyOid
                0x00000000        0x4 build/default/production/_ext/1664057780/asn.o
 .rodata.extKeyUsageOid
                0x00000000        0x4 build/default/production/_ext/1664057780/asn.o
 .rodata.extNameConsOid
                0x00000000        0x4 build/default/production/_ext/1664057780/asn.o
 .rodata.extSubjKeyOid
                0x00000000        0x4 build/default/production/_ext/1664057780/asn.o
 .rodata.hashMd5hOid
                0x00000000        0x8 build/default/production/_ext/1664057780/asn.o
 .rodata.hashSha1hOid
                0x00000000        0x8 build/default/production/_ext/1664057780/asn.o
 .rodata.hashSha224hOid
                0x00000000        0xc build/default/production/_ext/1664057780/asn.o
 .rodata.hashSha256hOid
                0x00000000        0xc build/default/production/_ext/1664057780/asn.o
 .rodata.hmacSha224Oid
                0x00000000        0x8 build/default/production/_ext/1664057780/asn.o
 .rodata.hmacSha256Oid
                0x00000000        0x8 build/default/production/_ext/1664057780/asn.o
 .rodata.keyEcdsaOid
                0x00000000        0x8 build/default/production/_ext/1664057780/asn.o
 .rodata.keyRsaOid
                0x00000000        0xc build/default/production/_ext/1664057780/asn.o
 .rodata.pbeSha1Des
                0x00000000        0xc build/default/production/_ext/1664057780/asn.o
 .rodata.pbeSha1Des3
                0x00000000        0xc build/default/production/_ext/1664057780/asn.o
 .rodata.pbes2  0x00000000        0xc build/default/production/_ext/1664057780/asn.o
 .rodata.pbkdf2Oid
                0x00000000        0xc build/default/production/_ext/1664057780/asn.o
 .rodata.pem_struct_min_sz
                0x00000000        0x4 build/default/production/_ext/1664057780/asn.o
 .rodata.sigMd5wRsaName
                0x00000000       0x18 build/default/production/_ext/1664057780/asn.o
 .rodata.sigMd5wRsaOid
                0x00000000        0xc build/default/production/_ext/1664057780/asn.o
 .rodata.sigSha1wEcdsaName
                0x00000000        0xc build/default/production/_ext/1664057780/asn.o
 .rodata.sigSha1wEcdsaOid
                0x00000000        0x8 build/default/production/_ext/1664057780/asn.o
 .rodata.sigSha1wRsaName
                0x00000000       0x18 build/default/production/_ext/1664057780/asn.o
 .rodata.sigSha1wRsaOid
                0x00000000        0xc build/default/production/_ext/1664057780/asn.o
 .rodata.sigSha224wEcdsaName
                0x00000000       0x10 build/default/production/_ext/1664057780/asn.o
 .rodata.sigSha224wEcdsaOid
                0x00000000        0x8 build/default/production/_ext/1664057780/asn.o
 .rodata.sigSha224wRsaName
                0x00000000       0x18 build/default/production/_ext/1664057780/asn.o
 .rodata.sigSha224wRsaOid
                0x00000000        0xc build/default/production/_ext/1664057780/asn.o
 .rodata.sigSha256wEcdsaName
                0x00000000       0x10 build/default/production/_ext/1664057780/asn.o
 .rodata.sigSha256wEcdsaOid
                0x00000000        0x8 build/default/production/_ext/1664057780/asn.o
 .rodata.sigSha256wRsaName
                0x00000000       0x18 build/default/production/_ext/1664057780/asn.o
 .rodata.sigSha256wRsaOid
                0x00000000        0xc build/default/production/_ext/1664057780/asn.o
 .rodata.sigUnknownName
                0x00000000        0x8 build/default/production/_ext/1664057780/asn.o
 .rodata.wrapAes128Oid
                0x00000000        0xc build/default/production/_ext/1664057780/asn.o
 .rodata.wrapAes192Oid
                0x00000000        0xc build/default/production/_ext/1664057780/asn.o
 .rodata.wrapAes256Oid
                0x00000000        0xc build/default/production/_ext/1664057780/asn.o
 .debug_info    0x00000000    0x10a43 build/default/production/_ext/1664057780/asn.o
 .debug_abbrev  0x00000000      0x716 build/default/production/_ext/1664057780/asn.o
 .debug_loc     0x00000000     0xd546 build/default/production/_ext/1664057780/asn.o
 .debug_aranges
                0x00000000      0x358 build/default/production/_ext/1664057780/asn.o
 .debug_ranges  0x00000000      0x9c8 build/default/production/_ext/1664057780/asn.o
 .debug_line    0x00000000     0x5bec build/default/production/_ext/1664057780/asn.o
 .debug_str     0x00000000      0x40f build/default/production/_ext/1664057780/asn.o
 .comment       0x00000000       0x54 build/default/production/_ext/1664057780/asn.o
 .debug_frame   0x00000000      0xe78 build/default/production/_ext/1664057780/asn.o
 .ARM.attributes
                0x00000000       0x34 build/default/production/_ext/1664057780/asn.o
 .text          0x00000000        0x0 build/default/production/_ext/1664057780/blake2b.o
 .data          0x00000000        0x0 build/default/production/_ext/1664057780/blake2b.o
 .bss           0x00000000        0x0 build/default/production/_ext/1664057780/blake2b.o
 .debug_info    0x00000000      0x357 build/default/production/_ext/1664057780/blake2b.o
 .debug_abbrev  0x00000000       0x44 build/default/production/_ext/1664057780/blake2b.o
 .debug_aranges
                0x00000000       0x18 build/default/production/_ext/1664057780/blake2b.o
 .debug_line    0x00000000       0xe8 build/default/production/_ext/1664057780/blake2b.o
 .debug_str     0x00000000        0x0 build/default/production/_ext/1664057780/blake2b.o
 .comment       0x00000000       0x54 build/default/production/_ext/1664057780/blake2b.o
 .ARM.attributes
                0x00000000       0x39 build/default/production/_ext/1664057780/blake2b.o
 .text          0x00000000        0x0 build/default/production/_ext/1664057780/blake2s.o
 .data          0x00000000        0x0 build/default/production/_ext/1664057780/blake2s.o
 .bss           0x00000000        0x0 build/default/production/_ext/1664057780/blake2s.o
 .debug_info    0x00000000      0x357 build/default/production/_ext/1664057780/blake2s.o
 .debug_abbrev  0x00000000       0x44 build/default/production/_ext/1664057780/blake2s.o
 .debug_aranges
                0x00000000       0x18 build/default/production/_ext/1664057780/blake2s.o
 .debug_line    0x00000000       0xe8 build/default/production/_ext/1664057780/blake2s.o
 .debug_str     0x00000000        0x0 build/default/production/_ext/1664057780/blake2s.o
 .comment       0x00000000       0x54 build/default/production/_ext/1664057780/blake2s.o
 .ARM.attributes
                0x00000000       0x39 build/default/production/_ext/1664057780/blake2s.o
 .text          0x00000000        0x0 build/default/production/_ext/1664057780/camellia.o
 .data          0x00000000        0x0 build/default/production/_ext/1664057780/camellia.o
 .bss           0x00000000        0x0 build/default/production/_ext/1664057780/camellia.o
 .debug_info    0x00000000      0x358 build/default/production/_ext/1664057780/camellia.o
 .debug_abbrev  0x00000000       0x44 build/default/production/_ext/1664057780/camellia.o
 .debug_aranges
                0x00000000       0x18 build/default/production/_ext/1664057780/camellia.o
 .debug_line    0x00000000       0xe8 build/default/production/_ext/1664057780/camellia.o
 .debug_str     0x00000000        0x0 build/default/production/_ext/1664057780/camellia.o
 .comment       0x00000000       0x54 build/default/production/_ext/1664057780/camellia.o
 .ARM.attributes
                0x00000000       0x39 build/default/production/_ext/1664057780/camellia.o
 .text          0x00000000        0x0 build/default/production/_ext/1664057780/chacha.o
 .data          0x00000000        0x0 build/default/production/_ext/1664057780/chacha.o
 .bss           0x00000000        0x0 build/default/production/_ext/1664057780/chacha.o
 .debug_info    0x00000000      0x356 build/default/production/_ext/1664057780/chacha.o
 .debug_abbrev  0x00000000       0x44 build/default/production/_ext/1664057780/chacha.o
 .debug_aranges
                0x00000000       0x18 build/default/production/_ext/1664057780/chacha.o
 .debug_line    0x00000000       0xe8 build/default/production/_ext/1664057780/chacha.o
 .debug_str     0x00000000        0x0 build/default/production/_ext/1664057780/chacha.o
 .comment       0x00000000       0x54 build/default/production/_ext/1664057780/chacha.o
 .ARM.attributes
                0x00000000       0x39 build/default/production/_ext/1664057780/chacha.o
 .text          0x00000000        0x0 build/default/production/_ext/1664057780/chacha20_poly1305.o
 .data          0x00000000        0x0 build/default/production/_ext/1664057780/chacha20_poly1305.o
 .bss           0x00000000        0x0 build/default/production/_ext/1664057780/chacha20_poly1305.o
 .debug_info    0x00000000      0x361 build/default/production/_ext/1664057780/chacha20_poly1305.o
 .debug_abbrev  0x00000000       0x44 build/default/production/_ext/1664057780/chacha20_poly1305.o
 .debug_aranges
                0x00000000       0x18 build/default/production/_ext/1664057780/chacha20_poly1305.o
 .debug_line    0x00000000       0xe8 build/default/production/_ext/1664057780/chacha20_poly1305.o
 .debug_str     0x00000000        0x0 build/default/production/_ext/1664057780/chacha20_poly1305.o
 .comment       0x00000000       0x54 build/default/production/_ext/1664057780/chacha20_poly1305.o
 .ARM.attributes
                0x00000000       0x39 build/default/production/_ext/1664057780/chacha20_poly1305.o
 .text          0x00000000        0x0 build/default/production/_ext/1664057780/cmac.o
 .data          0x00000000        0x0 build/default/production/_ext/1664057780/cmac.o
 .bss           0x00000000        0x0 build/default/production/_ext/1664057780/cmac.o
 .debug_info    0x00000000      0x354 build/default/production/_ext/1664057780/cmac.o
 .debug_abbrev  0x00000000       0x44 build/default/production/_ext/1664057780/cmac.o
 .debug_aranges
                0x00000000       0x18 build/default/production/_ext/1664057780/cmac.o
 .debug_line    0x00000000       0xe8 build/default/production/_ext/1664057780/cmac.o
 .debug_str     0x00000000        0x0 build/default/production/_ext/1664057780/cmac.o
 .comment       0x00000000       0x54 build/default/production/_ext/1664057780/cmac.o
 .ARM.attributes
                0x00000000       0x39 build/default/production/_ext/1664057780/cmac.o
 .text          0x00000000        0x0 build/default/production/_ext/1664057780/coding.o
 .data          0x00000000        0x0 build/default/production/_ext/1664057780/coding.o
 .bss           0x00000000        0x0 build/default/production/_ext/1664057780/coding.o
 .text.Base64_Decode
                0x00000000      0x464 build/default/production/_ext/1664057780/coding.o
 .rodata.base64Decode
                0x00000000       0x50 build/default/production/_ext/1664057780/coding.o
 .debug_info    0x00000000     0x2890 build/default/production/_ext/1664057780/coding.o
 .debug_abbrev  0x00000000      0x33f build/default/production/_ext/1664057780/coding.o
 .debug_loc     0x00000000     0x1c94 build/default/production/_ext/1664057780/coding.o
 .debug_aranges
                0x00000000       0x20 build/default/production/_ext/1664057780/coding.o
 .debug_ranges  0x00000000      0x1e0 build/default/production/_ext/1664057780/coding.o
 .debug_line    0x00000000      0x7c3 build/default/production/_ext/1664057780/coding.o
 .debug_str     0x00000000        0xe build/default/production/_ext/1664057780/coding.o
 .comment       0x00000000       0x54 build/default/production/_ext/1664057780/coding.o
 .debug_frame   0x00000000       0x40 build/default/production/_ext/1664057780/coding.o
 .ARM.attributes
                0x00000000       0x34 build/default/production/_ext/1664057780/coding.o
 .text          0x00000000        0x0 build/default/production/_ext/1664057780/compress.o
 .data          0x00000000        0x0 build/default/production/_ext/1664057780/compress.o
 .bss           0x00000000        0x0 build/default/production/_ext/1664057780/compress.o
 .debug_info    0x00000000      0x358 build/default/production/_ext/1664057780/compress.o
 .debug_abbrev  0x00000000       0x44 build/default/production/_ext/1664057780/compress.o
 .debug_aranges
                0x00000000       0x18 build/default/production/_ext/1664057780/compress.o
 .debug_line    0x00000000       0xe8 build/default/production/_ext/1664057780/compress.o
 .debug_str     0x00000000        0x0 build/default/production/_ext/1664057780/compress.o
 .comment       0x00000000       0x54 build/default/production/_ext/1664057780/compress.o
 .ARM.attributes
                0x00000000       0x39 build/default/production/_ext/1664057780/compress.o
 .text          0x00000000        0x0 build/default/production/_ext/1664057780/cpuid.o
 .data          0x00000000        0x0 build/default/production/_ext/1664057780/cpuid.o
 .bss           0x00000000        0x0 build/default/production/_ext/1664057780/cpuid.o
 .debug_info    0x00000000      0xf70 build/default/production/_ext/1664057780/cpuid.o
 .debug_abbrev  0x00000000      0x1a1 build/default/production/_ext/1664057780/cpuid.o
 .debug_aranges
                0x00000000       0x18 build/default/production/_ext/1664057780/cpuid.o
 .debug_line    0x00000000      0x1ae build/default/production/_ext/1664057780/cpuid.o
 .debug_str     0x00000000        0xe build/default/production/_ext/1664057780/cpuid.o
 .comment       0x00000000       0x54 build/default/production/_ext/1664057780/cpuid.o
 .ARM.attributes
                0x00000000       0x39 build/default/production/_ext/1664057780/cpuid.o
 .text          0x00000000        0x0 build/default/production/_ext/1664057780/cryptocb.o
 .data          0x00000000        0x0 build/default/production/_ext/1664057780/cryptocb.o
 .bss           0x00000000        0x0 build/default/production/_ext/1664057780/cryptocb.o
 .text.wc_CryptoCb_Init
                0x00000000       0x1c build/default/production/_ext/1664057780/cryptocb.o
 .text.wc_CryptoCb_GetDevIdAtIndex
                0x00000000       0x12 build/default/production/_ext/1664057780/cryptocb.o
 .text.wc_CryptoCb_UnRegisterDevice
                0x00000000       0x16 build/default/production/_ext/1664057780/cryptocb.o
 .text.wc_CryptoCb_Rsa
                0x00000000       0x78 build/default/production/_ext/1664057780/cryptocb.o
 .text.wc_CryptoCb_RsaCheckPrivKey
                0x00000000       0x60 build/default/production/_ext/1664057780/cryptocb.o
 .text.wc_CryptoCb_MakeEccKey
                0x00000000       0x68 build/default/production/_ext/1664057780/cryptocb.o
 .text.wc_CryptoCb_Ecdh
                0x00000000       0x66 build/default/production/_ext/1664057780/cryptocb.o
 .text.wc_CryptoCb_EccSign
                0x00000000       0x72 build/default/production/_ext/1664057780/cryptocb.o
 .text.wc_CryptoCb_EccVerify
                0x00000000       0x72 build/default/production/_ext/1664057780/cryptocb.o
 .text.wc_CryptoCb_EccCheckPrivKey
                0x00000000       0x5e build/default/production/_ext/1664057780/cryptocb.o
 .text.wc_CryptoCb_AesGcmEncrypt
                0x00000000       0x8e build/default/production/_ext/1664057780/cryptocb.o
 .text.wc_CryptoCb_AesGcmDecrypt
                0x00000000       0x8a build/default/production/_ext/1664057780/cryptocb.o
 .text.wc_CryptoCb_AesCbcEncrypt
                0x00000000       0x6e build/default/production/_ext/1664057780/cryptocb.o
 .text.wc_CryptoCb_AesCbcDecrypt
                0x00000000       0x6a build/default/production/_ext/1664057780/cryptocb.o
 .text.wc_CryptoCb_Des3Encrypt
                0x00000000       0x70 build/default/production/_ext/1664057780/cryptocb.o
 .text.wc_CryptoCb_Des3Decrypt
                0x00000000       0x6c build/default/production/_ext/1664057780/cryptocb.o
 .text.wc_CryptoCb_ShaHash
                0x00000000       0x6a build/default/production/_ext/1664057780/cryptocb.o
 .text.wc_CryptoCb_Hmac
                0x00000000       0x68 build/default/production/_ext/1664057780/cryptocb.o
 .text.wc_CryptoCb_RandomSeed
                0x00000000       0x50 build/default/production/_ext/1664057780/cryptocb.o
 .text          0x00000000        0x0 build/default/production/_ext/1664057780/curve25519.o
 .data          0x00000000        0x0 build/default/production/_ext/1664057780/curve25519.o
 .bss           0x00000000        0x0 build/default/production/_ext/1664057780/curve25519.o
 .debug_info    0x00000000      0x35a build/default/production/_ext/1664057780/curve25519.o
 .debug_abbrev  0x00000000       0x44 build/default/production/_ext/1664057780/curve25519.o
 .debug_aranges
                0x00000000       0x18 build/default/production/_ext/1664057780/curve25519.o
 .debug_line    0x00000000       0xe8 build/default/production/_ext/1664057780/curve25519.o
 .debug_str     0x00000000        0x0 build/default/production/_ext/1664057780/curve25519.o
 .comment       0x00000000       0x54 build/default/production/_ext/1664057780/curve25519.o
 .ARM.attributes
                0x00000000       0x39 build/default/production/_ext/1664057780/curve25519.o
 .text          0x00000000        0x0 build/default/production/_ext/1664057780/curve448.o
 .data          0x00000000        0x0 build/default/production/_ext/1664057780/curve448.o
 .bss           0x00000000        0x0 build/default/production/_ext/1664057780/curve448.o
 .debug_info    0x00000000      0x358 build/default/production/_ext/1664057780/curve448.o
 .debug_abbrev  0x00000000       0x44 build/default/production/_ext/1664057780/curve448.o
 .debug_aranges
                0x00000000       0x18 build/default/production/_ext/1664057780/curve448.o
 .debug_line    0x00000000       0xe8 build/default/production/_ext/1664057780/curve448.o
 .debug_str     0x00000000        0x0 build/default/production/_ext/1664057780/curve448.o
 .comment       0x00000000       0x54 build/default/production/_ext/1664057780/curve448.o
 .ARM.attributes
                0x00000000       0x39 build/default/production/_ext/1664057780/curve448.o
 .text          0x00000000        0x0 build/default/production/_ext/1664057780/dh.o
 .data          0x00000000        0x0 build/default/production/_ext/1664057780/dh.o
 .bss           0x00000000        0x0 build/default/production/_ext/1664057780/dh.o
 .debug_info    0x00000000      0x352 build/default/production/_ext/1664057780/dh.o
 .debug_abbrev  0x00000000       0x44 build/default/production/_ext/1664057780/dh.o
 .debug_aranges
                0x00000000       0x18 build/default/production/_ext/1664057780/dh.o
 .debug_line    0x00000000       0xe8 build/default/production/_ext/1664057780/dh.o
 .debug_str     0x00000000        0x0 build/default/production/_ext/1664057780/dh.o
 .comment       0x00000000       0x54 build/default/production/_ext/1664057780/dh.o
 .ARM.attributes
                0x00000000       0x39 build/default/production/_ext/1664057780/dh.o
 .text          0x00000000        0x0 build/default/production/_ext/1664057780/dsa.o
 .data          0x00000000        0x0 build/default/production/_ext/1664057780/dsa.o
 .bss           0x00000000        0x0 build/default/production/_ext/1664057780/dsa.o
 .debug_info    0x00000000      0x353 build/default/production/_ext/1664057780/dsa.o
 .debug_abbrev  0x00000000       0x44 build/default/production/_ext/1664057780/dsa.o
 .debug_aranges
                0x00000000       0x18 build/default/production/_ext/1664057780/dsa.o
 .debug_line    0x00000000       0xe8 build/default/production/_ext/1664057780/dsa.o
 .debug_str     0x00000000        0x0 build/default/production/_ext/1664057780/dsa.o
 .comment       0x00000000       0x54 build/default/production/_ext/1664057780/dsa.o
 .ARM.attributes
                0x00000000       0x39 build/default/production/_ext/1664057780/dsa.o
 .text          0x00000000        0x0 build/default/production/_ext/1664057780/ecc_fp.o
 .data          0x00000000        0x0 build/default/production/_ext/1664057780/ecc_fp.o
 .bss           0x00000000        0x0 build/default/production/_ext/1664057780/ecc_fp.o
 .debug_line    0x00000000        0x0 build/default/production/_ext/1664057780/ecc_fp.o
 .debug_str     0x00000000        0x0 build/default/production/_ext/1664057780/ecc_fp.o
 .comment       0x00000000       0x54 build/default/production/_ext/1664057780/ecc_fp.o
 .ARM.attributes
                0x00000000       0x39 build/default/production/_ext/1664057780/ecc_fp.o
 .text          0x00000000        0x0 build/default/production/_ext/1664057780/ed25519.o
 .data          0x00000000        0x0 build/default/production/_ext/1664057780/ed25519.o
 .bss           0x00000000        0x0 build/default/production/_ext/1664057780/ed25519.o
 .debug_info    0x00000000      0x357 build/default/production/_ext/1664057780/ed25519.o
 .debug_abbrev  0x00000000       0x44 build/default/production/_ext/1664057780/ed25519.o
 .debug_aranges
                0x00000000       0x18 build/default/production/_ext/1664057780/ed25519.o
 .debug_line    0x00000000       0xe8 build/default/production/_ext/1664057780/ed25519.o
 .debug_str     0x00000000        0x0 build/default/production/_ext/1664057780/ed25519.o
 .comment       0x00000000       0x54 build/default/production/_ext/1664057780/ed25519.o
 .ARM.attributes
                0x00000000       0x39 build/default/production/_ext/1664057780/ed25519.o
 .text          0x00000000        0x0 build/default/production/_ext/1664057780/ed448.o
 .data          0x00000000        0x0 build/default/production/_ext/1664057780/ed448.o
 .bss           0x00000000        0x0 build/default/production/_ext/1664057780/ed448.o
 .debug_info    0x00000000      0x355 build/default/production/_ext/1664057780/ed448.o
 .debug_abbrev  0x00000000       0x44 build/default/production/_ext/1664057780/ed448.o
 .debug_aranges
                0x00000000       0x18 build/default/production/_ext/1664057780/ed448.o
 .debug_line    0x00000000       0xe8 build/default/production/_ext/1664057780/ed448.o
 .debug_str     0x00000000        0x0 build/default/production/_ext/1664057780/ed448.o
 .comment       0x00000000       0x54 build/default/production/_ext/1664057780/ed448.o
 .ARM.attributes
                0x00000000       0x39 build/default/production/_ext/1664057780/ed448.o
 .text          0x00000000        0x0 build/default/production/_ext/1664057780/error.o
 .data          0x00000000        0x0 build/default/production/_ext/1664057780/error.o
 .bss           0x00000000        0x0 build/default/production/_ext/1664057780/error.o
 .debug_info    0x00000000      0xf70 build/default/production/_ext/1664057780/error.o
 .debug_abbrev  0x00000000      0x1a1 build/default/production/_ext/1664057780/error.o
 .debug_aranges
                0x00000000       0x18 build/default/production/_ext/1664057780/error.o
 .debug_line    0x00000000      0x1ae build/default/production/_ext/1664057780/error.o
 .debug_str     0x00000000        0xe build/default/production/_ext/1664057780/error.o
 .comment       0x00000000       0x54 build/default/production/_ext/1664057780/error.o
 .ARM.attributes
                0x00000000       0x39 build/default/production/_ext/1664057780/error.o
 .text          0x00000000        0x0 build/default/production/_ext/1664057780/fe_448.o
 .data          0x00000000        0x0 build/default/production/_ext/1664057780/fe_448.o
 .bss           0x00000000        0x0 build/default/production/_ext/1664057780/fe_448.o
 .debug_info    0x00000000      0x356 build/default/production/_ext/1664057780/fe_448.o
 .debug_abbrev  0x00000000       0x44 build/default/production/_ext/1664057780/fe_448.o
 .debug_aranges
                0x00000000       0x18 build/default/production/_ext/1664057780/fe_448.o
 .debug_line    0x00000000       0xe8 build/default/production/_ext/1664057780/fe_448.o
 .debug_str     0x00000000        0x0 build/default/production/_ext/1664057780/fe_448.o
 .comment       0x00000000       0x54 build/default/production/_ext/1664057780/fe_448.o
 .ARM.attributes
                0x00000000       0x39 build/default/production/_ext/1664057780/fe_448.o
 .text          0x00000000        0x0 build/default/production/_ext/1664057780/fe_low_mem.o
 .data          0x00000000        0x0 build/default/production/_ext/1664057780/fe_low_mem.o
 .bss           0x00000000        0x0 build/default/production/_ext/1664057780/fe_low_mem.o
 .debug_info    0x00000000      0x35a build/default/production/_ext/1664057780/fe_low_mem.o
 .debug_abbrev  0x00000000       0x44 build/default/production/_ext/1664057780/fe_low_mem.o
 .debug_aranges
                0x00000000       0x18 build/default/production/_ext/1664057780/fe_low_mem.o
 .debug_line    0x00000000       0xe8 build/default/production/_ext/1664057780/fe_low_mem.o
 .debug_str     0x00000000        0x0 build/default/production/_ext/1664057780/fe_low_mem.o
 .comment       0x00000000       0x54 build/default/production/_ext/1664057780/fe_low_mem.o
 .ARM.attributes
                0x00000000       0x39 build/default/production/_ext/1664057780/fe_low_mem.o
 .text          0x00000000        0x0 build/default/production/_ext/1664057780/fe_operations.o
 .data          0x00000000        0x0 build/default/production/_ext/1664057780/fe_operations.o
 .bss           0x00000000        0x0 build/default/production/_ext/1664057780/fe_operations.o
 .debug_info    0x00000000      0x35d build/default/production/_ext/1664057780/fe_operations.o
 .debug_abbrev  0x00000000       0x44 build/default/production/_ext/1664057780/fe_operations.o
 .debug_aranges
                0x00000000       0x18 build/default/production/_ext/1664057780/fe_operations.o
 .debug_line    0x00000000       0xe8 build/default/production/_ext/1664057780/fe_operations.o
 .debug_str     0x00000000        0x0 build/default/production/_ext/1664057780/fe_operations.o
 .comment       0x00000000       0x54 build/default/production/_ext/1664057780/fe_operations.o
 .ARM.attributes
                0x00000000       0x39 build/default/production/_ext/1664057780/fe_operations.o
 .text          0x00000000        0x0 build/default/production/_ext/1664057780/ge_448.o
 .data          0x00000000        0x0 build/default/production/_ext/1664057780/ge_448.o
 .bss           0x00000000        0x0 build/default/production/_ext/1664057780/ge_448.o
 .debug_info    0x00000000      0x356 build/default/production/_ext/1664057780/ge_448.o
 .debug_abbrev  0x00000000       0x44 build/default/production/_ext/1664057780/ge_448.o
 .debug_aranges
                0x00000000       0x18 build/default/production/_ext/1664057780/ge_448.o
 .debug_line    0x00000000       0xe8 build/default/production/_ext/1664057780/ge_448.o
 .debug_str     0x00000000        0x0 build/default/production/_ext/1664057780/ge_448.o
 .comment       0x00000000       0x54 build/default/production/_ext/1664057780/ge_448.o
 .ARM.attributes
                0x00000000       0x39 build/default/production/_ext/1664057780/ge_448.o
 .text          0x00000000        0x0 build/default/production/_ext/1664057780/ge_low_mem.o
 .data          0x00000000        0x0 build/default/production/_ext/1664057780/ge_low_mem.o
 .bss           0x00000000        0x0 build/default/production/_ext/1664057780/ge_low_mem.o
 .debug_info    0x00000000      0x35a build/default/production/_ext/1664057780/ge_low_mem.o
 .debug_abbrev  0x00000000       0x44 build/default/production/_ext/1664057780/ge_low_mem.o
 .debug_aranges
                0x00000000       0x18 build/default/production/_ext/1664057780/ge_low_mem.o
 .debug_line    0x00000000       0xe8 build/default/production/_ext/1664057780/ge_low_mem.o
 .debug_str     0x00000000        0x0 build/default/production/_ext/1664057780/ge_low_mem.o
 .comment       0x00000000       0x54 build/default/production/_ext/1664057780/ge_low_mem.o
 .ARM.attributes
                0x00000000       0x39 build/default/production/_ext/1664057780/ge_low_mem.o
 .text          0x00000000        0x0 build/default/production/_ext/1664057780/ge_operations.o
 .data          0x00000000        0x0 build/default/production/_ext/1664057780/ge_operations.o
 .bss           0x00000000        0x0 build/default/production/_ext/1664057780/ge_operations.o
 .debug_info    0x00000000      0x35d build/default/production/_ext/1664057780/ge_operations.o
 .debug_abbrev  0x00000000       0x44 build/default/production/_ext/1664057780/ge_operations.o
 .debug_aranges
                0x00000000       0x18 build/default/production/_ext/1664057780/ge_operations.o
 .debug_line    0x00000000       0xe8 build/default/production/_ext/1664057780/ge_operations.o
 .debug_str     0x00000000        0x0 build/default/production/_ext/1664057780/ge_operations.o
 .comment       0x00000000       0x54 build/default/production/_ext/1664057780/ge_operations.o
 .ARM.attributes
                0x00000000       0x39 build/default/production/_ext/1664057780/ge_operations.o
 .text          0x00000000        0x0 build/default/production/_ext/1664057780/hash.o
 .data          0x00000000        0x0 build/default/production/_ext/1664057780/hash.o
 .bss           0x00000000        0x0 build/default/production/_ext/1664057780/hash.o
 .text.wc_HashTypeConvert
                0x00000000        0xc build/default/production/_ext/1664057780/hash.o
 .text.wc_HashGetOID
                0x00000000       0x3a build/default/production/_ext/1664057780/hash.o
 .text.wc_OidGetHash
                0x00000000       0x30 build/default/production/_ext/1664057780/hash.o
 .text.wc_HashGetDigestSize
                0x00000000       0x3a build/default/production/_ext/1664057780/hash.o
 .text.wc_HashGetBlockSize
                0x00000000       0x2e build/default/production/_ext/1664057780/hash.o
 .text.wc_HashInit_ex
                0x00000000       0x56 build/default/production/_ext/1664057780/hash.o
 .text.wc_HashInit
                0x00000000        0xe build/default/production/_ext/1664057780/hash.o
 .text.wc_HashUpdate
                0x00000000       0x66 build/default/production/_ext/1664057780/hash.o
 .text.wc_HashFinal
                0x00000000       0x54 build/default/production/_ext/1664057780/hash.o
 .text.wc_HashFree
                0x00000000       0x4c build/default/production/_ext/1664057780/hash.o
 .text.wc_HashSetFlags
                0x00000000       0x4c build/default/production/_ext/1664057780/hash.o
 .text.wc_HashGetFlags
                0x00000000       0x4c build/default/production/_ext/1664057780/hash.o
 .text.wc_Md5Hash
                0x00000000       0x3c build/default/production/_ext/1664057780/hash.o
 .text.wc_ShaHash
                0x00000000       0x56 build/default/production/_ext/1664057780/hash.o
 .text.wc_Sha224Hash
                0x00000000       0x3c build/default/production/_ext/1664057780/hash.o
 .text.wc_Sha256Hash
                0x00000000       0x56 build/default/production/_ext/1664057780/hash.o
 .text.wc_Hash  0x00000000       0x94 build/default/production/_ext/1664057780/hash.o
 .debug_info    0x00000000     0x312c build/default/production/_ext/1664057780/hash.o
 .debug_abbrev  0x00000000      0x369 build/default/production/_ext/1664057780/hash.o
 .debug_loc     0x00000000     0x1af2 build/default/production/_ext/1664057780/hash.o
 .debug_aranges
                0x00000000       0xa0 build/default/production/_ext/1664057780/hash.o
 .debug_ranges  0x00000000       0x90 build/default/production/_ext/1664057780/hash.o
 .debug_line    0x00000000      0x891 build/default/production/_ext/1664057780/hash.o
 .debug_str     0x00000000      0x202 build/default/production/_ext/1664057780/hash.o
 .comment       0x00000000       0x54 build/default/production/_ext/1664057780/hash.o
 .debug_frame   0x00000000      0x1e4 build/default/production/_ext/1664057780/hash.o
 .ARM.attributes
                0x00000000       0x34 build/default/production/_ext/1664057780/hash.o
 .text          0x00000000        0x0 build/default/production/_ext/1664057780/hc128.o
 .data          0x00000000        0x0 build/default/production/_ext/1664057780/hc128.o
 .bss           0x00000000        0x0 build/default/production/_ext/1664057780/hc128.o
 .debug_info    0x00000000      0x355 build/default/production/_ext/1664057780/hc128.o
 .debug_abbrev  0x00000000       0x44 build/default/production/_ext/1664057780/hc128.o
 .debug_aranges
                0x00000000       0x18 build/default/production/_ext/1664057780/hc128.o
 .debug_line    0x00000000       0xe8 build/default/production/_ext/1664057780/hc128.o
 .debug_str     0x00000000        0x0 build/default/production/_ext/1664057780/hc128.o
 .comment       0x00000000       0x54 build/default/production/_ext/1664057780/hc128.o
 .ARM.attributes
                0x00000000       0x39 build/default/production/_ext/1664057780/hc128.o
 .text          0x00000000        0x0 build/default/production/_ext/1664057780/hmac.o
 .data          0x00000000        0x0 build/default/production/_ext/1664057780/hmac.o
 .bss           0x00000000        0x0 build/default/production/_ext/1664057780/hmac.o
 .text.HmacKeyInnerHash
                0x00000000       0x50 build/default/production/_ext/1664057780/hmac.o
 .text.wc_HmacSizeByType
                0x00000000       0x30 build/default/production/_ext/1664057780/hmac.o
 .text._InitHmac
                0x00000000       0x36 build/default/production/_ext/1664057780/hmac.o
 .text.wc_HmacUpdate
                0x00000000       0xb0 build/default/production/_ext/1664057780/hmac.o
 .text.wc_HmacFinal
                0x00000000      0x17a build/default/production/_ext/1664057780/hmac.o
 .text.wc_HmacInit
                0x00000000       0x2a build/default/production/_ext/1664057780/hmac.o
 .text.wc_HmacFree
                0x00000000       0x90 build/default/production/_ext/1664057780/hmac.o
 .text.wc_HmacSetKey
                0x00000000      0x190 build/default/production/_ext/1664057780/hmac.o
 .text.wolfSSL_GetHmacMaxSize
                0x00000000        0x4 build/default/production/_ext/1664057780/hmac.o
 .debug_info    0x00000000     0x2eb2 build/default/production/_ext/1664057780/hmac.o
 .debug_abbrev  0x00000000      0x3dd build/default/production/_ext/1664057780/hmac.o
 .debug_loc     0x00000000      0xf06 build/default/production/_ext/1664057780/hmac.o
 .debug_aranges
                0x00000000       0x60 build/default/production/_ext/1664057780/hmac.o
 .debug_ranges  0x00000000       0x50 build/default/production/_ext/1664057780/hmac.o
 .debug_line    0x00000000      0x88f build/default/production/_ext/1664057780/hmac.o
 .debug_str     0x00000000      0x137 build/default/production/_ext/1664057780/hmac.o
 .comment       0x00000000       0x54 build/default/production/_ext/1664057780/hmac.o
 .debug_frame   0x00000000      0x134 build/default/production/_ext/1664057780/hmac.o
 .ARM.attributes
                0x00000000       0x34 build/default/production/_ext/1664057780/hmac.o
 .text          0x00000000        0x0 build/default/production/_ext/1664057780/idea.o
 .data          0x00000000        0x0 build/default/production/_ext/1664057780/idea.o
 .bss           0x00000000        0x0 build/default/production/_ext/1664057780/idea.o
 .debug_info    0x00000000      0x354 build/default/production/_ext/1664057780/idea.o
 .debug_abbrev  0x00000000       0x44 build/default/production/_ext/1664057780/idea.o
 .debug_aranges
                0x00000000       0x18 build/default/production/_ext/1664057780/idea.o
 .debug_line    0x00000000       0xe8 build/default/production/_ext/1664057780/idea.o
 .debug_str     0x00000000        0x0 build/default/production/_ext/1664057780/idea.o
 .comment       0x00000000       0x54 build/default/production/_ext/1664057780/idea.o
 .ARM.attributes
                0x00000000       0x39 build/default/production/_ext/1664057780/idea.o
 .text          0x00000000        0x0 build/default/production/_ext/1664057780/integer.o
 .data          0x00000000        0x0 build/default/production/_ext/1664057780/integer.o
 .bss           0x00000000        0x0 build/default/production/_ext/1664057780/integer.o
 .debug_info    0x00000000      0xf72 build/default/production/_ext/1664057780/integer.o
 .debug_abbrev  0x00000000      0x1a1 build/default/production/_ext/1664057780/integer.o
 .debug_aranges
                0x00000000       0x18 build/default/production/_ext/1664057780/integer.o
 .debug_line    0x00000000      0x1ae build/default/production/_ext/1664057780/integer.o
 .debug_str     0x00000000        0xe build/default/production/_ext/1664057780/integer.o
 .comment       0x00000000       0x54 build/default/production/_ext/1664057780/integer.o
 .ARM.attributes
                0x00000000       0x39 build/default/production/_ext/1664057780/integer.o
 .text          0x00000000        0x0 build/default/production/_ext/1664057780/logging.o
 .data          0x00000000        0x0 build/default/production/_ext/1664057780/logging.o
 .bss           0x00000000        0x0 build/default/production/_ext/1664057780/logging.o
 .text.wolfSSL_SetLoggingCb
                0x00000000        0x6 build/default/production/_ext/1664057780/logging.o
 .text.wolfSSL_GetLoggingCb
                0x00000000        0x4 build/default/production/_ext/1664057780/logging.o
 .text.wolfSSL_Debugging_ON
                0x00000000        0x6 build/default/production/_ext/1664057780/logging.o
 .text.wolfSSL_Debugging_OFF
                0x00000000        0x2 build/default/production/_ext/1664057780/logging.o
 .debug_info    0x00000000     0x1b92 build/default/production/_ext/1664057780/logging.o
 .debug_abbrev  0x00000000      0x229 build/default/production/_ext/1664057780/logging.o
 .debug_loc     0x00000000       0x25 build/default/production/_ext/1664057780/logging.o
 .debug_aranges
                0x00000000       0x38 build/default/production/_ext/1664057780/logging.o
 .debug_ranges  0x00000000       0x28 build/default/production/_ext/1664057780/logging.o
 .debug_line    0x00000000      0x297 build/default/production/_ext/1664057780/logging.o
 .debug_str     0x00000000        0xe build/default/production/_ext/1664057780/logging.o
 .comment       0x00000000       0x54 build/default/production/_ext/1664057780/logging.o
 .debug_frame   0x00000000       0x50 build/default/production/_ext/1664057780/logging.o
 .ARM.attributes
                0x00000000       0x34 build/default/production/_ext/1664057780/logging.o
 .text          0x00000000        0x0 build/default/production/_ext/1664057780/md2.o
 .data          0x00000000        0x0 build/default/production/_ext/1664057780/md2.o
 .bss           0x00000000        0x0 build/default/production/_ext/1664057780/md2.o
 .debug_info    0x00000000      0x353 build/default/production/_ext/1664057780/md2.o
 .debug_abbrev  0x00000000       0x44 build/default/production/_ext/1664057780/md2.o
 .debug_aranges
                0x00000000       0x18 build/default/production/_ext/1664057780/md2.o
 .debug_line    0x00000000       0xe8 build/default/production/_ext/1664057780/md2.o
 .debug_str     0x00000000        0x0 build/default/production/_ext/1664057780/md2.o
 .comment       0x00000000       0x54 build/default/production/_ext/1664057780/md2.o
 .ARM.attributes
                0x00000000       0x39 build/default/production/_ext/1664057780/md2.o
 .text          0x00000000        0x0 build/default/production/_ext/1664057780/md4.o
 .data          0x00000000        0x0 build/default/production/_ext/1664057780/md4.o
 .bss           0x00000000        0x0 build/default/production/_ext/1664057780/md4.o
 .debug_info    0x00000000      0x353 build/default/production/_ext/1664057780/md4.o
 .debug_abbrev  0x00000000       0x44 build/default/production/_ext/1664057780/md4.o
 .debug_aranges
                0x00000000       0x18 build/default/production/_ext/1664057780/md4.o
 .debug_line    0x00000000       0xe8 build/default/production/_ext/1664057780/md4.o
 .debug_str     0x00000000        0x0 build/default/production/_ext/1664057780/md4.o
 .comment       0x00000000       0x54 build/default/production/_ext/1664057780/md4.o
 .ARM.attributes
                0x00000000       0x39 build/default/production/_ext/1664057780/md4.o
 .text          0x00000000        0x0 build/default/production/_ext/1664057780/md5.o
 .data          0x00000000        0x0 build/default/production/_ext/1664057780/md5.o
 .bss           0x00000000        0x0 build/default/production/_ext/1664057780/md5.o
 .text.wc_Md5Free
                0x00000000        0x2 build/default/production/_ext/1664057780/md5.o
 .text.wc_Md5Copy
                0x00000000       0x2a build/default/production/_ext/1664057780/md5.o
 .text.wc_Md5GetHash
                0x00000000       0x34 build/default/production/_ext/1664057780/md5.o
 .text.wc_Md5SetFlags
                0x00000000        0x8 build/default/production/_ext/1664057780/md5.o
 .text.wc_Md5GetFlags
                0x00000000        0xc build/default/production/_ext/1664057780/md5.o
 .text          0x00000000        0x0 build/default/production/_ext/1664057780/memory.o
 .data          0x00000000        0x0 build/default/production/_ext/1664057780/memory.o
 .bss           0x00000000        0x0 build/default/production/_ext/1664057780/memory.o
 .debug_info    0x00000000      0x356 build/default/production/_ext/1664057780/memory.o
 .debug_abbrev  0x00000000       0x44 build/default/production/_ext/1664057780/memory.o
 .debug_aranges
                0x00000000       0x18 build/default/production/_ext/1664057780/memory.o
 .debug_line    0x00000000       0xe8 build/default/production/_ext/1664057780/memory.o
 .debug_str     0x00000000        0x0 build/default/production/_ext/1664057780/memory.o
 .comment       0x00000000       0x54 build/default/production/_ext/1664057780/memory.o
 .ARM.attributes
                0x00000000       0x39 build/default/production/_ext/1664057780/memory.o
 .text          0x00000000        0x0 build/default/production/_ext/1664057780/pkcs12.o
 .data          0x00000000        0x0 build/default/production/_ext/1664057780/pkcs12.o
 .bss           0x00000000        0x0 build/default/production/_ext/1664057780/pkcs12.o
 .debug_info    0x00000000      0x356 build/default/production/_ext/1664057780/pkcs12.o
 .debug_abbrev  0x00000000       0x44 build/default/production/_ext/1664057780/pkcs12.o
 .debug_aranges
                0x00000000       0x18 build/default/production/_ext/1664057780/pkcs12.o
 .debug_line    0x00000000       0xe8 build/default/production/_ext/1664057780/pkcs12.o
 .debug_str     0x00000000        0x0 build/default/production/_ext/1664057780/pkcs12.o
 .comment       0x00000000       0x54 build/default/production/_ext/1664057780/pkcs12.o
 .ARM.attributes
                0x00000000       0x39 build/default/production/_ext/1664057780/pkcs12.o
 .text          0x00000000        0x0 build/default/production/_ext/1664057780/pkcs7.o
 .data          0x00000000        0x0 build/default/production/_ext/1664057780/pkcs7.o
 .bss           0x00000000        0x0 build/default/production/_ext/1664057780/pkcs7.o
 .debug_info    0x00000000      0x355 build/default/production/_ext/1664057780/pkcs7.o
 .debug_abbrev  0x00000000       0x44 build/default/production/_ext/1664057780/pkcs7.o
 .debug_aranges
                0x00000000       0x18 build/default/production/_ext/1664057780/pkcs7.o
 .debug_line    0x00000000       0xe8 build/default/production/_ext/1664057780/pkcs7.o
 .debug_str     0x00000000        0x0 build/default/production/_ext/1664057780/pkcs7.o
 .comment       0x00000000       0x54 build/default/production/_ext/1664057780/pkcs7.o
 .ARM.attributes
                0x00000000       0x39 build/default/production/_ext/1664057780/pkcs7.o
 .text          0x00000000        0x0 build/default/production/_ext/1664057780/poly1305.o
 .data          0x00000000        0x0 build/default/production/_ext/1664057780/poly1305.o
 .bss           0x00000000        0x0 build/default/production/_ext/1664057780/poly1305.o
 .debug_info    0x00000000      0x358 build/default/production/_ext/1664057780/poly1305.o
 .debug_abbrev  0x00000000       0x44 build/default/production/_ext/1664057780/poly1305.o
 .debug_aranges
                0x00000000       0x18 build/default/production/_ext/1664057780/poly1305.o
 .debug_line    0x00000000       0xe8 build/default/production/_ext/1664057780/poly1305.o
 .debug_str     0x00000000        0x0 build/default/production/_ext/1664057780/poly1305.o
 .comment       0x00000000       0x54 build/default/production/_ext/1664057780/poly1305.o
 .ARM.attributes
                0x00000000       0x39 build/default/production/_ext/1664057780/poly1305.o
 .text          0x00000000        0x0 build/default/production/_ext/1664057780/pwdbased.o
 .data          0x00000000        0x0 build/default/production/_ext/1664057780/pwdbased.o
 .bss           0x00000000        0x0 build/default/production/_ext/1664057780/pwdbased.o
 .debug_info    0x00000000      0x358 build/default/production/_ext/1664057780/pwdbased.o
 .debug_abbrev  0x00000000       0x44 build/default/production/_ext/1664057780/pwdbased.o
 .debug_aranges
                0x00000000       0x18 build/default/production/_ext/1664057780/pwdbased.o
 .debug_line    0x00000000       0xe8 build/default/production/_ext/1664057780/pwdbased.o
 .debug_str     0x00000000        0x0 build/default/production/_ext/1664057780/pwdbased.o
 .comment       0x00000000       0x54 build/default/production/_ext/1664057780/pwdbased.o
 .ARM.attributes
                0x00000000       0x39 build/default/production/_ext/1664057780/pwdbased.o
 .text          0x00000000        0x0 build/default/production/_ext/1664057780/rabbit.o
 .data          0x00000000        0x0 build/default/production/_ext/1664057780/rabbit.o
 .bss           0x00000000        0x0 build/default/production/_ext/1664057780/rabbit.o
 .debug_info    0x00000000      0x356 build/default/production/_ext/1664057780/rabbit.o
 .debug_abbrev  0x00000000       0x44 build/default/production/_ext/1664057780/rabbit.o
 .debug_aranges
                0x00000000       0x18 build/default/production/_ext/1664057780/rabbit.o
 .debug_line    0x00000000       0xe8 build/default/production/_ext/1664057780/rabbit.o
 .debug_str     0x00000000        0x0 build/default/production/_ext/1664057780/rabbit.o
 .comment       0x00000000       0x54 build/default/production/_ext/1664057780/rabbit.o
 .ARM.attributes
                0x00000000       0x39 build/default/production/_ext/1664057780/rabbit.o
 .text          0x00000000        0x0 build/default/production/_ext/1664057780/rc2.o
 .data          0x00000000        0x0 build/default/production/_ext/1664057780/rc2.o
 .bss           0x00000000        0x0 build/default/production/_ext/1664057780/rc2.o
 .debug_info    0x00000000      0x353 build/default/production/_ext/1664057780/rc2.o
 .debug_abbrev  0x00000000       0x44 build/default/production/_ext/1664057780/rc2.o
 .debug_aranges
                0x00000000       0x18 build/default/production/_ext/1664057780/rc2.o
 .debug_line    0x00000000       0xe8 build/default/production/_ext/1664057780/rc2.o
 .debug_str     0x00000000        0x0 build/default/production/_ext/1664057780/rc2.o
 .comment       0x00000000       0x54 build/default/production/_ext/1664057780/rc2.o
 .ARM.attributes
                0x00000000       0x39 build/default/production/_ext/1664057780/rc2.o
 .text          0x00000000        0x0 build/default/production/_ext/1664057780/ripemd.o
 .data          0x00000000        0x0 build/default/production/_ext/1664057780/ripemd.o
 .bss           0x00000000        0x0 build/default/production/_ext/1664057780/ripemd.o
 .debug_info    0x00000000      0x356 build/default/production/_ext/1664057780/ripemd.o
 .debug_abbrev  0x00000000       0x44 build/default/production/_ext/1664057780/ripemd.o
 .debug_aranges
                0x00000000       0x18 build/default/production/_ext/1664057780/ripemd.o
 .debug_line    0x00000000       0xe8 build/default/production/_ext/1664057780/ripemd.o
 .debug_str     0x00000000        0x0 build/default/production/_ext/1664057780/ripemd.o
 .comment       0x00000000       0x54 build/default/production/_ext/1664057780/ripemd.o
 .ARM.attributes
                0x00000000       0x39 build/default/production/_ext/1664057780/ripemd.o
 .text          0x00000000        0x0 build/default/production/_ext/1664057780/rsa.o
 .data          0x00000000        0x0 build/default/production/_ext/1664057780/rsa.o
 .bss           0x00000000        0x0 build/default/production/_ext/1664057780/rsa.o
 .text.wc_RsaCleanup
                0x00000000       0x66 build/default/production/_ext/1664057780/rsa.o
 .text.RsaMGF1  0x00000000       0xfa build/default/production/_ext/1664057780/rsa.o
 .text.RsaMGF   0x00000000       0x4a build/default/production/_ext/1664057780/rsa.o
 .text.RsaGetValue
                0x00000000       0x2c build/default/production/_ext/1664057780/rsa.o
 .text.wc_InitRsaKey_ex
                0x00000000       0x8c build/default/production/_ext/1664057780/rsa.o
 .text.wc_InitRsaKey
                0x00000000        0xc build/default/production/_ext/1664057780/rsa.o
 .text.wc_InitRsaKey_Id
                0x00000000       0x46 build/default/production/_ext/1664057780/rsa.o
 .text.wc_InitRsaKey_Label
                0x00000000       0x60 build/default/production/_ext/1664057780/rsa.o
 .text.wc_FreeRsaKey
                0x00000000       0x90 build/default/production/_ext/1664057780/rsa.o
 .text.wc_RsaPad_ex
                0x00000000      0x272 build/default/production/_ext/1664057780/rsa.o
 .text.wc_RsaUnPad_ex
                0x00000000      0x272 build/default/production/_ext/1664057780/rsa.o
 .text.wc_hash2mgf
                0x00000000       0x1a build/default/production/_ext/1664057780/rsa.o
 .text.wc_RsaEncryptSize
                0x00000000       0x2c build/default/production/_ext/1664057780/rsa.o
 .text.wc_RsaFunction
                0x00000000      0x2c4 build/default/production/_ext/1664057780/rsa.o
 .text.RsaPrivateDecryptEx
                0x00000000      0x20a build/default/production/_ext/1664057780/rsa.o
 .text.wc_RsaPrivateDecryptInline
                0x00000000       0x2c build/default/production/_ext/1664057780/rsa.o
 .text.wc_RsaPrivateDecryptInline_ex
                0x00000000       0x38 build/default/production/_ext/1664057780/rsa.o
 .text.wc_RsaPrivateDecrypt
                0x00000000       0x2a build/default/production/_ext/1664057780/rsa.o
 .text.wc_RsaPrivateDecrypt_ex
                0x00000000       0x36 build/default/production/_ext/1664057780/rsa.o
 .text.wc_RsaSSL_VerifyInline
                0x00000000       0x2a build/default/production/_ext/1664057780/rsa.o
 .text.wc_RsaSSL_Verify_ex2
                0x00000000       0x54 build/default/production/_ext/1664057780/rsa.o
 .text.wc_RsaSSL_Verify_ex
                0x00000000       0x18 build/default/production/_ext/1664057780/rsa.o
 .text.wc_RsaSSL_Verify
                0x00000000       0x14 build/default/production/_ext/1664057780/rsa.o
 .text.RsaPublicEncryptEx
                0x00000000      0x12a build/default/production/_ext/1664057780/rsa.o
 .text.wc_RsaPublicEncrypt
                0x00000000       0x28 build/default/production/_ext/1664057780/rsa.o
 .text.wc_RsaPublicEncrypt_ex
                0x00000000       0x34 build/default/production/_ext/1664057780/rsa.o
 .text.wc_RsaSSL_Sign
                0x00000000       0x2a build/default/production/_ext/1664057780/rsa.o
 .text.wc_RsaFlattenPublicKey
                0x00000000       0x8a build/default/production/_ext/1664057780/rsa.o
 .text.wc_RsaExportKey
                0x00000000       0xd0 build/default/production/_ext/1664057780/rsa.o
 .debug_info    0x00000000     0x5cfe build/default/production/_ext/1664057780/rsa.o
 .debug_abbrev  0x00000000      0x50e build/default/production/_ext/1664057780/rsa.o
 .debug_loc     0x00000000     0x4c08 build/default/production/_ext/1664057780/rsa.o
 .debug_aranges
                0x00000000      0x100 build/default/production/_ext/1664057780/rsa.o
 .debug_ranges  0x00000000      0x448 build/default/production/_ext/1664057780/rsa.o
 .debug_line    0x00000000     0x15e9 build/default/production/_ext/1664057780/rsa.o
 .debug_str     0x00000000      0x1ad build/default/production/_ext/1664057780/rsa.o
 .comment       0x00000000       0x54 build/default/production/_ext/1664057780/rsa.o
 .debug_frame   0x00000000      0x40c build/default/production/_ext/1664057780/rsa.o
 .ARM.attributes
                0x00000000       0x34 build/default/production/_ext/1664057780/rsa.o
 .text          0x00000000        0x0 build/default/production/_ext/1664057780/sha3.o
 .data          0x00000000        0x0 build/default/production/_ext/1664057780/sha3.o
 .bss           0x00000000        0x0 build/default/production/_ext/1664057780/sha3.o
 .debug_info    0x00000000      0x354 build/default/production/_ext/1664057780/sha3.o
 .debug_abbrev  0x00000000       0x44 build/default/production/_ext/1664057780/sha3.o
 .debug_aranges
                0x00000000       0x18 build/default/production/_ext/1664057780/sha3.o
 .debug_line    0x00000000       0xe8 build/default/production/_ext/1664057780/sha3.o
 .debug_str     0x00000000        0x0 build/default/production/_ext/1664057780/sha3.o
 .comment       0x00000000       0x54 build/default/production/_ext/1664057780/sha3.o
 .ARM.attributes
                0x00000000       0x39 build/default/production/_ext/1664057780/sha3.o
 .text          0x00000000        0x0 build/default/production/_ext/1664057780/signature.o
 .data          0x00000000        0x0 build/default/production/_ext/1664057780/signature.o
 .bss           0x00000000        0x0 build/default/production/_ext/1664057780/signature.o
 .debug_info    0x00000000     0x1155 build/default/production/_ext/1664057780/signature.o
 .debug_abbrev  0x00000000      0x1c1 build/default/production/_ext/1664057780/signature.o
 .debug_aranges
                0x00000000       0x18 build/default/production/_ext/1664057780/signature.o
 .debug_line    0x00000000      0x206 build/default/production/_ext/1664057780/signature.o
 .debug_str     0x00000000       0x1b build/default/production/_ext/1664057780/signature.o
 .comment       0x00000000       0x54 build/default/production/_ext/1664057780/signature.o
 .ARM.attributes
                0x00000000       0x39 build/default/production/_ext/1664057780/signature.o
 .text          0x00000000        0x0 build/default/production/_ext/1664057780/sp_arm32.o
 .data          0x00000000        0x0 build/default/production/_ext/1664057780/sp_arm32.o
 .bss           0x00000000        0x0 build/default/production/_ext/1664057780/sp_arm32.o
 .debug_info    0x00000000      0xf73 build/default/production/_ext/1664057780/sp_arm32.o
 .debug_abbrev  0x00000000      0x1a1 build/default/production/_ext/1664057780/sp_arm32.o
 .debug_aranges
                0x00000000       0x18 build/default/production/_ext/1664057780/sp_arm32.o
 .debug_line    0x00000000      0x1ae build/default/production/_ext/1664057780/sp_arm32.o
 .debug_str     0x00000000        0xe build/default/production/_ext/1664057780/sp_arm32.o
 .comment       0x00000000       0x54 build/default/production/_ext/1664057780/sp_arm32.o
 .ARM.attributes
                0x00000000       0x39 build/default/production/_ext/1664057780/sp_arm32.o
 .text          0x00000000        0x0 build/default/production/_ext/1664057780/sp_arm64.o
 .data          0x00000000        0x0 build/default/production/_ext/1664057780/sp_arm64.o
 .bss           0x00000000        0x0 build/default/production/_ext/1664057780/sp_arm64.o
 .debug_info    0x00000000      0xf73 build/default/production/_ext/1664057780/sp_arm64.o
 .debug_abbrev  0x00000000      0x1a1 build/default/production/_ext/1664057780/sp_arm64.o
 .debug_aranges
                0x00000000       0x18 build/default/production/_ext/1664057780/sp_arm64.o
 .debug_line    0x00000000      0x1ae build/default/production/_ext/1664057780/sp_arm64.o
 .debug_str     0x00000000        0xe build/default/production/_ext/1664057780/sp_arm64.o
 .comment       0x00000000       0x54 build/default/production/_ext/1664057780/sp_arm64.o
 .ARM.attributes
                0x00000000       0x39 build/default/production/_ext/1664057780/sp_arm64.o
 .text          0x00000000        0x0 build/default/production/_ext/1664057780/sp_armthumb.o
 .data          0x00000000        0x0 build/default/production/_ext/1664057780/sp_armthumb.o
 .bss           0x00000000        0x0 build/default/production/_ext/1664057780/sp_armthumb.o
 .debug_info    0x00000000      0xf76 build/default/production/_ext/1664057780/sp_armthumb.o
 .debug_abbrev  0x00000000      0x1a1 build/default/production/_ext/1664057780/sp_armthumb.o
 .debug_aranges
                0x00000000       0x18 build/default/production/_ext/1664057780/sp_armthumb.o
 .debug_line    0x00000000      0x1ae build/default/production/_ext/1664057780/sp_armthumb.o
 .debug_str     0x00000000        0xe build/default/production/_ext/1664057780/sp_armthumb.o
 .comment       0x00000000       0x54 build/default/production/_ext/1664057780/sp_armthumb.o
 .ARM.attributes
                0x00000000       0x39 build/default/production/_ext/1664057780/sp_armthumb.o
 .text          0x00000000        0x0 build/default/production/_ext/1664057780/sp_c32.o
 .data          0x00000000        0x0 build/default/production/_ext/1664057780/sp_c32.o
 .bss           0x00000000        0x0 build/default/production/_ext/1664057780/sp_c32.o
 .debug_info    0x00000000      0xf71 build/default/production/_ext/1664057780/sp_c32.o
 .debug_abbrev  0x00000000      0x1a1 build/default/production/_ext/1664057780/sp_c32.o
 .debug_aranges
                0x00000000       0x18 build/default/production/_ext/1664057780/sp_c32.o
 .debug_line    0x00000000      0x1ae build/default/production/_ext/1664057780/sp_c32.o
 .debug_str     0x00000000        0xe build/default/production/_ext/1664057780/sp_c32.o
 .comment       0x00000000       0x54 build/default/production/_ext/1664057780/sp_c32.o
 .ARM.attributes
                0x00000000       0x39 build/default/production/_ext/1664057780/sp_c32.o
 .text          0x00000000        0x0 build/default/production/_ext/1664057780/sp_c64.o
 .data          0x00000000        0x0 build/default/production/_ext/1664057780/sp_c64.o
 .bss           0x00000000        0x0 build/default/production/_ext/1664057780/sp_c64.o
 .debug_info    0x00000000      0xf71 build/default/production/_ext/1664057780/sp_c64.o
 .debug_abbrev  0x00000000      0x1a1 build/default/production/_ext/1664057780/sp_c64.o
 .debug_aranges
                0x00000000       0x18 build/default/production/_ext/1664057780/sp_c64.o
 .debug_line    0x00000000      0x1ae build/default/production/_ext/1664057780/sp_c64.o
 .debug_str     0x00000000        0xe build/default/production/_ext/1664057780/sp_c64.o
 .comment       0x00000000       0x54 build/default/production/_ext/1664057780/sp_c64.o
 .ARM.attributes
                0x00000000       0x39 build/default/production/_ext/1664057780/sp_c64.o
 .text          0x00000000        0x0 build/default/production/_ext/1664057780/sp_cortexm.o
 .data          0x00000000        0x0 build/default/production/_ext/1664057780/sp_cortexm.o
 .bss           0x00000000        0x0 build/default/production/_ext/1664057780/sp_cortexm.o
 .debug_info    0x00000000      0xf75 build/default/production/_ext/1664057780/sp_cortexm.o
 .debug_abbrev  0x00000000      0x1a1 build/default/production/_ext/1664057780/sp_cortexm.o
 .debug_aranges
                0x00000000       0x18 build/default/production/_ext/1664057780/sp_cortexm.o
 .debug_line    0x00000000      0x1ae build/default/production/_ext/1664057780/sp_cortexm.o
 .debug_str     0x00000000        0xe build/default/production/_ext/1664057780/sp_cortexm.o
 .comment       0x00000000       0x54 build/default/production/_ext/1664057780/sp_cortexm.o
 .ARM.attributes
                0x00000000       0x39 build/default/production/_ext/1664057780/sp_cortexm.o
 .text          0x00000000        0x0 build/default/production/_ext/1664057780/sp_dsp32.o
 .data          0x00000000        0x0 build/default/production/_ext/1664057780/sp_dsp32.o
 .bss           0x00000000        0x0 build/default/production/_ext/1664057780/sp_dsp32.o
 .debug_info    0x00000000      0xf73 build/default/production/_ext/1664057780/sp_dsp32.o
 .debug_abbrev  0x00000000      0x1a1 build/default/production/_ext/1664057780/sp_dsp32.o
 .debug_aranges
                0x00000000       0x18 build/default/production/_ext/1664057780/sp_dsp32.o
 .debug_line    0x00000000      0x1ae build/default/production/_ext/1664057780/sp_dsp32.o
 .debug_str     0x00000000        0xe build/default/production/_ext/1664057780/sp_dsp32.o
 .comment       0x00000000       0x54 build/default/production/_ext/1664057780/sp_dsp32.o
 .ARM.attributes
                0x00000000       0x39 build/default/production/_ext/1664057780/sp_dsp32.o
 .text          0x00000000        0x0 build/default/production/_ext/1664057780/sp_int.o
 .data          0x00000000        0x0 build/default/production/_ext/1664057780/sp_int.o
 .bss           0x00000000        0x0 build/default/production/_ext/1664057780/sp_int.o
 .debug_info    0x00000000      0xf71 build/default/production/_ext/1664057780/sp_int.o
 .debug_abbrev  0x00000000      0x1a1 build/default/production/_ext/1664057780/sp_int.o
 .debug_aranges
                0x00000000       0x18 build/default/production/_ext/1664057780/sp_int.o
 .debug_line    0x00000000      0x1ae build/default/production/_ext/1664057780/sp_int.o
 .debug_str     0x00000000        0xe build/default/production/_ext/1664057780/sp_int.o
 .comment       0x00000000       0x54 build/default/production/_ext/1664057780/sp_int.o
 .ARM.attributes
                0x00000000       0x39 build/default/production/_ext/1664057780/sp_int.o
 .text          0x00000000        0x0 build/default/production/_ext/1664057780/sp_x86_64.o
 .data          0x00000000        0x0 build/default/production/_ext/1664057780/sp_x86_64.o
 .bss           0x00000000        0x0 build/default/production/_ext/1664057780/sp_x86_64.o
 .debug_info    0x00000000      0xf74 build/default/production/_ext/1664057780/sp_x86_64.o
 .debug_abbrev  0x00000000      0x1a1 build/default/production/_ext/1664057780/sp_x86_64.o
 .debug_aranges
                0x00000000       0x18 build/default/production/_ext/1664057780/sp_x86_64.o
 .debug_line    0x00000000      0x1ae build/default/production/_ext/1664057780/sp_x86_64.o
 .debug_str     0x00000000        0xe build/default/production/_ext/1664057780/sp_x86_64.o
 .comment       0x00000000       0x54 build/default/production/_ext/1664057780/sp_x86_64.o
 .ARM.attributes
                0x00000000       0x39 build/default/production/_ext/1664057780/sp_x86_64.o
 .text          0x00000000        0x0 build/default/production/_ext/1664057780/srp.o
 .data          0x00000000        0x0 build/default/production/_ext/1664057780/srp.o
 .bss           0x00000000        0x0 build/default/production/_ext/1664057780/srp.o
 .debug_info    0x00000000      0x353 build/default/production/_ext/1664057780/srp.o
 .debug_abbrev  0x00000000       0x44 build/default/production/_ext/1664057780/srp.o
 .debug_aranges
                0x00000000       0x18 build/default/production/_ext/1664057780/srp.o
 .debug_line    0x00000000       0xe8 build/default/production/_ext/1664057780/srp.o
 .debug_str     0x00000000        0x0 build/default/production/_ext/1664057780/srp.o
 .comment       0x00000000       0x54 build/default/production/_ext/1664057780/srp.o
 .ARM.attributes
                0x00000000       0x39 build/default/production/_ext/1664057780/srp.o
 .text          0x00000000        0x0 build/default/production/_ext/1664057780/tfm.o
 .data          0x00000000        0x0 build/default/production/_ext/1664057780/tfm.o
 .bss           0x00000000        0x0 build/default/production/_ext/1664057780/tfm.o
 .text.fp_cmp_mag_ct
                0x00000000       0x60 build/default/production/_ext/1664057780/tfm.o
 .text.fp_cond_swap_ct
                0x00000000       0xa4 build/default/production/_ext/1664057780/tfm.o
 .text.CheckRunTimeSettings
                0x00000000        0x4 build/default/production/_ext/1664057780/tfm.o
 .text.CheckRunTimeFastMath
                0x00000000        0x4 build/default/production/_ext/1664057780/tfm.o
 .text.s_fp_add
                0x00000000       0xdc build/default/production/_ext/1664057780/tfm.o
 .text.s_fp_sub
                0x00000000       0xda build/default/production/_ext/1664057780/tfm.o
 .text.fp_mul_2
                0x00000000       0x80 build/default/production/_ext/1664057780/tfm.o
 .text.fp_mul_d
                0x00000000       0xea build/default/production/_ext/1664057780/tfm.o
 .text.fp_div_2
                0x00000000       0x8a build/default/production/_ext/1664057780/tfm.o
 .text.fp_div_2_mod_ct
                0x00000000       0xc6 build/default/production/_ext/1664057780/tfm.o
 .text.fp_submod_ct
                0x00000000       0xe6 build/default/production/_ext/1664057780/tfm.o
 .text.fp_addmod_ct
                0x00000000       0xc0 build/default/production/_ext/1664057780/tfm.o
 .text.fp_cmp_d
                0x00000000       0x38 build/default/production/_ext/1664057780/tfm.o
 .text.fp_cmp_mag
                0x00000000       0x66 build/default/production/_ext/1664057780/tfm.o
 .text.fp_add   0x00000000       0x4a build/default/production/_ext/1664057780/tfm.o
 .text.fp_sub   0x00000000       0x48 build/default/production/_ext/1664057780/tfm.o
 .text.fp_cmp   0x00000000       0x32 build/default/production/_ext/1664057780/tfm.o
 .text.fp_montgomery_setup
                0x00000000       0x40 build/default/production/_ext/1664057780/tfm.o
 .text.fp_montgomery_reduce_ex
                0x00000000      0x17a build/default/production/_ext/1664057780/tfm.o
 .text.fp_montgomery_reduce
                0x00000000        0xa build/default/production/_ext/1664057780/tfm.o
 .text.fp_to_unsigned_bin_at_pos
                0x00000000       0x58 build/default/production/_ext/1664057780/tfm.o
 .text.fp_to_unsigned_bin_len
                0x00000000       0x56 build/default/production/_ext/1664057780/tfm.o
 .text.fp_is_bit_set
                0x00000000       0x2c build/default/production/_ext/1664057780/tfm.o
 .text.fp_set_bit
                0x00000000       0x36 build/default/production/_ext/1664057780/tfm.o
 .text.fp_count_bits
                0x00000000       0x1a build/default/production/_ext/1664057780/tfm.o
 .text.fp_unsigned_bin_size
                0x00000000       0x1c build/default/production/_ext/1664057780/tfm.o
 .text.fp_leading_bit
                0x00000000       0x22 build/default/production/_ext/1664057780/tfm.o
 .text.fp_lshd  0x00000000       0x8c build/default/production/_ext/1664057780/tfm.o
 .text.fp_reverse
                0x00000000       0x32 build/default/production/_ext/1664057780/tfm.o
 .text.fp_zero  0x00000000       0x14 build/default/production/_ext/1664057780/tfm.o
 .text.fp_2expt
                0x00000000       0x3c build/default/production/_ext/1664057780/tfm.o
 .text.fp_read_unsigned_bin
                0x00000000       0x70 build/default/production/_ext/1664057780/tfm.o
 .text.fp_set   0x00000000       0x16 build/default/production/_ext/1664057780/tfm.o
 .text.fp_montgomery_calc_normalization
                0x00000000       0x72 build/default/production/_ext/1664057780/tfm.o
 .text.fp_rshd  0x00000000       0x70 build/default/production/_ext/1664057780/tfm.o
 .text.fp_rshb  0x00000000       0xa0 build/default/production/_ext/1664057780/tfm.o
 .text.fp_init  0x00000000        0x8 build/default/production/_ext/1664057780/tfm.o
 .text.mp_init  0x00000000        0xc build/default/production/_ext/1664057780/tfm.o
 .text.fp_sub_d
                0x00000000       0x2a build/default/production/_ext/1664057780/tfm.o
 .text.fp_clear
                0x00000000       0x14 build/default/production/_ext/1664057780/tfm.o
 .text.fp_forcezero
                0x00000000       0x1e build/default/production/_ext/1664057780/tfm.o
 .text.mp_forcezero
                0x00000000        0x8 build/default/production/_ext/1664057780/tfm.o
 .text.fp_free  0x00000000        0x2 build/default/production/_ext/1664057780/tfm.o
 .text.mp_clear
                0x00000000        0xa build/default/production/_ext/1664057780/tfm.o
 .text.mp_free  0x00000000        0x2 build/default/production/_ext/1664057780/tfm.o
 .text.mp_init_multi
                0x00000000       0x3e build/default/production/_ext/1664057780/tfm.o
 .text.mp_add   0x00000000        0x8 build/default/production/_ext/1664057780/tfm.o
 .text.mp_sub   0x00000000        0x8 build/default/production/_ext/1664057780/tfm.o
 .text.mp_mul_d
                0x00000000        0x8 build/default/production/_ext/1664057780/tfm.o
 .text.mp_submod_ct
                0x00000000        0x8 build/default/production/_ext/1664057780/tfm.o
 .text.mp_addmod_ct
                0x00000000        0x8 build/default/production/_ext/1664057780/tfm.o
 .text.mp_cmp   0x00000000        0x8 build/default/production/_ext/1664057780/tfm.o
 .text.mp_cmp_d
                0x00000000        0x8 build/default/production/_ext/1664057780/tfm.o
 .text.mp_unsigned_bin_size
                0x00000000        0x8 build/default/production/_ext/1664057780/tfm.o
 .text.mp_to_unsigned_bin_at_pos
                0x00000000        0x8 build/default/production/_ext/1664057780/tfm.o
 .text.mp_to_unsigned_bin_len
                0x00000000        0x8 build/default/production/_ext/1664057780/tfm.o
 .text.mp_read_unsigned_bin
                0x00000000        0x8 build/default/production/_ext/1664057780/tfm.o
 .text.mp_sub_d
                0x00000000        0x8 build/default/production/_ext/1664057780/tfm.o
 .text.mp_2expt
                0x00000000        0xa build/default/production/_ext/1664057780/tfm.o
 .text.fp_copy  0x00000000       0x24 build/default/production/_ext/1664057780/tfm.o
 .text.fp_mul_2d
                0x00000000       0xba build/default/production/_ext/1664057780/tfm.o
 .text.fp_set_int
                0x00000000       0x74 build/default/production/_ext/1664057780/tfm.o
 .text.mp_mul_2d
                0x00000000        0x8 build/default/production/_ext/1664057780/tfm.o
 .text.fp_mul_comba
                0x00000000      0x148 build/default/production/_ext/1664057780/tfm.o
 .text.fp_mul   0x00000000       0x48 build/default/production/_ext/1664057780/tfm.o
 .text.mp_mul   0x00000000        0x8 build/default/production/_ext/1664057780/tfm.o
 .text.fp_mod_2d
                0x00000000       0xbe build/default/production/_ext/1664057780/tfm.o
 .text.fp_div_2d
                0x00000000       0xaa build/default/production/_ext/1664057780/tfm.o
 .text.mp_div_2d
                0x00000000        0xa build/default/production/_ext/1664057780/tfm.o
 .text.fp_sqr_comba
                0x00000000      0x196 build/default/production/_ext/1664057780/tfm.o
 .text.fp_sqr   0x00000000       0x38 build/default/production/_ext/1664057780/tfm.o
 .text.fp_invmod_mont_ct
                0x00000000      0x1a8 build/default/production/_ext/1664057780/tfm.o
 .text.mp_invmod_mont_ct
                0x00000000        0x8 build/default/production/_ext/1664057780/tfm.o
 .text.fp_div_d
                0x00000000      0x14c build/default/production/_ext/1664057780/tfm.o
 .text.fp_init_copy
                0x00000000       0x1a build/default/production/_ext/1664057780/tfm.o
 .text.fp_div   0x00000000      0x3be build/default/production/_ext/1664057780/tfm.o
 .text.fp_mod   0x00000000       0x48 build/default/production/_ext/1664057780/tfm.o
 .text.fp_mulmod
                0x00000000       0x38 build/default/production/_ext/1664057780/tfm.o
 .text.mp_mulmod
                0x00000000        0x8 build/default/production/_ext/1664057780/tfm.o
 .text.fp_submod
                0x00000000       0x38 build/default/production/_ext/1664057780/tfm.o
 .text.mp_submod
                0x00000000        0x8 build/default/production/_ext/1664057780/tfm.o
 .text.fp_addmod
                0x00000000       0x38 build/default/production/_ext/1664057780/tfm.o
 .text.mp_addmod
                0x00000000        0x8 build/default/production/_ext/1664057780/tfm.o
 .text._fp_exptmod_ct
                0x00000000      0x14c build/default/production/_ext/1664057780/tfm.o
 .text._fp_exptmod_nct
                0x00000000      0x34a build/default/production/_ext/1664057780/tfm.o
 .text.mp_mod   0x00000000        0x8 build/default/production/_ext/1664057780/tfm.o
 .text.fp_invmod
                0x00000000      0x540 build/default/production/_ext/1664057780/tfm.o
 .text.mp_invmod
                0x00000000        0x8 build/default/production/_ext/1664057780/tfm.o
 .text.mp_div   0x00000000        0x8 build/default/production/_ext/1664057780/tfm.o
 .text.fp_exptmod
                0x00000000      0x24c build/default/production/_ext/1664057780/tfm.o
 .text.mp_exptmod
                0x00000000        0x8 build/default/production/_ext/1664057780/tfm.o
 .text.fp_exptmod_ex
                0x00000000       0xa6 build/default/production/_ext/1664057780/tfm.o
 .text.mp_exptmod_ex
                0x00000000       0x10 build/default/production/_ext/1664057780/tfm.o
 .text.fp_exptmod_nct
                0x00000000       0x90 build/default/production/_ext/1664057780/tfm.o
 .text.mp_exptmod_nct
                0x00000000        0x8 build/default/production/_ext/1664057780/tfm.o
 .text.fp_to_unsigned_bin
                0x00000000       0x2a build/default/production/_ext/1664057780/tfm.o
 .text.mp_to_unsigned_bin
                0x00000000        0x8 build/default/production/_ext/1664057780/tfm.o
 .text.mp_init_copy
                0x00000000        0xa build/default/production/_ext/1664057780/tfm.o
 .text.mp_copy  0x00000000        0xa build/default/production/_ext/1664057780/tfm.o
 .text.mp_isodd
                0x00000000       0x10 build/default/production/_ext/1664057780/tfm.o
 .text.mp_iszero
                0x00000000        0xa build/default/production/_ext/1664057780/tfm.o
 .text.mp_count_bits
                0x00000000        0x8 build/default/production/_ext/1664057780/tfm.o
 .text.mp_leading_bit
                0x00000000        0x8 build/default/production/_ext/1664057780/tfm.o
 .text.mp_rshb  0x00000000        0x8 build/default/production/_ext/1664057780/tfm.o
 .text.mp_rshd  0x00000000        0x8 build/default/production/_ext/1664057780/tfm.o
 .text.mp_set_int
                0x00000000        0x8 build/default/production/_ext/1664057780/tfm.o
 .text.mp_is_bit_set
                0x00000000        0x8 build/default/production/_ext/1664057780/tfm.o
 .text.mp_set_bit
                0x00000000        0x8 build/default/production/_ext/1664057780/tfm.o
 .text.fp_sqrmod
                0x00000000       0x34 build/default/production/_ext/1664057780/tfm.o
 .text.mp_sqrmod
                0x00000000        0x8 build/default/production/_ext/1664057780/tfm.o
 .text.mp_montgomery_calc_normalization
                0x00000000        0x8 build/default/production/_ext/1664057780/tfm.o
 .text.fp_cnt_lsb
                0x00000000       0x5c build/default/production/_ext/1664057780/tfm.o
 .text.fp_prime_miller_rabin_ex
                0x00000000       0xce build/default/production/_ext/1664057780/tfm.o
 .text.fp_isprime_ex
                0x00000000      0x110 build/default/production/_ext/1664057780/tfm.o
 .text.mp_mod_d
                0x00000000        0xc build/default/production/_ext/1664057780/tfm.o
 .text.mp_prime_is_prime
                0x00000000        0x8 build/default/production/_ext/1664057780/tfm.o
 .text.mp_prime_is_prime_ex
                0x00000000      0x1ac build/default/production/_ext/1664057780/tfm.o
 .text.mp_cond_swap_ct
                0x00000000        0x8 build/default/production/_ext/1664057780/tfm.o
 .text.fp_add_d
                0x00000000       0x2a build/default/production/_ext/1664057780/tfm.o
 .text.mp_add_d
                0x00000000        0x8 build/default/production/_ext/1664057780/tfm.o
 .text.mp_read_radix
                0x00000000      0x194 build/default/production/_ext/1664057780/tfm.o
 .text.mp_sqr   0x00000000        0x8 build/default/production/_ext/1664057780/tfm.o
 .text.mp_montgomery_reduce
                0x00000000        0x8 build/default/production/_ext/1664057780/tfm.o
 .text.mp_montgomery_reduce_ex
                0x00000000        0x8 build/default/production/_ext/1664057780/tfm.o
 .text.mp_montgomery_setup
                0x00000000        0x8 build/default/production/_ext/1664057780/tfm.o
 .text.mp_div_2
                0x00000000        0xa build/default/production/_ext/1664057780/tfm.o
 .text.mp_div_2_mod_ct
                0x00000000        0x8 build/default/production/_ext/1664057780/tfm.o
 .text.mp_set   0x00000000        0xa build/default/production/_ext/1664057780/tfm.o
 .text.mp_radix_size
                0x00000000       0xc8 build/default/production/_ext/1664057780/tfm.o
 .text.mp_toradix
                0x00000000       0xcc build/default/production/_ext/1664057780/tfm.o
 .text.mp_abs   0x00000000        0xe build/default/production/_ext/1664057780/tfm.o
 .text.mp_lshd  0x00000000        0x8 build/default/production/_ext/1664057780/tfm.o
 .rodata        0x00000000       0x44 build/default/production/_ext/1664057780/tfm.o
 .rodata.lnz    0x00000000       0x40 build/default/production/_ext/1664057780/tfm.o
 .rodata.primes
                0x00000000      0x400 build/default/production/_ext/1664057780/tfm.o
 .debug_info    0x00000000     0x96d7 build/default/production/_ext/1664057780/tfm.o
 .debug_abbrev  0x00000000      0x60a build/default/production/_ext/1664057780/tfm.o
 .debug_loc     0x00000000     0xad35 build/default/production/_ext/1664057780/tfm.o
 .debug_aranges
                0x00000000      0x438 build/default/production/_ext/1664057780/tfm.o
 .debug_ranges  0x00000000      0x5d0 build/default/production/_ext/1664057780/tfm.o
 .debug_line    0x00000000     0x40f8 build/default/production/_ext/1664057780/tfm.o
 .debug_str     0x00000000       0x52 build/default/production/_ext/1664057780/tfm.o
 .comment       0x00000000       0x54 build/default/production/_ext/1664057780/tfm.o
 .debug_frame   0x00000000      0xff0 build/default/production/_ext/1664057780/tfm.o
 .ARM.attributes
                0x00000000       0x34 build/default/production/_ext/1664057780/tfm.o
 .text          0x00000000        0x0 build/default/production/_ext/1664057780/wc_dsp.o
 .data          0x00000000        0x0 build/default/production/_ext/1664057780/wc_dsp.o
 .bss           0x00000000        0x0 build/default/production/_ext/1664057780/wc_dsp.o
 .debug_info    0x00000000      0xf71 build/default/production/_ext/1664057780/wc_dsp.o
 .debug_abbrev  0x00000000      0x1a1 build/default/production/_ext/1664057780/wc_dsp.o
 .debug_aranges
                0x00000000       0x18 build/default/production/_ext/1664057780/wc_dsp.o
 .debug_line    0x00000000      0x1ae build/default/production/_ext/1664057780/wc_dsp.o
 .debug_str     0x00000000        0xe build/default/production/_ext/1664057780/wc_dsp.o
 .comment       0x00000000       0x54 build/default/production/_ext/1664057780/wc_dsp.o
 .ARM.attributes
                0x00000000       0x39 build/default/production/_ext/1664057780/wc_dsp.o
 .text          0x00000000        0x0 build/default/production/_ext/1664057780/wc_encrypt.o
 .data          0x00000000        0x0 build/default/production/_ext/1664057780/wc_encrypt.o
 .bss           0x00000000        0x0 build/default/production/_ext/1664057780/wc_encrypt.o
 .text.wc_AesCbcDecryptWithKey
                0x00000000       0x74 build/default/production/_ext/1664057780/wc_encrypt.o
 .text.wc_AesCbcEncryptWithKey
                0x00000000       0x52 build/default/production/_ext/1664057780/wc_encrypt.o
 .text.wc_Des_CbcEncryptWithKey
                0x00000000       0x30 build/default/production/_ext/1664057780/wc_encrypt.o
 .text.wc_Des_CbcDecryptWithKey
                0x00000000       0x30 build/default/production/_ext/1664057780/wc_encrypt.o
 .text.wc_Des3_CbcEncryptWithKey
                0x00000000       0x4e build/default/production/_ext/1664057780/wc_encrypt.o
 .text.wc_Des3_CbcDecryptWithKey
                0x00000000       0x4e build/default/production/_ext/1664057780/wc_encrypt.o
 .debug_info    0x00000000     0x270d build/default/production/_ext/1664057780/wc_encrypt.o
 .debug_abbrev  0x00000000      0x26f build/default/production/_ext/1664057780/wc_encrypt.o
 .debug_loc     0x00000000      0x97d build/default/production/_ext/1664057780/wc_encrypt.o
 .debug_aranges
                0x00000000       0x48 build/default/production/_ext/1664057780/wc_encrypt.o
 .debug_ranges  0x00000000       0x38 build/default/production/_ext/1664057780/wc_encrypt.o
 .debug_line    0x00000000      0x466 build/default/production/_ext/1664057780/wc_encrypt.o
 .debug_str     0x00000000       0xd2 build/default/production/_ext/1664057780/wc_encrypt.o
 .comment       0x00000000       0x54 build/default/production/_ext/1664057780/wc_encrypt.o
 .debug_frame   0x00000000      0x110 build/default/production/_ext/1664057780/wc_encrypt.o
 .ARM.attributes
                0x00000000       0x34 build/default/production/_ext/1664057780/wc_encrypt.o
 .text          0x00000000        0x0 build/default/production/_ext/1664057780/wc_pkcs11.o
 .data          0x00000000        0x0 build/default/production/_ext/1664057780/wc_pkcs11.o
 .bss           0x00000000        0x0 build/default/production/_ext/1664057780/wc_pkcs11.o
 .debug_info    0x00000000      0x359 build/default/production/_ext/1664057780/wc_pkcs11.o
 .debug_abbrev  0x00000000       0x44 build/default/production/_ext/1664057780/wc_pkcs11.o
 .debug_aranges
                0x00000000       0x18 build/default/production/_ext/1664057780/wc_pkcs11.o
 .debug_line    0x00000000       0xe8 build/default/production/_ext/1664057780/wc_pkcs11.o
 .debug_str     0x00000000        0x0 build/default/production/_ext/1664057780/wc_pkcs11.o
 .comment       0x00000000       0x54 build/default/production/_ext/1664057780/wc_pkcs11.o
 .ARM.attributes
                0x00000000       0x39 build/default/production/_ext/1664057780/wc_pkcs11.o
 .text          0x00000000        0x0 build/default/production/_ext/1664057780/wc_port.o
 .data          0x00000000        0x0 build/default/production/_ext/1664057780/wc_port.o
 .bss           0x00000000        0x0 build/default/production/_ext/1664057780/wc_port.o
 .text.wolfCrypt_Init
                0x00000000       0x20 build/default/production/_ext/1664057780/wc_port.o
 .text.wolfCrypt_Cleanup
                0x00000000       0x24 build/default/production/_ext/1664057780/wc_port.o
 .text.wc_InitAndAllocMutex
                0x00000000        0xa build/default/production/_ext/1664057780/wc_port.o
 .text.wc_strtok
                0x00000000       0x84 build/default/production/_ext/1664057780/wc_port.o
 .text.wc_strsep
                0x00000000       0x40 build/default/production/_ext/1664057780/wc_port.o
 .text.wc_InitMutex
                0x00000000        0x4 build/default/production/_ext/1664057780/wc_port.o
 .text.wc_FreeMutex
                0x00000000        0x4 build/default/production/_ext/1664057780/wc_port.o
 .text.wc_LockMutex
                0x00000000        0x4 build/default/production/_ext/1664057780/wc_port.o
 .text.wc_UnLockMutex
                0x00000000        0x4 build/default/production/_ext/1664057780/wc_port.o
 .text.mystrnstr
                0x00000000       0x5c build/default/production/_ext/1664057780/wc_port.o
 .bss.initRefCount
                0x00000000        0x4 build/default/production/_ext/1664057780/wc_port.o
 .debug_info    0x00000000     0x1d24 build/default/production/_ext/1664057780/wc_port.o
 .debug_abbrev  0x00000000      0x381 build/default/production/_ext/1664057780/wc_port.o
 .debug_loc     0x00000000      0x4f4 build/default/production/_ext/1664057780/wc_port.o
 .debug_aranges
                0x00000000       0x68 build/default/production/_ext/1664057780/wc_port.o
 .debug_ranges  0x00000000       0x58 build/default/production/_ext/1664057780/wc_port.o
 .debug_line    0x00000000      0x564 build/default/production/_ext/1664057780/wc_port.o
 .debug_str     0x00000000       0x2c build/default/production/_ext/1664057780/wc_port.o
 .comment       0x00000000       0x54 build/default/production/_ext/1664057780/wc_port.o
 .debug_frame   0x00000000      0x120 build/default/production/_ext/1664057780/wc_port.o
 .ARM.attributes
                0x00000000       0x34 build/default/production/_ext/1664057780/wc_port.o
 .text          0x00000000        0x0 build/default/production/_ext/1664057780/wolfevent.o
 .data          0x00000000        0x0 build/default/production/_ext/1664057780/wolfevent.o
 .bss           0x00000000        0x0 build/default/production/_ext/1664057780/wolfevent.o
 .debug_info    0x00000000      0x359 build/default/production/_ext/1664057780/wolfevent.o
 .debug_abbrev  0x00000000       0x44 build/default/production/_ext/1664057780/wolfevent.o
 .debug_aranges
                0x00000000       0x18 build/default/production/_ext/1664057780/wolfevent.o
 .debug_line    0x00000000       0xe8 build/default/production/_ext/1664057780/wolfevent.o
 .debug_str     0x00000000        0x0 build/default/production/_ext/1664057780/wolfevent.o
 .comment       0x00000000       0x54 build/default/production/_ext/1664057780/wolfevent.o
 .ARM.attributes
                0x00000000       0x39 build/default/production/_ext/1664057780/wolfevent.o
 .text          0x00000000        0x0 build/default/production/_ext/1664057780/wolfmath.o
 .data          0x00000000        0x0 build/default/production/_ext/1664057780/wolfmath.o
 .bss           0x00000000        0x0 build/default/production/_ext/1664057780/wolfmath.o
 .text.get_digit_count
                0x00000000        0xa build/default/production/_ext/1664057780/wolfmath.o
 .text.get_digit
                0x00000000       0x20 build/default/production/_ext/1664057780/wolfmath.o
 .text.mp_cond_copy
                0x00000000       0xb6 build/default/production/_ext/1664057780/wolfmath.o
 .text.get_rand_digit
                0x00000000        0xa build/default/production/_ext/1664057780/wolfmath.o
 .text.wc_export_int
                0x00000000       0x4e build/default/production/_ext/1664057780/wolfmath.o
 .rodata.wc_off_on_addr
                0x00000000        0x8 build/default/production/_ext/1664057780/wolfmath.o
 .debug_info    0x00000000     0x21fe build/default/production/_ext/1664057780/wolfmath.o
 .debug_abbrev  0x00000000      0x2c3 build/default/production/_ext/1664057780/wolfmath.o
 .debug_loc     0x00000000      0x4a1 build/default/production/_ext/1664057780/wolfmath.o
 .debug_aranges
                0x00000000       0x40 build/default/production/_ext/1664057780/wolfmath.o
 .debug_ranges  0x00000000       0x30 build/default/production/_ext/1664057780/wolfmath.o
 .debug_line    0x00000000      0x407 build/default/production/_ext/1664057780/wolfmath.o
 .debug_str     0x00000000       0x56 build/default/production/_ext/1664057780/wolfmath.o
 .comment       0x00000000       0x54 build/default/production/_ext/1664057780/wolfmath.o
 .debug_frame   0x00000000       0xb0 build/default/production/_ext/1664057780/wolfmath.o
 .ARM.attributes
                0x00000000       0x34 build/default/production/_ext/1664057780/wolfmath.o
 .text          0x00000000        0x0 build/default/production/_ext/1664057780/aes.o
 .data          0x00000000        0x0 build/default/production/_ext/1664057780/aes.o
 .bss           0x00000000        0x0 build/default/production/_ext/1664057780/aes.o
 .text.col_mul  0x00000000       0x3a build/default/production/_ext/1664057780/aes.o
 .text.inv_col_mul
                0x00000000       0x66 build/default/production/_ext/1664057780/aes.o
 .text.wc_AesEncrypt
                0x00000000      0x3a0 build/default/production/_ext/1664057780/aes.o
 .text.wc_AesDecrypt
                0x00000000      0x390 build/default/production/_ext/1664057780/aes.o
 .text.GMULT    0x00000000       0xb8 build/default/production/_ext/1664057780/aes.o
 .text.roll_x   0x00000000       0xcc build/default/production/_ext/1664057780/aes.o
 .text.roll_auth
                0x00000000       0xf0 build/default/production/_ext/1664057780/aes.o
 .text.wc_AesSetIV
                0x00000000       0x40 build/default/production/_ext/1664057780/aes.o
 .text.wc_AesSetKeyLocal
                0x00000000      0x2a8 build/default/production/_ext/1664057780/aes.o
 .text.wc_AesSetKey
                0x00000000       0x26 build/default/production/_ext/1664057780/aes.o
 .text.wc_AesSetKeyDirect
                0x00000000       0x26 build/default/production/_ext/1664057780/aes.o
 .text.wc_AesEncryptDirect
                0x00000000        0xe build/default/production/_ext/1664057780/aes.o
 .text.wc_AesDecryptDirect
                0x00000000        0xe build/default/production/_ext/1664057780/aes.o
 .text.wc_AesCbcEncrypt
                0x00000000       0xca build/default/production/_ext/1664057780/aes.o
 .text.wc_AesCbcDecrypt
                0x00000000       0xf2 build/default/production/_ext/1664057780/aes.o
 .text.wc_AesCtrEncrypt
                0x00000000      0x1aa build/default/production/_ext/1664057780/aes.o
 .text.wc_AesGcmSetKey
                0x00000000       0x5e build/default/production/_ext/1664057780/aes.o
 .text.GHASH    0x00000000      0x38e build/default/production/_ext/1664057780/aes.o
 .text.wc_AesGcmSetExtIV
                0x00000000       0x4a build/default/production/_ext/1664057780/aes.o
 .text.wc_AesGcmSetIV
                0x00000000       0x86 build/default/production/_ext/1664057780/aes.o
 .text.wc_GmacSetKey
                0x00000000       0x18 build/default/production/_ext/1664057780/aes.o
 .text.wc_AesCcmSetKey
                0x00000000       0x24 build/default/production/_ext/1664057780/aes.o
 .text.wc_AesCcmCheckTagSize
                0x00000000       0x24 build/default/production/_ext/1664057780/aes.o
 .text.wc_AesCcmEncrypt
                0x00000000      0x308 build/default/production/_ext/1664057780/aes.o
 .text.wc_AesCcmDecrypt
                0x00000000      0x3a0 build/default/production/_ext/1664057780/aes.o
 .text.wc_AesCcmSetNonce
                0x00000000       0x3c build/default/production/_ext/1664057780/aes.o
 .text.wc_AesCcmEncrypt_ex
                0x00000000       0xda build/default/production/_ext/1664057780/aes.o
 .text.wc_AesInit
                0x00000000       0x1a build/default/production/_ext/1664057780/aes.o
 .text.wc_AesFree
                0x00000000       0x1a build/default/production/_ext/1664057780/aes.o
 .text.wc_AesGetKeySize
                0x00000000       0x42 build/default/production/_ext/1664057780/aes.o
 .text.wc_AesEcbEncrypt
                0x00000000       0x40 build/default/production/_ext/1664057780/aes.o
 .text.wc_AesGcmEncrypt
                0x00000000      0x34c build/default/production/_ext/1664057780/aes.o
 .text.wc_AesGcmEncrypt_ex
                0x00000000       0xf4 build/default/production/_ext/1664057780/aes.o
 .text.wc_Gmac  0x00000000       0xc4 build/default/production/_ext/1664057780/aes.o
 .text.wc_GmacUpdate
                0x00000000       0x24 build/default/production/_ext/1664057780/aes.o
 .text.wc_AesGcmDecrypt
                0x00000000      0x384 build/default/production/_ext/1664057780/aes.o
 .text.wc_GmacVerify
                0x00000000       0xa4 build/default/production/_ext/1664057780/aes.o
 .text.wc_AesEcbDecrypt
                0x00000000       0x40 build/default/production/_ext/1664057780/aes.o
 .text.wc_AesOfbEncrypt
                0x00000000      0x17a build/default/production/_ext/1664057780/aes.o
 .text.wc_AesOfbDecrypt
                0x00000000      0x184 build/default/production/_ext/1664057780/aes.o
 .rodata.Td4    0x00000000      0x100 build/default/production/_ext/1664057780/aes.o
 .rodata.Tsbox  0x00000000      0x100 build/default/production/_ext/1664057780/aes.o
 .rodata.rcon   0x00000000       0x28 build/default/production/_ext/1664057780/aes.o
 .debug_info    0x00000000     0x8625 build/default/production/_ext/1664057780/aes.o
 .debug_abbrev  0x00000000      0x64c build/default/production/_ext/1664057780/aes.o
 .debug_loc     0x00000000     0x9a74 build/default/production/_ext/1664057780/aes.o
 .debug_aranges
                0x00000000      0x158 build/default/production/_ext/1664057780/aes.o
 .debug_ranges  0x00000000      0xb50 build/default/production/_ext/1664057780/aes.o
 .debug_line    0x00000000     0x330a build/default/production/_ext/1664057780/aes.o
 .debug_str     0x00000000      0x115 build/default/production/_ext/1664057780/aes.o
 .comment       0x00000000       0x54 build/default/production/_ext/1664057780/aes.o
 .debug_frame   0x00000000      0x6b4 build/default/production/_ext/1664057780/aes.o
 .ARM.attributes
                0x00000000       0x34 build/default/production/_ext/1664057780/aes.o
 .text          0x00000000        0x0 build/default/production/_ext/1664057780/des3.o
 .data          0x00000000        0x0 build/default/production/_ext/1664057780/des3.o
 .bss           0x00000000        0x0 build/default/production/_ext/1664057780/des3.o
 .text.DesRawProcessBlock
                0x00000000      0x130 build/default/production/_ext/1664057780/des3.o
 .text.Des3ProcessBlock
                0x00000000      0x12a build/default/production/_ext/1664057780/des3.o
 .text.DesSetKey
                0x00000000      0x16c build/default/production/_ext/1664057780/des3.o
 .text.DesProcessBlock
                0x00000000      0x112 build/default/production/_ext/1664057780/des3.o
 .text.wc_Des_CbcEncrypt
                0x00000000       0x78 build/default/production/_ext/1664057780/des3.o
 .text.wc_Des_CbcDecrypt
                0x00000000       0x84 build/default/production/_ext/1664057780/des3.o
 .text.wc_Des3_CbcEncrypt
                0x00000000       0xbe build/default/production/_ext/1664057780/des3.o
 .text.wc_Des3_CbcDecrypt
                0x00000000       0xc6 build/default/production/_ext/1664057780/des3.o
 .text.wc_Des_SetIV
                0x00000000       0x18 build/default/production/_ext/1664057780/des3.o
 .text.wc_Des_SetKey
                0x00000000       0x1c build/default/production/_ext/1664057780/des3.o
 .text.wc_Des3_SetIV
                0x00000000       0x28 build/default/production/_ext/1664057780/des3.o
 .text.wc_Des3_SetKey
                0x00000000       0xb8 build/default/production/_ext/1664057780/des3.o
 .text.wc_Des3Init
                0x00000000       0x1a build/default/production/_ext/1664057780/des3.o
 .text.wc_Des3Free
                0x00000000       0x1a build/default/production/_ext/1664057780/des3.o
 .rodata.Spbox  0x00000000      0x800 build/default/production/_ext/1664057780/des3.o
 .rodata.bytebit
                0x00000000       0x20 build/default/production/_ext/1664057780/des3.o
 .rodata.pc1    0x00000000       0x38 build/default/production/_ext/1664057780/des3.o
 .rodata.pc2    0x00000000       0x30 build/default/production/_ext/1664057780/des3.o
 .rodata.totrot
                0x00000000       0x10 build/default/production/_ext/1664057780/des3.o
 .debug_info    0x00000000     0x3ce0 build/default/production/_ext/1664057780/des3.o
 .debug_abbrev  0x00000000      0x48b build/default/production/_ext/1664057780/des3.o
 .debug_loc     0x00000000     0x74c8 build/default/production/_ext/1664057780/des3.o
 .debug_aranges
                0x00000000       0x88 build/default/production/_ext/1664057780/des3.o
 .debug_ranges  0x00000000      0x450 build/default/production/_ext/1664057780/des3.o
 .debug_line    0x00000000     0x1081 build/default/production/_ext/1664057780/des3.o
 .debug_str     0x00000000       0x52 build/default/production/_ext/1664057780/des3.o
 .comment       0x00000000       0x54 build/default/production/_ext/1664057780/des3.o
 .debug_frame   0x00000000      0x1fc build/default/production/_ext/1664057780/des3.o
 .ARM.attributes
                0x00000000       0x34 build/default/production/_ext/1664057780/des3.o
 .text          0x00000000        0x0 build/default/production/_ext/1664057780/random.o
 .data          0x00000000        0x0 build/default/production/_ext/1664057780/random.o
 .bss           0x00000000        0x0 build/default/production/_ext/1664057780/random.o
 .text.wc_RNG_DRBG_Reseed
                0x00000000       0x1a build/default/production/_ext/1664057780/random.o
 .text.wc_FreeRng
                0x00000000       0x34 build/default/production/_ext/1664057780/random.o
 .text.wc_rng_free
                0x00000000       0x28 build/default/production/_ext/1664057780/random.o
 .text.wc_rng_new
                0x00000000       0x36 build/default/production/_ext/1664057780/random.o
 .text.wc_InitRng_ex
                0x00000000       0x16 build/default/production/_ext/1664057780/random.o
 .text.wc_InitRngNonce
                0x00000000       0x16 build/default/production/_ext/1664057780/random.o
 .text.wc_InitRngNonce_ex
                0x00000000       0x10 build/default/production/_ext/1664057780/random.o
 .text.wc_RNG_GenerateByte
                0x00000000        0xa build/default/production/_ext/1664057780/random.o
 .text          0x00000000        0x0 build/default/production/_ext/1664057780/sha.o
 .data          0x00000000        0x0 build/default/production/_ext/1664057780/sha.o
 .bss           0x00000000        0x0 build/default/production/_ext/1664057780/sha.o
 .text.Transform
                0x00000000      0xdb8 build/default/production/_ext/1664057780/sha.o
 .text.wc_InitSha_ex
                0x00000000       0x44 build/default/production/_ext/1664057780/sha.o
 .text.wc_ShaUpdate
                0x00000000      0x15c build/default/production/_ext/1664057780/sha.o
 .text.wc_ShaFinalRaw
                0x00000000       0x54 build/default/production/_ext/1664057780/sha.o
 .text.wc_ShaFinal
                0x00000000      0x15c build/default/production/_ext/1664057780/sha.o
 .text.wc_InitSha
                0x00000000        0xe build/default/production/_ext/1664057780/sha.o
 .text.wc_ShaFree
                0x00000000        0x2 build/default/production/_ext/1664057780/sha.o
 .text.wc_ShaCopy
                0x00000000       0x2a build/default/production/_ext/1664057780/sha.o
 .text.wc_ShaGetHash
                0x00000000       0x34 build/default/production/_ext/1664057780/sha.o
 .text.wc_ShaSetFlags
                0x00000000        0x8 build/default/production/_ext/1664057780/sha.o
 .text.wc_ShaGetFlags
                0x00000000        0xc build/default/production/_ext/1664057780/sha.o
 .debug_info    0x00000000     0x5934 build/default/production/_ext/1664057780/sha.o
 .debug_abbrev  0x00000000      0x45f build/default/production/_ext/1664057780/sha.o
 .debug_loc     0x00000000     0x69a4 build/default/production/_ext/1664057780/sha.o
 .debug_aranges
                0x00000000       0x70 build/default/production/_ext/1664057780/sha.o
 .debug_ranges  0x00000000      0x6d8 build/default/production/_ext/1664057780/sha.o
 .debug_line    0x00000000     0x1f49 build/default/production/_ext/1664057780/sha.o
 .debug_str     0x00000000       0x2f build/default/production/_ext/1664057780/sha.o
 .comment       0x00000000       0x54 build/default/production/_ext/1664057780/sha.o
 .debug_frame   0x00000000      0x154 build/default/production/_ext/1664057780/sha.o
 .ARM.attributes
                0x00000000       0x34 build/default/production/_ext/1664057780/sha.o
 .text          0x00000000        0x0 build/default/production/_ext/1664057780/sha256.o
 .data          0x00000000        0x0 build/default/production/_ext/1664057780/sha256.o
 .bss           0x00000000        0x0 build/default/production/_ext/1664057780/sha256.o
 .text.wc_Sha256FinalRaw
                0x00000000       0x5a build/default/production/_ext/1664057780/sha256.o
 .text.wc_InitSha224_ex
                0x00000000       0x64 build/default/production/_ext/1664057780/sha256.o
 .text.wc_Sha224Update
                0x00000000      0x12c build/default/production/_ext/1664057780/sha256.o
 .text.wc_Sha224Final
                0x00000000      0x16c build/default/production/_ext/1664057780/sha256.o
 .text.wc_InitSha224
                0x00000000        0xe build/default/production/_ext/1664057780/sha256.o
 .text.wc_Sha224Free
                0x00000000        0x2 build/default/production/_ext/1664057780/sha256.o
 .text.wc_InitSha256
                0x00000000        0xe build/default/production/_ext/1664057780/sha256.o
 .text.wc_Sha224Copy
                0x00000000       0x2a build/default/production/_ext/1664057780/sha256.o
 .text.wc_Sha224GetHash
                0x00000000       0x34 build/default/production/_ext/1664057780/sha256.o
 .text.wc_Sha224SetFlags
                0x00000000        0x8 build/default/production/_ext/1664057780/sha256.o
 .text.wc_Sha224GetFlags
                0x00000000        0xc build/default/production/_ext/1664057780/sha256.o
 .text.wc_Sha256Copy
                0x00000000       0x2a build/default/production/_ext/1664057780/sha256.o
 .text.wc_Sha256GetHash
                0x00000000       0x34 build/default/production/_ext/1664057780/sha256.o
 .text.wc_Sha256SetFlags
                0x00000000        0x8 build/default/production/_ext/1664057780/sha256.o
 .text.wc_Sha256GetFlags
                0x00000000        0xc build/default/production/_ext/1664057780/sha256.o
 .text          0x00000000        0x0 build/default/production/_ext/1664057780/sha512.o
 .data          0x00000000        0x0 build/default/production/_ext/1664057780/sha512.o
 .bss           0x00000000        0x0 build/default/production/_ext/1664057780/sha512.o
 .debug_info    0x00000000      0x356 build/default/production/_ext/1664057780/sha512.o
 .debug_abbrev  0x00000000       0x44 build/default/production/_ext/1664057780/sha512.o
 .debug_aranges
                0x00000000       0x18 build/default/production/_ext/1664057780/sha512.o
 .debug_line    0x00000000       0xe8 build/default/production/_ext/1664057780/sha512.o
 .debug_str     0x00000000        0x0 build/default/production/_ext/1664057780/sha512.o
 .comment       0x00000000       0x54 build/default/production/_ext/1664057780/sha512.o
 .ARM.attributes
                0x00000000       0x39 build/default/production/_ext/1664057780/sha512.o
 .text          0x00000000        0x0 build/default/production/_ext/1664057780/ecc.o
 .data          0x00000000        0x0 build/default/production/_ext/1664057780/ecc.o
 .bss           0x00000000        0x0 build/default/production/_ext/1664057780/ecc.o
 .text.ecc_point_to_mont
                0x00000000       0xa8 build/default/production/_ext/1664057780/ecc.o
 .text.wc_ecc_cmp_param
                0x00000000       0x84 build/default/production/_ext/1664057780/ecc.o
 .text.wc_ecc_curve_cache_load_item
                0x00000000       0x50 build/default/production/_ext/1664057780/ecc.o
 .text.wc_ecc_curve_free
                0x00000000       0xa8 build/default/production/_ext/1664057780/ecc.o
 .text.wc_ecc_curve_load
                0x00000000       0xbe build/default/production/_ext/1664057780/ecc.o
 .text.wc_ecc_get_curve_order_bit_count
                0x00000000       0x46 build/default/production/_ext/1664057780/ecc.o
 .text.wc_ecc_set_curve
                0x00000000       0x6c build/default/production/_ext/1664057780/ecc.o
 .text.wc_ecc_import_raw_private
                0x00000000      0x142 build/default/production/_ext/1664057780/ecc.o
 .text.ecc_projective_dbl_point
                0x00000000      0x27a build/default/production/_ext/1664057780/ecc.o
 .text.ecc_projective_add_point
                0x00000000      0x46c build/default/production/_ext/1664057780/ecc.o
 .text.ecc_map_ex
                0x00000000      0x13a build/default/production/_ext/1664057780/ecc.o
 .text.ecc_map  0x00000000        0xa build/default/production/_ext/1664057780/ecc.o
 .text.wc_ecc_new_point_h
                0x00000000       0x40 build/default/production/_ext/1664057780/ecc.o
 .text.wc_ecc_new_point
                0x00000000        0xa build/default/production/_ext/1664057780/ecc.o
 .text.wc_ecc_del_point_h
                0x00000000       0x24 build/default/production/_ext/1664057780/ecc.o
 .text.wc_ecc_del_point
                0x00000000        0xa build/default/production/_ext/1664057780/ecc.o
 .text.wc_ecc_copy_point
                0x00000000       0x44 build/default/production/_ext/1664057780/ecc.o
 .text.wc_ecc_cmp_point
                0x00000000       0x44 build/default/production/_ext/1664057780/ecc.o
 .text.wc_ecc_is_valid_idx
                0x00000000       0x14 build/default/production/_ext/1664057780/ecc.o
 .text.wc_ecc_get_curve_idx
                0x00000000       0x28 build/default/production/_ext/1664057780/ecc.o
 .text.wc_ecc_get_name
                0x00000000       0x20 build/default/production/_ext/1664057780/ecc.o
 .text.wc_ecc_get_curve_id
                0x00000000       0x20 build/default/production/_ext/1664057780/ecc.o
 .text.wc_ecc_get_curve_size_from_id
                0x00000000       0x24 build/default/production/_ext/1664057780/ecc.o
 .text.wc_ecc_get_curve_idx_from_name
                0x00000000       0x50 build/default/production/_ext/1664057780/ecc.o
 .text.wc_ecc_get_curve_size_from_name
                0x00000000       0x24 build/default/production/_ext/1664057780/ecc.o
 .text.wc_ecc_get_curve_id_from_name
                0x00000000       0x24 build/default/production/_ext/1664057780/ecc.o
 .text.wc_ecc_get_curve_id_from_params
                0x00000000       0xfc build/default/production/_ext/1664057780/ecc.o
 .text.wc_ecc_get_curve_id_from_dp_params
                0x00000000      0x138 build/default/production/_ext/1664057780/ecc.o
 .text.wc_ecc_get_curve_id_from_oid
                0x00000000       0x58 build/default/production/_ext/1664057780/ecc.o
 .text.wc_ecc_get_curve_params
                0x00000000       0x14 build/default/production/_ext/1664057780/ecc.o
 .text.wc_ecc_point_is_at_infinity
                0x00000000       0x26 build/default/production/_ext/1664057780/ecc.o
 .text.wc_ecc_gen_k
                0x00000000       0x72 build/default/production/_ext/1664057780/ecc.o
 .text.wc_ecc_init_ex
                0x00000000       0x4e build/default/production/_ext/1664057780/ecc.o
 .text.wc_ecc_key_new
                0x00000000       0x2a build/default/production/_ext/1664057780/ecc.o
 .text.wc_ecc_init
                0x00000000        0xe build/default/production/_ext/1664057780/ecc.o
 .text.wc_ecc_init_id
                0x00000000       0x42 build/default/production/_ext/1664057780/ecc.o
 .text.wc_ecc_init_label
                0x00000000       0x5a build/default/production/_ext/1664057780/ecc.o
 .text.wc_ecc_set_flags
                0x00000000       0x12 build/default/production/_ext/1664057780/ecc.o
 .text.wc_ecc_free
                0x00000000       0x2c build/default/production/_ext/1664057780/ecc.o
 .text.wc_ecc_key_free
                0x00000000       0x28 build/default/production/_ext/1664057780/ecc.o
 .text.ecc_projective_add_point_safe
                0x00000000      0x14c build/default/production/_ext/1664057780/ecc.o
 .text.ecc_projective_dbl_point_safe
                0x00000000       0x3a build/default/production/_ext/1664057780/ecc.o
 .text.ecc_mulmod
                0x00000000      0x270 build/default/production/_ext/1664057780/ecc.o
 .text.wc_ecc_mulmod_ex
                0x00000000       0xfa build/default/production/_ext/1664057780/ecc.o
 .text.wc_ecc_mulmod
                0x00000000       0x18 build/default/production/_ext/1664057780/ecc.o
 .text.wc_ecc_mulmod_ex2
                0x00000000      0x100 build/default/production/_ext/1664057780/ecc.o
 .text.wc_ecc_shared_secret_gen
                0x00000000      0x12a build/default/production/_ext/1664057780/ecc.o
 .text.wc_ecc_shared_secret_ex
                0x00000000       0x94 build/default/production/_ext/1664057780/ecc.o
 .text.wc_ecc_shared_secret
                0x00000000       0x90 build/default/production/_ext/1664057780/ecc.o
 .text.ecc_make_pub_ex
                0x00000000      0x196 build/default/production/_ext/1664057780/ecc.o
 .text.wc_ecc_make_pub
                0x00000000        0xe build/default/production/_ext/1664057780/ecc.o
 .text.wc_ecc_make_pub_ex
                0x00000000        0xe build/default/production/_ext/1664057780/ecc.o
 .text.wc_ecc_make_key_ex2
                0x00000000       0xd6 build/default/production/_ext/1664057780/ecc.o
 .text.wc_ecc_make_key_ex
                0x00000000       0x10 build/default/production/_ext/1664057780/ecc.o
 .text.wc_ecc_make_key
                0x00000000        0xa build/default/production/_ext/1664057780/ecc.o
 .text.wc_ecc_sign_hash_ex
                0x00000000      0x2b6 build/default/production/_ext/1664057780/ecc.o
 .text.wc_ecc_sign_hash
                0x00000000       0xe0 build/default/production/_ext/1664057780/ecc.o
 .text.wc_ecc_verify_hash_ex
                0x00000000      0x494 build/default/production/_ext/1664057780/ecc.o
 .text.wc_ecc_verify_hash
                0x00000000       0xee build/default/production/_ext/1664057780/ecc.o
 .text.wc_ecc_import_point_der_ex
                0x00000000       0xcc build/default/production/_ext/1664057780/ecc.o
 .text.wc_ecc_import_point_der
                0x00000000       0x10 build/default/production/_ext/1664057780/ecc.o
 .text.wc_ecc_export_point_der
                0x00000000       0xe8 build/default/production/_ext/1664057780/ecc.o
 .text.wc_ecc_export_point_der_ex
                0x00000000       0x12 build/default/production/_ext/1664057780/ecc.o
 .text.wc_ecc_export_x963
                0x00000000      0x11c build/default/production/_ext/1664057780/ecc.o
 .text.wc_ecc_export_x963_ex
                0x00000000       0x10 build/default/production/_ext/1664057780/ecc.o
 .text.wc_ecc_is_point
                0x00000000      0x110 build/default/production/_ext/1664057780/ecc.o
 .text.wc_ecc_check_key
                0x00000000      0x29a build/default/production/_ext/1664057780/ecc.o
 .text.wc_ecc_import_x963_ex
                0x00000000       0xd6 build/default/production/_ext/1664057780/ecc.o
 .text.wc_ecc_import_x963
                0x00000000        0xa build/default/production/_ext/1664057780/ecc.o
 .text.wc_ecc_export_ex
                0x00000000       0xca build/default/production/_ext/1664057780/ecc.o
 .text.wc_ecc_export_private_only
                0x00000000       0x30 build/default/production/_ext/1664057780/ecc.o
 .text.wc_ecc_export_public_raw
                0x00000000       0x3a build/default/production/_ext/1664057780/ecc.o
 .text.wc_ecc_export_private_raw
                0x00000000       0x1c build/default/production/_ext/1664057780/ecc.o
 .text.wc_ecc_import_private_key_ex
                0x00000000       0x70 build/default/production/_ext/1664057780/ecc.o
 .text.wc_ecc_import_private_key
                0x00000000       0x14 build/default/production/_ext/1664057780/ecc.o
 .text.wc_ecc_rs_to_sig
                0x00000000       0xb2 build/default/production/_ext/1664057780/ecc.o
 .text.wc_ecc_rs_raw_to_sig
                0x00000000       0x40 build/default/production/_ext/1664057780/ecc.o
 .text.wc_ecc_sig_to_rs
                0x00000000       0x3c build/default/production/_ext/1664057780/ecc.o
 .text.wc_ecc_import_raw_ex
                0x00000000       0x14 build/default/production/_ext/1664057780/ecc.o
 .text.wc_ecc_import_unsigned
                0x00000000       0x14 build/default/production/_ext/1664057780/ecc.o
 .text.wc_ecc_import_raw
                0x00000000       0x88 build/default/production/_ext/1664057780/ecc.o
 .text.wc_ecc_size
                0x00000000        0xc build/default/production/_ext/1664057780/ecc.o
 .text.wc_ecc_sig_size_calc
                0x00000000       0x10 build/default/production/_ext/1664057780/ecc.o
 .text.wc_ecc_sig_size
                0x00000000       0x3a build/default/production/_ext/1664057780/ecc.o
 .text.wc_ecc_get_oid
                0x00000000       0x5c build/default/production/_ext/1664057780/ecc.o
 .rodata        0x00000000      0xa2c build/default/production/_ext/1664057780/ecc.o
 .rodata.ecc_oid_prime239v1
                0x00000000        0x8 build/default/production/_ext/1664057780/ecc.o
 .rodata.ecc_oid_secp224r1
                0x00000000        0x8 build/default/production/_ext/1664057780/ecc.o
 .rodata.ecc_oid_secp256r1
                0x00000000        0x8 build/default/production/_ext/1664057780/ecc.o
 .rodata.ecc_oid_secp384r1
                0x00000000        0x8 build/default/production/_ext/1664057780/ecc.o
 .rodata.ecc_oid_secp521r1
                0x00000000        0x8 build/default/production/_ext/1664057780/ecc.o
 .rodata.ecc_sets
                0x00000000      0x138 build/default/production/_ext/1664057780/ecc.o
 .rodata.ecc_sets_count
                0x00000000        0x4 build/default/production/_ext/1664057780/ecc.o
 .debug_info    0x00000000     0xb593 build/default/production/_ext/1664057780/ecc.o
 .debug_abbrev  0x00000000      0x564 build/default/production/_ext/1664057780/ecc.o
 .debug_loc     0x00000000     0x9dc3 build/default/production/_ext/1664057780/ecc.o
 .debug_aranges
                0x00000000      0x2c0 build/default/production/_ext/1664057780/ecc.o
 .debug_ranges  0x00000000      0x458 build/default/production/_ext/1664057780/ecc.o
 .debug_line    0x00000000     0x39d2 build/default/production/_ext/1664057780/ecc.o
 .debug_str     0x00000000      0x326 build/default/production/_ext/1664057780/ecc.o
 .comment       0x00000000       0x54 build/default/production/_ext/1664057780/ecc.o
 .debug_frame   0x00000000      0xc24 build/default/production/_ext/1664057780/ecc.o
 .ARM.attributes
                0x00000000       0x34 build/default/production/_ext/1664057780/ecc.o
 .text          0x00000000        0x0 build/default/production/_ext/1360937237/main.o
 .data          0x00000000        0x0 build/default/production/_ext/1360937237/main.o
 .bss           0x00000000        0x0 build/default/production/_ext/1360937237/main.o
 .text          0x00000000        0x0 build/default/production/_ext/1360937237/custom_snmp_app.o
 .data          0x00000000        0x0 build/default/production/_ext/1360937237/custom_snmp_app.o
 .bss           0x00000000        0x0 build/default/production/_ext/1360937237/custom_snmp_app.o
 .text.SNMPSendNotification
                0x00000000      0x12c build/default/production/_ext/1360937237/custom_snmp_app.o
 .text.TCPIP_SNMP_SendTrapToSelctedInterface
                0x00000000       0x22 build/default/production/_ext/1360937237/custom_snmp_app.o
 .text.SNMPV2TrapDemo
                0x00000000      0x1bc build/default/production/_ext/1360937237/custom_snmp_app.o
 .text.SNMPTrapDemo
                0x00000000      0x39c build/default/production/_ext/1360937237/custom_snmp_app.o
 .text.TCPIP_SNMP_SendFailureTrap
                0x00000000      0x1a4 build/default/production/_ext/1360937237/custom_snmp_app.o
 .rodata        0x00000000       0x10 build/default/production/_ext/1360937237/custom_snmp_app.o
 .bss.TimerRead.15636
                0x00000000        0x4 build/default/production/_ext/1360937237/custom_snmp_app.o
 .bss.TimerRead.15667
                0x00000000        0x4 build/default/production/_ext/1360937237/custom_snmp_app.o
 .bss.anaPotNotfyCntr.15640
                0x00000000        0x1 build/default/production/_ext/1360937237/custom_snmp_app.o
 .bss.analogPotNotify.15637
                0x00000000        0x1 build/default/production/_ext/1360937237/custom_snmp_app.o
 .bss.analogPotVal.15619
                0x00000000        0x4 build/default/production/_ext/1360937237/custom_snmp_app.o
 .bss.analogPotVal.15643
                0x00000000        0x4 build/default/production/_ext/1360937237/custom_snmp_app.o
 .bss.asciiStrNotify.15639
                0x00000000        0x1 build/default/production/_ext/1360937237/custom_snmp_app.o
 .bss.buttonLock.15645
                0x00000000        0x1 build/default/production/_ext/1360937237/custom_snmp_app.o
 .bss.buttonPushNotfyCntr.15641
                0x00000000        0x1 build/default/production/_ext/1360937237/custom_snmp_app.o
 .bss.buttonPushNotify.15638
                0x00000000        0x1 build/default/production/_ext/1360937237/custom_snmp_app.o
 .bss.buttonPushval.15642
                0x00000000        0x4 build/default/production/_ext/1360937237/custom_snmp_app.o
 .bss.gSendTrapSMstate
                0x00000000        0x1 build/default/production/_ext/1360937237/custom_snmp_app.o
 .bss.gtrapSMStateUpdate
                0x00000000        0x1 build/default/production/_ext/1360937237/custom_snmp_app.o
 .bss.netIx.15626
                0x00000000        0x4 build/default/production/_ext/1360937237/custom_snmp_app.o
 .bss.netIx.15650
                0x00000000        0x4 build/default/production/_ext/1360937237/custom_snmp_app.o
 .bss.netIx.15674
                0x00000000        0x4 build/default/production/_ext/1360937237/custom_snmp_app.o
 .bss.potReadLock.15620
                0x00000000        0x1 build/default/production/_ext/1360937237/custom_snmp_app.o
 .bss.potReadLock.15644
                0x00000000        0x1 build/default/production/_ext/1360937237/custom_snmp_app.o
 .bss.receiverIndex.15663
                0x00000000        0x1 build/default/production/_ext/1360937237/custom_snmp_app.o
 .bss.smState.15605
                0x00000000        0x1 build/default/production/_ext/1360937237/custom_snmp_app.o
 .bss.smState.15673
                0x00000000        0x1 build/default/production/_ext/1360937237/custom_snmp_app.o
 .bss.tempIpAddress.15608
                0x00000000        0x4 build/default/production/_ext/1360937237/custom_snmp_app.o
 .bss.tempRxIndex.15607
                0x00000000        0x1 build/default/production/_ext/1360937237/custom_snmp_app.o
 .bss.tempTimerRead.15617
                0x00000000        0x4 build/default/production/_ext/1360937237/custom_snmp_app.o
 .bss.timeLock.15621
                0x00000000        0x1 build/default/production/_ext/1360937237/custom_snmp_app.o
 .bss.timeLock.15646
                0x00000000        0x1 build/default/production/_ext/1360937237/custom_snmp_app.o
 .bss.timeLock.15662
                0x00000000        0x1 build/default/production/_ext/1360937237/custom_snmp_app.o
 .bss.trapIndex.15618
                0x00000000        0x1 build/default/production/_ext/1360937237/custom_snmp_app.o
 .bss.trapIndex.15649
                0x00000000        0x1 build/default/production/_ext/1360937237/custom_snmp_app.o
 .data.netStartForTrap.15624
                0x00000000        0x1 build/default/production/_ext/1360937237/custom_snmp_app.o
 .data.netStartForTrap.15652
                0x00000000        0x1 build/default/production/_ext/1360937237/custom_snmp_app.o
 .data.netStartForTrap.15676
                0x00000000        0x1 build/default/production/_ext/1360937237/custom_snmp_app.o
 .text          0x00000000        0x0 build/default/production/_ext/1360937237/app.o
 .data          0x00000000        0x0 build/default/production/_ext/1360937237/app.o
 .bss           0x00000000        0x0 build/default/production/_ext/1360937237/app.o
 .bss.LEDstate  0x00000000        0x1 build/default/production/_ext/1360937237/app.o
 .text          0x00000000        0x0 build/default/production/_ext/1360937237/mpfs_img2.o
 .data          0x00000000        0x0 build/default/production/_ext/1360937237/mpfs_img2.o
 .bss           0x00000000        0x0 build/default/production/_ext/1360937237/mpfs_img2.o
 .rodata        0x00000000        0x8 build/default/production/_ext/1360937237/mpfs_img2.o
 .data.MPFS_IMAGE_PARTITION_INFO
                0x00000000        0xc build/default/production/_ext/1360937237/mpfs_img2.o
 .text          0x00000000        0x0 build/default/production/_ext/1360937237/http_print.o
 .data          0x00000000        0x0 build/default/production/_ext/1360937237/http_print.o
 .bss           0x00000000        0x0 build/default/production/_ext/1360937237/http_print.o
 .text          0x00000000        0x0 build/default/production/_ext/1360937237/custom_http_app.o
 .data          0x00000000        0x0 build/default/production/_ext/1360937237/custom_http_app.o
 .bss           0x00000000        0x0 build/default/production/_ext/1360937237/custom_http_app.o
 .text.TCPIP_HTTP_Print_smtps_en
                0x00000000       0x14 build/default/production/_ext/1360937237/custom_http_app.o
 .text          0x00000000        0x0 build/default/production/_ext/1664057780/misc.o
 .data          0x00000000        0x0 build/default/production/_ext/1664057780/misc.o
 .bss           0x00000000        0x0 build/default/production/_ext/1664057780/misc.o
 .debug_info    0x00000000      0xf6f build/default/production/_ext/1664057780/misc.o
 .debug_abbrev  0x00000000      0x1a1 build/default/production/_ext/1664057780/misc.o
 .debug_aranges
                0x00000000       0x18 build/default/production/_ext/1664057780/misc.o
 .debug_line    0x00000000      0x1ae build/default/production/_ext/1664057780/misc.o
 .debug_str     0x00000000        0xe build/default/production/_ext/1664057780/misc.o
 .comment       0x00000000       0x54 build/default/production/_ext/1664057780/misc.o
 .ARM.attributes
                0x00000000       0x39 build/default/production/_ext/1664057780/misc.o
 .text          0x00000000        0x0 build/default/production/_ext/1664057780/evp.o
 .data          0x00000000        0x0 build/default/production/_ext/1664057780/evp.o
 .bss           0x00000000        0x0 build/default/production/_ext/1664057780/evp.o
 .debug_info    0x00000000      0x353 build/default/production/_ext/1664057780/evp.o
 .debug_abbrev  0x00000000       0x44 build/default/production/_ext/1664057780/evp.o
 .debug_aranges
                0x00000000       0x18 build/default/production/_ext/1664057780/evp.o
 .debug_line    0x00000000       0xe8 build/default/production/_ext/1664057780/evp.o
 .debug_str     0x00000000        0x0 build/default/production/_ext/1664057780/evp.o
 .comment       0x00000000       0x54 build/default/production/_ext/1664057780/evp.o
 .ARM.attributes
                0x00000000       0x39 build/default/production/_ext/1664057780/evp.o
 .text          0x00000000        0x0 c:/program files/microchip/xc32/v3.01/bin/bin/../../lib/gcc/pic32c/8.3.1/../../../../pic32c/lib/thumb/v7e-m+fp/hard\libpic32c.a(data_init.o)
 .data          0x00000000        0x0 c:/program files/microchip/xc32/v3.01/bin/bin/../../lib/gcc/pic32c/8.3.1/../../../../pic32c/lib/thumb/v7e-m+fp/hard\libpic32c.a(data_init.o)
 .xc_stack_usage
                0x00000000       0x2a c:/program files/microchip/xc32/v3.01/bin/bin/../../lib/gcc/pic32c/8.3.1/../../../../pic32c/lib/thumb/v7e-m+fp/hard\libpic32c.a(data_init.o)
 .xc_stack_usage.hdr
                0x00000000        0xe c:/program files/microchip/xc32/v3.01/bin/bin/../../lib/gcc/pic32c/8.3.1/../../../../pic32c/lib/thumb/v7e-m+fp/hard\libpic32c.a(data_init.o)
 .data          0x00000000        0x0 c:/program files/microchip/xc32/v3.01/bin/bin/../../lib/gcc/pic32c/8.3.1/thumb/v7e-m+fp/hard\libgcc.a(_arm_addsubdf3.o)
 .bss           0x00000000        0x0 c:/program files/microchip/xc32/v3.01/bin/bin/../../lib/gcc/pic32c/8.3.1/thumb/v7e-m+fp/hard\libgcc.a(_arm_addsubdf3.o)
 .xc_stack_usage.hdr
                0x00000000        0xe c:/program files/microchip/xc32/v3.01/bin/bin/../../lib/gcc/pic32c/8.3.1/thumb/v7e-m+fp/hard\libgcc.a(_arm_addsubdf3.o)
 .xc_stack_usage
                0x00000000       0xca c:/program files/microchip/xc32/v3.01/bin/bin/../../lib/gcc/pic32c/8.3.1/thumb/v7e-m+fp/hard\libgcc.a(_arm_addsubdf3.o)
 .data          0x00000000        0x0 c:/program files/microchip/xc32/v3.01/bin/bin/../../lib/gcc/pic32c/8.3.1/thumb/v7e-m+fp/hard\libgcc.a(_arm_muldivdf3.o)
 .bss           0x00000000        0x0 c:/program files/microchip/xc32/v3.01/bin/bin/../../lib/gcc/pic32c/8.3.1/thumb/v7e-m+fp/hard\libgcc.a(_arm_muldivdf3.o)
 .xc_stack_usage.hdr
                0x00000000        0xe c:/program files/microchip/xc32/v3.01/bin/bin/../../lib/gcc/pic32c/8.3.1/thumb/v7e-m+fp/hard\libgcc.a(_arm_muldivdf3.o)
 .xc_stack_usage
                0x00000000       0x2c c:/program files/microchip/xc32/v3.01/bin/bin/../../lib/gcc/pic32c/8.3.1/thumb/v7e-m+fp/hard\libgcc.a(_arm_muldivdf3.o)
 .data          0x00000000        0x0 c:/program files/microchip/xc32/v3.01/bin/bin/../../lib/gcc/pic32c/8.3.1/thumb/v7e-m+fp/hard\libgcc.a(_arm_cmpdf2.o)
 .bss           0x00000000        0x0 c:/program files/microchip/xc32/v3.01/bin/bin/../../lib/gcc/pic32c/8.3.1/thumb/v7e-m+fp/hard\libgcc.a(_arm_cmpdf2.o)
 .xc_stack_usage.hdr
                0x00000000        0xe c:/program files/microchip/xc32/v3.01/bin/bin/../../lib/gcc/pic32c/8.3.1/thumb/v7e-m+fp/hard\libgcc.a(_arm_cmpdf2.o)
 .xc_stack_usage
                0x00000000      0x107 c:/program files/microchip/xc32/v3.01/bin/bin/../../lib/gcc/pic32c/8.3.1/thumb/v7e-m+fp/hard\libgcc.a(_arm_cmpdf2.o)
 .data          0x00000000        0x0 c:/program files/microchip/xc32/v3.01/bin/bin/../../lib/gcc/pic32c/8.3.1/thumb/v7e-m+fp/hard\libgcc.a(_arm_fixunsdfsi.o)
 .bss           0x00000000        0x0 c:/program files/microchip/xc32/v3.01/bin/bin/../../lib/gcc/pic32c/8.3.1/thumb/v7e-m+fp/hard\libgcc.a(_arm_fixunsdfsi.o)
 .xc_stack_usage.hdr
                0x00000000        0xe c:/program files/microchip/xc32/v3.01/bin/bin/../../lib/gcc/pic32c/8.3.1/thumb/v7e-m+fp/hard\libgcc.a(_arm_fixunsdfsi.o)
 .xc_stack_usage
                0x00000000       0x1a c:/program files/microchip/xc32/v3.01/bin/bin/../../lib/gcc/pic32c/8.3.1/thumb/v7e-m+fp/hard\libgcc.a(_arm_fixunsdfsi.o)
 .data          0x00000000        0x0 c:/program files/microchip/xc32/v3.01/bin/bin/../../lib/gcc/pic32c/8.3.1/thumb/v7e-m+fp/hard\libgcc.a(_aeabi_uldivmod.o)
 .bss           0x00000000        0x0 c:/program files/microchip/xc32/v3.01/bin/bin/../../lib/gcc/pic32c/8.3.1/thumb/v7e-m+fp/hard\libgcc.a(_aeabi_uldivmod.o)
 .xc_stack_usage.hdr
                0x00000000        0xe c:/program files/microchip/xc32/v3.01/bin/bin/../../lib/gcc/pic32c/8.3.1/thumb/v7e-m+fp/hard\libgcc.a(_aeabi_uldivmod.o)
 .xc_stack_usage
                0x00000000       0x1e c:/program files/microchip/xc32/v3.01/bin/bin/../../lib/gcc/pic32c/8.3.1/thumb/v7e-m+fp/hard\libgcc.a(_aeabi_uldivmod.o)
 .data          0x00000000        0x0 c:/program files/microchip/xc32/v3.01/bin/bin/../../lib/gcc/pic32c/8.3.1/thumb/v7e-m+fp/hard\libgcc.a(_udivmoddi4.o)
 .bss           0x00000000        0x0 c:/program files/microchip/xc32/v3.01/bin/bin/../../lib/gcc/pic32c/8.3.1/thumb/v7e-m+fp/hard\libgcc.a(_udivmoddi4.o)
 .xc_stack_usage
                0x00000000       0x1a c:/program files/microchip/xc32/v3.01/bin/bin/../../lib/gcc/pic32c/8.3.1/thumb/v7e-m+fp/hard\libgcc.a(_udivmoddi4.o)
 .ARM.extab     0x00000000        0x0 c:/program files/microchip/xc32/v3.01/bin/bin/../../lib/gcc/pic32c/8.3.1/thumb/v7e-m+fp/hard\libgcc.a(_udivmoddi4.o)
 .xc_stack_usage.hdr
                0x00000000        0xe c:/program files/microchip/xc32/v3.01/bin/bin/../../lib/gcc/pic32c/8.3.1/thumb/v7e-m+fp/hard\libgcc.a(_udivmoddi4.o)
 .data          0x00000000        0x0 c:/program files/microchip/xc32/v3.01/bin/bin/../../lib/gcc/pic32c/8.3.1/thumb/v7e-m+fp/hard\libgcc.a(_dvmd_tls.o)
 .bss           0x00000000        0x0 c:/program files/microchip/xc32/v3.01/bin/bin/../../lib/gcc/pic32c/8.3.1/thumb/v7e-m+fp/hard\libgcc.a(_dvmd_tls.o)
 .xc_stack_usage.hdr
                0x00000000        0xe c:/program files/microchip/xc32/v3.01/bin/bin/../../lib/gcc/pic32c/8.3.1/thumb/v7e-m+fp/hard\libgcc.a(_dvmd_tls.o)
 .xc_stack_usage
                0x00000000       0x36 c:/program files/microchip/xc32/v3.01/bin/bin/../../lib/gcc/pic32c/8.3.1/thumb/v7e-m+fp/hard\libgcc.a(_dvmd_tls.o)
 .text          0x00000000        0x0 c:/program files/microchip/xc32/v3.01/bin/bin/../../lib/gcc/pic32c/8.3.1/../../../../pic32c/lib/thumb/v7e-m+fp/hard\libc_nano.a(lib_a-atoi.o)
 .data          0x00000000        0x0 c:/program files/microchip/xc32/v3.01/bin/bin/../../lib/gcc/pic32c/8.3.1/../../../../pic32c/lib/thumb/v7e-m+fp/hard\libc_nano.a(lib_a-atoi.o)
 .bss           0x00000000        0x0 c:/program files/microchip/xc32/v3.01/bin/bin/../../lib/gcc/pic32c/8.3.1/../../../../pic32c/lib/thumb/v7e-m+fp/hard\libc_nano.a(lib_a-atoi.o)
 .xc_stack_usage
                0x00000000       0x27 c:/program files/microchip/xc32/v3.01/bin/bin/../../lib/gcc/pic32c/8.3.1/../../../../pic32c/lib/thumb/v7e-m+fp/hard\libc_nano.a(lib_a-atoi.o)
 .text._atoi_r  0x00000000        0x8 c:/program files/microchip/xc32/v3.01/bin/bin/../../lib/gcc/pic32c/8.3.1/../../../../pic32c/lib/thumb/v7e-m+fp/hard\libc_nano.a(lib_a-atoi.o)
 .xc_stack_usage.hdr
                0x00000000        0xe c:/program files/microchip/xc32/v3.01/bin/bin/../../lib/gcc/pic32c/8.3.1/../../../../pic32c/lib/thumb/v7e-m+fp/hard\libc_nano.a(lib_a-atoi.o)
 .text          0x00000000        0x0 c:/program files/microchip/xc32/v3.01/bin/bin/../../lib/gcc/pic32c/8.3.1/../../../../pic32c/lib/thumb/v7e-m+fp/hard\libc_nano.a(lib_a-atol.o)
 .data          0x00000000        0x0 c:/program files/microchip/xc32/v3.01/bin/bin/../../lib/gcc/pic32c/8.3.1/../../../../pic32c/lib/thumb/v7e-m+fp/hard\libc_nano.a(lib_a-atol.o)
 .bss           0x00000000        0x0 c:/program files/microchip/xc32/v3.01/bin/bin/../../lib/gcc/pic32c/8.3.1/../../../../pic32c/lib/thumb/v7e-m+fp/hard\libc_nano.a(lib_a-atol.o)
 .xc_stack_usage
                0x00000000       0x27 c:/program files/microchip/xc32/v3.01/bin/bin/../../lib/gcc/pic32c/8.3.1/../../../../pic32c/lib/thumb/v7e-m+fp/hard\libc_nano.a(lib_a-atol.o)
 .text._atol_r  0x00000000        0x8 c:/program files/microchip/xc32/v3.01/bin/bin/../../lib/gcc/pic32c/8.3.1/../../../../pic32c/lib/thumb/v7e-m+fp/hard\libc_nano.a(lib_a-atol.o)
 .xc_stack_usage.hdr
                0x00000000        0xe c:/program files/microchip/xc32/v3.01/bin/bin/../../lib/gcc/pic32c/8.3.1/../../../../pic32c/lib/thumb/v7e-m+fp/hard\libc_nano.a(lib_a-atol.o)
 .text          0x00000000        0x0 c:/program files/microchip/xc32/v3.01/bin/bin/../../lib/gcc/pic32c/8.3.1/../../../../pic32c/lib/thumb/v7e-m+fp/hard\libc_nano.a(lib_a-calloc.o)
 .data          0x00000000        0x0 c:/program files/microchip/xc32/v3.01/bin/bin/../../lib/gcc/pic32c/8.3.1/../../../../pic32c/lib/thumb/v7e-m+fp/hard\libc_nano.a(lib_a-calloc.o)
 .bss           0x00000000        0x0 c:/program files/microchip/xc32/v3.01/bin/bin/../../lib/gcc/pic32c/8.3.1/../../../../pic32c/lib/thumb/v7e-m+fp/hard\libc_nano.a(lib_a-calloc.o)
 .xc_stack_usage
                0x00000000       0x14 c:/program files/microchip/xc32/v3.01/bin/bin/../../lib/gcc/pic32c/8.3.1/../../../../pic32c/lib/thumb/v7e-m+fp/hard\libc_nano.a(lib_a-calloc.o)
 .xc_stack_usage.hdr
                0x00000000        0xe c:/program files/microchip/xc32/v3.01/bin/bin/../../lib/gcc/pic32c/8.3.1/../../../../pic32c/lib/thumb/v7e-m+fp/hard\libc_nano.a(lib_a-calloc.o)
 .text          0x00000000        0x0 c:/program files/microchip/xc32/v3.01/bin/bin/../../lib/gcc/pic32c/8.3.1/../../../../pic32c/lib/thumb/v7e-m+fp/hard\libc_nano.a(lib_a-ctype_.o)
 .data          0x00000000        0x0 c:/program files/microchip/xc32/v3.01/bin/bin/../../lib/gcc/pic32c/8.3.1/../../../../pic32c/lib/thumb/v7e-m+fp/hard\libc_nano.a(lib_a-ctype_.o)
 .bss           0x00000000        0x0 c:/program files/microchip/xc32/v3.01/bin/bin/../../lib/gcc/pic32c/8.3.1/../../../../pic32c/lib/thumb/v7e-m+fp/hard\libc_nano.a(lib_a-ctype_.o)
 .xc_stack_usage.hdr
                0x00000000        0xe c:/program files/microchip/xc32/v3.01/bin/bin/../../lib/gcc/pic32c/8.3.1/../../../../pic32c/lib/thumb/v7e-m+fp/hard\libc_nano.a(lib_a-ctype_.o)
 .text          0x00000000        0x0 c:/program files/microchip/xc32/v3.01/bin/bin/../../lib/gcc/pic32c/8.3.1/../../../../pic32c/lib/thumb/v7e-m+fp/hard\libc_nano.a(lib_a-gmtime.o)
 .data          0x00000000        0x0 c:/program files/microchip/xc32/v3.01/bin/bin/../../lib/gcc/pic32c/8.3.1/../../../../pic32c/lib/thumb/v7e-m+fp/hard\libc_nano.a(lib_a-gmtime.o)
 .bss           0x00000000        0x0 c:/program files/microchip/xc32/v3.01/bin/bin/../../lib/gcc/pic32c/8.3.1/../../../../pic32c/lib/thumb/v7e-m+fp/hard\libc_nano.a(lib_a-gmtime.o)
 .xc_stack_usage
                0x00000000       0x14 c:/program files/microchip/xc32/v3.01/bin/bin/../../lib/gcc/pic32c/8.3.1/../../../../pic32c/lib/thumb/v7e-m+fp/hard\libc_nano.a(lib_a-gmtime.o)
 .text.gmtime   0x00000000       0x24 c:/program files/microchip/xc32/v3.01/bin/bin/../../lib/gcc/pic32c/8.3.1/../../../../pic32c/lib/thumb/v7e-m+fp/hard\libc_nano.a(lib_a-gmtime.o)
 .xc_stack_usage.hdr
                0x00000000        0xe c:/program files/microchip/xc32/v3.01/bin/bin/../../lib/gcc/pic32c/8.3.1/../../../../pic32c/lib/thumb/v7e-m+fp/hard\libc_nano.a(lib_a-gmtime.o)
 .comment       0x00000000       0x54 c:/program files/microchip/xc32/v3.01/bin/bin/../../lib/gcc/pic32c/8.3.1/../../../../pic32c/lib/thumb/v7e-m+fp/hard\libc_nano.a(lib_a-gmtime.o)
 .ARM.attributes
                0x00000000       0x34 c:/program files/microchip/xc32/v3.01/bin/bin/../../lib/gcc/pic32c/8.3.1/../../../../pic32c/lib/thumb/v7e-m+fp/hard\libc_nano.a(lib_a-gmtime.o)
 .text          0x00000000        0x0 c:/program files/microchip/xc32/v3.01/bin/bin/../../lib/gcc/pic32c/8.3.1/../../../../pic32c/lib/thumb/v7e-m+fp/hard\libc_nano.a(lib_a-gmtime_r.o)
 .data          0x00000000        0x0 c:/program files/microchip/xc32/v3.01/bin/bin/../../lib/gcc/pic32c/8.3.1/../../../../pic32c/lib/thumb/v7e-m+fp/hard\libc_nano.a(lib_a-gmtime_r.o)
 .bss           0x00000000        0x0 c:/program files/microchip/xc32/v3.01/bin/bin/../../lib/gcc/pic32c/8.3.1/../../../../pic32c/lib/thumb/v7e-m+fp/hard\libc_nano.a(lib_a-gmtime_r.o)
 .xc_stack_usage
                0x00000000       0x16 c:/program files/microchip/xc32/v3.01/bin/bin/../../lib/gcc/pic32c/8.3.1/../../../../pic32c/lib/thumb/v7e-m+fp/hard\libc_nano.a(lib_a-gmtime_r.o)
 .text.gmtime_r
                0x00000000      0x11c c:/program files/microchip/xc32/v3.01/bin/bin/../../lib/gcc/pic32c/8.3.1/../../../../pic32c/lib/thumb/v7e-m+fp/hard\libc_nano.a(lib_a-gmtime_r.o)
 .xc_stack_usage.hdr
                0x00000000        0xe c:/program files/microchip/xc32/v3.01/bin/bin/../../lib/gcc/pic32c/8.3.1/../../../../pic32c/lib/thumb/v7e-m+fp/hard\libc_nano.a(lib_a-gmtime_r.o)
 .comment       0x00000000       0x54 c:/program files/microchip/xc32/v3.01/bin/bin/../../lib/gcc/pic32c/8.3.1/../../../../pic32c/lib/thumb/v7e-m+fp/hard\libc_nano.a(lib_a-gmtime_r.o)
 .ARM.attributes
                0x00000000       0x34 c:/program files/microchip/xc32/v3.01/bin/bin/../../lib/gcc/pic32c/8.3.1/../../../../pic32c/lib/thumb/v7e-m+fp/hard\libc_nano.a(lib_a-gmtime_r.o)
 .text          0x00000000        0x0 c:/program files/microchip/xc32/v3.01/bin/bin/../../lib/gcc/pic32c/8.3.1/../../../../pic32c/lib/thumb/v7e-m+fp/hard\libc_nano.a(lib_a-impure.o)
 .data          0x00000000        0x0 c:/program files/microchip/xc32/v3.01/bin/bin/../../lib/gcc/pic32c/8.3.1/../../../../pic32c/lib/thumb/v7e-m+fp/hard\libc_nano.a(lib_a-impure.o)
 .bss           0x00000000        0x0 c:/program files/microchip/xc32/v3.01/bin/bin/../../lib/gcc/pic32c/8.3.1/../../../../pic32c/lib/thumb/v7e-m+fp/hard\libc_nano.a(lib_a-impure.o)
 .rodata._global_impure_ptr
                0x00000000        0x4 c:/program files/microchip/xc32/v3.01/bin/bin/../../lib/gcc/pic32c/8.3.1/../../../../pic32c/lib/thumb/v7e-m+fp/hard\libc_nano.a(lib_a-impure.o)
 .xc_stack_usage.hdr
                0x00000000        0xe c:/program files/microchip/xc32/v3.01/bin/bin/../../lib/gcc/pic32c/8.3.1/../../../../pic32c/lib/thumb/v7e-m+fp/hard\libc_nano.a(lib_a-impure.o)
 .text          0x00000000        0x0 c:/program files/microchip/xc32/v3.01/bin/bin/../../lib/gcc/pic32c/8.3.1/../../../../pic32c/lib/thumb/v7e-m+fp/hard\libc_nano.a(lib_a-init.o)
 .data          0x00000000        0x0 c:/program files/microchip/xc32/v3.01/bin/bin/../../lib/gcc/pic32c/8.3.1/../../../../pic32c/lib/thumb/v7e-m+fp/hard\libc_nano.a(lib_a-init.o)
 .bss           0x00000000        0x0 c:/program files/microchip/xc32/v3.01/bin/bin/../../lib/gcc/pic32c/8.3.1/../../../../pic32c/lib/thumb/v7e-m+fp/hard\libc_nano.a(lib_a-init.o)
 .xc_stack_usage
                0x00000000       0x1f c:/program files/microchip/xc32/v3.01/bin/bin/../../lib/gcc/pic32c/8.3.1/../../../../pic32c/lib/thumb/v7e-m+fp/hard\libc_nano.a(lib_a-init.o)
 .xc_stack_usage.hdr
                0x00000000        0xe c:/program files/microchip/xc32/v3.01/bin/bin/../../lib/gcc/pic32c/8.3.1/../../../../pic32c/lib/thumb/v7e-m+fp/hard\libc_nano.a(lib_a-init.o)
 .text          0x00000000        0x0 c:/program files/microchip/xc32/v3.01/bin/bin/../../lib/gcc/pic32c/8.3.1/../../../../pic32c/lib/thumb/v7e-m+fp/hard\libc_nano.a(lib_a-malloc.o)
 .data          0x00000000        0x0 c:/program files/microchip/xc32/v3.01/bin/bin/../../lib/gcc/pic32c/8.3.1/../../../../pic32c/lib/thumb/v7e-m+fp/hard\libc_nano.a(lib_a-malloc.o)
 .bss           0x00000000        0x0 c:/program files/microchip/xc32/v3.01/bin/bin/../../lib/gcc/pic32c/8.3.1/../../../../pic32c/lib/thumb/v7e-m+fp/hard\libc_nano.a(lib_a-malloc.o)
 .xc_stack_usage
                0x00000000       0x26 c:/program files/microchip/xc32/v3.01/bin/bin/../../lib/gcc/pic32c/8.3.1/../../../../pic32c/lib/thumb/v7e-m+fp/hard\libc_nano.a(lib_a-malloc.o)
 .xc_stack_usage.hdr
                0x00000000        0xe c:/program files/microchip/xc32/v3.01/bin/bin/../../lib/gcc/pic32c/8.3.1/../../../../pic32c/lib/thumb/v7e-m+fp/hard\libc_nano.a(lib_a-malloc.o)
 .text          0x00000000        0x0 c:/program files/microchip/xc32/v3.01/bin/bin/../../lib/gcc/pic32c/8.3.1/../../../../pic32c/lib/thumb/v7e-m+fp/hard\libc_nano.a(lib_a-memcmp.o)
 .data          0x00000000        0x0 c:/program files/microchip/xc32/v3.01/bin/bin/../../lib/gcc/pic32c/8.3.1/../../../../pic32c/lib/thumb/v7e-m+fp/hard\libc_nano.a(lib_a-memcmp.o)
 .bss           0x00000000        0x0 c:/program files/microchip/xc32/v3.01/bin/bin/../../lib/gcc/pic32c/8.3.1/../../../../pic32c/lib/thumb/v7e-m+fp/hard\libc_nano.a(lib_a-memcmp.o)
 .xc_stack_usage
                0x00000000       0x14 c:/program files/microchip/xc32/v3.01/bin/bin/../../lib/gcc/pic32c/8.3.1/../../../../pic32c/lib/thumb/v7e-m+fp/hard\libc_nano.a(lib_a-memcmp.o)
 .xc_stack_usage.hdr
                0x00000000        0xe c:/program files/microchip/xc32/v3.01/bin/bin/../../lib/gcc/pic32c/8.3.1/../../../../pic32c/lib/thumb/v7e-m+fp/hard\libc_nano.a(lib_a-memcmp.o)
 .text          0x00000000        0x0 c:/program files/microchip/xc32/v3.01/bin/bin/../../lib/gcc/pic32c/8.3.1/../../../../pic32c/lib/thumb/v7e-m+fp/hard\libc_nano.a(lib_a-memcpy-stub.o)
 .data          0x00000000        0x0 c:/program files/microchip/xc32/v3.01/bin/bin/../../lib/gcc/pic32c/8.3.1/../../../../pic32c/lib/thumb/v7e-m+fp/hard\libc_nano.a(lib_a-memcpy-stub.o)
 .bss           0x00000000        0x0 c:/program files/microchip/xc32/v3.01/bin/bin/../../lib/gcc/pic32c/8.3.1/../../../../pic32c/lib/thumb/v7e-m+fp/hard\libc_nano.a(lib_a-memcpy-stub.o)
 .xc_stack_usage
                0x00000000       0x14 c:/program files/microchip/xc32/v3.01/bin/bin/../../lib/gcc/pic32c/8.3.1/../../../../pic32c/lib/thumb/v7e-m+fp/hard\libc_nano.a(lib_a-memcpy-stub.o)
 .xc_stack_usage.hdr
                0x00000000        0xe c:/program files/microchip/xc32/v3.01/bin/bin/../../lib/gcc/pic32c/8.3.1/../../../../pic32c/lib/thumb/v7e-m+fp/hard\libc_nano.a(lib_a-memcpy-stub.o)
 .text          0x00000000        0x0 c:/program files/microchip/xc32/v3.01/bin/bin/../../lib/gcc/pic32c/8.3.1/../../../../pic32c/lib/thumb/v7e-m+fp/hard\libc_nano.a(lib_a-memmove.o)
 .data          0x00000000        0x0 c:/program files/microchip/xc32/v3.01/bin/bin/../../lib/gcc/pic32c/8.3.1/../../../../pic32c/lib/thumb/v7e-m+fp/hard\libc_nano.a(lib_a-memmove.o)
 .bss           0x00000000        0x0 c:/program files/microchip/xc32/v3.01/bin/bin/../../lib/gcc/pic32c/8.3.1/../../../../pic32c/lib/thumb/v7e-m+fp/hard\libc_nano.a(lib_a-memmove.o)
 .xc_stack_usage
                0x00000000       0x15 c:/program files/microchip/xc32/v3.01/bin/bin/../../lib/gcc/pic32c/8.3.1/../../../../pic32c/lib/thumb/v7e-m+fp/hard\libc_nano.a(lib_a-memmove.o)
 .xc_stack_usage.hdr
                0x00000000        0xe c:/program files/microchip/xc32/v3.01/bin/bin/../../lib/gcc/pic32c/8.3.1/../../../../pic32c/lib/thumb/v7e-m+fp/hard\libc_nano.a(lib_a-memmove.o)
 .text          0x00000000        0x0 c:/program files/microchip/xc32/v3.01/bin/bin/../../lib/gcc/pic32c/8.3.1/../../../../pic32c/lib/thumb/v7e-m+fp/hard\libc_nano.a(lib_a-memset.o)
 .data          0x00000000        0x0 c:/program files/microchip/xc32/v3.01/bin/bin/../../lib/gcc/pic32c/8.3.1/../../../../pic32c/lib/thumb/v7e-m+fp/hard\libc_nano.a(lib_a-memset.o)
 .bss           0x00000000        0x0 c:/program files/microchip/xc32/v3.01/bin/bin/../../lib/gcc/pic32c/8.3.1/../../../../pic32c/lib/thumb/v7e-m+fp/hard\libc_nano.a(lib_a-memset.o)
 .xc_stack_usage
                0x00000000       0x14 c:/program files/microchip/xc32/v3.01/bin/bin/../../lib/gcc/pic32c/8.3.1/../../../../pic32c/lib/thumb/v7e-m+fp/hard\libc_nano.a(lib_a-memset.o)
 .xc_stack_usage.hdr
                0x00000000        0xe c:/program files/microchip/xc32/v3.01/bin/bin/../../lib/gcc/pic32c/8.3.1/../../../../pic32c/lib/thumb/v7e-m+fp/hard\libc_nano.a(lib_a-memset.o)
 .text          0x00000000        0x0 c:/program files/microchip/xc32/v3.01/bin/bin/../../lib/gcc/pic32c/8.3.1/../../../../pic32c/lib/thumb/v7e-m+fp/hard\libc_nano.a(lib_a-nano-callocr.o)
 .data          0x00000000        0x0 c:/program files/microchip/xc32/v3.01/bin/bin/../../lib/gcc/pic32c/8.3.1/../../../../pic32c/lib/thumb/v7e-m+fp/hard\libc_nano.a(lib_a-nano-callocr.o)
 .bss           0x00000000        0x0 c:/program files/microchip/xc32/v3.01/bin/bin/../../lib/gcc/pic32c/8.3.1/../../../../pic32c/lib/thumb/v7e-m+fp/hard\libc_nano.a(lib_a-nano-callocr.o)
 .xc_stack_usage
                0x00000000       0x17 c:/program files/microchip/xc32/v3.01/bin/bin/../../lib/gcc/pic32c/8.3.1/../../../../pic32c/lib/thumb/v7e-m+fp/hard\libc_nano.a(lib_a-nano-callocr.o)
 .xc_stack_usage.hdr
                0x00000000        0xe c:/program files/microchip/xc32/v3.01/bin/bin/../../lib/gcc/pic32c/8.3.1/../../../../pic32c/lib/thumb/v7e-m+fp/hard\libc_nano.a(lib_a-nano-callocr.o)
 .text          0x00000000        0x0 c:/program files/microchip/xc32/v3.01/bin/bin/../../lib/gcc/pic32c/8.3.1/../../../../pic32c/lib/thumb/v7e-m+fp/hard\libc_nano.a(lib_a-nano-freer.o)
 .data          0x00000000        0x0 c:/program files/microchip/xc32/v3.01/bin/bin/../../lib/gcc/pic32c/8.3.1/../../../../pic32c/lib/thumb/v7e-m+fp/hard\libc_nano.a(lib_a-nano-freer.o)
 .bss           0x00000000        0x0 c:/program files/microchip/xc32/v3.01/bin/bin/../../lib/gcc/pic32c/8.3.1/../../../../pic32c/lib/thumb/v7e-m+fp/hard\libc_nano.a(lib_a-nano-freer.o)
 .xc_stack_usage
                0x00000000       0x15 c:/program files/microchip/xc32/v3.01/bin/bin/../../lib/gcc/pic32c/8.3.1/../../../../pic32c/lib/thumb/v7e-m+fp/hard\libc_nano.a(lib_a-nano-freer.o)
 .xc_stack_usage.hdr
                0x00000000        0xe c:/program files/microchip/xc32/v3.01/bin/bin/../../lib/gcc/pic32c/8.3.1/../../../../pic32c/lib/thumb/v7e-m+fp/hard\libc_nano.a(lib_a-nano-freer.o)
 .text          0x00000000        0x0 c:/program files/microchip/xc32/v3.01/bin/bin/../../lib/gcc/pic32c/8.3.1/../../../../pic32c/lib/thumb/v7e-m+fp/hard\libc_nano.a(lib_a-nano-mallocr.o)
 .data          0x00000000        0x0 c:/program files/microchip/xc32/v3.01/bin/bin/../../lib/gcc/pic32c/8.3.1/../../../../pic32c/lib/thumb/v7e-m+fp/hard\libc_nano.a(lib_a-nano-mallocr.o)
 .bss           0x00000000        0x0 c:/program files/microchip/xc32/v3.01/bin/bin/../../lib/gcc/pic32c/8.3.1/../../../../pic32c/lib/thumb/v7e-m+fp/hard\libc_nano.a(lib_a-nano-mallocr.o)
 .xc_stack_usage
                0x00000000       0x17 c:/program files/microchip/xc32/v3.01/bin/bin/../../lib/gcc/pic32c/8.3.1/../../../../pic32c/lib/thumb/v7e-m+fp/hard\libc_nano.a(lib_a-nano-mallocr.o)
 .xc_stack_usage.hdr
                0x00000000        0xe c:/program files/microchip/xc32/v3.01/bin/bin/../../lib/gcc/pic32c/8.3.1/../../../../pic32c/lib/thumb/v7e-m+fp/hard\libc_nano.a(lib_a-nano-mallocr.o)
 .text          0x00000000        0x0 c:/program files/microchip/xc32/v3.01/bin/bin/../../lib/gcc/pic32c/8.3.1/../../../../pic32c/lib/thumb/v7e-m+fp/hard\libc_nano.a(lib_a-rand.o)
 .data          0x00000000        0x0 c:/program files/microchip/xc32/v3.01/bin/bin/../../lib/gcc/pic32c/8.3.1/../../../../pic32c/lib/thumb/v7e-m+fp/hard\libc_nano.a(lib_a-rand.o)
 .bss           0x00000000        0x0 c:/program files/microchip/xc32/v3.01/bin/bin/../../lib/gcc/pic32c/8.3.1/../../../../pic32c/lib/thumb/v7e-m+fp/hard\libc_nano.a(lib_a-rand.o)
 .xc_stack_usage
                0x00000000       0x25 c:/program files/microchip/xc32/v3.01/bin/bin/../../lib/gcc/pic32c/8.3.1/../../../../pic32c/lib/thumb/v7e-m+fp/hard\libc_nano.a(lib_a-rand.o)
 .xc_stack_usage.hdr
                0x00000000        0xe c:/program files/microchip/xc32/v3.01/bin/bin/../../lib/gcc/pic32c/8.3.1/../../../../pic32c/lib/thumb/v7e-m+fp/hard\libc_nano.a(lib_a-rand.o)
 .text          0x00000000        0x0 c:/program files/microchip/xc32/v3.01/bin/bin/../../lib/gcc/pic32c/8.3.1/../../../../pic32c/lib/thumb/v7e-m+fp/hard\libc_nano.a(lib_a-sbrkr.o)
 .data          0x00000000        0x0 c:/program files/microchip/xc32/v3.01/bin/bin/../../lib/gcc/pic32c/8.3.1/../../../../pic32c/lib/thumb/v7e-m+fp/hard\libc_nano.a(lib_a-sbrkr.o)
 .bss           0x00000000        0x0 c:/program files/microchip/xc32/v3.01/bin/bin/../../lib/gcc/pic32c/8.3.1/../../../../pic32c/lib/thumb/v7e-m+fp/hard\libc_nano.a(lib_a-sbrkr.o)
 .xc_stack_usage
                0x00000000       0x15 c:/program files/microchip/xc32/v3.01/bin/bin/../../lib/gcc/pic32c/8.3.1/../../../../pic32c/lib/thumb/v7e-m+fp/hard\libc_nano.a(lib_a-sbrkr.o)
 .xc_stack_usage.hdr
                0x00000000        0xe c:/program files/microchip/xc32/v3.01/bin/bin/../../lib/gcc/pic32c/8.3.1/../../../../pic32c/lib/thumb/v7e-m+fp/hard\libc_nano.a(lib_a-sbrkr.o)
 .text          0x00000000        0x0 c:/program files/microchip/xc32/v3.01/bin/bin/../../lib/gcc/pic32c/8.3.1/../../../../pic32c/lib/thumb/v7e-m+fp/hard\libc_nano.a(lib_a-snprintf.o)
 .data          0x00000000        0x0 c:/program files/microchip/xc32/v3.01/bin/bin/../../lib/gcc/pic32c/8.3.1/../../../../pic32c/lib/thumb/v7e-m+fp/hard\libc_nano.a(lib_a-snprintf.o)
 .bss           0x00000000        0x0 c:/program files/microchip/xc32/v3.01/bin/bin/../../lib/gcc/pic32c/8.3.1/../../../../pic32c/lib/thumb/v7e-m+fp/hard\libc_nano.a(lib_a-snprintf.o)
 .xc_stack_usage
                0x00000000       0x2f c:/program files/microchip/xc32/v3.01/bin/bin/../../lib/gcc/pic32c/8.3.1/../../../../pic32c/lib/thumb/v7e-m+fp/hard\libc_nano.a(lib_a-snprintf.o)
 .text._snprintf_r
                0x00000000       0x62 c:/program files/microchip/xc32/v3.01/bin/bin/../../lib/gcc/pic32c/8.3.1/../../../../pic32c/lib/thumb/v7e-m+fp/hard\libc_nano.a(lib_a-snprintf.o)
 .xc_stack_usage.hdr
                0x00000000        0xe c:/program files/microchip/xc32/v3.01/bin/bin/../../lib/gcc/pic32c/8.3.1/../../../../pic32c/lib/thumb/v7e-m+fp/hard\libc_nano.a(lib_a-snprintf.o)
 .text          0x00000000        0x0 c:/program files/microchip/xc32/v3.01/bin/bin/../../lib/gcc/pic32c/8.3.1/../../../../pic32c/lib/thumb/v7e-m+fp/hard\libc_nano.a(lib_a-sprintf.o)
 .data          0x00000000        0x0 c:/program files/microchip/xc32/v3.01/bin/bin/../../lib/gcc/pic32c/8.3.1/../../../../pic32c/lib/thumb/v7e-m+fp/hard\libc_nano.a(lib_a-sprintf.o)
 .bss           0x00000000        0x0 c:/program files/microchip/xc32/v3.01/bin/bin/../../lib/gcc/pic32c/8.3.1/../../../../pic32c/lib/thumb/v7e-m+fp/hard\libc_nano.a(lib_a-sprintf.o)
 .xc_stack_usage
                0x00000000       0x2d c:/program files/microchip/xc32/v3.01/bin/bin/../../lib/gcc/pic32c/8.3.1/../../../../pic32c/lib/thumb/v7e-m+fp/hard\libc_nano.a(lib_a-sprintf.o)
 .text._sprintf_r
                0x00000000       0x3c c:/program files/microchip/xc32/v3.01/bin/bin/../../lib/gcc/pic32c/8.3.1/../../../../pic32c/lib/thumb/v7e-m+fp/hard\libc_nano.a(lib_a-sprintf.o)
 .xc_stack_usage.hdr
                0x00000000        0xe c:/program files/microchip/xc32/v3.01/bin/bin/../../lib/gcc/pic32c/8.3.1/../../../../pic32c/lib/thumb/v7e-m+fp/hard\libc_nano.a(lib_a-sprintf.o)
 .text          0x00000000        0x0 c:/program files/microchip/xc32/v3.01/bin/bin/../../lib/gcc/pic32c/8.3.1/../../../../pic32c/lib/thumb/v7e-m+fp/hard\libc_nano.a(lib_a-strchr.o)
 .data          0x00000000        0x0 c:/program files/microchip/xc32/v3.01/bin/bin/../../lib/gcc/pic32c/8.3.1/../../../../pic32c/lib/thumb/v7e-m+fp/hard\libc_nano.a(lib_a-strchr.o)
 .bss           0x00000000        0x0 c:/program files/microchip/xc32/v3.01/bin/bin/../../lib/gcc/pic32c/8.3.1/../../../../pic32c/lib/thumb/v7e-m+fp/hard\libc_nano.a(lib_a-strchr.o)
 .xc_stack_usage
                0x00000000       0x14 c:/program files/microchip/xc32/v3.01/bin/bin/../../lib/gcc/pic32c/8.3.1/../../../../pic32c/lib/thumb/v7e-m+fp/hard\libc_nano.a(lib_a-strchr.o)
 .xc_stack_usage.hdr
                0x00000000        0xe c:/program files/microchip/xc32/v3.01/bin/bin/../../lib/gcc/pic32c/8.3.1/../../../../pic32c/lib/thumb/v7e-m+fp/hard\libc_nano.a(lib_a-strchr.o)
 .data          0x00000000        0x0 c:/program files/microchip/xc32/v3.01/bin/bin/../../lib/gcc/pic32c/8.3.1/../../../../pic32c/lib/thumb/v7e-m+fp/hard\libc_nano.a(lib_a-strcmp.o)
 .bss           0x00000000        0x0 c:/program files/microchip/xc32/v3.01/bin/bin/../../lib/gcc/pic32c/8.3.1/../../../../pic32c/lib/thumb/v7e-m+fp/hard\libc_nano.a(lib_a-strcmp.o)
 .xc_stack_usage.hdr
                0x00000000        0xe c:/program files/microchip/xc32/v3.01/bin/bin/../../lib/gcc/pic32c/8.3.1/../../../../pic32c/lib/thumb/v7e-m+fp/hard\libc_nano.a(lib_a-strcmp.o)
 .xc_stack_usage
                0x00000000       0x14 c:/program files/microchip/xc32/v3.01/bin/bin/../../lib/gcc/pic32c/8.3.1/../../../../pic32c/lib/thumb/v7e-m+fp/hard\libc_nano.a(lib_a-strcmp.o)
 .text          0x00000000        0x0 c:/program files/microchip/xc32/v3.01/bin/bin/../../lib/gcc/pic32c/8.3.1/../../../../pic32c/lib/thumb/v7e-m+fp/hard\libc_nano.a(lib_a-strcpy.o)
 .data          0x00000000        0x0 c:/program files/microchip/xc32/v3.01/bin/bin/../../lib/gcc/pic32c/8.3.1/../../../../pic32c/lib/thumb/v7e-m+fp/hard\libc_nano.a(lib_a-strcpy.o)
 .bss           0x00000000        0x0 c:/program files/microchip/xc32/v3.01/bin/bin/../../lib/gcc/pic32c/8.3.1/../../../../pic32c/lib/thumb/v7e-m+fp/hard\libc_nano.a(lib_a-strcpy.o)
 .xc_stack_usage
                0x00000000       0x14 c:/program files/microchip/xc32/v3.01/bin/bin/../../lib/gcc/pic32c/8.3.1/../../../../pic32c/lib/thumb/v7e-m+fp/hard\libc_nano.a(lib_a-strcpy.o)
 .xc_stack_usage.hdr
                0x00000000        0xe c:/program files/microchip/xc32/v3.01/bin/bin/../../lib/gcc/pic32c/8.3.1/../../../../pic32c/lib/thumb/v7e-m+fp/hard\libc_nano.a(lib_a-strcpy.o)
 .data          0x00000000        0x0 c:/program files/microchip/xc32/v3.01/bin/bin/../../lib/gcc/pic32c/8.3.1/../../../../pic32c/lib/thumb/v7e-m+fp/hard\libc_nano.a(lib_a-strlen.o)
 .bss           0x00000000        0x0 c:/program files/microchip/xc32/v3.01/bin/bin/../../lib/gcc/pic32c/8.3.1/../../../../pic32c/lib/thumb/v7e-m+fp/hard\libc_nano.a(lib_a-strlen.o)
 .xc_stack_usage.hdr
                0x00000000        0xe c:/program files/microchip/xc32/v3.01/bin/bin/../../lib/gcc/pic32c/8.3.1/../../../../pic32c/lib/thumb/v7e-m+fp/hard\libc_nano.a(lib_a-strlen.o)
 .xc_stack_usage
                0x00000000       0x14 c:/program files/microchip/xc32/v3.01/bin/bin/../../lib/gcc/pic32c/8.3.1/../../../../pic32c/lib/thumb/v7e-m+fp/hard\libc_nano.a(lib_a-strlen.o)
 .text          0x00000000        0x0 c:/program files/microchip/xc32/v3.01/bin/bin/../../lib/gcc/pic32c/8.3.1/../../../../pic32c/lib/thumb/v7e-m+fp/hard\libc_nano.a(lib_a-strncmp.o)
 .data          0x00000000        0x0 c:/program files/microchip/xc32/v3.01/bin/bin/../../lib/gcc/pic32c/8.3.1/../../../../pic32c/lib/thumb/v7e-m+fp/hard\libc_nano.a(lib_a-strncmp.o)
 .bss           0x00000000        0x0 c:/program files/microchip/xc32/v3.01/bin/bin/../../lib/gcc/pic32c/8.3.1/../../../../pic32c/lib/thumb/v7e-m+fp/hard\libc_nano.a(lib_a-strncmp.o)
 .xc_stack_usage
                0x00000000       0x15 c:/program files/microchip/xc32/v3.01/bin/bin/../../lib/gcc/pic32c/8.3.1/../../../../pic32c/lib/thumb/v7e-m+fp/hard\libc_nano.a(lib_a-strncmp.o)
 .xc_stack_usage.hdr
                0x00000000        0xe c:/program files/microchip/xc32/v3.01/bin/bin/../../lib/gcc/pic32c/8.3.1/../../../../pic32c/lib/thumb/v7e-m+fp/hard\libc_nano.a(lib_a-strncmp.o)
 .text          0x00000000        0x0 c:/program files/microchip/xc32/v3.01/bin/bin/../../lib/gcc/pic32c/8.3.1/../../../../pic32c/lib/thumb/v7e-m+fp/hard\libc_nano.a(lib_a-strncpy.o)
 .data          0x00000000        0x0 c:/program files/microchip/xc32/v3.01/bin/bin/../../lib/gcc/pic32c/8.3.1/../../../../pic32c/lib/thumb/v7e-m+fp/hard\libc_nano.a(lib_a-strncpy.o)
 .bss           0x00000000        0x0 c:/program files/microchip/xc32/v3.01/bin/bin/../../lib/gcc/pic32c/8.3.1/../../../../pic32c/lib/thumb/v7e-m+fp/hard\libc_nano.a(lib_a-strncpy.o)
 .xc_stack_usage
                0x00000000       0x15 c:/program files/microchip/xc32/v3.01/bin/bin/../../lib/gcc/pic32c/8.3.1/../../../../pic32c/lib/thumb/v7e-m+fp/hard\libc_nano.a(lib_a-strncpy.o)
 .xc_stack_usage.hdr
                0x00000000        0xe c:/program files/microchip/xc32/v3.01/bin/bin/../../lib/gcc/pic32c/8.3.1/../../../../pic32c/lib/thumb/v7e-m+fp/hard\libc_nano.a(lib_a-strncpy.o)
 .text          0x00000000        0x0 c:/program files/microchip/xc32/v3.01/bin/bin/../../lib/gcc/pic32c/8.3.1/../../../../pic32c/lib/thumb/v7e-m+fp/hard\libc_nano.a(lib_a-strstr.o)
 .data          0x00000000        0x0 c:/program files/microchip/xc32/v3.01/bin/bin/../../lib/gcc/pic32c/8.3.1/../../../../pic32c/lib/thumb/v7e-m+fp/hard\libc_nano.a(lib_a-strstr.o)
 .bss           0x00000000        0x0 c:/program files/microchip/xc32/v3.01/bin/bin/../../lib/gcc/pic32c/8.3.1/../../../../pic32c/lib/thumb/v7e-m+fp/hard\libc_nano.a(lib_a-strstr.o)
 .xc_stack_usage
                0x00000000       0x14 c:/program files/microchip/xc32/v3.01/bin/bin/../../lib/gcc/pic32c/8.3.1/../../../../pic32c/lib/thumb/v7e-m+fp/hard\libc_nano.a(lib_a-strstr.o)
 .xc_stack_usage.hdr
                0x00000000        0xe c:/program files/microchip/xc32/v3.01/bin/bin/../../lib/gcc/pic32c/8.3.1/../../../../pic32c/lib/thumb/v7e-m+fp/hard\libc_nano.a(lib_a-strstr.o)
 .text          0x00000000        0x0 c:/program files/microchip/xc32/v3.01/bin/bin/../../lib/gcc/pic32c/8.3.1/../../../../pic32c/lib/thumb/v7e-m+fp/hard\libc_nano.a(lib_a-strtok.o)
 .data          0x00000000        0x0 c:/program files/microchip/xc32/v3.01/bin/bin/../../lib/gcc/pic32c/8.3.1/../../../../pic32c/lib/thumb/v7e-m+fp/hard\libc_nano.a(lib_a-strtok.o)
 .bss           0x00000000        0x0 c:/program files/microchip/xc32/v3.01/bin/bin/../../lib/gcc/pic32c/8.3.1/../../../../pic32c/lib/thumb/v7e-m+fp/hard\libc_nano.a(lib_a-strtok.o)
 .xc_stack_usage
                0x00000000       0x14 c:/program files/microchip/xc32/v3.01/bin/bin/../../lib/gcc/pic32c/8.3.1/../../../../pic32c/lib/thumb/v7e-m+fp/hard\libc_nano.a(lib_a-strtok.o)
 .xc_stack_usage.hdr
                0x00000000        0xe c:/program files/microchip/xc32/v3.01/bin/bin/../../lib/gcc/pic32c/8.3.1/../../../../pic32c/lib/thumb/v7e-m+fp/hard\libc_nano.a(lib_a-strtok.o)
 .text          0x00000000        0x0 c:/program files/microchip/xc32/v3.01/bin/bin/../../lib/gcc/pic32c/8.3.1/../../../../pic32c/lib/thumb/v7e-m+fp/hard\libc_nano.a(lib_a-strtok_r.o)
 .data          0x00000000        0x0 c:/program files/microchip/xc32/v3.01/bin/bin/../../lib/gcc/pic32c/8.3.1/../../../../pic32c/lib/thumb/v7e-m+fp/hard\libc_nano.a(lib_a-strtok_r.o)
 .bss           0x00000000        0x0 c:/program files/microchip/xc32/v3.01/bin/bin/../../lib/gcc/pic32c/8.3.1/../../../../pic32c/lib/thumb/v7e-m+fp/hard\libc_nano.a(lib_a-strtok_r.o)
 .xc_stack_usage
                0x00000000       0x2e c:/program files/microchip/xc32/v3.01/bin/bin/../../lib/gcc/pic32c/8.3.1/../../../../pic32c/lib/thumb/v7e-m+fp/hard\libc_nano.a(lib_a-strtok_r.o)
 .text.strtok_r
                0x00000000        0x6 c:/program files/microchip/xc32/v3.01/bin/bin/../../lib/gcc/pic32c/8.3.1/../../../../pic32c/lib/thumb/v7e-m+fp/hard\libc_nano.a(lib_a-strtok_r.o)
 .xc_stack_usage.hdr
                0x00000000        0xe c:/program files/microchip/xc32/v3.01/bin/bin/../../lib/gcc/pic32c/8.3.1/../../../../pic32c/lib/thumb/v7e-m+fp/hard\libc_nano.a(lib_a-strtok_r.o)
 .text          0x00000000        0x0 c:/program files/microchip/xc32/v3.01/bin/bin/../../lib/gcc/pic32c/8.3.1/../../../../pic32c/lib/thumb/v7e-m+fp/hard\libc_nano.a(lib_a-strtol.o)
 .data          0x00000000        0x0 c:/program files/microchip/xc32/v3.01/bin/bin/../../lib/gcc/pic32c/8.3.1/../../../../pic32c/lib/thumb/v7e-m+fp/hard\libc_nano.a(lib_a-strtol.o)
 .bss           0x00000000        0x0 c:/program files/microchip/xc32/v3.01/bin/bin/../../lib/gcc/pic32c/8.3.1/../../../../pic32c/lib/thumb/v7e-m+fp/hard\libc_nano.a(lib_a-strtol.o)
 .xc_stack_usage
                0x00000000       0x5f c:/program files/microchip/xc32/v3.01/bin/bin/../../lib/gcc/pic32c/8.3.1/../../../../pic32c/lib/thumb/v7e-m+fp/hard\libc_nano.a(lib_a-strtol.o)
 .text._strtol_r
                0x00000000        0x4 c:/program files/microchip/xc32/v3.01/bin/bin/../../lib/gcc/pic32c/8.3.1/../../../../pic32c/lib/thumb/v7e-m+fp/hard\libc_nano.a(lib_a-strtol.o)
 .text.strtol_l
                0x00000000       0x14 c:/program files/microchip/xc32/v3.01/bin/bin/../../lib/gcc/pic32c/8.3.1/../../../../pic32c/lib/thumb/v7e-m+fp/hard\libc_nano.a(lib_a-strtol.o)
 .xc_stack_usage.hdr
                0x00000000        0xe c:/program files/microchip/xc32/v3.01/bin/bin/../../lib/gcc/pic32c/8.3.1/../../../../pic32c/lib/thumb/v7e-m+fp/hard\libc_nano.a(lib_a-strtol.o)
 .text          0x00000000        0x0 c:/program files/microchip/xc32/v3.01/bin/bin/../../lib/gcc/pic32c/8.3.1/../../../../pic32c/lib/thumb/v7e-m+fp/hard\libc_nano.a(lib_a-time.o)
 .data          0x00000000        0x0 c:/program files/microchip/xc32/v3.01/bin/bin/../../lib/gcc/pic32c/8.3.1/../../../../pic32c/lib/thumb/v7e-m+fp/hard\libc_nano.a(lib_a-time.o)
 .bss           0x00000000        0x0 c:/program files/microchip/xc32/v3.01/bin/bin/../../lib/gcc/pic32c/8.3.1/../../../../pic32c/lib/thumb/v7e-m+fp/hard\libc_nano.a(lib_a-time.o)
 .xc_stack_usage
                0x00000000       0x12 c:/program files/microchip/xc32/v3.01/bin/bin/../../lib/gcc/pic32c/8.3.1/../../../../pic32c/lib/thumb/v7e-m+fp/hard\libc_nano.a(lib_a-time.o)
 .text.time     0x00000000       0x28 c:/program files/microchip/xc32/v3.01/bin/bin/../../lib/gcc/pic32c/8.3.1/../../../../pic32c/lib/thumb/v7e-m+fp/hard\libc_nano.a(lib_a-time.o)
 .xc_stack_usage.hdr
                0x00000000        0xe c:/program files/microchip/xc32/v3.01/bin/bin/../../lib/gcc/pic32c/8.3.1/../../../../pic32c/lib/thumb/v7e-m+fp/hard\libc_nano.a(lib_a-time.o)
 .comment       0x00000000       0x54 c:/program files/microchip/xc32/v3.01/bin/bin/../../lib/gcc/pic32c/8.3.1/../../../../pic32c/lib/thumb/v7e-m+fp/hard\libc_nano.a(lib_a-time.o)
 .ARM.attributes
                0x00000000       0x34 c:/program files/microchip/xc32/v3.01/bin/bin/../../lib/gcc/pic32c/8.3.1/../../../../pic32c/lib/thumb/v7e-m+fp/hard\libc_nano.a(lib_a-time.o)
 .text          0x00000000        0x0 c:/program files/microchip/xc32/v3.01/bin/bin/../../lib/gcc/pic32c/8.3.1/../../../../pic32c/lib/thumb/v7e-m+fp/hard\libc_nano.a(lib_a-vsnprintf.o)
 .data          0x00000000        0x0 c:/program files/microchip/xc32/v3.01/bin/bin/../../lib/gcc/pic32c/8.3.1/../../../../pic32c/lib/thumb/v7e-m+fp/hard\libc_nano.a(lib_a-vsnprintf.o)
 .bss           0x00000000        0x0 c:/program files/microchip/xc32/v3.01/bin/bin/../../lib/gcc/pic32c/8.3.1/../../../../pic32c/lib/thumb/v7e-m+fp/hard\libc_nano.a(lib_a-vsnprintf.o)
 .xc_stack_usage
                0x00000000       0x31 c:/program files/microchip/xc32/v3.01/bin/bin/../../lib/gcc/pic32c/8.3.1/../../../../pic32c/lib/thumb/v7e-m+fp/hard\libc_nano.a(lib_a-vsnprintf.o)
 .xc_stack_usage.hdr
                0x00000000        0xe c:/program files/microchip/xc32/v3.01/bin/bin/../../lib/gcc/pic32c/8.3.1/../../../../pic32c/lib/thumb/v7e-m+fp/hard\libc_nano.a(lib_a-vsnprintf.o)
 .text          0x00000000        0x0 c:/program files/microchip/xc32/v3.01/bin/bin/../../lib/gcc/pic32c/8.3.1/../../../../pic32c/lib/thumb/v7e-m+fp/hard\libc_nano.a(lib_a-gettimeofdayr.o)
 .data          0x00000000        0x0 c:/program files/microchip/xc32/v3.01/bin/bin/../../lib/gcc/pic32c/8.3.1/../../../../pic32c/lib/thumb/v7e-m+fp/hard\libc_nano.a(lib_a-gettimeofdayr.o)
 .bss           0x00000000        0x0 c:/program files/microchip/xc32/v3.01/bin/bin/../../lib/gcc/pic32c/8.3.1/../../../../pic32c/lib/thumb/v7e-m+fp/hard\libc_nano.a(lib_a-gettimeofdayr.o)
 .xc_stack_usage
                0x00000000       0x1d c:/program files/microchip/xc32/v3.01/bin/bin/../../lib/gcc/pic32c/8.3.1/../../../../pic32c/lib/thumb/v7e-m+fp/hard\libc_nano.a(lib_a-gettimeofdayr.o)
 .text._gettimeofday_r
                0x00000000       0x24 c:/program files/microchip/xc32/v3.01/bin/bin/../../lib/gcc/pic32c/8.3.1/../../../../pic32c/lib/thumb/v7e-m+fp/hard\libc_nano.a(lib_a-gettimeofdayr.o)
 .xc_stack_usage.hdr
                0x00000000        0xe c:/program files/microchip/xc32/v3.01/bin/bin/../../lib/gcc/pic32c/8.3.1/../../../../pic32c/lib/thumb/v7e-m+fp/hard\libc_nano.a(lib_a-gettimeofdayr.o)
 .comment       0x00000000       0x54 c:/program files/microchip/xc32/v3.01/bin/bin/../../lib/gcc/pic32c/8.3.1/../../../../pic32c/lib/thumb/v7e-m+fp/hard\libc_nano.a(lib_a-gettimeofdayr.o)
 .ARM.attributes
                0x00000000       0x34 c:/program files/microchip/xc32/v3.01/bin/bin/../../lib/gcc/pic32c/8.3.1/../../../../pic32c/lib/thumb/v7e-m+fp/hard\libc_nano.a(lib_a-gettimeofdayr.o)
 .text          0x00000000        0x0 c:/program files/microchip/xc32/v3.01/bin/bin/../../lib/gcc/pic32c/8.3.1/../../../../pic32c/lib/thumb/v7e-m+fp/hard\libc_nano.a(lib_a-mlock.o)
 .data          0x00000000        0x0 c:/program files/microchip/xc32/v3.01/bin/bin/../../lib/gcc/pic32c/8.3.1/../../../../pic32c/lib/thumb/v7e-m+fp/hard\libc_nano.a(lib_a-mlock.o)
 .bss           0x00000000        0x0 c:/program files/microchip/xc32/v3.01/bin/bin/../../lib/gcc/pic32c/8.3.1/../../../../pic32c/lib/thumb/v7e-m+fp/hard\libc_nano.a(lib_a-mlock.o)
 .xc_stack_usage
                0x00000000       0x38 c:/program files/microchip/xc32/v3.01/bin/bin/../../lib/gcc/pic32c/8.3.1/../../../../pic32c/lib/thumb/v7e-m+fp/hard\libc_nano.a(lib_a-mlock.o)
 .xc_stack_usage.hdr
                0x00000000        0xe c:/program files/microchip/xc32/v3.01/bin/bin/../../lib/gcc/pic32c/8.3.1/../../../../pic32c/lib/thumb/v7e-m+fp/hard\libc_nano.a(lib_a-mlock.o)
 .text          0x00000000        0x0 c:/program files/microchip/xc32/v3.01/bin/bin/../../lib/gcc/pic32c/8.3.1/../../../../pic32c/lib/thumb/v7e-m+fp/hard\libc_nano.a(lib_a-nano-svfprintf.o)
 .data          0x00000000        0x0 c:/program files/microchip/xc32/v3.01/bin/bin/../../lib/gcc/pic32c/8.3.1/../../../../pic32c/lib/thumb/v7e-m+fp/hard\libc_nano.a(lib_a-nano-svfprintf.o)
 .bss           0x00000000        0x0 c:/program files/microchip/xc32/v3.01/bin/bin/../../lib/gcc/pic32c/8.3.1/../../../../pic32c/lib/thumb/v7e-m+fp/hard\libc_nano.a(lib_a-nano-svfprintf.o)
 .xc_stack_usage
                0x00000000       0x1a c:/program files/microchip/xc32/v3.01/bin/bin/../../lib/gcc/pic32c/8.3.1/../../../../pic32c/lib/thumb/v7e-m+fp/hard\libc_nano.a(lib_a-nano-svfprintf.o)
 .xc_stack_usage.hdr
                0x00000000        0xe c:/program files/microchip/xc32/v3.01/bin/bin/../../lib/gcc/pic32c/8.3.1/../../../../pic32c/lib/thumb/v7e-m+fp/hard\libc_nano.a(lib_a-nano-svfprintf.o)
 .text          0x00000000        0x0 c:/program files/microchip/xc32/v3.01/bin/bin/../../lib/gcc/pic32c/8.3.1/../../../../pic32c/lib/thumb/v7e-m+fp/hard\libc_nano.a(lib_a-nano-vfprintf_float.o)
 .data          0x00000000        0x0 c:/program files/microchip/xc32/v3.01/bin/bin/../../lib/gcc/pic32c/8.3.1/../../../../pic32c/lib/thumb/v7e-m+fp/hard\libc_nano.a(lib_a-nano-vfprintf_float.o)
 .bss           0x00000000        0x0 c:/program files/microchip/xc32/v3.01/bin/bin/../../lib/gcc/pic32c/8.3.1/../../../../pic32c/lib/thumb/v7e-m+fp/hard\libc_nano.a(lib_a-nano-vfprintf_float.o)
 .xc_stack_usage
                0x00000000       0x1b c:/program files/microchip/xc32/v3.01/bin/bin/../../lib/gcc/pic32c/8.3.1/../../../../pic32c/lib/thumb/v7e-m+fp/hard\libc_nano.a(lib_a-nano-vfprintf_float.o)
 .xc_stack_usage.hdr
                0x00000000        0xe c:/program files/microchip/xc32/v3.01/bin/bin/../../lib/gcc/pic32c/8.3.1/../../../../pic32c/lib/thumb/v7e-m+fp/hard\libc_nano.a(lib_a-nano-vfprintf_float.o)
 .text          0x00000000        0x0 c:/program files/microchip/xc32/v3.01/bin/bin/../../lib/gcc/pic32c/8.3.1/../../../../pic32c/lib/thumb/v7e-m+fp/hard\libc_nano.a(lib_a-nano-vfprintf_i.o)
 .data          0x00000000        0x0 c:/program files/microchip/xc32/v3.01/bin/bin/../../lib/gcc/pic32c/8.3.1/../../../../pic32c/lib/thumb/v7e-m+fp/hard\libc_nano.a(lib_a-nano-vfprintf_i.o)
 .bss           0x00000000        0x0 c:/program files/microchip/xc32/v3.01/bin/bin/../../lib/gcc/pic32c/8.3.1/../../../../pic32c/lib/thumb/v7e-m+fp/hard\libc_nano.a(lib_a-nano-vfprintf_i.o)
 .xc_stack_usage
                0x00000000       0x33 c:/program files/microchip/xc32/v3.01/bin/bin/../../lib/gcc/pic32c/8.3.1/../../../../pic32c/lib/thumb/v7e-m+fp/hard\libc_nano.a(lib_a-nano-vfprintf_i.o)
 .xc_stack_usage.hdr
                0x00000000        0xe c:/program files/microchip/xc32/v3.01/bin/bin/../../lib/gcc/pic32c/8.3.1/../../../../pic32c/lib/thumb/v7e-m+fp/hard\libc_nano.a(lib_a-nano-vfprintf_i.o)
 .text          0x00000000        0x0 c:/program files/microchip/xc32/v3.01/bin/bin/../../lib/gcc/pic32c/8.3.1/../../../../pic32c/lib/thumb/v7e-m+fp/hard\libc_nano.a(lib_a-reent.o)
 .data          0x00000000        0x0 c:/program files/microchip/xc32/v3.01/bin/bin/../../lib/gcc/pic32c/8.3.1/../../../../pic32c/lib/thumb/v7e-m+fp/hard\libc_nano.a(lib_a-reent.o)
 .bss           0x00000000        0x0 c:/program files/microchip/xc32/v3.01/bin/bin/../../lib/gcc/pic32c/8.3.1/../../../../pic32c/lib/thumb/v7e-m+fp/hard\libc_nano.a(lib_a-reent.o)
 .xc_stack_usage
                0x00000000       0x36 c:/program files/microchip/xc32/v3.01/bin/bin/../../lib/gcc/pic32c/8.3.1/../../../../pic32c/lib/thumb/v7e-m+fp/hard\libc_nano.a(lib_a-reent.o)
 .text.cleanup_glue
                0x00000000       0x1a c:/program files/microchip/xc32/v3.01/bin/bin/../../lib/gcc/pic32c/8.3.1/../../../../pic32c/lib/thumb/v7e-m+fp/hard\libc_nano.a(lib_a-reent.o)
 .text._reclaim_reent
                0x00000000       0xb8 c:/program files/microchip/xc32/v3.01/bin/bin/../../lib/gcc/pic32c/8.3.1/../../../../pic32c/lib/thumb/v7e-m+fp/hard\libc_nano.a(lib_a-reent.o)
 .xc_stack_usage.hdr
                0x00000000        0xe c:/program files/microchip/xc32/v3.01/bin/bin/../../lib/gcc/pic32c/8.3.1/../../../../pic32c/lib/thumb/v7e-m+fp/hard\libc_nano.a(lib_a-reent.o)
 .text          0x00000000        0x0 c:/program files/microchip/xc32/v3.01/bin/bin/../../lib/gcc/pic32c/8.3.1/../../../../pic32c/lib/thumb/v7e-m+fp/hard\libc_nano.a(lib_a-__ssputs.o)
 .data          0x00000000        0x0 c:/program files/microchip/xc32/v3.01/bin/bin/../../lib/gcc/pic32c/8.3.1/../../../../pic32c/lib/thumb/v7e-m+fp/hard\libc_nano.a(lib_a-__ssputs.o)
 .bss           0x00000000        0x0 c:/program files/microchip/xc32/v3.01/bin/bin/../../lib/gcc/pic32c/8.3.1/../../../../pic32c/lib/thumb/v7e-m+fp/hard\libc_nano.a(lib_a-__ssputs.o)
 .xc_stack_usage
                0x00000000       0x18 c:/program files/microchip/xc32/v3.01/bin/bin/../../lib/gcc/pic32c/8.3.1/../../../../pic32c/lib/thumb/v7e-m+fp/hard\libc_nano.a(lib_a-__ssputs.o)
 .xc_stack_usage.hdr
                0x00000000        0xe c:/program files/microchip/xc32/v3.01/bin/bin/../../lib/gcc/pic32c/8.3.1/../../../../pic32c/lib/thumb/v7e-m+fp/hard\libc_nano.a(lib_a-__ssputs.o)
 .text          0x00000000        0x0 c:/program files/microchip/xc32/v3.01/bin/bin/../../lib/gcc/pic32c/8.3.1/../../../../pic32c/lib/thumb/v7e-m+fp/hard\libc_nano.a(lib_a-dtoa.o)
 .data          0x00000000        0x0 c:/program files/microchip/xc32/v3.01/bin/bin/../../lib/gcc/pic32c/8.3.1/../../../../pic32c/lib/thumb/v7e-m+fp/hard\libc_nano.a(lib_a-dtoa.o)
 .bss           0x00000000        0x0 c:/program files/microchip/xc32/v3.01/bin/bin/../../lib/gcc/pic32c/8.3.1/../../../../pic32c/lib/thumb/v7e-m+fp/hard\libc_nano.a(lib_a-dtoa.o)
 .xc_stack_usage
                0x00000000       0x29 c:/program files/microchip/xc32/v3.01/bin/bin/../../lib/gcc/pic32c/8.3.1/../../../../pic32c/lib/thumb/v7e-m+fp/hard\libc_nano.a(lib_a-dtoa.o)
 .xc_stack_usage.hdr
                0x00000000        0xe c:/program files/microchip/xc32/v3.01/bin/bin/../../lib/gcc/pic32c/8.3.1/../../../../pic32c/lib/thumb/v7e-m+fp/hard\libc_nano.a(lib_a-dtoa.o)
 .text          0x00000000        0x0 c:/program files/microchip/xc32/v3.01/bin/bin/../../lib/gcc/pic32c/8.3.1/../../../../pic32c/lib/thumb/v7e-m+fp/hard\libc_nano.a(lib_a-localeconv.o)
 .data          0x00000000        0x0 c:/program files/microchip/xc32/v3.01/bin/bin/../../lib/gcc/pic32c/8.3.1/../../../../pic32c/lib/thumb/v7e-m+fp/hard\libc_nano.a(lib_a-localeconv.o)
 .bss           0x00000000        0x0 c:/program files/microchip/xc32/v3.01/bin/bin/../../lib/gcc/pic32c/8.3.1/../../../../pic32c/lib/thumb/v7e-m+fp/hard\libc_nano.a(lib_a-localeconv.o)
 .xc_stack_usage
                0x00000000       0x4f c:/program files/microchip/xc32/v3.01/bin/bin/../../lib/gcc/pic32c/8.3.1/../../../../pic32c/lib/thumb/v7e-m+fp/hard\libc_nano.a(lib_a-localeconv.o)
 .text.__localeconv_l
                0x00000000        0x4 c:/program files/microchip/xc32/v3.01/bin/bin/../../lib/gcc/pic32c/8.3.1/../../../../pic32c/lib/thumb/v7e-m+fp/hard\libc_nano.a(lib_a-localeconv.o)
 .text.localeconv
                0x00000000        0x8 c:/program files/microchip/xc32/v3.01/bin/bin/../../lib/gcc/pic32c/8.3.1/../../../../pic32c/lib/thumb/v7e-m+fp/hard\libc_nano.a(lib_a-localeconv.o)
 .xc_stack_usage.hdr
                0x00000000        0xe c:/program files/microchip/xc32/v3.01/bin/bin/../../lib/gcc/pic32c/8.3.1/../../../../pic32c/lib/thumb/v7e-m+fp/hard\libc_nano.a(lib_a-localeconv.o)
 .data          0x00000000        0x0 c:/program files/microchip/xc32/v3.01/bin/bin/../../lib/gcc/pic32c/8.3.1/../../../../pic32c/lib/thumb/v7e-m+fp/hard\libc_nano.a(lib_a-memchr.o)
 .bss           0x00000000        0x0 c:/program files/microchip/xc32/v3.01/bin/bin/../../lib/gcc/pic32c/8.3.1/../../../../pic32c/lib/thumb/v7e-m+fp/hard\libc_nano.a(lib_a-memchr.o)
 .xc_stack_usage.hdr
                0x00000000        0xe c:/program files/microchip/xc32/v3.01/bin/bin/../../lib/gcc/pic32c/8.3.1/../../../../pic32c/lib/thumb/v7e-m+fp/hard\libc_nano.a(lib_a-memchr.o)
 .xc_stack_usage
                0x00000000       0x14 c:/program files/microchip/xc32/v3.01/bin/bin/../../lib/gcc/pic32c/8.3.1/../../../../pic32c/lib/thumb/v7e-m+fp/hard\libc_nano.a(lib_a-memchr.o)
 .text          0x00000000        0x0 c:/program files/microchip/xc32/v3.01/bin/bin/../../lib/gcc/pic32c/8.3.1/../../../../pic32c/lib/thumb/v7e-m+fp/hard\libc_nano.a(lib_a-mprec.o)
 .data          0x00000000        0x0 c:/program files/microchip/xc32/v3.01/bin/bin/../../lib/gcc/pic32c/8.3.1/../../../../pic32c/lib/thumb/v7e-m+fp/hard\libc_nano.a(lib_a-mprec.o)
 .bss           0x00000000        0x0 c:/program files/microchip/xc32/v3.01/bin/bin/../../lib/gcc/pic32c/8.3.1/../../../../pic32c/lib/thumb/v7e-m+fp/hard\libc_nano.a(lib_a-mprec.o)
 .xc_stack_usage
                0x00000000      0x199 c:/program files/microchip/xc32/v3.01/bin/bin/../../lib/gcc/pic32c/8.3.1/../../../../pic32c/lib/thumb/v7e-m+fp/hard\libc_nano.a(lib_a-mprec.o)
 .text.__s2b    0x00000000       0x7c c:/program files/microchip/xc32/v3.01/bin/bin/../../lib/gcc/pic32c/8.3.1/../../../../pic32c/lib/thumb/v7e-m+fp/hard\libc_nano.a(lib_a-mprec.o)
 .text.__ulp    0x00000000       0x4c c:/program files/microchip/xc32/v3.01/bin/bin/../../lib/gcc/pic32c/8.3.1/../../../../pic32c/lib/thumb/v7e-m+fp/hard\libc_nano.a(lib_a-mprec.o)
 .text.__b2d    0x00000000       0xa0 c:/program files/microchip/xc32/v3.01/bin/bin/../../lib/gcc/pic32c/8.3.1/../../../../pic32c/lib/thumb/v7e-m+fp/hard\libc_nano.a(lib_a-mprec.o)
 .text.__ratio  0x00000000       0x62 c:/program files/microchip/xc32/v3.01/bin/bin/../../lib/gcc/pic32c/8.3.1/../../../../pic32c/lib/thumb/v7e-m+fp/hard\libc_nano.a(lib_a-mprec.o)
 .text._mprec_log10
                0x00000000       0x3c c:/program files/microchip/xc32/v3.01/bin/bin/../../lib/gcc/pic32c/8.3.1/../../../../pic32c/lib/thumb/v7e-m+fp/hard\libc_nano.a(lib_a-mprec.o)
 .text.__copybits
                0x00000000       0x34 c:/program files/microchip/xc32/v3.01/bin/bin/../../lib/gcc/pic32c/8.3.1/../../../../pic32c/lib/thumb/v7e-m+fp/hard\libc_nano.a(lib_a-mprec.o)
 .text.__any_on
                0x00000000       0x42 c:/program files/microchip/xc32/v3.01/bin/bin/../../lib/gcc/pic32c/8.3.1/../../../../pic32c/lib/thumb/v7e-m+fp/hard\libc_nano.a(lib_a-mprec.o)
 .rodata.__mprec_tinytens
                0x00000000       0x28 c:/program files/microchip/xc32/v3.01/bin/bin/../../lib/gcc/pic32c/8.3.1/../../../../pic32c/lib/thumb/v7e-m+fp/hard\libc_nano.a(lib_a-mprec.o)
 .xc_stack_usage.hdr
                0x00000000        0xe c:/program files/microchip/xc32/v3.01/bin/bin/../../lib/gcc/pic32c/8.3.1/../../../../pic32c/lib/thumb/v7e-m+fp/hard\libc_nano.a(lib_a-mprec.o)
 .text          0x00000000        0x0 c:/program files/microchip/xc32/v3.01/bin/bin/../../lib/gcc/pic32c/8.3.1/../../../../pic32c/lib/thumb/v7e-m+fp/hard\libc_nano.a(lib_a-nano-reallocr.o)
 .data          0x00000000        0x0 c:/program files/microchip/xc32/v3.01/bin/bin/../../lib/gcc/pic32c/8.3.1/../../../../pic32c/lib/thumb/v7e-m+fp/hard\libc_nano.a(lib_a-nano-reallocr.o)
 .bss           0x00000000        0x0 c:/program files/microchip/xc32/v3.01/bin/bin/../../lib/gcc/pic32c/8.3.1/../../../../pic32c/lib/thumb/v7e-m+fp/hard\libc_nano.a(lib_a-nano-reallocr.o)
 .xc_stack_usage
                0x00000000       0x18 c:/program files/microchip/xc32/v3.01/bin/bin/../../lib/gcc/pic32c/8.3.1/../../../../pic32c/lib/thumb/v7e-m+fp/hard\libc_nano.a(lib_a-nano-reallocr.o)
 .xc_stack_usage.hdr
                0x00000000        0xe c:/program files/microchip/xc32/v3.01/bin/bin/../../lib/gcc/pic32c/8.3.1/../../../../pic32c/lib/thumb/v7e-m+fp/hard\libc_nano.a(lib_a-nano-reallocr.o)
 .text          0x00000000        0x0 c:/program files/microchip/xc32/v3.01/bin/bin/../../lib/gcc/pic32c/8.3.1/../../../../pic32c/lib/thumb/v7e-m+fp/hard\libc_nano.a(lib_a-locale.o)
 .data          0x00000000        0x0 c:/program files/microchip/xc32/v3.01/bin/bin/../../lib/gcc/pic32c/8.3.1/../../../../pic32c/lib/thumb/v7e-m+fp/hard\libc_nano.a(lib_a-locale.o)
 .bss           0x00000000        0x0 c:/program files/microchip/xc32/v3.01/bin/bin/../../lib/gcc/pic32c/8.3.1/../../../../pic32c/lib/thumb/v7e-m+fp/hard\libc_nano.a(lib_a-locale.o)
 .xc_stack_usage
                0x00000000       0x52 c:/program files/microchip/xc32/v3.01/bin/bin/../../lib/gcc/pic32c/8.3.1/../../../../pic32c/lib/thumb/v7e-m+fp/hard\libc_nano.a(lib_a-locale.o)
 .text._setlocale_r
                0x00000000       0x40 c:/program files/microchip/xc32/v3.01/bin/bin/../../lib/gcc/pic32c/8.3.1/../../../../pic32c/lib/thumb/v7e-m+fp/hard\libc_nano.a(lib_a-locale.o)
 .text.__locale_mb_cur_max
                0x00000000        0xc c:/program files/microchip/xc32/v3.01/bin/bin/../../lib/gcc/pic32c/8.3.1/../../../../pic32c/lib/thumb/v7e-m+fp/hard\libc_nano.a(lib_a-locale.o)
 .text.setlocale
                0x00000000       0x10 c:/program files/microchip/xc32/v3.01/bin/bin/../../lib/gcc/pic32c/8.3.1/../../../../pic32c/lib/thumb/v7e-m+fp/hard\libc_nano.a(lib_a-locale.o)
 .bss._PathLocale
                0x00000000        0x4 c:/program files/microchip/xc32/v3.01/bin/bin/../../lib/gcc/pic32c/8.3.1/../../../../pic32c/lib/thumb/v7e-m+fp/hard\libc_nano.a(lib_a-locale.o)
 .xc_stack_usage.hdr
                0x00000000        0xe c:/program files/microchip/xc32/v3.01/bin/bin/../../lib/gcc/pic32c/8.3.1/../../../../pic32c/lib/thumb/v7e-m+fp/hard\libc_nano.a(lib_a-locale.o)
 .text          0x00000000        0x0 c:/program files/microchip/xc32/v3.01/bin/bin/../../lib/gcc/pic32c/8.3.1/../../../../pic32c/lib/thumb/v7e-m+fp/hard\libc_nano.a(lib_a-mbtowc_r.o)
 .data          0x00000000        0x0 c:/program files/microchip/xc32/v3.01/bin/bin/../../lib/gcc/pic32c/8.3.1/../../../../pic32c/lib/thumb/v7e-m+fp/hard\libc_nano.a(lib_a-mbtowc_r.o)
 .bss           0x00000000        0x0 c:/program files/microchip/xc32/v3.01/bin/bin/../../lib/gcc/pic32c/8.3.1/../../../../pic32c/lib/thumb/v7e-m+fp/hard\libc_nano.a(lib_a-mbtowc_r.o)
 .xc_stack_usage
                0x00000000       0x33 c:/program files/microchip/xc32/v3.01/bin/bin/../../lib/gcc/pic32c/8.3.1/../../../../pic32c/lib/thumb/v7e-m+fp/hard\libc_nano.a(lib_a-mbtowc_r.o)
 .text._mbtowc_r
                0x00000000       0x14 c:/program files/microchip/xc32/v3.01/bin/bin/../../lib/gcc/pic32c/8.3.1/../../../../pic32c/lib/thumb/v7e-m+fp/hard\libc_nano.a(lib_a-mbtowc_r.o)
 .xc_stack_usage.hdr
                0x00000000        0xe c:/program files/microchip/xc32/v3.01/bin/bin/../../lib/gcc/pic32c/8.3.1/../../../../pic32c/lib/thumb/v7e-m+fp/hard\libc_nano.a(lib_a-mbtowc_r.o)
 .text          0x00000000        0x0 c:/program files/microchip/xc32/v3.01/bin/bin/../../lib/gcc/pic32c/8.3.1/../../../../pic32c/lib/thumb/v7e-m+fp/hard\libc_nano.a(lib_a-nano-msizer.o)
 .data          0x00000000        0x0 c:/program files/microchip/xc32/v3.01/bin/bin/../../lib/gcc/pic32c/8.3.1/../../../../pic32c/lib/thumb/v7e-m+fp/hard\libc_nano.a(lib_a-nano-msizer.o)
 .bss           0x00000000        0x0 c:/program files/microchip/xc32/v3.01/bin/bin/../../lib/gcc/pic32c/8.3.1/../../../../pic32c/lib/thumb/v7e-m+fp/hard\libc_nano.a(lib_a-nano-msizer.o)
 .xc_stack_usage
                0x00000000       0x23 c:/program files/microchip/xc32/v3.01/bin/bin/../../lib/gcc/pic32c/8.3.1/../../../../pic32c/lib/thumb/v7e-m+fp/hard\libc_nano.a(lib_a-nano-msizer.o)
 .xc_stack_usage.hdr
                0x00000000        0xe c:/program files/microchip/xc32/v3.01/bin/bin/../../lib/gcc/pic32c/8.3.1/../../../../pic32c/lib/thumb/v7e-m+fp/hard\libc_nano.a(lib_a-nano-msizer.o)
 .text          0x00000000        0x0 c:/program files/microchip/xc32/v3.01/bin/bin/../../lib/gcc/pic32c/8.3.1/../../../../pic32c/lib/thumb/v7e-m+fp/hard\libc_nano.a(lib_a-wctomb_r.o)
 .data          0x00000000        0x0 c:/program files/microchip/xc32/v3.01/bin/bin/../../lib/gcc/pic32c/8.3.1/../../../../pic32c/lib/thumb/v7e-m+fp/hard\libc_nano.a(lib_a-wctomb_r.o)
 .bss           0x00000000        0x0 c:/program files/microchip/xc32/v3.01/bin/bin/../../lib/gcc/pic32c/8.3.1/../../../../pic32c/lib/thumb/v7e-m+fp/hard\libc_nano.a(lib_a-wctomb_r.o)
 .xc_stack_usage
                0x00000000       0x33 c:/program files/microchip/xc32/v3.01/bin/bin/../../lib/gcc/pic32c/8.3.1/../../../../pic32c/lib/thumb/v7e-m+fp/hard\libc_nano.a(lib_a-wctomb_r.o)
 .text._wctomb_r
                0x00000000       0x14 c:/program files/microchip/xc32/v3.01/bin/bin/../../lib/gcc/pic32c/8.3.1/../../../../pic32c/lib/thumb/v7e-m+fp/hard\libc_nano.a(lib_a-wctomb_r.o)
 .xc_stack_usage.hdr
                0x00000000        0xe c:/program files/microchip/xc32/v3.01/bin/bin/../../lib/gcc/pic32c/8.3.1/../../../../pic32c/lib/thumb/v7e-m+fp/hard\libc_nano.a(lib_a-wctomb_r.o)
 .text          0x00000000        0x0 c:/program files/microchip/xc32/v3.01/bin/bin/../../lib/gcc/pic32c/8.3.1/../../../../pic32c/lib/thumb/v7e-m+fp/hard\libpic32c.a(sbrk.o)
 .data          0x00000000        0x0 c:/program files/microchip/xc32/v3.01/bin/bin/../../lib/gcc/pic32c/8.3.1/../../../../pic32c/lib/thumb/v7e-m+fp/hard\libpic32c.a(sbrk.o)
 .xc_stack_usage
                0x00000000       0x13 c:/program files/microchip/xc32/v3.01/bin/bin/../../lib/gcc/pic32c/8.3.1/../../../../pic32c/lib/thumb/v7e-m+fp/hard\libpic32c.a(sbrk.o)
 .xc_stack_usage.hdr
                0x00000000        0xe c:/program files/microchip/xc32/v3.01/bin/bin/../../lib/gcc/pic32c/8.3.1/../../../../pic32c/lib/thumb/v7e-m+fp/hard\libpic32c.a(sbrk.o)
 .data          0x00000000        0x0 c:/program files/microchip/xc32/v3.01/bin/bin/../../lib/gcc/pic32c/8.3.1/thumb/v7e-m+fp/hard\libgcc.a(_arm_unorddf2.o)
 .bss           0x00000000        0x0 c:/program files/microchip/xc32/v3.01/bin/bin/../../lib/gcc/pic32c/8.3.1/thumb/v7e-m+fp/hard\libgcc.a(_arm_unorddf2.o)
 .xc_stack_usage.hdr
                0x00000000        0xe c:/program files/microchip/xc32/v3.01/bin/bin/../../lib/gcc/pic32c/8.3.1/thumb/v7e-m+fp/hard\libgcc.a(_arm_unorddf2.o)
 .xc_stack_usage
                0x00000000       0x18 c:/program files/microchip/xc32/v3.01/bin/bin/../../lib/gcc/pic32c/8.3.1/thumb/v7e-m+fp/hard\libgcc.a(_arm_unorddf2.o)
 .data          0x00000000        0x0 c:/program files/microchip/xc32/v3.01/bin/bin/../../lib/gcc/pic32c/8.3.1/thumb/v7e-m+fp/hard\libgcc.a(_arm_fixdfsi.o)
 .bss           0x00000000        0x0 c:/program files/microchip/xc32/v3.01/bin/bin/../../lib/gcc/pic32c/8.3.1/thumb/v7e-m+fp/hard\libgcc.a(_arm_fixdfsi.o)
 .xc_stack_usage.hdr
                0x00000000        0xe c:/program files/microchip/xc32/v3.01/bin/bin/../../lib/gcc/pic32c/8.3.1/thumb/v7e-m+fp/hard\libgcc.a(_arm_fixdfsi.o)
 .xc_stack_usage
                0x00000000       0x17 c:/program files/microchip/xc32/v3.01/bin/bin/../../lib/gcc/pic32c/8.3.1/thumb/v7e-m+fp/hard\libgcc.a(_arm_fixdfsi.o)
 .text          0x00000000        0x0 c:/program files/microchip/xc32/v3.01/bin/bin/../../lib/gcc/pic32c/8.3.1/thumb/v7e-m+fp/hard/crtend.o
 .data          0x00000000        0x0 c:/program files/microchip/xc32/v3.01/bin/bin/../../lib/gcc/pic32c/8.3.1/thumb/v7e-m+fp/hard/crtend.o
 .bss           0x00000000        0x0 c:/program files/microchip/xc32/v3.01/bin/bin/../../lib/gcc/pic32c/8.3.1/thumb/v7e-m+fp/hard/crtend.o
 .eh_frame      0x00000000        0x4 c:/program files/microchip/xc32/v3.01/bin/bin/../../lib/gcc/pic32c/8.3.1/thumb/v7e-m+fp/hard/crtend.o
 .xc_stack_usage.hdr
                0x00000000        0xe c:/program files/microchip/xc32/v3.01/bin/bin/../../lib/gcc/pic32c/8.3.1/thumb/v7e-m+fp/hard/crtend.o
 .comment       0x00000000       0x54 c:/program files/microchip/xc32/v3.01/bin/bin/../../lib/gcc/pic32c/8.3.1/thumb/v7e-m+fp/hard/crtend.o
 .ARM.attributes
                0x00000000       0x32 c:/program files/microchip/xc32/v3.01/bin/bin/../../lib/gcc/pic32c/8.3.1/thumb/v7e-m+fp/hard/crtend.o
 .text          0x00000000        0x0 c:/program files/microchip/xc32/v3.01/bin/bin/../../lib/gcc/pic32c/8.3.1/thumb/v7e-m+fp/hard/crtn.o
 .data          0x00000000        0x0 c:/program files/microchip/xc32/v3.01/bin/bin/../../lib/gcc/pic32c/8.3.1/thumb/v7e-m+fp/hard/crtn.o
 .bss           0x00000000        0x0 c:/program files/microchip/xc32/v3.01/bin/bin/../../lib/gcc/pic32c/8.3.1/thumb/v7e-m+fp/hard/crtn.o
 .xc_stack_usage.hdr
                0x00000000        0xe c:/program files/microchip/xc32/v3.01/bin/bin/../../lib/gcc/pic32c/8.3.1/thumb/v7e-m+fp/hard/crtn.o

Memory Configuration

Name             Origin             Length             Attributes
rom              0x00000000         0x00100000         xrl
ram              0x20000000         0x00040000         xw !r
tcm              0x03000000         0x00000000         xw
bkupram          0x47000000         0x00002000
config_00804000  0x00804000         0x00000004
config_00804008  0x00804008         0x00000004
config_00804004  0x00804004         0x00000004
*default*        0x00000000         0xffffffff

Linker script and memory map

LOAD c:/program files/microchip/xc32/v3.01/bin/bin/../../lib/gcc/pic32c/8.3.1/thumb/v7e-m+fp/hard/crti.o
LOAD c:/program files/microchip/xc32/v3.01/bin/bin/../../lib/gcc/pic32c/8.3.1/thumb/v7e-m+fp/hard/crtbegin.o
LOAD build/default/production/_ext/1645245335/crypto.o
LOAD build/default/production/_ext/444070925/drv_ethphy.o
LOAD build/default/production/_ext/444070925/drv_extphy_ksz8081.o
LOAD build/default/production/_ext/1546807373/drv_gmac.o
LOAD build/default/production/_ext/1546807373/drv_gmac_lib_samE5x.o
LOAD build/default/production/_ext/992804092/drv_memory.o
LOAD build/default/production/_ext/992804092/drv_memory_file_system.o
LOAD build/default/production/_ext/992804092/drv_memory_nvmctrl.o
LOAD build/default/production/_ext/438849557/drv_miim.o
LOAD build/default/production/_ext/1751889202/sys_fs_shell.o
LOAD build/default/production/_ext/1033058136/helpers.o
LOAD build/default/production/_ext/1033058136/snmp.o
LOAD build/default/production/_ext/1033058136/icmp.o
LOAD build/default/production/_ext/1033058136/tcp.o
LOAD build/default/production/_ext/1033058136/arp.o
LOAD build/default/production/_ext/1033058136/tcpip_commands.o
LOAD build/default/production/_ext/1033058136/http.o
LOAD build/default/production/_ext/1033058136/iperf.o
LOAD build/default/production/_ext/1033058136/ipv4.o
LOAD build/default/production/_ext/1033058136/tcpip_heap_alloc.o
LOAD build/default/production/_ext/1033058136/tcpip_heap_internal.o
LOAD build/default/production/_ext/1033058136/dhcp.o
LOAD build/default/production/_ext/1033058136/dns.o
LOAD build/default/production/_ext/1033058136/hash_fnv.o
LOAD build/default/production/_ext/1033058136/oahash.o
LOAD build/default/production/_ext/1033058136/tcpip_helpers.o
LOAD build/default/production/_ext/1033058136/tcpip_manager.o
LOAD build/default/production/_ext/1033058136/tcpip_notify.o
LOAD build/default/production/_ext/1033058136/tcpip_packet.o
LOAD build/default/production/_ext/1033058136/udp.o
LOAD build/default/production/_ext/1529399856/osal_freertos.o
LOAD build/default/production/_ext/1984496892/plib_clock.o
LOAD build/default/production/_ext/1865131932/plib_cmcc.o
LOAD build/default/production/_ext/1986646378/plib_evsys.o
LOAD build/default/production/_ext/1865468468/plib_nvic.o
LOAD build/default/production/_ext/1593096446/plib_nvmctrl.o
LOAD build/default/production/_ext/1865521619/plib_port.o
LOAD build/default/production/_ext/504274921/plib_sercom1_usart.o
LOAD build/default/production/_ext/829342655/plib_tc0.o
LOAD build/default/production/_ext/163028504/xc32_monitor.o
LOAD build/default/production/_ext/1014039709/sys_cache.o
LOAD build/default/production/_ext/1376093119/sys_command.o
LOAD build/default/production/_ext/1832805299/sys_console_uart.o
LOAD build/default/production/_ext/1832805299/sys_console.o
LOAD build/default/production/_ext/944882569/sys_debug.o
LOAD build/default/production/_ext/699575981/mpfs.o
LOAD build/default/production/_ext/1269487135/sys_fs.o
LOAD build/default/production/_ext/1269487135/sys_fs_media_manager.o
LOAD build/default/production/_ext/1881668453/sys_int.o
LOAD build/default/production/_ext/1000052432/sys_reset.o
LOAD build/default/production/_ext/101884895/sys_time.o
LOAD build/default/production/_ext/753841488/sys_time_h2_adapter.o
LOAD build/default/production/_ext/753841488/sys_random_h2_adapter.o
LOAD build/default/production/_ext/1171490990/initialization.o
LOAD build/default/production/_ext/1171490990/interrupts.o
LOAD build/default/production/_ext/1171490990/exceptions.o
LOAD build/default/production/_ext/1171490990/startup_xc32.o
LOAD build/default/production/_ext/1171490990/libc_syscalls.o
LOAD build/default/production/_ext/1171490990/tasks.o
LOAD build/default/production/_ext/1171490990/freertos_hooks.o
LOAD build/default/production/_ext/246609638/port.o
LOAD build/default/production/_ext/1665200909/heap_1.o
LOAD build/default/production/_ext/404212886/croutine.o
LOAD build/default/production/_ext/404212886/list.o
LOAD build/default/production/_ext/404212886/queue.o
LOAD build/default/production/_ext/404212886/FreeRTOS_tasks.o
LOAD build/default/production/_ext/404212886/timers.o
LOAD build/default/production/_ext/404212886/event_groups.o
LOAD build/default/production/_ext/404212886/stream_buffer.o
LOAD build/default/production/_ext/172253694/pic32mz-crypt.o
LOAD build/default/production/_ext/172253694/crypt_aes_sam6149.o
LOAD build/default/production/_ext/172253694/crypt_aes_u2238.o
LOAD build/default/production/_ext/172253694/crypt_ecc_ba414e.o
LOAD build/default/production/_ext/172253694/crypt_ecc_pukcl.o
LOAD build/default/production/_ext/172253694/crypt_pukcl_functions.o
LOAD build/default/production/_ext/172253694/crypt_rng_sam6334.o
LOAD build/default/production/_ext/172253694/crypt_rng_u2242.o
LOAD build/default/production/_ext/172253694/crypt_rsa_pukcl.o
LOAD build/default/production/_ext/172253694/crypt_sam_u2803.o
LOAD build/default/production/_ext/172253694/crypt_sha1_sam11105.o
LOAD build/default/production/_ext/172253694/crypt_sha1_sam6156.o
LOAD build/default/production/_ext/172253694/crypt_sha224_sam11105.o
LOAD build/default/production/_ext/172253694/crypt_sha224_sam6156.o
LOAD build/default/production/_ext/172253694/crypt_sha256_sam11105.o
LOAD build/default/production/_ext/172253694/crypt_sha256_sam6156.o
LOAD build/default/production/_ext/172253694/crypt_sha384_sam6156.o
LOAD build/default/production/_ext/172253694/crypt_sha512_sam6156.o
LOAD build/default/production/_ext/172253694/crypt_tdes_sam6150.o
LOAD build/default/production/_ext/172253694/crypt_wolfcryptcb.o
LOAD build/default/production/_ext/1664057780/arc4.o
LOAD build/default/production/_ext/1664057780/asm.o
LOAD build/default/production/_ext/1664057780/asn.o
LOAD build/default/production/_ext/1664057780/blake2b.o
LOAD build/default/production/_ext/1664057780/blake2s.o
LOAD build/default/production/_ext/1664057780/camellia.o
LOAD build/default/production/_ext/1664057780/chacha.o
LOAD build/default/production/_ext/1664057780/chacha20_poly1305.o
LOAD build/default/production/_ext/1664057780/cmac.o
LOAD build/default/production/_ext/1664057780/coding.o
LOAD build/default/production/_ext/1664057780/compress.o
LOAD build/default/production/_ext/1664057780/cpuid.o
LOAD build/default/production/_ext/1664057780/cryptocb.o
LOAD build/default/production/_ext/1664057780/curve25519.o
LOAD build/default/production/_ext/1664057780/curve448.o
LOAD build/default/production/_ext/1664057780/dh.o
LOAD build/default/production/_ext/1664057780/dsa.o
LOAD build/default/production/_ext/1664057780/ecc_fp.o
LOAD build/default/production/_ext/1664057780/ed25519.o
LOAD build/default/production/_ext/1664057780/ed448.o
LOAD build/default/production/_ext/1664057780/error.o
LOAD build/default/production/_ext/1664057780/fe_448.o
LOAD build/default/production/_ext/1664057780/fe_low_mem.o
LOAD build/default/production/_ext/1664057780/fe_operations.o
LOAD build/default/production/_ext/1664057780/ge_448.o
LOAD build/default/production/_ext/1664057780/ge_low_mem.o
LOAD build/default/production/_ext/1664057780/ge_operations.o
LOAD build/default/production/_ext/1664057780/hash.o
LOAD build/default/production/_ext/1664057780/hc128.o
LOAD build/default/production/_ext/1664057780/hmac.o
LOAD build/default/production/_ext/1664057780/idea.o
LOAD build/default/production/_ext/1664057780/integer.o
LOAD build/default/production/_ext/1664057780/logging.o
LOAD build/default/production/_ext/1664057780/md2.o
LOAD build/default/production/_ext/1664057780/md4.o
LOAD build/default/production/_ext/1664057780/md5.o
LOAD build/default/production/_ext/1664057780/memory.o
LOAD build/default/production/_ext/1664057780/pkcs12.o
LOAD build/default/production/_ext/1664057780/pkcs7.o
LOAD build/default/production/_ext/1664057780/poly1305.o
LOAD build/default/production/_ext/1664057780/pwdbased.o
LOAD build/default/production/_ext/1664057780/rabbit.o
LOAD build/default/production/_ext/1664057780/rc2.o
LOAD build/default/production/_ext/1664057780/ripemd.o
LOAD build/default/production/_ext/1664057780/rsa.o
LOAD build/default/production/_ext/1664057780/sha3.o
LOAD build/default/production/_ext/1664057780/signature.o
LOAD build/default/production/_ext/1664057780/sp_arm32.o
LOAD build/default/production/_ext/1664057780/sp_arm64.o
LOAD build/default/production/_ext/1664057780/sp_armthumb.o
LOAD build/default/production/_ext/1664057780/sp_c32.o
LOAD build/default/production/_ext/1664057780/sp_c64.o
LOAD build/default/production/_ext/1664057780/sp_cortexm.o
LOAD build/default/production/_ext/1664057780/sp_dsp32.o
LOAD build/default/production/_ext/1664057780/sp_int.o
LOAD build/default/production/_ext/1664057780/sp_x86_64.o
LOAD build/default/production/_ext/1664057780/srp.o
LOAD build/default/production/_ext/1664057780/tfm.o
LOAD build/default/production/_ext/1664057780/wc_dsp.o
LOAD build/default/production/_ext/1664057780/wc_encrypt.o
LOAD build/default/production/_ext/1664057780/wc_pkcs11.o
LOAD build/default/production/_ext/1664057780/wc_port.o
LOAD build/default/production/_ext/1664057780/wolfevent.o
LOAD build/default/production/_ext/1664057780/wolfmath.o
LOAD build/default/production/_ext/1664057780/aes.o
LOAD build/default/production/_ext/1664057780/des3.o
LOAD build/default/production/_ext/1664057780/random.o
LOAD build/default/production/_ext/1664057780/sha.o
LOAD build/default/production/_ext/1664057780/sha256.o
LOAD build/default/production/_ext/1664057780/sha512.o
LOAD build/default/production/_ext/1664057780/ecc.o
LOAD build/default/production/_ext/1360937237/main.o
LOAD build/default/production/_ext/1360937237/custom_snmp_app.o
LOAD build/default/production/_ext/1360937237/app.o
LOAD build/default/production/_ext/1360937237/mpfs_img2.o
LOAD build/default/production/_ext/1360937237/http_print.o
LOAD build/default/production/_ext/1360937237/custom_http_app.o
LOAD build/default/production/_ext/1664057780/misc.o
LOAD build/default/production/_ext/1664057780/evp.o
                0x00000001                __MPLAB_BUILD = 0x1
                0x00100000                __rom_end = (ORIGIN (rom) + LENGTH (rom))
                0x20040000                __ram_end = (ORIGIN (ram) + LENGTH (ram))

.config_00804000
                0x00804000        0x4
 *(.config_00804000)
 .config_00804000
                0x00804000        0x4 build/default/production/_ext/1171490990/initialization.o
                0x00804000                __config_00804000

.config_00804008
                0x00804008        0x4
 *(.config_00804008)
 .config_00804008
                0x00804008        0x4 build/default/production/_ext/1171490990/initialization.o
                0x00804008                __config_00804008

.config_00804004
                0x00804004        0x4
 *(.config_00804004)
 .config_00804004
                0x00804004        0x4 build/default/production/_ext/1171490990/initialization.o
                0x00804004                __config_00804004

.vectors        0x00000000      0x264
                0x00000000                . = ALIGN (0x4)
                0x00000000                _sfixed = .
 *(.vectors .vectors.* .vectors_default .vectors_default.*)
 .vectors       0x00000000      0x264 build/default/production/_ext/1171490990/interrupts.o
                0x00000000                exception_table
 *(.isr_vector)
 *(.reset*)
 *(.after_vectors)

.text           0x00000264       0x20
                0x00000264                . = ALIGN (0x4)
 *(.glue_7t)
 .glue_7t       0x00000264        0x0 linker stubs
 *(.glue_7)
 .glue_7        0x00000264        0x0 linker stubs
 *(.gnu.linkonce.r.*)
 *(.ARM.extab* .gnu.linkonce.armextab.*)
                0x00000264                . = ALIGN (0x4)
 *(.init)
 .init          0x00000264        0x4 c:/program files/microchip/xc32/v3.01/bin/bin/../../lib/gcc/pic32c/8.3.1/thumb/v7e-m+fp/hard/crti.o
                0x00000264                _init
 .init          0x00000268        0x8 c:/program files/microchip/xc32/v3.01/bin/bin/../../lib/gcc/pic32c/8.3.1/thumb/v7e-m+fp/hard/crtn.o
                0x00000270                . = ALIGN (0x4)
                0x00000270                __preinit_array_start = .
 *(.preinit_array)
                0x00000270                __preinit_array_end = .
                0x00000270                . = ALIGN (0x4)
                0x00000270                __init_array_start = .
 *(SORT_BY_NAME(.init_array.*))
 *(.init_array)
 .init_array    0x00000270        0x4 c:/program files/microchip/xc32/v3.01/bin/bin/../../lib/gcc/pic32c/8.3.1/thumb/v7e-m+fp/hard/crtbegin.o
                0x00000274                __init_array_end = .
                0x00000274                . = ALIGN (0x4)
 *crtbegin.o(.ctors)
 *(EXCLUDE_FILE(*crtend.o) .ctors)
 *(SORT_BY_NAME(.ctors.*))
 *crtend.o(.ctors)
                0x00000274                . = ALIGN (0x4)
 *(.fini)
 .fini          0x00000274        0x4 c:/program files/microchip/xc32/v3.01/bin/bin/../../lib/gcc/pic32c/8.3.1/thumb/v7e-m+fp/hard/crti.o
                0x00000274                _fini
 .fini          0x00000278        0x8 c:/program files/microchip/xc32/v3.01/bin/bin/../../lib/gcc/pic32c/8.3.1/thumb/v7e-m+fp/hard/crtn.o
                0x00000280                . = ALIGN (0x4)
                0x00000280                __fini_array_start = .
 *(.fini_array)
 .fini_array    0x00000280        0x4 c:/program files/microchip/xc32/v3.01/bin/bin/../../lib/gcc/pic32c/8.3.1/thumb/v7e-m+fp/hard/crtbegin.o
 *(SORT_BY_NAME(.fini_array.*))
                0x00000284                __fini_array_end = .
 *crtbegin.o(.dtors)
 *(EXCLUDE_FILE(*crtend.o) .dtors)
 *(SORT_BY_NAME(.dtors.*))
 *crtend.o(.dtors)
                0x00000284                . = ALIGN (0x4)
                0x00000284                _efixed = .
                [!provide]                PROVIDE (__exidx_start = .)

.ARM.exidx      0x00000284        0x8
 *(.ARM.exidx* .gnu.linkonce.armexidx.*)
 .ARM.exidx     0x00000284        0x8 c:/program files/microchip/xc32/v3.01/bin/bin/../../lib/gcc/pic32c/8.3.1/thumb/v7e-m+fp/hard\libgcc.a(_udivmoddi4.o)
                [!provide]                PROVIDE (__exidx_end = .)
                0x0000028c                . = ALIGN (0x4)
                0x0000028c                _etext = .

.bss            0x20000000        0x4
                0x20000000                . = ALIGN (0x4)
                0x20000000                __bss_start__ = .
                0x20000000                _sbss = .
                0x20000000                _szero = .
 *(COMMON)
 COMMON         0x20000000        0x4 c:/program files/microchip/xc32/v3.01/bin/bin/../../lib/gcc/pic32c/8.3.1/../../../../pic32c/lib/thumb/v7e-m+fp/hard\libc_nano.a(lib_a-reent.o)
                0x20000000                errno
                0x20000004                . = ALIGN (0x4)
                0x20000004                __bss_end__ = .
                0x20000004                _ebss = .
                0x20000004                _ezero = .
                0x20000004                . = ALIGN (0x4)
                0x20000004                _end = .
                0x2003ffff                _ram_end_ = ((ORIGIN (ram) + LENGTH (ram)) - 0x1)

.bkupram_bss
 *(.bkupram_bss .bkupram_bss.*)
 *(.pbss .pbss.*)
                0x00017ac0                _min_heap_size = 0x17ac0
START GROUP
LOAD c:/program files/microchip/xc32/v3.01/bin/bin/../../lib/gcc/pic32c/8.3.1/../../../../pic32c/lib/thumb/v7e-m+fp/hard\libpic32c.a
LOAD c:/program files/microchip/xc32/v3.01/bin/bin/../../lib/gcc/pic32c/8.3.1/thumb/v7e-m+fp/hard\libgcc.a
LOAD c:/program files/microchip/xc32/v3.01/bin/bin/../../lib/gcc/pic32c/8.3.1/../../../../pic32c/lib/thumb/v7e-m+fp/hard\libm_nano.a
LOAD c:/program files/microchip/xc32/v3.01/bin/bin/../../lib/gcc/pic32c/8.3.1/../../../../pic32c/lib/thumb/v7e-m+fp/hard\libc_nano.a
END GROUP
LOAD c:/program files/microchip/xc32/v3.01/bin/bin/../../lib/gcc/pic32c/8.3.1/thumb/v7e-m+fp/hard/crtend.o
LOAD c:/program files/microchip/xc32/v3.01/bin/bin/../../lib/gcc/pic32c/8.3.1/thumb/v7e-m+fp/hard/crtn.o
OUTPUT(dist/default/production/RackGerenciavel.X.production.elf elf32-littlearm)
LOAD stack
LOAD data_init

.ARM.attributes
                0x00000000       0x30
 .ARM.attributes
                0x00000000       0x1e c:/program files/microchip/xc32/v3.01/bin/bin/../../lib/gcc/pic32c/8.3.1/thumb/v7e-m+fp/hard/crti.o
 .ARM.attributes
                0x0000001e       0x34 c:/program files/microchip/xc32/v3.01/bin/bin/../../lib/gcc/pic32c/8.3.1/thumb/v7e-m+fp/hard/crtbegin.o
 .ARM.attributes
                0x00000052       0x34 build/default/production/_ext/1645245335/crypto.o
 .ARM.attributes
                0x00000086       0x34 build/default/production/_ext/444070925/drv_ethphy.o
 .ARM.attributes
                0x000000ba       0x34 build/default/production/_ext/444070925/drv_extphy_ksz8081.o
 .ARM.attributes
                0x000000ee       0x34 build/default/production/_ext/1546807373/drv_gmac.o
 .ARM.attributes
                0x00000122       0x34 build/default/production/_ext/1546807373/drv_gmac_lib_samE5x.o
 .ARM.attributes
                0x00000156       0x34 build/default/production/_ext/992804092/drv_memory.o
 .ARM.attributes
                0x0000018a       0x34 build/default/production/_ext/992804092/drv_memory_file_system.o
 .ARM.attributes
                0x000001be       0x34 build/default/production/_ext/992804092/drv_memory_nvmctrl.o
 .ARM.attributes
                0x000001f2       0x34 build/default/production/_ext/438849557/drv_miim.o
 .ARM.attributes
                0x00000226       0x34 build/default/production/_ext/1751889202/sys_fs_shell.o
 .ARM.attributes
                0x0000025a       0x34 build/default/production/_ext/1033058136/helpers.o
 .ARM.attributes
                0x0000028e       0x34 build/default/production/_ext/1033058136/snmp.o
 .ARM.attributes
                0x000002c2       0x34 build/default/production/_ext/1033058136/icmp.o
 .ARM.attributes
                0x000002f6       0x34 build/default/production/_ext/1033058136/tcp.o
 .ARM.attributes
                0x0000032a       0x34 build/default/production/_ext/1033058136/arp.o
 .ARM.attributes
                0x0000035e       0x34 build/default/production/_ext/1033058136/tcpip_commands.o
 .ARM.attributes
                0x00000392       0x34 build/default/production/_ext/1033058136/http.o
 .ARM.attributes
                0x000003c6       0x34 build/default/production/_ext/1033058136/iperf.o
 .ARM.attributes
                0x000003fa       0x34 build/default/production/_ext/1033058136/ipv4.o
 .ARM.attributes
                0x0000042e       0x34 build/default/production/_ext/1033058136/tcpip_heap_alloc.o
 .ARM.attributes
                0x00000462       0x34 build/default/production/_ext/1033058136/tcpip_heap_internal.o
 .ARM.attributes
                0x00000496       0x34 build/default/production/_ext/1033058136/dhcp.o
 .ARM.attributes
                0x000004ca       0x34 build/default/production/_ext/1033058136/dns.o
 .ARM.attributes
                0x000004fe       0x34 build/default/production/_ext/1033058136/hash_fnv.o
 .ARM.attributes
                0x00000532       0x34 build/default/production/_ext/1033058136/oahash.o
 .ARM.attributes
                0x00000566       0x34 build/default/production/_ext/1033058136/tcpip_helpers.o
 .ARM.attributes
                0x0000059a       0x34 build/default/production/_ext/1033058136/tcpip_manager.o
 .ARM.attributes
                0x000005ce       0x34 build/default/production/_ext/1033058136/tcpip_notify.o
 .ARM.attributes
                0x00000602       0x34 build/default/production/_ext/1033058136/tcpip_packet.o
 .ARM.attributes
                0x00000636       0x34 build/default/production/_ext/1033058136/udp.o
 .ARM.attributes
                0x0000066a       0x34 build/default/production/_ext/1529399856/osal_freertos.o
 .ARM.attributes
                0x0000069e       0x34 build/default/production/_ext/1984496892/plib_clock.o
 .ARM.attributes
                0x000006d2       0x34 build/default/production/_ext/1986646378/plib_evsys.o
 .ARM.attributes
                0x00000706       0x34 build/default/production/_ext/1865468468/plib_nvic.o
 .ARM.attributes
                0x0000073a       0x34 build/default/production/_ext/1593096446/plib_nvmctrl.o
 .ARM.attributes
                0x0000076e       0x34 build/default/production/_ext/1865521619/plib_port.o
 .ARM.attributes
                0x000007a2       0x34 build/default/production/_ext/504274921/plib_sercom1_usart.o
 .ARM.attributes
                0x000007d6       0x34 build/default/production/_ext/829342655/plib_tc0.o
 .ARM.attributes
                0x0000080a       0x34 build/default/production/_ext/1376093119/sys_command.o
 .ARM.attributes
                0x0000083e       0x34 build/default/production/_ext/1832805299/sys_console_uart.o
 .ARM.attributes
                0x00000872       0x34 build/default/production/_ext/1832805299/sys_console.o
 .ARM.attributes
                0x000008a6       0x34 build/default/production/_ext/944882569/sys_debug.o
 .ARM.attributes
                0x000008da       0x34 build/default/production/_ext/699575981/mpfs.o
 .ARM.attributes
                0x0000090e       0x34 build/default/production/_ext/1269487135/sys_fs.o
 .ARM.attributes
                0x00000942       0x34 build/default/production/_ext/1269487135/sys_fs_media_manager.o
 .ARM.attributes
                0x00000976       0x34 build/default/production/_ext/1881668453/sys_int.o
 .ARM.attributes
                0x000009aa       0x34 build/default/production/_ext/1000052432/sys_reset.o
 .ARM.attributes
                0x000009de       0x34 build/default/production/_ext/101884895/sys_time.o
 .ARM.attributes
                0x00000a12       0x34 build/default/production/_ext/753841488/sys_time_h2_adapter.o
 .ARM.attributes
                0x00000a46       0x34 build/default/production/_ext/753841488/sys_random_h2_adapter.o
 .ARM.attributes
                0x00000a7a       0x34 build/default/production/_ext/1171490990/initialization.o
 .ARM.attributes
                0x00000aae       0x34 build/default/production/_ext/1171490990/interrupts.o
 .ARM.attributes
                0x00000ae2       0x34 build/default/production/_ext/1171490990/exceptions.o
 .ARM.attributes
                0x00000b16       0x34 build/default/production/_ext/1171490990/startup_xc32.o
 .ARM.attributes
                0x00000b4a       0x34 build/default/production/_ext/1171490990/tasks.o
 .ARM.attributes
                0x00000b7e       0x34 build/default/production/_ext/1171490990/freertos_hooks.o
 .ARM.attributes
                0x00000bb2       0x34 build/default/production/_ext/246609638/port.o
 .ARM.attributes
                0x00000be6       0x34 build/default/production/_ext/1665200909/heap_1.o
 .ARM.attributes
                0x00000c1a       0x34 build/default/production/_ext/404212886/list.o
 .ARM.attributes
                0x00000c4e       0x34 build/default/production/_ext/404212886/queue.o
 .ARM.attributes
                0x00000c82       0x34 build/default/production/_ext/404212886/FreeRTOS_tasks.o
 .ARM.attributes
                0x00000cb6       0x34 build/default/production/_ext/172253694/crypt_wolfcryptcb.o
 .ARM.attributes
                0x00000cea       0x34 build/default/production/_ext/1664057780/cryptocb.o
 .ARM.attributes
                0x00000d1e       0x34 build/default/production/_ext/1664057780/md5.o
 .ARM.attributes
                0x00000d52       0x34 build/default/production/_ext/1664057780/random.o
 .ARM.attributes
                0x00000d86       0x34 build/default/production/_ext/1664057780/sha256.o
 .ARM.attributes
                0x00000dba       0x34 build/default/production/_ext/1360937237/main.o
 .ARM.attributes
                0x00000dee       0x34 build/default/production/_ext/1360937237/custom_snmp_app.o
 .ARM.attributes
                0x00000e22       0x34 build/default/production/_ext/1360937237/app.o
 .ARM.attributes
                0x00000e56       0x39 build/default/production/_ext/1360937237/mpfs_img2.o
 .ARM.attributes
                0x00000e8f       0x34 build/default/production/_ext/1360937237/http_print.o
 .ARM.attributes
                0x00000ec3       0x34 build/default/production/_ext/1360937237/custom_http_app.o
 .ARM.attributes
                0x00000ef7       0x34 c:/program files/microchip/xc32/v3.01/bin/bin/../../lib/gcc/pic32c/8.3.1/../../../../pic32c/lib/thumb/v7e-m+fp/hard\libpic32c.a(data_init.o)
 .ARM.attributes
                0x00000f2b       0x1e c:/program files/microchip/xc32/v3.01/bin/bin/../../lib/gcc/pic32c/8.3.1/thumb/v7e-m+fp/hard\libgcc.a(_arm_addsubdf3.o)
 .ARM.attributes
                0x00000f49       0x1e c:/program files/microchip/xc32/v3.01/bin/bin/../../lib/gcc/pic32c/8.3.1/thumb/v7e-m+fp/hard\libgcc.a(_arm_muldivdf3.o)
 .ARM.attributes
                0x00000f67       0x1e c:/program files/microchip/xc32/v3.01/bin/bin/../../lib/gcc/pic32c/8.3.1/thumb/v7e-m+fp/hard\libgcc.a(_arm_cmpdf2.o)
 .ARM.attributes
                0x00000f85       0x1e c:/program files/microchip/xc32/v3.01/bin/bin/../../lib/gcc/pic32c/8.3.1/thumb/v7e-m+fp/hard\libgcc.a(_arm_fixunsdfsi.o)
 .ARM.attributes
                0x00000fa3       0x1e c:/program files/microchip/xc32/v3.01/bin/bin/../../lib/gcc/pic32c/8.3.1/thumb/v7e-m+fp/hard\libgcc.a(_aeabi_uldivmod.o)
 .ARM.attributes
                0x00000fc1       0x34 c:/program files/microchip/xc32/v3.01/bin/bin/../../lib/gcc/pic32c/8.3.1/thumb/v7e-m+fp/hard\libgcc.a(_udivmoddi4.o)
 .ARM.attributes
                0x00000ff5       0x1e c:/program files/microchip/xc32/v3.01/bin/bin/../../lib/gcc/pic32c/8.3.1/thumb/v7e-m+fp/hard\libgcc.a(_dvmd_tls.o)
 .ARM.attributes
                0x00001013       0x34 c:/program files/microchip/xc32/v3.01/bin/bin/../../lib/gcc/pic32c/8.3.1/../../../../pic32c/lib/thumb/v7e-m+fp/hard\libc_nano.a(lib_a-atoi.o)
 .ARM.attributes
                0x00001047       0x34 c:/program files/microchip/xc32/v3.01/bin/bin/../../lib/gcc/pic32c/8.3.1/../../../../pic32c/lib/thumb/v7e-m+fp/hard\libc_nano.a(lib_a-atol.o)
 .ARM.attributes
                0x0000107b       0x34 c:/program files/microchip/xc32/v3.01/bin/bin/../../lib/gcc/pic32c/8.3.1/../../../../pic32c/lib/thumb/v7e-m+fp/hard\libc_nano.a(lib_a-calloc.o)
 .ARM.attributes
                0x000010af       0x32 c:/program files/microchip/xc32/v3.01/bin/bin/../../lib/gcc/pic32c/8.3.1/../../../../pic32c/lib/thumb/v7e-m+fp/hard\libc_nano.a(lib_a-ctype_.o)
 .ARM.attributes
                0x000010e1       0x32 c:/program files/microchip/xc32/v3.01/bin/bin/../../lib/gcc/pic32c/8.3.1/../../../../pic32c/lib/thumb/v7e-m+fp/hard\libc_nano.a(lib_a-impure.o)
 .ARM.attributes
                0x00001113       0x34 c:/program files/microchip/xc32/v3.01/bin/bin/../../lib/gcc/pic32c/8.3.1/../../../../pic32c/lib/thumb/v7e-m+fp/hard\libc_nano.a(lib_a-init.o)
 .ARM.attributes
                0x00001147       0x34 c:/program files/microchip/xc32/v3.01/bin/bin/../../lib/gcc/pic32c/8.3.1/../../../../pic32c/lib/thumb/v7e-m+fp/hard\libc_nano.a(lib_a-malloc.o)
 .ARM.attributes
                0x0000117b       0x34 c:/program files/microchip/xc32/v3.01/bin/bin/../../lib/gcc/pic32c/8.3.1/../../../../pic32c/lib/thumb/v7e-m+fp/hard\libc_nano.a(lib_a-memcmp.o)
 .ARM.attributes
                0x000011af       0x34 c:/program files/microchip/xc32/v3.01/bin/bin/../../lib/gcc/pic32c/8.3.1/../../../../pic32c/lib/thumb/v7e-m+fp/hard\libc_nano.a(lib_a-memcpy-stub.o)
 .ARM.attributes
                0x000011e3       0x34 c:/program files/microchip/xc32/v3.01/bin/bin/../../lib/gcc/pic32c/8.3.1/../../../../pic32c/lib/thumb/v7e-m+fp/hard\libc_nano.a(lib_a-memmove.o)
 .ARM.attributes
                0x00001217       0x34 c:/program files/microchip/xc32/v3.01/bin/bin/../../lib/gcc/pic32c/8.3.1/../../../../pic32c/lib/thumb/v7e-m+fp/hard\libc_nano.a(lib_a-memset.o)
 .ARM.attributes
                0x0000124b       0x34 c:/program files/microchip/xc32/v3.01/bin/bin/../../lib/gcc/pic32c/8.3.1/../../../../pic32c/lib/thumb/v7e-m+fp/hard\libc_nano.a(lib_a-nano-callocr.o)
 .ARM.attributes
                0x0000127f       0x34 c:/program files/microchip/xc32/v3.01/bin/bin/../../lib/gcc/pic32c/8.3.1/../../../../pic32c/lib/thumb/v7e-m+fp/hard\libc_nano.a(lib_a-nano-freer.o)
 .ARM.attributes
                0x000012b3       0x34 c:/program files/microchip/xc32/v3.01/bin/bin/../../lib/gcc/pic32c/8.3.1/../../../../pic32c/lib/thumb/v7e-m+fp/hard\libc_nano.a(lib_a-nano-mallocr.o)
 .ARM.attributes
                0x000012e7       0x34 c:/program files/microchip/xc32/v3.01/bin/bin/../../lib/gcc/pic32c/8.3.1/../../../../pic32c/lib/thumb/v7e-m+fp/hard\libc_nano.a(lib_a-rand.o)
 .ARM.attributes
                0x0000131b       0x34 c:/program files/microchip/xc32/v3.01/bin/bin/../../lib/gcc/pic32c/8.3.1/../../../../pic32c/lib/thumb/v7e-m+fp/hard\libc_nano.a(lib_a-sbrkr.o)
 .ARM.attributes
                0x0000134f       0x34 c:/program files/microchip/xc32/v3.01/bin/bin/../../lib/gcc/pic32c/8.3.1/../../../../pic32c/lib/thumb/v7e-m+fp/hard\libc_nano.a(lib_a-snprintf.o)
 .ARM.attributes
                0x00001383       0x34 c:/program files/microchip/xc32/v3.01/bin/bin/../../lib/gcc/pic32c/8.3.1/../../../../pic32c/lib/thumb/v7e-m+fp/hard\libc_nano.a(lib_a-sprintf.o)
 .ARM.attributes
                0x000013b7       0x34 c:/program files/microchip/xc32/v3.01/bin/bin/../../lib/gcc/pic32c/8.3.1/../../../../pic32c/lib/thumb/v7e-m+fp/hard\libc_nano.a(lib_a-strchr.o)
 .ARM.attributes
                0x000013eb       0x1c c:/program files/microchip/xc32/v3.01/bin/bin/../../lib/gcc/pic32c/8.3.1/../../../../pic32c/lib/thumb/v7e-m+fp/hard\libc_nano.a(lib_a-strcmp.o)
 .ARM.attributes
                0x00001407       0x34 c:/program files/microchip/xc32/v3.01/bin/bin/../../lib/gcc/pic32c/8.3.1/../../../../pic32c/lib/thumb/v7e-m+fp/hard\libc_nano.a(lib_a-strcpy.o)
 .ARM.attributes
                0x0000143b       0x17 c:/program files/microchip/xc32/v3.01/bin/bin/../../lib/gcc/pic32c/8.3.1/../../../../pic32c/lib/thumb/v7e-m+fp/hard\libc_nano.a(lib_a-strlen.o)
 .ARM.attributes
                0x00001452       0x34 c:/program files/microchip/xc32/v3.01/bin/bin/../../lib/gcc/pic32c/8.3.1/../../../../pic32c/lib/thumb/v7e-m+fp/hard\libc_nano.a(lib_a-strncmp.o)
 .ARM.attributes
                0x00001486       0x34 c:/program files/microchip/xc32/v3.01/bin/bin/../../lib/gcc/pic32c/8.3.1/../../../../pic32c/lib/thumb/v7e-m+fp/hard\libc_nano.a(lib_a-strncpy.o)
 .ARM.attributes
                0x000014ba       0x34 c:/program files/microchip/xc32/v3.01/bin/bin/../../lib/gcc/pic32c/8.3.1/../../../../pic32c/lib/thumb/v7e-m+fp/hard\libc_nano.a(lib_a-strstr.o)
 .ARM.attributes
                0x000014ee       0x34 c:/program files/microchip/xc32/v3.01/bin/bin/../../lib/gcc/pic32c/8.3.1/../../../../pic32c/lib/thumb/v7e-m+fp/hard\libc_nano.a(lib_a-strtok.o)
 .ARM.attributes
                0x00001522       0x34 c:/program files/microchip/xc32/v3.01/bin/bin/../../lib/gcc/pic32c/8.3.1/../../../../pic32c/lib/thumb/v7e-m+fp/hard\libc_nano.a(lib_a-strtok_r.o)
 .ARM.attributes
                0x00001556       0x34 c:/program files/microchip/xc32/v3.01/bin/bin/../../lib/gcc/pic32c/8.3.1/../../../../pic32c/lib/thumb/v7e-m+fp/hard\libc_nano.a(lib_a-strtol.o)
 .ARM.attributes
                0x0000158a       0x34 c:/program files/microchip/xc32/v3.01/bin/bin/../../lib/gcc/pic32c/8.3.1/../../../../pic32c/lib/thumb/v7e-m+fp/hard\libc_nano.a(lib_a-vsnprintf.o)
 .ARM.attributes
                0x000015be       0x34 c:/program files/microchip/xc32/v3.01/bin/bin/../../lib/gcc/pic32c/8.3.1/../../../../pic32c/lib/thumb/v7e-m+fp/hard\libc_nano.a(lib_a-mlock.o)
 .ARM.attributes
                0x000015f2       0x34 c:/program files/microchip/xc32/v3.01/bin/bin/../../lib/gcc/pic32c/8.3.1/../../../../pic32c/lib/thumb/v7e-m+fp/hard\libc_nano.a(lib_a-nano-svfprintf.o)
 .ARM.attributes
                0x00001626       0x34 c:/program files/microchip/xc32/v3.01/bin/bin/../../lib/gcc/pic32c/8.3.1/../../../../pic32c/lib/thumb/v7e-m+fp/hard\libc_nano.a(lib_a-nano-vfprintf_float.o)
 .ARM.attributes
                0x0000165a       0x34 c:/program files/microchip/xc32/v3.01/bin/bin/../../lib/gcc/pic32c/8.3.1/../../../../pic32c/lib/thumb/v7e-m+fp/hard\libc_nano.a(lib_a-nano-vfprintf_i.o)
 .ARM.attributes
                0x0000168e       0x34 c:/program files/microchip/xc32/v3.01/bin/bin/../../lib/gcc/pic32c/8.3.1/../../../../pic32c/lib/thumb/v7e-m+fp/hard\libc_nano.a(lib_a-reent.o)
 .ARM.attributes
                0x000016c2       0x34 c:/program files/microchip/xc32/v3.01/bin/bin/../../lib/gcc/pic32c/8.3.1/../../../../pic32c/lib/thumb/v7e-m+fp/hard\libc_nano.a(lib_a-__ssputs.o)
 .ARM.attributes
                0x000016f6       0x34 c:/program files/microchip/xc32/v3.01/bin/bin/../../lib/gcc/pic32c/8.3.1/../../../../pic32c/lib/thumb/v7e-m+fp/hard\libc_nano.a(lib_a-dtoa.o)
 .ARM.attributes
                0x0000172a       0x34 c:/program files/microchip/xc32/v3.01/bin/bin/../../lib/gcc/pic32c/8.3.1/../../../../pic32c/lib/thumb/v7e-m+fp/hard\libc_nano.a(lib_a-localeconv.o)
 .ARM.attributes
                0x0000175e       0x1c c:/program files/microchip/xc32/v3.01/bin/bin/../../lib/gcc/pic32c/8.3.1/../../../../pic32c/lib/thumb/v7e-m+fp/hard\libc_nano.a(lib_a-memchr.o)
 .ARM.attributes
                0x0000177a       0x34 c:/program files/microchip/xc32/v3.01/bin/bin/../../lib/gcc/pic32c/8.3.1/../../../../pic32c/lib/thumb/v7e-m+fp/hard\libc_nano.a(lib_a-mprec.o)
 .ARM.attributes
                0x000017ae       0x34 c:/program files/microchip/xc32/v3.01/bin/bin/../../lib/gcc/pic32c/8.3.1/../../../../pic32c/lib/thumb/v7e-m+fp/hard\libc_nano.a(lib_a-nano-reallocr.o)
 .ARM.attributes
                0x000017e2       0x34 c:/program files/microchip/xc32/v3.01/bin/bin/../../lib/gcc/pic32c/8.3.1/../../../../pic32c/lib/thumb/v7e-m+fp/hard\libc_nano.a(lib_a-locale.o)
 .ARM.attributes
                0x00001816       0x34 c:/program files/microchip/xc32/v3.01/bin/bin/../../lib/gcc/pic32c/8.3.1/../../../../pic32c/lib/thumb/v7e-m+fp/hard\libc_nano.a(lib_a-mbtowc_r.o)
 .ARM.attributes
                0x0000184a       0x34 c:/program files/microchip/xc32/v3.01/bin/bin/../../lib/gcc/pic32c/8.3.1/../../../../pic32c/lib/thumb/v7e-m+fp/hard\libc_nano.a(lib_a-nano-msizer.o)
 .ARM.attributes
                0x0000187e       0x34 c:/program files/microchip/xc32/v3.01/bin/bin/../../lib/gcc/pic32c/8.3.1/../../../../pic32c/lib/thumb/v7e-m+fp/hard\libc_nano.a(lib_a-wctomb_r.o)
 .ARM.attributes
                0x000018b2       0x34 c:/program files/microchip/xc32/v3.01/bin/bin/../../lib/gcc/pic32c/8.3.1/../../../../pic32c/lib/thumb/v7e-m+fp/hard\libpic32c.a(sbrk.o)
 .ARM.attributes
                0x000018e6       0x1e c:/program files/microchip/xc32/v3.01/bin/bin/../../lib/gcc/pic32c/8.3.1/thumb/v7e-m+fp/hard\libgcc.a(_arm_unorddf2.o)
 .ARM.attributes
                0x00001904       0x1e c:/program files/microchip/xc32/v3.01/bin/bin/../../lib/gcc/pic32c/8.3.1/thumb/v7e-m+fp/hard\libgcc.a(_arm_fixdfsi.o)
 .ARM.attributes
                0x00001922       0x1e c:/program files/microchip/xc32/v3.01/bin/bin/../../lib/gcc/pic32c/8.3.1/thumb/v7e-m+fp/hard/crtn.o

.comment        0x00000000       0x53
 .comment       0x00000000       0x53 c:/program files/microchip/xc32/v3.01/bin/bin/../../lib/gcc/pic32c/8.3.1/thumb/v7e-m+fp/hard/crtbegin.o
                                 0x54 (size before relaxing)
 .comment       0x00000053       0x54 build/default/production/_ext/1645245335/crypto.o
 .comment       0x00000053       0x54 build/default/production/_ext/444070925/drv_ethphy.o
 .comment       0x00000053       0x54 build/default/production/_ext/444070925/drv_extphy_ksz8081.o
 .comment       0x00000053       0x54 build/default/production/_ext/1546807373/drv_gmac.o
 .comment       0x00000053       0x54 build/default/production/_ext/1546807373/drv_gmac_lib_samE5x.o
 .comment       0x00000053       0x54 build/default/production/_ext/992804092/drv_memory.o
 .comment       0x00000053       0x54 build/default/production/_ext/992804092/drv_memory_file_system.o
 .comment       0x00000053       0x54 build/default/production/_ext/992804092/drv_memory_nvmctrl.o
 .comment       0x00000053       0x54 build/default/production/_ext/438849557/drv_miim.o
 .comment       0x00000053       0x54 build/default/production/_ext/1751889202/sys_fs_shell.o
 .comment       0x00000053       0x54 build/default/production/_ext/1033058136/helpers.o
 .comment       0x00000053       0x54 build/default/production/_ext/1033058136/snmp.o
 .comment       0x00000053       0x54 build/default/production/_ext/1033058136/icmp.o
 .comment       0x00000053       0x54 build/default/production/_ext/1033058136/tcp.o
 .comment       0x00000053       0x54 build/default/production/_ext/1033058136/arp.o
 .comment       0x00000053       0x54 build/default/production/_ext/1033058136/tcpip_commands.o
 .comment       0x00000053       0x54 build/default/production/_ext/1033058136/http.o
 .comment       0x00000053       0x54 build/default/production/_ext/1033058136/iperf.o
 .comment       0x00000053       0x54 build/default/production/_ext/1033058136/ipv4.o
 .comment       0x00000053       0x54 build/default/production/_ext/1033058136/tcpip_heap_alloc.o
 .comment       0x00000053       0x54 build/default/production/_ext/1033058136/tcpip_heap_internal.o
 .comment       0x00000053       0x54 build/default/production/_ext/1033058136/dhcp.o
 .comment       0x00000053       0x54 build/default/production/_ext/1033058136/dns.o
 .comment       0x00000053       0x54 build/default/production/_ext/1033058136/hash_fnv.o
 .comment       0x00000053       0x54 build/default/production/_ext/1033058136/oahash.o
 .comment       0x00000053       0x54 build/default/production/_ext/1033058136/tcpip_helpers.o
 .comment       0x00000053       0x54 build/default/production/_ext/1033058136/tcpip_manager.o
 .comment       0x00000053       0x54 build/default/production/_ext/1033058136/tcpip_notify.o
 .comment       0x00000053       0x54 build/default/production/_ext/1033058136/tcpip_packet.o
 .comment       0x00000053       0x54 build/default/production/_ext/1033058136/udp.o
 .comment       0x00000053       0x54 build/default/production/_ext/1529399856/osal_freertos.o
 .comment       0x00000053       0x54 build/default/production/_ext/1984496892/plib_clock.o
 .comment       0x00000053       0x54 build/default/production/_ext/1986646378/plib_evsys.o
 .comment       0x00000053       0x54 build/default/production/_ext/1865468468/plib_nvic.o
 .comment       0x00000053       0x54 build/default/production/_ext/1593096446/plib_nvmctrl.o
 .comment       0x00000053       0x54 build/default/production/_ext/1865521619/plib_port.o
 .comment       0x00000053       0x54 build/default/production/_ext/504274921/plib_sercom1_usart.o
 .comment       0x00000053       0x54 build/default/production/_ext/829342655/plib_tc0.o
 .comment       0x00000053       0x54 build/default/production/_ext/1376093119/sys_command.o
 .comment       0x00000053       0x54 build/default/production/_ext/1832805299/sys_console_uart.o
 .comment       0x00000053       0x54 build/default/production/_ext/1832805299/sys_console.o
 .comment       0x00000053       0x54 build/default/production/_ext/944882569/sys_debug.o
 .comment       0x00000053       0x54 build/default/production/_ext/699575981/mpfs.o
 .comment       0x00000053       0x54 build/default/production/_ext/1269487135/sys_fs.o
 .comment       0x00000053       0x54 build/default/production/_ext/1269487135/sys_fs_media_manager.o
 .comment       0x00000053       0x54 build/default/production/_ext/1881668453/sys_int.o
 .comment       0x00000053       0x54 build/default/production/_ext/1000052432/sys_reset.o
 .comment       0x00000053       0x54 build/default/production/_ext/101884895/sys_time.o
 .comment       0x00000053       0x54 build/default/production/_ext/753841488/sys_time_h2_adapter.o
 .comment       0x00000053       0x54 build/default/production/_ext/753841488/sys_random_h2_adapter.o
 .comment       0x00000053       0x54 build/default/production/_ext/1171490990/initialization.o
 .comment       0x00000053       0x54 build/default/production/_ext/1171490990/interrupts.o
 .comment       0x00000053       0x54 build/default/production/_ext/1171490990/exceptions.o
 .comment       0x00000053       0x54 build/default/production/_ext/1171490990/startup_xc32.o
 .comment       0x00000053       0x54 build/default/production/_ext/1171490990/tasks.o
 .comment       0x00000053       0x54 build/default/production/_ext/1171490990/freertos_hooks.o
 .comment       0x00000053       0x54 build/default/production/_ext/246609638/port.o
 .comment       0x00000053       0x54 build/default/production/_ext/1665200909/heap_1.o
 .comment       0x00000053       0x54 build/default/production/_ext/404212886/list.o
 .comment       0x00000053       0x54 build/default/production/_ext/404212886/queue.o
 .comment       0x00000053       0x54 build/default/production/_ext/404212886/FreeRTOS_tasks.o
 .comment       0x00000053       0x54 build/default/production/_ext/172253694/crypt_wolfcryptcb.o
 .comment       0x00000053       0x54 build/default/production/_ext/1664057780/cryptocb.o
 .comment       0x00000053       0x54 build/default/production/_ext/1664057780/md5.o
 .comment       0x00000053       0x54 build/default/production/_ext/1664057780/random.o
 .comment       0x00000053       0x54 build/default/production/_ext/1664057780/sha256.o
 .comment       0x00000053       0x54 build/default/production/_ext/1360937237/main.o
 .comment       0x00000053       0x54 build/default/production/_ext/1360937237/custom_snmp_app.o
 .comment       0x00000053       0x54 build/default/production/_ext/1360937237/app.o
 .comment       0x00000053       0x54 build/default/production/_ext/1360937237/mpfs_img2.o
 .comment       0x00000053       0x54 build/default/production/_ext/1360937237/http_print.o
 .comment       0x00000053       0x54 build/default/production/_ext/1360937237/custom_http_app.o
 .comment       0x00000053       0x54 c:/program files/microchip/xc32/v3.01/bin/bin/../../lib/gcc/pic32c/8.3.1/../../../../pic32c/lib/thumb/v7e-m+fp/hard\libpic32c.a(data_init.o)
 .comment       0x00000053       0x54 c:/program files/microchip/xc32/v3.01/bin/bin/../../lib/gcc/pic32c/8.3.1/thumb/v7e-m+fp/hard\libgcc.a(_udivmoddi4.o)
 .comment       0x00000053       0x54 c:/program files/microchip/xc32/v3.01/bin/bin/../../lib/gcc/pic32c/8.3.1/../../../../pic32c/lib/thumb/v7e-m+fp/hard\libc_nano.a(lib_a-atoi.o)
 .comment       0x00000053       0x54 c:/program files/microchip/xc32/v3.01/bin/bin/../../lib/gcc/pic32c/8.3.1/../../../../pic32c/lib/thumb/v7e-m+fp/hard\libc_nano.a(lib_a-atol.o)
 .comment       0x00000053       0x54 c:/program files/microchip/xc32/v3.01/bin/bin/../../lib/gcc/pic32c/8.3.1/../../../../pic32c/lib/thumb/v7e-m+fp/hard\libc_nano.a(lib_a-calloc.o)
 .comment       0x00000053       0x54 c:/program files/microchip/xc32/v3.01/bin/bin/../../lib/gcc/pic32c/8.3.1/../../../../pic32c/lib/thumb/v7e-m+fp/hard\libc_nano.a(lib_a-ctype_.o)
 .comment       0x00000053       0x54 c:/program files/microchip/xc32/v3.01/bin/bin/../../lib/gcc/pic32c/8.3.1/../../../../pic32c/lib/thumb/v7e-m+fp/hard\libc_nano.a(lib_a-impure.o)
 .comment       0x00000053       0x54 c:/program files/microchip/xc32/v3.01/bin/bin/../../lib/gcc/pic32c/8.3.1/../../../../pic32c/lib/thumb/v7e-m+fp/hard\libc_nano.a(lib_a-init.o)
 .comment       0x00000053       0x54 c:/program files/microchip/xc32/v3.01/bin/bin/../../lib/gcc/pic32c/8.3.1/../../../../pic32c/lib/thumb/v7e-m+fp/hard\libc_nano.a(lib_a-malloc.o)
 .comment       0x00000053       0x54 c:/program files/microchip/xc32/v3.01/bin/bin/../../lib/gcc/pic32c/8.3.1/../../../../pic32c/lib/thumb/v7e-m+fp/hard\libc_nano.a(lib_a-memcmp.o)
 .comment       0x00000053       0x54 c:/program files/microchip/xc32/v3.01/bin/bin/../../lib/gcc/pic32c/8.3.1/../../../../pic32c/lib/thumb/v7e-m+fp/hard\libc_nano.a(lib_a-memcpy-stub.o)
 .comment       0x00000053       0x54 c:/program files/microchip/xc32/v3.01/bin/bin/../../lib/gcc/pic32c/8.3.1/../../../../pic32c/lib/thumb/v7e-m+fp/hard\libc_nano.a(lib_a-memmove.o)
 .comment       0x00000053       0x54 c:/program files/microchip/xc32/v3.01/bin/bin/../../lib/gcc/pic32c/8.3.1/../../../../pic32c/lib/thumb/v7e-m+fp/hard\libc_nano.a(lib_a-memset.o)
 .comment       0x00000053       0x54 c:/program files/microchip/xc32/v3.01/bin/bin/../../lib/gcc/pic32c/8.3.1/../../../../pic32c/lib/thumb/v7e-m+fp/hard\libc_nano.a(lib_a-nano-callocr.o)
 .comment       0x00000053       0x54 c:/program files/microchip/xc32/v3.01/bin/bin/../../lib/gcc/pic32c/8.3.1/../../../../pic32c/lib/thumb/v7e-m+fp/hard\libc_nano.a(lib_a-nano-freer.o)
 .comment       0x00000053       0x54 c:/program files/microchip/xc32/v3.01/bin/bin/../../lib/gcc/pic32c/8.3.1/../../../../pic32c/lib/thumb/v7e-m+fp/hard\libc_nano.a(lib_a-nano-mallocr.o)
 .comment       0x00000053       0x54 c:/program files/microchip/xc32/v3.01/bin/bin/../../lib/gcc/pic32c/8.3.1/../../../../pic32c/lib/thumb/v7e-m+fp/hard\libc_nano.a(lib_a-rand.o)
 .comment       0x00000053       0x54 c:/program files/microchip/xc32/v3.01/bin/bin/../../lib/gcc/pic32c/8.3.1/../../../../pic32c/lib/thumb/v7e-m+fp/hard\libc_nano.a(lib_a-sbrkr.o)
 .comment       0x00000053       0x54 c:/program files/microchip/xc32/v3.01/bin/bin/../../lib/gcc/pic32c/8.3.1/../../../../pic32c/lib/thumb/v7e-m+fp/hard\libc_nano.a(lib_a-snprintf.o)
 .comment       0x00000053       0x54 c:/program files/microchip/xc32/v3.01/bin/bin/../../lib/gcc/pic32c/8.3.1/../../../../pic32c/lib/thumb/v7e-m+fp/hard\libc_nano.a(lib_a-sprintf.o)
 .comment       0x00000053       0x54 c:/program files/microchip/xc32/v3.01/bin/bin/../../lib/gcc/pic32c/8.3.1/../../../../pic32c/lib/thumb/v7e-m+fp/hard\libc_nano.a(lib_a-strchr.o)
 .comment       0x00000053       0x54 c:/program files/microchip/xc32/v3.01/bin/bin/../../lib/gcc/pic32c/8.3.1/../../../../pic32c/lib/thumb/v7e-m+fp/hard\libc_nano.a(lib_a-strcpy.o)
 .comment       0x00000053       0x54 c:/program files/microchip/xc32/v3.01/bin/bin/../../lib/gcc/pic32c/8.3.1/../../../../pic32c/lib/thumb/v7e-m+fp/hard\libc_nano.a(lib_a-strncmp.o)
 .comment       0x00000053       0x54 c:/program files/microchip/xc32/v3.01/bin/bin/../../lib/gcc/pic32c/8.3.1/../../../../pic32c/lib/thumb/v7e-m+fp/hard\libc_nano.a(lib_a-strncpy.o)
 .comment       0x00000053       0x54 c:/program files/microchip/xc32/v3.01/bin/bin/../../lib/gcc/pic32c/8.3.1/../../../../pic32c/lib/thumb/v7e-m+fp/hard\libc_nano.a(lib_a-strstr.o)
 .comment       0x00000053       0x54 c:/program files/microchip/xc32/v3.01/bin/bin/../../lib/gcc/pic32c/8.3.1/../../../../pic32c/lib/thumb/v7e-m+fp/hard\libc_nano.a(lib_a-strtok.o)
 .comment       0x00000053       0x54 c:/program files/microchip/xc32/v3.01/bin/bin/../../lib/gcc/pic32c/8.3.1/../../../../pic32c/lib/thumb/v7e-m+fp/hard\libc_nano.a(lib_a-strtok_r.o)
 .comment       0x00000053       0x54 c:/program files/microchip/xc32/v3.01/bin/bin/../../lib/gcc/pic32c/8.3.1/../../../../pic32c/lib/thumb/v7e-m+fp/hard\libc_nano.a(lib_a-strtol.o)
 .comment       0x00000053       0x54 c:/program files/microchip/xc32/v3.01/bin/bin/../../lib/gcc/pic32c/8.3.1/../../../../pic32c/lib/thumb/v7e-m+fp/hard\libc_nano.a(lib_a-vsnprintf.o)
 .comment       0x00000053       0x54 c:/program files/microchip/xc32/v3.01/bin/bin/../../lib/gcc/pic32c/8.3.1/../../../../pic32c/lib/thumb/v7e-m+fp/hard\libc_nano.a(lib_a-mlock.o)
 .comment       0x00000053       0x54 c:/program files/microchip/xc32/v3.01/bin/bin/../../lib/gcc/pic32c/8.3.1/../../../../pic32c/lib/thumb/v7e-m+fp/hard\libc_nano.a(lib_a-nano-svfprintf.o)
 .comment       0x00000053       0x54 c:/program files/microchip/xc32/v3.01/bin/bin/../../lib/gcc/pic32c/8.3.1/../../../../pic32c/lib/thumb/v7e-m+fp/hard\libc_nano.a(lib_a-nano-vfprintf_float.o)
 .comment       0x00000053       0x54 c:/program files/microchip/xc32/v3.01/bin/bin/../../lib/gcc/pic32c/8.3.1/../../../../pic32c/lib/thumb/v7e-m+fp/hard\libc_nano.a(lib_a-nano-vfprintf_i.o)
 .comment       0x00000053       0x54 c:/program files/microchip/xc32/v3.01/bin/bin/../../lib/gcc/pic32c/8.3.1/../../../../pic32c/lib/thumb/v7e-m+fp/hard\libc_nano.a(lib_a-reent.o)
 .comment       0x00000053       0x54 c:/program files/microchip/xc32/v3.01/bin/bin/../../lib/gcc/pic32c/8.3.1/../../../../pic32c/lib/thumb/v7e-m+fp/hard\libc_nano.a(lib_a-__ssputs.o)
 .comment       0x00000053       0x54 c:/program files/microchip/xc32/v3.01/bin/bin/../../lib/gcc/pic32c/8.3.1/../../../../pic32c/lib/thumb/v7e-m+fp/hard\libc_nano.a(lib_a-dtoa.o)
 .comment       0x00000053       0x54 c:/program files/microchip/xc32/v3.01/bin/bin/../../lib/gcc/pic32c/8.3.1/../../../../pic32c/lib/thumb/v7e-m+fp/hard\libc_nano.a(lib_a-localeconv.o)
 .comment       0x00000053       0x54 c:/program files/microchip/xc32/v3.01/bin/bin/../../lib/gcc/pic32c/8.3.1/../../../../pic32c/lib/thumb/v7e-m+fp/hard\libc_nano.a(lib_a-mprec.o)
 .comment       0x00000053       0x54 c:/program files/microchip/xc32/v3.01/bin/bin/../../lib/gcc/pic32c/8.3.1/../../../../pic32c/lib/thumb/v7e-m+fp/hard\libc_nano.a(lib_a-nano-reallocr.o)
 .comment       0x00000053       0x54 c:/program files/microchip/xc32/v3.01/bin/bin/../../lib/gcc/pic32c/8.3.1/../../../../pic32c/lib/thumb/v7e-m+fp/hard\libc_nano.a(lib_a-locale.o)
 .comment       0x00000053       0x54 c:/program files/microchip/xc32/v3.01/bin/bin/../../lib/gcc/pic32c/8.3.1/../../../../pic32c/lib/thumb/v7e-m+fp/hard\libc_nano.a(lib_a-mbtowc_r.o)
 .comment       0x00000053       0x54 c:/program files/microchip/xc32/v3.01/bin/bin/../../lib/gcc/pic32c/8.3.1/../../../../pic32c/lib/thumb/v7e-m+fp/hard\libc_nano.a(lib_a-nano-msizer.o)
 .comment       0x00000053       0x54 c:/program files/microchip/xc32/v3.01/bin/bin/../../lib/gcc/pic32c/8.3.1/../../../../pic32c/lib/thumb/v7e-m+fp/hard\libc_nano.a(lib_a-wctomb_r.o)
 .comment       0x00000053       0x54 c:/program files/microchip/xc32/v3.01/bin/bin/../../lib/gcc/pic32c/8.3.1/../../../../pic32c/lib/thumb/v7e-m+fp/hard\libpic32c.a(sbrk.o)

.debug_info     0x00000000   0x14597c
 .debug_info    0x00000000     0x4c4e build/default/production/_ext/1645245335/crypto.o
 .debug_info    0x00004c4e     0x8bd6 build/default/production/_ext/444070925/drv_ethphy.o
 .debug_info    0x0000d824     0x3356 build/default/production/_ext/444070925/drv_extphy_ksz8081.o
 .debug_info    0x00010b7a     0xb133 build/default/production/_ext/1546807373/drv_gmac.o
 .debug_info    0x0001bcad     0x9905 build/default/production/_ext/1546807373/drv_gmac_lib_samE5x.o
 .debug_info    0x000255b2     0x4144 build/default/production/_ext/992804092/drv_memory.o
 .debug_info    0x000296f6     0x18a1 build/default/production/_ext/992804092/drv_memory_file_system.o
 .debug_info    0x0002af97     0x4d6b build/default/production/_ext/992804092/drv_memory_nvmctrl.o
 .debug_info    0x0002fd02     0x51c8 build/default/production/_ext/438849557/drv_miim.o
 .debug_info    0x00034eca     0x2d8c build/default/production/_ext/1751889202/sys_fs_shell.o
 .debug_info    0x00037c56     0x1303 build/default/production/_ext/1033058136/helpers.o
 .debug_info    0x00038f59     0xcbd0 build/default/production/_ext/1033058136/snmp.o
 .debug_info    0x00045b29     0x5b29 build/default/production/_ext/1033058136/icmp.o
 .debug_info    0x0004b652     0xcd62 build/default/production/_ext/1033058136/tcp.o
 .debug_info    0x000583b4     0x7eeb build/default/production/_ext/1033058136/arp.o
 .debug_info    0x0006029f     0xa8a4 build/default/production/_ext/1033058136/tcpip_commands.o
 .debug_info    0x0006ab43     0x8ac2 build/default/production/_ext/1033058136/http.o
 .debug_info    0x00073605     0x8ba4 build/default/production/_ext/1033058136/iperf.o
 .debug_info    0x0007c1a9     0x8b69 build/default/production/_ext/1033058136/ipv4.o
 .debug_info    0x00084d12     0x3678 build/default/production/_ext/1033058136/tcpip_heap_alloc.o
 .debug_info    0x0008838a     0x40bd build/default/production/_ext/1033058136/tcpip_heap_internal.o
 .debug_info    0x0008c447     0xaab4 build/default/production/_ext/1033058136/dhcp.o
 .debug_info    0x00096efb     0x8e25 build/default/production/_ext/1033058136/dns.o
 .debug_info    0x0009fd20     0x1040 build/default/production/_ext/1033058136/hash_fnv.o
 .debug_info    0x000a0d60     0x1782 build/default/production/_ext/1033058136/oahash.o
 .debug_info    0x000a24e2     0x6346 build/default/production/_ext/1033058136/tcpip_helpers.o
 .debug_info    0x000a8828     0xd379 build/default/production/_ext/1033058136/tcpip_manager.o
 .debug_info    0x000b5ba1     0x3717 build/default/production/_ext/1033058136/tcpip_notify.o
 .debug_info    0x000b92b8     0x4791 build/default/production/_ext/1033058136/tcpip_packet.o
 .debug_info    0x000bda49     0xa1d1 build/default/production/_ext/1033058136/udp.o
 .debug_info    0x000c7c1a      0xc39 build/default/production/_ext/1529399856/osal_freertos.o
 .debug_info    0x000c8853      0xbf9 build/default/production/_ext/1984496892/plib_clock.o
 .debug_info    0x000c944c      0x37f build/default/production/_ext/1986646378/plib_evsys.o
 .debug_info    0x000c97cb     0x1647 build/default/production/_ext/1865468468/plib_nvic.o
 .debug_info    0x000cae12     0x1a8f build/default/production/_ext/1593096446/plib_nvmctrl.o
 .debug_info    0x000cc8a1     0x102d build/default/production/_ext/1865521619/plib_port.o
 .debug_info    0x000cd8ce     0x21b8 build/default/production/_ext/504274921/plib_sercom1_usart.o
 .debug_info    0x000cfa86      0xd2f build/default/production/_ext/829342655/plib_tc0.o
 .debug_info    0x000d07b5     0x33f9 build/default/production/_ext/1376093119/sys_command.o
 .debug_info    0x000d3bae     0x5a47 build/default/production/_ext/1832805299/sys_console_uart.o
 .debug_info    0x000d95f5     0x208c build/default/production/_ext/1832805299/sys_console.o
 .debug_info    0x000db681     0x13be build/default/production/_ext/944882569/sys_debug.o
 .debug_info    0x000dca3f     0x25ee build/default/production/_ext/699575981/mpfs.o
 .debug_info    0x000df02d     0x4166 build/default/production/_ext/1269487135/sys_fs.o
 .debug_info    0x000e3193     0x3504 build/default/production/_ext/1269487135/sys_fs_media_manager.o
 .debug_info    0x000e6697     0x120d build/default/production/_ext/1881668453/sys_int.o
 .debug_info    0x000e78a4      0x640 build/default/production/_ext/1000052432/sys_reset.o
 .debug_info    0x000e7ee4     0x3c80 build/default/production/_ext/101884895/sys_time.o
 .debug_info    0x000ebb64      0x703 build/default/production/_ext/753841488/sys_time_h2_adapter.o
 .debug_info    0x000ec267     0x12c4 build/default/production/_ext/753841488/sys_random_h2_adapter.o
 .debug_info    0x000ed52b     0x963b build/default/production/_ext/1171490990/initialization.o
 .debug_info    0x000f6b66     0x5e75 build/default/production/_ext/1171490990/interrupts.o
 .debug_info    0x000fc9db     0x490f build/default/production/_ext/1171490990/exceptions.o
 .debug_info    0x001012ea      0x91e build/default/production/_ext/1171490990/startup_xc32.o
 .debug_info    0x00101c08     0x4e90 build/default/production/_ext/1171490990/tasks.o
 .debug_info    0x00106a98      0x564 build/default/production/_ext/1171490990/freertos_hooks.o
 .debug_info    0x00106ffc      0x7bf build/default/production/_ext/246609638/port.o
 .debug_info    0x001077bb     0x10fe build/default/production/_ext/1665200909/heap_1.o
 .debug_info    0x001088b9     0x1221 build/default/production/_ext/404212886/list.o
 .debug_info    0x00109ada     0x2d4e build/default/production/_ext/404212886/queue.o
 .debug_info    0x0010c828     0x3a66 build/default/production/_ext/404212886/FreeRTOS_tasks.o
 .debug_info    0x0011028e     0x2ec0 build/default/production/_ext/172253694/crypt_wolfcryptcb.o
 .debug_info    0x0011314e     0x5121 build/default/production/_ext/1664057780/cryptocb.o
 .debug_info    0x0011826f     0x30fe build/default/production/_ext/1664057780/md5.o
 .debug_info    0x0011b36d     0x48d2 build/default/production/_ext/1664057780/random.o
 .debug_info    0x0011fc3f     0x4902 build/default/production/_ext/1664057780/sha256.o
 .debug_info    0x00124541     0x4866 build/default/production/_ext/1360937237/main.o
 .debug_info    0x00128da7     0x6101 build/default/production/_ext/1360937237/custom_snmp_app.o
 .debug_info    0x0012eea8     0x4e1b build/default/production/_ext/1360937237/app.o
 .debug_info    0x00133cc3     0x4b37 build/default/production/_ext/1360937237/mpfs_img2.o
 .debug_info    0x001387fa     0x310f build/default/production/_ext/1360937237/http_print.o
 .debug_info    0x0013b909     0x79ea build/default/production/_ext/1360937237/custom_http_app.o
 .debug_info    0x001432f3      0x2cd c:/program files/microchip/xc32/v3.01/bin/bin/../../lib/gcc/pic32c/8.3.1/../../../../pic32c/lib/thumb/v7e-m+fp/hard\libpic32c.a(data_init.o)
 .debug_info    0x001435c0       0x26 c:/program files/microchip/xc32/v3.01/bin/bin/../../lib/gcc/pic32c/8.3.1/thumb/v7e-m+fp/hard\libgcc.a(_arm_addsubdf3.o)
 .debug_info    0x001435e6       0x26 c:/program files/microchip/xc32/v3.01/bin/bin/../../lib/gcc/pic32c/8.3.1/thumb/v7e-m+fp/hard\libgcc.a(_arm_muldivdf3.o)
 .debug_info    0x0014360c       0x26 c:/program files/microchip/xc32/v3.01/bin/bin/../../lib/gcc/pic32c/8.3.1/thumb/v7e-m+fp/hard\libgcc.a(_arm_cmpdf2.o)
 .debug_info    0x00143632       0x26 c:/program files/microchip/xc32/v3.01/bin/bin/../../lib/gcc/pic32c/8.3.1/thumb/v7e-m+fp/hard\libgcc.a(_arm_fixunsdfsi.o)
 .debug_info    0x00143658       0x26 c:/program files/microchip/xc32/v3.01/bin/bin/../../lib/gcc/pic32c/8.3.1/thumb/v7e-m+fp/hard\libgcc.a(_aeabi_uldivmod.o)
 .debug_info    0x0014367e     0x1fdc c:/program files/microchip/xc32/v3.01/bin/bin/../../lib/gcc/pic32c/8.3.1/thumb/v7e-m+fp/hard\libgcc.a(_udivmoddi4.o)
 .debug_info    0x0014565a       0x26 c:/program files/microchip/xc32/v3.01/bin/bin/../../lib/gcc/pic32c/8.3.1/thumb/v7e-m+fp/hard\libgcc.a(_dvmd_tls.o)
 .debug_info    0x00145680      0x2b0 c:/program files/microchip/xc32/v3.01/bin/bin/../../lib/gcc/pic32c/8.3.1/../../../../pic32c/lib/thumb/v7e-m+fp/hard\libpic32c.a(sbrk.o)
 .debug_info    0x00145930       0x26 c:/program files/microchip/xc32/v3.01/bin/bin/../../lib/gcc/pic32c/8.3.1/thumb/v7e-m+fp/hard\libgcc.a(_arm_unorddf2.o)
 .debug_info    0x00145956       0x26 c:/program files/microchip/xc32/v3.01/bin/bin/../../lib/gcc/pic32c/8.3.1/thumb/v7e-m+fp/hard\libgcc.a(_arm_fixdfsi.o)

.debug_abbrev   0x00000000    0x12893
 .debug_abbrev  0x00000000      0x429 build/default/production/_ext/1645245335/crypto.o
 .debug_abbrev  0x00000429      0x5c7 build/default/production/_ext/444070925/drv_ethphy.o
 .debug_abbrev  0x000009f0      0x354 build/default/production/_ext/444070925/drv_extphy_ksz8081.o
 .debug_abbrev  0x00000d44      0x6a3 build/default/production/_ext/1546807373/drv_gmac.o
 .debug_abbrev  0x000013e7      0x674 build/default/production/_ext/1546807373/drv_gmac_lib_samE5x.o
 .debug_abbrev  0x00001a5b      0x581 build/default/production/_ext/992804092/drv_memory.o
 .debug_abbrev  0x00001fdc      0x23a build/default/production/_ext/992804092/drv_memory_file_system.o
 .debug_abbrev  0x00002216      0x358 build/default/production/_ext/992804092/drv_memory_nvmctrl.o
 .debug_abbrev  0x0000256e      0x6b9 build/default/production/_ext/438849557/drv_miim.o
 .debug_abbrev  0x00002c27      0x43f build/default/production/_ext/1751889202/sys_fs_shell.o
 .debug_abbrev  0x00003066      0x2e2 build/default/production/_ext/1033058136/helpers.o
 .debug_abbrev  0x00003348      0x71d build/default/production/_ext/1033058136/snmp.o
 .debug_abbrev  0x00003a65      0x5e2 build/default/production/_ext/1033058136/icmp.o
 .debug_abbrev  0x00004047      0x6fd build/default/production/_ext/1033058136/tcp.o
 .debug_abbrev  0x00004744      0x657 build/default/production/_ext/1033058136/arp.o
 .debug_abbrev  0x00004d9b      0x5be build/default/production/_ext/1033058136/tcpip_commands.o
 .debug_abbrev  0x00005359      0x640 build/default/production/_ext/1033058136/http.o
 .debug_abbrev  0x00005999      0x5db build/default/production/_ext/1033058136/iperf.o
 .debug_abbrev  0x00005f74      0x5fb build/default/production/_ext/1033058136/ipv4.o
 .debug_abbrev  0x0000656f      0x301 build/default/production/_ext/1033058136/tcpip_heap_alloc.o
 .debug_abbrev  0x00006870      0x4b4 build/default/production/_ext/1033058136/tcpip_heap_internal.o
 .debug_abbrev  0x00006d24      0x693 build/default/production/_ext/1033058136/dhcp.o
 .debug_abbrev  0x000073b7      0x609 build/default/production/_ext/1033058136/dns.o
 .debug_abbrev  0x000079c0      0x213 build/default/production/_ext/1033058136/hash_fnv.o
 .debug_abbrev  0x00007bd3      0x3c1 build/default/production/_ext/1033058136/oahash.o
 .debug_abbrev  0x00007f94      0x5cd build/default/production/_ext/1033058136/tcpip_helpers.o
 .debug_abbrev  0x00008561      0x79b build/default/production/_ext/1033058136/tcpip_manager.o
 .debug_abbrev  0x00008cfc      0x395 build/default/production/_ext/1033058136/tcpip_notify.o
 .debug_abbrev  0x00009091      0x578 build/default/production/_ext/1033058136/tcpip_packet.o
 .debug_abbrev  0x00009609      0x68c build/default/production/_ext/1033058136/udp.o
 .debug_abbrev  0x00009c95      0x1f5 build/default/production/_ext/1529399856/osal_freertos.o
 .debug_abbrev  0x00009e8a      0x135 build/default/production/_ext/1984496892/plib_clock.o
 .debug_abbrev  0x00009fbf       0x64 build/default/production/_ext/1986646378/plib_evsys.o
 .debug_abbrev  0x0000a023      0x222 build/default/production/_ext/1865468468/plib_nvic.o
 .debug_abbrev  0x0000a245      0x34c build/default/production/_ext/1593096446/plib_nvmctrl.o
 .debug_abbrev  0x0000a591      0x1e9 build/default/production/_ext/1865521619/plib_port.o
 .debug_abbrev  0x0000a77a      0x492 build/default/production/_ext/504274921/plib_sercom1_usart.o
 .debug_abbrev  0x0000ac0c      0x1f9 build/default/production/_ext/829342655/plib_tc0.o
 .debug_abbrev  0x0000ae05      0x51f build/default/production/_ext/1376093119/sys_command.o
 .debug_abbrev  0x0000b324      0x4c0 build/default/production/_ext/1832805299/sys_console_uart.o
 .debug_abbrev  0x0000b7e4      0x462 build/default/production/_ext/1832805299/sys_console.o
 .debug_abbrev  0x0000bc46      0x28d build/default/production/_ext/944882569/sys_debug.o
 .debug_abbrev  0x0000bed3      0x46e build/default/production/_ext/699575981/mpfs.o
 .debug_abbrev  0x0000c341      0x532 build/default/production/_ext/1269487135/sys_fs.o
 .debug_abbrev  0x0000c873      0x56e build/default/production/_ext/1269487135/sys_fs_media_manager.o
 .debug_abbrev  0x0000cde1      0x253 build/default/production/_ext/1881668453/sys_int.o
 .debug_abbrev  0x0000d034      0x102 build/default/production/_ext/1000052432/sys_reset.o
 .debug_abbrev  0x0000d136      0x5ed build/default/production/_ext/101884895/sys_time.o
 .debug_abbrev  0x0000d723      0x16f build/default/production/_ext/753841488/sys_time_h2_adapter.o
 .debug_abbrev  0x0000d892      0x29f build/default/production/_ext/753841488/sys_random_h2_adapter.o
 .debug_abbrev  0x0000db31      0x3e4 build/default/production/_ext/1171490990/initialization.o
 .debug_abbrev  0x0000df15      0x2aa build/default/production/_ext/1171490990/interrupts.o
 .debug_abbrev  0x0000e1bf      0x29d build/default/production/_ext/1171490990/exceptions.o
 .debug_abbrev  0x0000e45c      0x1ee build/default/production/_ext/1171490990/startup_xc32.o
 .debug_abbrev  0x0000e64a      0x306 build/default/production/_ext/1171490990/tasks.o
 .debug_abbrev  0x0000e950      0x13f build/default/production/_ext/1171490990/freertos_hooks.o
 .debug_abbrev  0x0000ea8f      0x217 build/default/production/_ext/246609638/port.o
 .debug_abbrev  0x0000eca6      0x2af build/default/production/_ext/1665200909/heap_1.o
 .debug_abbrev  0x0000ef55      0x270 build/default/production/_ext/404212886/list.o
 .debug_abbrev  0x0000f1c5      0x484 build/default/production/_ext/404212886/queue.o
 .debug_abbrev  0x0000f649      0x545 build/default/production/_ext/404212886/FreeRTOS_tasks.o
 .debug_abbrev  0x0000fb8e      0x2b4 build/default/production/_ext/172253694/crypt_wolfcryptcb.o
 .debug_abbrev  0x0000fe42      0x45c build/default/production/_ext/1664057780/cryptocb.o
 .debug_abbrev  0x0001029e      0x400 build/default/production/_ext/1664057780/md5.o
 .debug_abbrev  0x0001069e      0x531 build/default/production/_ext/1664057780/random.o
 .debug_abbrev  0x00010bcf      0x4ed build/default/production/_ext/1664057780/sha256.o
 .debug_abbrev  0x000110bc      0x2d6 build/default/production/_ext/1360937237/main.o
 .debug_abbrev  0x00011392      0x4b1 build/default/production/_ext/1360937237/custom_snmp_app.o
 .debug_abbrev  0x00011843      0x2fa build/default/production/_ext/1360937237/app.o
 .debug_abbrev  0x00011b3d      0x29c build/default/production/_ext/1360937237/mpfs_img2.o
 .debug_abbrev  0x00011dd9      0x30a build/default/production/_ext/1360937237/http_print.o
 .debug_abbrev  0x000120e3      0x522 build/default/production/_ext/1360937237/custom_http_app.o
 .debug_abbrev  0x00012605       0x2e c:/program files/microchip/xc32/v3.01/bin/bin/../../lib/gcc/pic32c/8.3.1/../../../../pic32c/lib/thumb/v7e-m+fp/hard\libpic32c.a(data_init.o)
 .debug_abbrev  0x00012633       0x14 c:/program files/microchip/xc32/v3.01/bin/bin/../../lib/gcc/pic32c/8.3.1/thumb/v7e-m+fp/hard\libgcc.a(_arm_addsubdf3.o)
 .debug_abbrev  0x00012647       0x14 c:/program files/microchip/xc32/v3.01/bin/bin/../../lib/gcc/pic32c/8.3.1/thumb/v7e-m+fp/hard\libgcc.a(_arm_muldivdf3.o)
 .debug_abbrev  0x0001265b       0x14 c:/program files/microchip/xc32/v3.01/bin/bin/../../lib/gcc/pic32c/8.3.1/thumb/v7e-m+fp/hard\libgcc.a(_arm_cmpdf2.o)
 .debug_abbrev  0x0001266f       0x14 c:/program files/microchip/xc32/v3.01/bin/bin/../../lib/gcc/pic32c/8.3.1/thumb/v7e-m+fp/hard\libgcc.a(_arm_fixunsdfsi.o)
 .debug_abbrev  0x00012683       0x14 c:/program files/microchip/xc32/v3.01/bin/bin/../../lib/gcc/pic32c/8.3.1/thumb/v7e-m+fp/hard\libgcc.a(_aeabi_uldivmod.o)
 .debug_abbrev  0x00012697      0x192 c:/program files/microchip/xc32/v3.01/bin/bin/../../lib/gcc/pic32c/8.3.1/thumb/v7e-m+fp/hard\libgcc.a(_udivmoddi4.o)
 .debug_abbrev  0x00012829       0x14 c:/program files/microchip/xc32/v3.01/bin/bin/../../lib/gcc/pic32c/8.3.1/thumb/v7e-m+fp/hard\libgcc.a(_dvmd_tls.o)
 .debug_abbrev  0x0001283d       0x2e c:/program files/microchip/xc32/v3.01/bin/bin/../../lib/gcc/pic32c/8.3.1/../../../../pic32c/lib/thumb/v7e-m+fp/hard\libpic32c.a(sbrk.o)
 .debug_abbrev  0x0001286b       0x14 c:/program files/microchip/xc32/v3.01/bin/bin/../../lib/gcc/pic32c/8.3.1/thumb/v7e-m+fp/hard\libgcc.a(_arm_unorddf2.o)
 .debug_abbrev  0x0001287f       0x14 c:/program files/microchip/xc32/v3.01/bin/bin/../../lib/gcc/pic32c/8.3.1/thumb/v7e-m+fp/hard\libgcc.a(_arm_fixdfsi.o)

.debug_loc      0x00000000    0x6ac4a
 .debug_loc     0x00000000     0x334c build/default/production/_ext/1645245335/crypto.o
 .debug_loc     0x0000334c     0x4a04 build/default/production/_ext/444070925/drv_ethphy.o
 .debug_loc     0x00007d50      0x1ff build/default/production/_ext/444070925/drv_extphy_ksz8081.o
 .debug_loc     0x00007f4f     0x3003 build/default/production/_ext/1546807373/drv_gmac.o
 .debug_loc     0x0000af52     0x2651 build/default/production/_ext/1546807373/drv_gmac_lib_samE5x.o
 .debug_loc     0x0000d5a3     0x1ffd build/default/production/_ext/992804092/drv_memory.o
 .debug_loc     0x0000f5a0       0x6a build/default/production/_ext/992804092/drv_memory_file_system.o
 .debug_loc     0x0000f60a      0x263 build/default/production/_ext/992804092/drv_memory_nvmctrl.o
 .debug_loc     0x0000f86d     0x2867 build/default/production/_ext/438849557/drv_miim.o
 .debug_loc     0x000120d4     0x1b0d build/default/production/_ext/1751889202/sys_fs_shell.o
 .debug_loc     0x00013be1      0x5a1 build/default/production/_ext/1033058136/helpers.o
 .debug_loc     0x00014182     0x53cd build/default/production/_ext/1033058136/snmp.o
 .debug_loc     0x0001954f      0xa23 build/default/production/_ext/1033058136/icmp.o
 .debug_loc     0x00019f72     0x82ff build/default/production/_ext/1033058136/tcp.o
 .debug_loc     0x00022271     0x3b6b build/default/production/_ext/1033058136/arp.o
 .debug_loc     0x00025ddc     0x33c4 build/default/production/_ext/1033058136/tcpip_commands.o
 .debug_loc     0x000291a0     0x24d0 build/default/production/_ext/1033058136/http.o
 .debug_loc     0x0002b670     0x22ef build/default/production/_ext/1033058136/iperf.o
 .debug_loc     0x0002d95f     0x2f0b build/default/production/_ext/1033058136/ipv4.o
 .debug_loc     0x0003086a      0x207 build/default/production/_ext/1033058136/tcpip_heap_alloc.o
 .debug_loc     0x00030a71     0x1007 build/default/production/_ext/1033058136/tcpip_heap_internal.o
 .debug_loc     0x00031a78     0x3f8b build/default/production/_ext/1033058136/dhcp.o
 .debug_loc     0x00035a03     0x40ae build/default/production/_ext/1033058136/dns.o
 .debug_loc     0x00039ab1      0x21b build/default/production/_ext/1033058136/hash_fnv.o
 .debug_loc     0x00039ccc      0x4ab build/default/production/_ext/1033058136/oahash.o
 .debug_loc     0x0003a177     0x3943 build/default/production/_ext/1033058136/tcpip_helpers.o
 .debug_loc     0x0003daba     0x7810 build/default/production/_ext/1033058136/tcpip_manager.o
 .debug_loc     0x000452ca      0x458 build/default/production/_ext/1033058136/tcpip_notify.o
 .debug_loc     0x00045722      0xbe0 build/default/production/_ext/1033058136/tcpip_packet.o
 .debug_loc     0x00046302     0x4be9 build/default/production/_ext/1033058136/udp.o
 .debug_loc     0x0004aeeb      0x727 build/default/production/_ext/1529399856/osal_freertos.o
 .debug_loc     0x0004b612      0x264 build/default/production/_ext/1865468468/plib_nvic.o
 .debug_loc     0x0004b876      0x868 build/default/production/_ext/1593096446/plib_nvmctrl.o
 .debug_loc     0x0004c0de      0x1bc build/default/production/_ext/1865521619/plib_port.o
 .debug_loc     0x0004c29a      0xd41 build/default/production/_ext/504274921/plib_sercom1_usart.o
 .debug_loc     0x0004cfdb       0x5f build/default/production/_ext/829342655/plib_tc0.o
 .debug_loc     0x0004d03a     0x19de build/default/production/_ext/1376093119/sys_command.o
 .debug_loc     0x0004ea18      0x852 build/default/production/_ext/1832805299/sys_console_uart.o
 .debug_loc     0x0004f26a      0xc61 build/default/production/_ext/1832805299/sys_console.o
 .debug_loc     0x0004fecb       0xa1 build/default/production/_ext/944882569/sys_debug.o
 .debug_loc     0x0004ff6c     0x1a69 build/default/production/_ext/699575981/mpfs.o
 .debug_loc     0x000519d5     0x3156 build/default/production/_ext/1269487135/sys_fs.o
 .debug_loc     0x00054b2b     0x14ee build/default/production/_ext/1269487135/sys_fs_media_manager.o
 .debug_loc     0x00056019      0x182 build/default/production/_ext/1881668453/sys_int.o
 .debug_loc     0x0005619b     0x230c build/default/production/_ext/101884895/sys_time.o
 .debug_loc     0x000584a7      0x152 build/default/production/_ext/753841488/sys_time_h2_adapter.o
 .debug_loc     0x000585f9      0x1dd build/default/production/_ext/753841488/sys_random_h2_adapter.o
 .debug_loc     0x000587d6       0x7d build/default/production/_ext/1171490990/initialization.o
 .debug_loc     0x00058853       0x4a build/default/production/_ext/1171490990/startup_xc32.o
 .debug_loc     0x0005889d      0x191 build/default/production/_ext/1171490990/tasks.o
 .debug_loc     0x00058a2e       0x82 build/default/production/_ext/1171490990/freertos_hooks.o
 .debug_loc     0x00058ab0      0x13a build/default/production/_ext/246609638/port.o
 .debug_loc     0x00058bea      0x116 build/default/production/_ext/1665200909/heap_1.o
 .debug_loc     0x00058d00       0xb2 build/default/production/_ext/404212886/list.o
 .debug_loc     0x00058db2     0x16e4 build/default/production/_ext/404212886/queue.o
 .debug_loc     0x0005a496     0x212d build/default/production/_ext/404212886/FreeRTOS_tasks.o
 .debug_loc     0x0005c5c3       0x45 build/default/production/_ext/172253694/crypt_wolfcryptcb.o
 .debug_loc     0x0005c608     0x27ea build/default/production/_ext/1664057780/cryptocb.o
 .debug_loc     0x0005edf2     0x2df9 build/default/production/_ext/1664057780/md5.o
 .debug_loc     0x00061beb     0x29ba build/default/production/_ext/1664057780/random.o
 .debug_loc     0x000645a5     0x284a build/default/production/_ext/1664057780/sha256.o
 .debug_loc     0x00066def       0x20 build/default/production/_ext/1360937237/main.o
 .debug_loc     0x00066e0f     0x1032 build/default/production/_ext/1360937237/custom_snmp_app.o
 .debug_loc     0x00067e41      0xb0b build/default/production/_ext/1360937237/http_print.o
 .debug_loc     0x0006894c     0x12a9 build/default/production/_ext/1360937237/custom_http_app.o
 .debug_loc     0x00069bf5       0x14 c:/program files/microchip/xc32/v3.01/bin/bin/../../lib/gcc/pic32c/8.3.1/../../../../pic32c/lib/thumb/v7e-m+fp/hard\libpic32c.a(data_init.o)
 .debug_loc     0x00069c09     0x1041 c:/program files/microchip/xc32/v3.01/bin/bin/../../lib/gcc/pic32c/8.3.1/thumb/v7e-m+fp/hard\libgcc.a(_udivmoddi4.o)

.debug_aranges  0x00000000     0x3648
 .debug_aranges
                0x00000000      0x1d0 build/default/production/_ext/1645245335/crypto.o
 .debug_aranges
                0x000001d0      0x248 build/default/production/_ext/444070925/drv_ethphy.o
 .debug_aranges
                0x00000418       0x30 build/default/production/_ext/444070925/drv_extphy_ksz8081.o
 .debug_aranges
                0x00000448      0x278 build/default/production/_ext/1546807373/drv_gmac.o
 .debug_aranges
                0x000006c0      0x140 build/default/production/_ext/1546807373/drv_gmac_lib_samE5x.o
 .debug_aranges
                0x00000800       0xf0 build/default/production/_ext/992804092/drv_memory.o
 .debug_aranges
                0x000008f0       0x20 build/default/production/_ext/992804092/drv_memory_file_system.o
 .debug_aranges
                0x00000910       0x58 build/default/production/_ext/992804092/drv_memory_nvmctrl.o
 .debug_aranges
                0x00000968       0xe0 build/default/production/_ext/438849557/drv_miim.o
 .debug_aranges
                0x00000a48       0xc0 build/default/production/_ext/1751889202/sys_fs_shell.o
 .debug_aranges
                0x00000b08       0x48 build/default/production/_ext/1033058136/helpers.o
 .debug_aranges
                0x00000b50      0x210 build/default/production/_ext/1033058136/snmp.o
 .debug_aranges
                0x00000d60       0x70 build/default/production/_ext/1033058136/icmp.o
 .debug_aranges
                0x00000dd0      0x230 build/default/production/_ext/1033058136/tcp.o
 .debug_aranges
                0x00001000      0x110 build/default/production/_ext/1033058136/arp.o
 .debug_aranges
                0x00001110       0xe8 build/default/production/_ext/1033058136/tcpip_commands.o
 .debug_aranges
                0x000011f8      0x170 build/default/production/_ext/1033058136/http.o
 .debug_aranges
                0x00001368       0x98 build/default/production/_ext/1033058136/iperf.o
 .debug_aranges
                0x00001400       0xf0 build/default/production/_ext/1033058136/ipv4.o
 .debug_aranges
                0x000014f0       0x48 build/default/production/_ext/1033058136/tcpip_heap_alloc.o
 .debug_aranges
                0x00001538       0x68 build/default/production/_ext/1033058136/tcpip_heap_internal.o
 .debug_aranges
                0x000015a0      0x188 build/default/production/_ext/1033058136/dhcp.o
 .debug_aranges
                0x00001728      0x130 build/default/production/_ext/1033058136/dns.o
 .debug_aranges
                0x00001858       0x28 build/default/production/_ext/1033058136/hash_fnv.o
 .debug_aranges
                0x00001880       0x50 build/default/production/_ext/1033058136/oahash.o
 .debug_aranges
                0x000018d0      0x218 build/default/production/_ext/1033058136/tcpip_helpers.o
 .debug_aranges
                0x00001ae8      0x3a0 build/default/production/_ext/1033058136/tcpip_manager.o
 .debug_aranges
                0x00001e88       0x48 build/default/production/_ext/1033058136/tcpip_notify.o
 .debug_aranges
                0x00001ed0       0x88 build/default/production/_ext/1033058136/tcpip_packet.o
 .debug_aranges
                0x00001f58      0x1c0 build/default/production/_ext/1033058136/udp.o
 .debug_aranges
                0x00002118       0x90 build/default/production/_ext/1529399856/osal_freertos.o
 .debug_aranges
                0x000021a8       0x20 build/default/production/_ext/1984496892/plib_clock.o
 .debug_aranges
                0x000021c8       0x20 build/default/production/_ext/1986646378/plib_evsys.o
 .debug_aranges
                0x000021e8       0x38 build/default/production/_ext/1865468468/plib_nvic.o
 .debug_aranges
                0x00002220       0xd8 build/default/production/_ext/1593096446/plib_nvmctrl.o
 .debug_aranges
                0x000022f8       0x70 build/default/production/_ext/1865521619/plib_port.o
 .debug_aranges
                0x00002368       0xc0 build/default/production/_ext/504274921/plib_sercom1_usart.o
 .debug_aranges
                0x00002428       0x78 build/default/production/_ext/829342655/plib_tc0.o
 .debug_aranges
                0x000024a0       0xd8 build/default/production/_ext/1376093119/sys_command.o
 .debug_aranges
                0x00002578       0x70 build/default/production/_ext/1832805299/sys_console_uart.o
 .debug_aranges
                0x000025e8       0x88 build/default/production/_ext/1832805299/sys_console.o
 .debug_aranges
                0x00002670       0x48 build/default/production/_ext/944882569/sys_debug.o
 .debug_aranges
                0x000026b8       0xa0 build/default/production/_ext/699575981/mpfs.o
 .debug_aranges
                0x00002758      0x178 build/default/production/_ext/1269487135/sys_fs.o
 .debug_aranges
                0x000028d0       0x98 build/default/production/_ext/1269487135/sys_fs_media_manager.o
 .debug_aranges
                0x00002968       0x40 build/default/production/_ext/1881668453/sys_int.o
 .debug_aranges
                0x000029a8       0x20 build/default/production/_ext/1000052432/sys_reset.o
 .debug_aranges
                0x000029c8      0x128 build/default/production/_ext/101884895/sys_time.o
 .debug_aranges
                0x00002af0       0x40 build/default/production/_ext/753841488/sys_time_h2_adapter.o
 .debug_aranges
                0x00002b30       0x48 build/default/production/_ext/753841488/sys_random_h2_adapter.o
 .debug_aranges
                0x00002b78       0x28 build/default/production/_ext/1171490990/initialization.o
 .debug_aranges
                0x00002ba0       0x20 build/default/production/_ext/1171490990/interrupts.o
 .debug_aranges
                0x00002bc0       0x48 build/default/production/_ext/1171490990/exceptions.o
 .debug_aranges
                0x00002c08       0x28 build/default/production/_ext/1171490990/startup_xc32.o
 .debug_aranges
                0x00002c30       0x48 build/default/production/_ext/1171490990/tasks.o
 .debug_aranges
                0x00002c78       0x40 build/default/production/_ext/1171490990/freertos_hooks.o
 .debug_aranges
                0x00002cb8       0x78 build/default/production/_ext/246609638/port.o
 .debug_aranges
                0x00002d30       0x38 build/default/production/_ext/1665200909/heap_1.o
 .debug_aranges
                0x00002d68       0x40 build/default/production/_ext/404212886/list.o
 .debug_aranges
                0x00002da8       0xc8 build/default/production/_ext/404212886/queue.o
 .debug_aranges
                0x00002e70      0x178 build/default/production/_ext/404212886/FreeRTOS_tasks.o
 .debug_aranges
                0x00002fe8       0x28 build/default/production/_ext/172253694/crypt_wolfcryptcb.o
 .debug_aranges
                0x00003010       0xd8 build/default/production/_ext/1664057780/cryptocb.o
 .debug_aranges
                0x000030e8       0x68 build/default/production/_ext/1664057780/md5.o
 .debug_aranges
                0x00003150       0xb8 build/default/production/_ext/1664057780/random.o
 .debug_aranges
                0x00003208       0xb8 build/default/production/_ext/1664057780/sha256.o
 .debug_aranges
                0x000032c0       0x20 build/default/production/_ext/1360937237/main.o
 .debug_aranges
                0x000032e0       0x78 build/default/production/_ext/1360937237/custom_snmp_app.o
 .debug_aranges
                0x00003358       0x28 build/default/production/_ext/1360937237/app.o
 .debug_aranges
                0x00003380       0x18 build/default/production/_ext/1360937237/mpfs_img2.o
 .debug_aranges
                0x00003398       0x28 build/default/production/_ext/1360937237/http_print.o
 .debug_aranges
                0x000033c0      0x128 build/default/production/_ext/1360937237/custom_http_app.o
 .debug_aranges
                0x000034e8       0x20 c:/program files/microchip/xc32/v3.01/bin/bin/../../lib/gcc/pic32c/8.3.1/../../../../pic32c/lib/thumb/v7e-m+fp/hard\libpic32c.a(data_init.o)
 .debug_aranges
                0x00003508       0x20 c:/program files/microchip/xc32/v3.01/bin/bin/../../lib/gcc/pic32c/8.3.1/thumb/v7e-m+fp/hard\libgcc.a(_arm_addsubdf3.o)
 .debug_aranges
                0x00003528       0x20 c:/program files/microchip/xc32/v3.01/bin/bin/../../lib/gcc/pic32c/8.3.1/thumb/v7e-m+fp/hard\libgcc.a(_arm_muldivdf3.o)
 .debug_aranges
                0x00003548       0x20 c:/program files/microchip/xc32/v3.01/bin/bin/../../lib/gcc/pic32c/8.3.1/thumb/v7e-m+fp/hard\libgcc.a(_arm_cmpdf2.o)
 .debug_aranges
                0x00003568       0x20 c:/program files/microchip/xc32/v3.01/bin/bin/../../lib/gcc/pic32c/8.3.1/thumb/v7e-m+fp/hard\libgcc.a(_arm_fixunsdfsi.o)
 .debug_aranges
                0x00003588       0x20 c:/program files/microchip/xc32/v3.01/bin/bin/../../lib/gcc/pic32c/8.3.1/thumb/v7e-m+fp/hard\libgcc.a(_aeabi_uldivmod.o)
 .debug_aranges
                0x000035a8       0x20 c:/program files/microchip/xc32/v3.01/bin/bin/../../lib/gcc/pic32c/8.3.1/thumb/v7e-m+fp/hard\libgcc.a(_udivmoddi4.o)
 .debug_aranges
                0x000035c8       0x20 c:/program files/microchip/xc32/v3.01/bin/bin/../../lib/gcc/pic32c/8.3.1/thumb/v7e-m+fp/hard\libgcc.a(_dvmd_tls.o)
 .debug_aranges
                0x000035e8       0x20 c:/program files/microchip/xc32/v3.01/bin/bin/../../lib/gcc/pic32c/8.3.1/../../../../pic32c/lib/thumb/v7e-m+fp/hard\libpic32c.a(sbrk.o)
 .debug_aranges
                0x00003608       0x20 c:/program files/microchip/xc32/v3.01/bin/bin/../../lib/gcc/pic32c/8.3.1/thumb/v7e-m+fp/hard\libgcc.a(_arm_unorddf2.o)
 .debug_aranges
                0x00003628       0x20 c:/program files/microchip/xc32/v3.01/bin/bin/../../lib/gcc/pic32c/8.3.1/thumb/v7e-m+fp/hard\libgcc.a(_arm_fixdfsi.o)

.debug_ranges   0x00000000     0x63b8
 .debug_ranges  0x00000000      0x1c0 build/default/production/_ext/1645245335/crypto.o
 .debug_ranges  0x000001c0      0x310 build/default/production/_ext/444070925/drv_ethphy.o
 .debug_ranges  0x000004d0       0x20 build/default/production/_ext/444070925/drv_extphy_ksz8081.o
 .debug_ranges  0x000004f0      0x358 build/default/production/_ext/1546807373/drv_gmac.o
 .debug_ranges  0x00000848      0x288 build/default/production/_ext/1546807373/drv_gmac_lib_samE5x.o
 .debug_ranges  0x00000ad0      0x100 build/default/production/_ext/992804092/drv_memory.o
 .debug_ranges  0x00000bd0       0x10 build/default/production/_ext/992804092/drv_memory_file_system.o
 .debug_ranges  0x00000be0       0x48 build/default/production/_ext/992804092/drv_memory_nvmctrl.o
 .debug_ranges  0x00000c28      0x2a8 build/default/production/_ext/438849557/drv_miim.o
 .debug_ranges  0x00000ed0      0x1e8 build/default/production/_ext/1751889202/sys_fs_shell.o
 .debug_ranges  0x000010b8       0x50 build/default/production/_ext/1033058136/helpers.o
 .debug_ranges  0x00001108      0x330 build/default/production/_ext/1033058136/snmp.o
 .debug_ranges  0x00001438       0xf0 build/default/production/_ext/1033058136/icmp.o
 .debug_ranges  0x00001528      0x6b0 build/default/production/_ext/1033058136/tcp.o
 .debug_ranges  0x00001bd8      0x498 build/default/production/_ext/1033058136/arp.o
 .debug_ranges  0x00002070      0x220 build/default/production/_ext/1033058136/tcpip_commands.o
 .debug_ranges  0x00002290      0x270 build/default/production/_ext/1033058136/http.o
 .debug_ranges  0x00002500      0x2c8 build/default/production/_ext/1033058136/iperf.o
 .debug_ranges  0x000027c8      0x2b8 build/default/production/_ext/1033058136/ipv4.o
 .debug_ranges  0x00002a80       0x38 build/default/production/_ext/1033058136/tcpip_heap_alloc.o
 .debug_ranges  0x00002ab8      0x100 build/default/production/_ext/1033058136/tcpip_heap_internal.o
 .debug_ranges  0x00002bb8      0x548 build/default/production/_ext/1033058136/dhcp.o
 .debug_ranges  0x00003100      0x318 build/default/production/_ext/1033058136/dns.o
 .debug_ranges  0x00003418       0x18 build/default/production/_ext/1033058136/hash_fnv.o
 .debug_ranges  0x00003430       0x40 build/default/production/_ext/1033058136/oahash.o
 .debug_ranges  0x00003470      0x298 build/default/production/_ext/1033058136/tcpip_helpers.o
 .debug_ranges  0x00003708      0x9b8 build/default/production/_ext/1033058136/tcpip_manager.o
 .debug_ranges  0x000040c0       0x38 build/default/production/_ext/1033058136/tcpip_notify.o
 .debug_ranges  0x000040f8       0xd8 build/default/production/_ext/1033058136/tcpip_packet.o
 .debug_ranges  0x000041d0      0x4a8 build/default/production/_ext/1033058136/udp.o
 .debug_ranges  0x00004678       0x80 build/default/production/_ext/1529399856/osal_freertos.o
 .debug_ranges  0x000046f8       0x10 build/default/production/_ext/1984496892/plib_clock.o
 .debug_ranges  0x00004708       0x10 build/default/production/_ext/1986646378/plib_evsys.o
 .debug_ranges  0x00004718       0x28 build/default/production/_ext/1865468468/plib_nvic.o
 .debug_ranges  0x00004740       0xc8 build/default/production/_ext/1593096446/plib_nvmctrl.o
 .debug_ranges  0x00004808       0x60 build/default/production/_ext/1865521619/plib_port.o
 .debug_ranges  0x00004868      0x1f0 build/default/production/_ext/504274921/plib_sercom1_usart.o
 .debug_ranges  0x00004a58       0x68 build/default/production/_ext/829342655/plib_tc0.o
 .debug_ranges  0x00004ac0      0x188 build/default/production/_ext/1376093119/sys_command.o
 .debug_ranges  0x00004c48       0x60 build/default/production/_ext/1832805299/sys_console_uart.o
 .debug_ranges  0x00004ca8       0x78 build/default/production/_ext/1832805299/sys_console.o
 .debug_ranges  0x00004d20       0x38 build/default/production/_ext/944882569/sys_debug.o
 .debug_ranges  0x00004d58       0xb8 build/default/production/_ext/699575981/mpfs.o
 .debug_ranges  0x00004e10      0x180 build/default/production/_ext/1269487135/sys_fs.o
 .debug_ranges  0x00004f90      0x118 build/default/production/_ext/1269487135/sys_fs_media_manager.o
 .debug_ranges  0x000050a8       0x30 build/default/production/_ext/1881668453/sys_int.o
 .debug_ranges  0x000050d8       0x10 build/default/production/_ext/1000052432/sys_reset.o
 .debug_ranges  0x000050e8      0x160 build/default/production/_ext/101884895/sys_time.o
 .debug_ranges  0x00005248       0x30 build/default/production/_ext/753841488/sys_time_h2_adapter.o
 .debug_ranges  0x00005278       0x50 build/default/production/_ext/753841488/sys_random_h2_adapter.o
 .debug_ranges  0x000052c8       0x18 build/default/production/_ext/1171490990/initialization.o
 .debug_ranges  0x000052e0       0x10 build/default/production/_ext/1171490990/interrupts.o
 .debug_ranges  0x000052f0       0x38 build/default/production/_ext/1171490990/exceptions.o
 .debug_ranges  0x00005328       0x18 build/default/production/_ext/1171490990/startup_xc32.o
 .debug_ranges  0x00005340       0x38 build/default/production/_ext/1171490990/tasks.o
 .debug_ranges  0x00005378       0x30 build/default/production/_ext/1171490990/freertos_hooks.o
 .debug_ranges  0x000053a8       0x68 build/default/production/_ext/246609638/port.o
 .debug_ranges  0x00005410       0x28 build/default/production/_ext/1665200909/heap_1.o
 .debug_ranges  0x00005438       0x30 build/default/production/_ext/404212886/list.o
 .debug_ranges  0x00005468      0x180 build/default/production/_ext/404212886/queue.o
 .debug_ranges  0x000055e8      0x280 build/default/production/_ext/404212886/FreeRTOS_tasks.o
 .debug_ranges  0x00005868       0x18 build/default/production/_ext/172253694/crypt_wolfcryptcb.o
 .debug_ranges  0x00005880      0x1b8 build/default/production/_ext/1664057780/cryptocb.o
 .debug_ranges  0x00005a38       0x70 build/default/production/_ext/1664057780/md5.o
 .debug_ranges  0x00005aa8      0x1e8 build/default/production/_ext/1664057780/random.o
 .debug_ranges  0x00005c90      0x400 build/default/production/_ext/1664057780/sha256.o
 .debug_ranges  0x00006090       0x10 build/default/production/_ext/1360937237/main.o
 .debug_ranges  0x000060a0       0x88 build/default/production/_ext/1360937237/custom_snmp_app.o
 .debug_ranges  0x00006128       0x18 build/default/production/_ext/1360937237/app.o
 .debug_ranges  0x00006140       0x18 build/default/production/_ext/1360937237/http_print.o
 .debug_ranges  0x00006158      0x168 build/default/production/_ext/1360937237/custom_http_app.o
 .debug_ranges  0x000062c0       0x10 c:/program files/microchip/xc32/v3.01/bin/bin/../../lib/gcc/pic32c/8.3.1/../../../../pic32c/lib/thumb/v7e-m+fp/hard\libpic32c.a(data_init.o)
 .debug_ranges  0x000062d0       0xd8 c:/program files/microchip/xc32/v3.01/bin/bin/../../lib/gcc/pic32c/8.3.1/thumb/v7e-m+fp/hard\libgcc.a(_udivmoddi4.o)
 .debug_ranges  0x000063a8       0x10 c:/program files/microchip/xc32/v3.01/bin/bin/../../lib/gcc/pic32c/8.3.1/../../../../pic32c/lib/thumb/v7e-m+fp/hard\libpic32c.a(sbrk.o)

.debug_line     0x00000000    0x434fe
 .debug_line    0x00000000      0xe3e build/default/production/_ext/1645245335/crypto.o
 .debug_line    0x00000e3e     0x24e1 build/default/production/_ext/444070925/drv_ethphy.o
 .debug_line    0x0000331f      0x408 build/default/production/_ext/444070925/drv_extphy_ksz8081.o
 .debug_line    0x00003727     0x204a build/default/production/_ext/1546807373/drv_gmac.o
 .debug_line    0x00005771     0x19d9 build/default/production/_ext/1546807373/drv_gmac_lib_samE5x.o
 .debug_line    0x0000714a     0x111a build/default/production/_ext/992804092/drv_memory.o
 .debug_line    0x00008264      0x265 build/default/production/_ext/992804092/drv_memory_file_system.o
 .debug_line    0x000084c9      0x555 build/default/production/_ext/992804092/drv_memory_nvmctrl.o
 .debug_line    0x00008a1e     0x137a build/default/production/_ext/438849557/drv_miim.o
 .debug_line    0x00009d98      0xc22 build/default/production/_ext/1751889202/sys_fs_shell.o
 .debug_line    0x0000a9ba      0x408 build/default/production/_ext/1033058136/helpers.o
 .debug_line    0x0000adc2     0x3f2e build/default/production/_ext/1033058136/snmp.o
 .debug_line    0x0000ecf0      0xaf1 build/default/production/_ext/1033058136/icmp.o
 .debug_line    0x0000f7e1     0x4871 build/default/production/_ext/1033058136/tcp.o
 .debug_line    0x00014052     0x1b60 build/default/production/_ext/1033058136/arp.o
 .debug_line    0x00015bb2     0x23e1 build/default/production/_ext/1033058136/tcpip_commands.o
 .debug_line    0x00017f93     0x2103 build/default/production/_ext/1033058136/http.o
 .debug_line    0x0001a096     0x233c build/default/production/_ext/1033058136/iperf.o
 .debug_line    0x0001c3d2     0x1a27 build/default/production/_ext/1033058136/ipv4.o
 .debug_line    0x0001ddf9      0x3b0 build/default/production/_ext/1033058136/tcpip_heap_alloc.o
 .debug_line    0x0001e1a9      0xa05 build/default/production/_ext/1033058136/tcpip_heap_internal.o
 .debug_line    0x0001ebae     0x26c1 build/default/production/_ext/1033058136/dhcp.o
 .debug_line    0x0002126f     0x1f40 build/default/production/_ext/1033058136/dns.o
 .debug_line    0x000231af      0x238 build/default/production/_ext/1033058136/hash_fnv.o
 .debug_line    0x000233e7      0x4d9 build/default/production/_ext/1033058136/oahash.o
 .debug_line    0x000238c0     0x2046 build/default/production/_ext/1033058136/tcpip_helpers.o
 .debug_line    0x00025906     0x39f3 build/default/production/_ext/1033058136/tcpip_manager.o
 .debug_line    0x000292f9      0x4fd build/default/production/_ext/1033058136/tcpip_notify.o
 .debug_line    0x000297f6      0x8cc build/default/production/_ext/1033058136/tcpip_packet.o
 .debug_line    0x0002a0c2     0x2b4a build/default/production/_ext/1033058136/udp.o
 .debug_line    0x0002cc0c      0x4e4 build/default/production/_ext/1529399856/osal_freertos.o
 .debug_line    0x0002d0f0      0x2e8 build/default/production/_ext/1984496892/plib_clock.o
 .debug_line    0x0002d3d8      0x131 build/default/production/_ext/1986646378/plib_evsys.o
 .debug_line    0x0002d509      0x462 build/default/production/_ext/1865468468/plib_nvic.o
 .debug_line    0x0002d96b      0x6b0 build/default/production/_ext/1593096446/plib_nvmctrl.o
 .debug_line    0x0002e01b      0x3df build/default/production/_ext/1865521619/plib_port.o
 .debug_line    0x0002e3fa      0xc54 build/default/production/_ext/504274921/plib_sercom1_usart.o
 .debug_line    0x0002f04e      0x3bc build/default/production/_ext/829342655/plib_tc0.o
 .debug_line    0x0002f40a     0x109c build/default/production/_ext/1376093119/sys_command.o
 .debug_line    0x000304a6      0x745 build/default/production/_ext/1832805299/sys_console_uart.o
 .debug_line    0x00030beb      0x75a build/default/production/_ext/1832805299/sys_console.o
 .debug_line    0x00031345      0x30f build/default/production/_ext/944882569/sys_debug.o
 .debug_line    0x00031654      0xadd build/default/production/_ext/699575981/mpfs.o
 .debug_line    0x00032131     0x1a28 build/default/production/_ext/1269487135/sys_fs.o
 .debug_line    0x00033b59      0xd34 build/default/production/_ext/1269487135/sys_fs_media_manager.o
 .debug_line    0x0003488d      0x309 build/default/production/_ext/1881668453/sys_int.o
 .debug_line    0x00034b96      0x17e build/default/production/_ext/1000052432/sys_reset.o
 .debug_line    0x00034d14     0x1272 build/default/production/_ext/101884895/sys_time.o
 .debug_line    0x00035f86      0x24c build/default/production/_ext/753841488/sys_time_h2_adapter.o
 .debug_line    0x000361d2      0x339 build/default/production/_ext/753841488/sys_random_h2_adapter.o
 .debug_line    0x0003650b      0x923 build/default/production/_ext/1171490990/initialization.o
 .debug_line    0x00036e2e      0x3b3 build/default/production/_ext/1171490990/interrupts.o
 .debug_line    0x000371e1      0x3fa build/default/production/_ext/1171490990/exceptions.o
 .debug_line    0x000375db      0x290 build/default/production/_ext/1171490990/startup_xc32.o
 .debug_line    0x0003786b      0x555 build/default/production/_ext/1171490990/tasks.o
 .debug_line    0x00037dc0      0x22d build/default/production/_ext/1171490990/freertos_hooks.o
 .debug_line    0x00037fed      0x3b2 build/default/production/_ext/246609638/port.o
 .debug_line    0x0003839f      0x2d8 build/default/production/_ext/1665200909/heap_1.o
 .debug_line    0x00038677      0x3d2 build/default/production/_ext/404212886/list.o
 .debug_line    0x00038a49      0xf89 build/default/production/_ext/404212886/queue.o
 .debug_line    0x000399d2     0x181e build/default/production/_ext/404212886/FreeRTOS_tasks.o
 .debug_line    0x0003b1f0      0x2fe build/default/production/_ext/172253694/crypt_wolfcryptcb.o
 .debug_line    0x0003b4ee     0x104d build/default/production/_ext/1664057780/cryptocb.o
 .debug_line    0x0003c53b      0xce7 build/default/production/_ext/1664057780/md5.o
 .debug_line    0x0003d222     0x10ff build/default/production/_ext/1664057780/random.o
 .debug_line    0x0003e321     0x1383 build/default/production/_ext/1664057780/sha256.o
 .debug_line    0x0003f6a4      0x389 build/default/production/_ext/1360937237/main.o
 .debug_line    0x0003fa2d     0x10d5 build/default/production/_ext/1360937237/custom_snmp_app.o
 .debug_line    0x00040b02      0x408 build/default/production/_ext/1360937237/app.o
 .debug_line    0x00040f0a      0x388 build/default/production/_ext/1360937237/mpfs_img2.o
 .debug_line    0x00041292      0x370 build/default/production/_ext/1360937237/http_print.o
 .debug_line    0x00041602      0xfdd build/default/production/_ext/1360937237/custom_http_app.o
 .debug_line    0x000425df      0x110 c:/program files/microchip/xc32/v3.01/bin/bin/../../lib/gcc/pic32c/8.3.1/../../../../pic32c/lib/thumb/v7e-m+fp/hard\libpic32c.a(data_init.o)
 .debug_line    0x000426ef      0x1c1 c:/program files/microchip/xc32/v3.01/bin/bin/../../lib/gcc/pic32c/8.3.1/thumb/v7e-m+fp/hard\libgcc.a(_arm_addsubdf3.o)
 .debug_line    0x000428b0      0x1da c:/program files/microchip/xc32/v3.01/bin/bin/../../lib/gcc/pic32c/8.3.1/thumb/v7e-m+fp/hard\libgcc.a(_arm_muldivdf3.o)
 .debug_line    0x00042a8a       0xf9 c:/program files/microchip/xc32/v3.01/bin/bin/../../lib/gcc/pic32c/8.3.1/thumb/v7e-m+fp/hard\libgcc.a(_arm_cmpdf2.o)
 .debug_line    0x00042b83       0xb1 c:/program files/microchip/xc32/v3.01/bin/bin/../../lib/gcc/pic32c/8.3.1/thumb/v7e-m+fp/hard\libgcc.a(_arm_fixunsdfsi.o)
 .debug_line    0x00042c34       0x9c c:/program files/microchip/xc32/v3.01/bin/bin/../../lib/gcc/pic32c/8.3.1/thumb/v7e-m+fp/hard\libgcc.a(_aeabi_uldivmod.o)
 .debug_line    0x00042cd0      0x57e c:/program files/microchip/xc32/v3.01/bin/bin/../../lib/gcc/pic32c/8.3.1/thumb/v7e-m+fp/hard\libgcc.a(_udivmoddi4.o)
 .debug_line    0x0004324e       0x9c c:/program files/microchip/xc32/v3.01/bin/bin/../../lib/gcc/pic32c/8.3.1/thumb/v7e-m+fp/hard\libgcc.a(_dvmd_tls.o)
 .debug_line    0x000432ea       0xb5 c:/program files/microchip/xc32/v3.01/bin/bin/../../lib/gcc/pic32c/8.3.1/../../../../pic32c/lib/thumb/v7e-m+fp/hard\libpic32c.a(sbrk.o)
 .debug_line    0x0004339f       0xaa c:/program files/microchip/xc32/v3.01/bin/bin/../../lib/gcc/pic32c/8.3.1/thumb/v7e-m+fp/hard\libgcc.a(_arm_unorddf2.o)
 .debug_line    0x00043449       0xb5 c:/program files/microchip/xc32/v3.01/bin/bin/../../lib/gcc/pic32c/8.3.1/thumb/v7e-m+fp/hard\libgcc.a(_arm_fixdfsi.o)

.debug_str      0x00000000     0x8953
 .debug_str     0x00000000      0x456 build/default/production/_ext/1645245335/crypto.o
 .debug_str     0x00000456      0x486 build/default/production/_ext/444070925/drv_ethphy.o
 .debug_str     0x000008dc       0x42 build/default/production/_ext/444070925/drv_extphy_ksz8081.o
 .debug_str     0x0000091e      0x63c build/default/production/_ext/1546807373/drv_gmac.o
 .debug_str     0x00000f5a      0x22c build/default/production/_ext/1546807373/drv_gmac_lib_samE5x.o
 .debug_str     0x00001186      0x246 build/default/production/_ext/992804092/drv_memory.o
 .debug_str     0x000013cc       0x2c build/default/production/_ext/992804092/drv_memory_file_system.o
 .debug_str     0x000013f8       0x85 build/default/production/_ext/992804092/drv_memory_nvmctrl.o
 .debug_str     0x0000147d      0x257 build/default/production/_ext/438849557/drv_miim.o
 .debug_str     0x000016d4      0x135 build/default/production/_ext/1751889202/sys_fs_shell.o
 .debug_str     0x00001809        0xe build/default/production/_ext/1033058136/helpers.o
 .debug_str     0x00001817      0x6b0 build/default/production/_ext/1033058136/snmp.o
 .debug_str     0x00001ec7      0x32a build/default/production/_ext/1033058136/icmp.o
 .debug_str     0x000021f1      0x4fb build/default/production/_ext/1033058136/tcp.o
 .debug_str     0x000026ec      0x4c6 build/default/production/_ext/1033058136/arp.o
 .debug_str     0x00002bb2      0x7f4 build/default/production/_ext/1033058136/tcpip_commands.o
 .debug_str     0x000033a6      0x46a build/default/production/_ext/1033058136/http.o
 .debug_str     0x00003810      0x522 build/default/production/_ext/1033058136/iperf.o
 .debug_str     0x00003d32      0x591 build/default/production/_ext/1033058136/ipv4.o
 .debug_str     0x000042c3       0x6d build/default/production/_ext/1033058136/tcpip_heap_alloc.o
 .debug_str     0x00004330       0x90 build/default/production/_ext/1033058136/tcpip_heap_internal.o
 .debug_str     0x000043c0      0x68b build/default/production/_ext/1033058136/dhcp.o
 .debug_str     0x00004a4b      0x4e2 build/default/production/_ext/1033058136/dns.o
 .debug_str     0x00004f2d        0xe build/default/production/_ext/1033058136/hash_fnv.o
 .debug_str     0x00004f3b       0x18 build/default/production/_ext/1033058136/oahash.o
 .debug_str     0x00004f53      0x114 build/default/production/_ext/1033058136/tcpip_helpers.o
 .debug_str     0x00005067      0x599 build/default/production/_ext/1033058136/tcpip_manager.o
 .debug_str     0x00005600      0x16c build/default/production/_ext/1033058136/tcpip_notify.o
 .debug_str     0x0000576c       0x8b build/default/production/_ext/1033058136/tcpip_packet.o
 .debug_str     0x000057f7      0x40a build/default/production/_ext/1033058136/udp.o
 .debug_str     0x00005c01      0x13b build/default/production/_ext/1529399856/osal_freertos.o
 .debug_str     0x00005d3c       0x1e build/default/production/_ext/1984496892/plib_clock.o
 .debug_str     0x00005d5a        0x0 build/default/production/_ext/1986646378/plib_evsys.o
 .debug_str     0x00005d5a        0xa build/default/production/_ext/1865468468/plib_nvic.o
 .debug_str     0x00005d64       0x2e build/default/production/_ext/1593096446/plib_nvmctrl.o
 .debug_str     0x00005d92        0xb build/default/production/_ext/1865521619/plib_port.o
 .debug_str     0x00005d9d      0x1c8 build/default/production/_ext/504274921/plib_sercom1_usart.o
 .debug_str     0x00005f65       0xbb build/default/production/_ext/829342655/plib_tc0.o
 .debug_str     0x00006020      0x120 build/default/production/_ext/1376093119/sys_command.o
 .debug_str     0x00006140       0xdf build/default/production/_ext/1832805299/sys_console_uart.o
 .debug_str     0x0000621f       0x66 build/default/production/_ext/1832805299/sys_console.o
 .debug_str     0x00006285        0xe build/default/production/_ext/944882569/sys_debug.o
 .debug_str     0x00006293       0xee build/default/production/_ext/699575981/mpfs.o
 .debug_str     0x00006381      0x186 build/default/production/_ext/1269487135/sys_fs.o
 .debug_str     0x00006507      0x114 build/default/production/_ext/1269487135/sys_fs_media_manager.o
 .debug_str     0x0000661b       0x32 build/default/production/_ext/1881668453/sys_int.o
 .debug_str     0x0000664d        0x0 build/default/production/_ext/1000052432/sys_reset.o
 .debug_str     0x0000664d      0x164 build/default/production/_ext/101884895/sys_time.o
 .debug_str     0x000067b1       0x64 build/default/production/_ext/753841488/sys_time_h2_adapter.o
 .debug_str     0x00006815       0x57 build/default/production/_ext/753841488/sys_random_h2_adapter.o
 .debug_str     0x0000686c      0x2cc build/default/production/_ext/1171490990/initialization.o
 .debug_str     0x00006b38       0x2c build/default/production/_ext/1171490990/interrupts.o
 .debug_str     0x00006b64       0x2c build/default/production/_ext/1171490990/exceptions.o
 .debug_str     0x00006b90       0x2f build/default/production/_ext/1171490990/startup_xc32.o
 .debug_str     0x00006bbf       0xa9 build/default/production/_ext/1171490990/tasks.o
 .debug_str     0x00006c68       0x25 build/default/production/_ext/1171490990/freertos_hooks.o
 .debug_str     0x00006c8d       0x26 build/default/production/_ext/246609638/port.o
 .debug_str     0x00006cb3       0x4a build/default/production/_ext/1665200909/heap_1.o
 .debug_str     0x00006cfd       0x39 build/default/production/_ext/404212886/list.o
 .debug_str     0x00006d36      0x28d build/default/production/_ext/404212886/queue.o
 .debug_str     0x00006fc3      0x283 build/default/production/_ext/404212886/FreeRTOS_tasks.o
 .debug_str     0x00007246       0xa6 build/default/production/_ext/172253694/crypt_wolfcryptcb.o
 .debug_str     0x000072ec       0xeb build/default/production/_ext/1664057780/cryptocb.o
 .debug_str     0x000073d7        0xe build/default/production/_ext/1664057780/md5.o
 .debug_str     0x000073e5       0xfa build/default/production/_ext/1664057780/random.o
 .debug_str     0x000074df       0x50 build/default/production/_ext/1664057780/sha256.o
 .debug_str     0x0000752f       0x45 build/default/production/_ext/1360937237/main.o
 .debug_str     0x00007574      0x2a5 build/default/production/_ext/1360937237/custom_snmp_app.o
 .debug_str     0x00007819       0x2c build/default/production/_ext/1360937237/app.o
 .debug_str     0x00007845       0x2c build/default/production/_ext/1360937237/mpfs_img2.o
 .debug_str     0x00007871      0x3c0 build/default/production/_ext/1360937237/http_print.o
 .debug_str     0x00007c31      0x590 build/default/production/_ext/1360937237/custom_http_app.o
 .debug_str     0x000081c1        0x0 c:/program files/microchip/xc32/v3.01/bin/bin/../../lib/gcc/pic32c/8.3.1/../../../../pic32c/lib/thumb/v7e-m+fp/hard\libpic32c.a(data_init.o)
 .debug_str     0x000081c1       0xf3 c:/program files/microchip/xc32/v3.01/bin/bin/../../lib/gcc/pic32c/8.3.1/thumb/v7e-m+fp/hard\libgcc.a(_arm_addsubdf3.o)
 .debug_str     0x000082b4       0xf3 c:/program files/microchip/xc32/v3.01/bin/bin/../../lib/gcc/pic32c/8.3.1/thumb/v7e-m+fp/hard\libgcc.a(_arm_muldivdf3.o)
 .debug_str     0x000083a7       0xf3 c:/program files/microchip/xc32/v3.01/bin/bin/../../lib/gcc/pic32c/8.3.1/thumb/v7e-m+fp/hard\libgcc.a(_arm_cmpdf2.o)
 .debug_str     0x0000849a       0xf3 c:/program files/microchip/xc32/v3.01/bin/bin/../../lib/gcc/pic32c/8.3.1/thumb/v7e-m+fp/hard\libgcc.a(_arm_fixunsdfsi.o)
 .debug_str     0x0000858d       0xee c:/program files/microchip/xc32/v3.01/bin/bin/../../lib/gcc/pic32c/8.3.1/thumb/v7e-m+fp/hard\libgcc.a(_aeabi_uldivmod.o)
 .debug_str     0x0000867b        0x0 c:/program files/microchip/xc32/v3.01/bin/bin/../../lib/gcc/pic32c/8.3.1/thumb/v7e-m+fp/hard\libgcc.a(_udivmoddi4.o)
 .debug_str     0x0000867b       0xf2 c:/program files/microchip/xc32/v3.01/bin/bin/../../lib/gcc/pic32c/8.3.1/thumb/v7e-m+fp/hard\libgcc.a(_dvmd_tls.o)
 .debug_str     0x0000876d        0x0 c:/program files/microchip/xc32/v3.01/bin/bin/../../lib/gcc/pic32c/8.3.1/../../../../pic32c/lib/thumb/v7e-m+fp/hard\libpic32c.a(sbrk.o)
 .debug_str     0x0000876d       0xf3 c:/program files/microchip/xc32/v3.01/bin/bin/../../lib/gcc/pic32c/8.3.1/thumb/v7e-m+fp/hard\libgcc.a(_arm_unorddf2.o)
 .debug_str     0x00008860       0xf3 c:/program files/microchip/xc32/v3.01/bin/bin/../../lib/gcc/pic32c/8.3.1/thumb/v7e-m+fp/hard\libgcc.a(_arm_fixdfsi.o)

.debug_frame    0x00000000     0xa4b0
 .debug_frame   0x00000000      0x5f8 build/default/production/_ext/1645245335/crypto.o
 .debug_frame   0x000005f8      0x6e0 build/default/production/_ext/444070925/drv_ethphy.o
 .debug_frame   0x00000cd8       0x58 build/default/production/_ext/444070925/drv_extphy_ksz8081.o
 .debug_frame   0x00000d30      0x694 build/default/production/_ext/1546807373/drv_gmac.o
 .debug_frame   0x000013c4      0x3d0 build/default/production/_ext/1546807373/drv_gmac_lib_samE5x.o
 .debug_frame   0x00001794      0x310 build/default/production/_ext/992804092/drv_memory.o
 .debug_frame   0x00001aa4       0x28 build/default/production/_ext/992804092/drv_memory_file_system.o
 .debug_frame   0x00001acc       0xb0 build/default/production/_ext/992804092/drv_memory_nvmctrl.o
 .debug_frame   0x00001b7c      0x2b0 build/default/production/_ext/438849557/drv_miim.o
 .debug_frame   0x00001e2c      0x2a8 build/default/production/_ext/1751889202/sys_fs_shell.o
 .debug_frame   0x000020d4       0xdc build/default/production/_ext/1033058136/helpers.o
 .debug_frame   0x000021b0      0x768 build/default/production/_ext/1033058136/snmp.o
 .debug_frame   0x00002918      0x148 build/default/production/_ext/1033058136/icmp.o
 .debug_frame   0x00002a60      0x7b8 build/default/production/_ext/1033058136/tcp.o
 .debug_frame   0x00003218      0x488 build/default/production/_ext/1033058136/arp.o
 .debug_frame   0x000036a0      0x3f4 build/default/production/_ext/1033058136/tcpip_commands.o
 .debug_frame   0x00003a94      0x3ec build/default/production/_ext/1033058136/http.o
 .debug_frame   0x00003e80      0x280 build/default/production/_ext/1033058136/iperf.o
 .debug_frame   0x00004100      0x34c build/default/production/_ext/1033058136/ipv4.o
 .debug_frame   0x0000444c       0x90 build/default/production/_ext/1033058136/tcpip_heap_alloc.o
 .debug_frame   0x000044dc      0x12c build/default/production/_ext/1033058136/tcpip_heap_internal.o
 .debug_frame   0x00004608      0x52c build/default/production/_ext/1033058136/dhcp.o
 .debug_frame   0x00004b34      0x450 build/default/production/_ext/1033058136/dns.o
 .debug_frame   0x00004f84       0x30 build/default/production/_ext/1033058136/hash_fnv.o
 .debug_frame   0x00004fb4       0xc0 build/default/production/_ext/1033058136/oahash.o
 .debug_frame   0x00005074      0x720 build/default/production/_ext/1033058136/tcpip_helpers.o
 .debug_frame   0x00005794      0xab0 build/default/production/_ext/1033058136/tcpip_manager.o
 .debug_frame   0x00006244       0xb8 build/default/production/_ext/1033058136/tcpip_notify.o
 .debug_frame   0x000062fc      0x168 build/default/production/_ext/1033058136/tcpip_packet.o
 .debug_frame   0x00006464      0x658 build/default/production/_ext/1033058136/udp.o
 .debug_frame   0x00006abc      0x180 build/default/production/_ext/1529399856/osal_freertos.o
 .debug_frame   0x00006c3c       0x20 build/default/production/_ext/1984496892/plib_clock.o
 .debug_frame   0x00006c5c       0x20 build/default/production/_ext/1986646378/plib_evsys.o
 .debug_frame   0x00006c7c       0x5c build/default/production/_ext/1865468468/plib_nvic.o
 .debug_frame   0x00006cd8      0x1dc build/default/production/_ext/1593096446/plib_nvmctrl.o
 .debug_frame   0x00006eb4       0xcc build/default/production/_ext/1865521619/plib_port.o
 .debug_frame   0x00006f80      0x1d8 build/default/production/_ext/504274921/plib_sercom1_usart.o
 .debug_frame   0x00007158       0xd8 build/default/production/_ext/829342655/plib_tc0.o
 .debug_frame   0x00007230      0x2ec build/default/production/_ext/1376093119/sys_command.o
 .debug_frame   0x0000751c      0x11c build/default/production/_ext/1832805299/sys_console_uart.o
 .debug_frame   0x00007638      0x1d0 build/default/production/_ext/1832805299/sys_console.o
 .debug_frame   0x00007808       0x70 build/default/production/_ext/944882569/sys_debug.o
 .debug_frame   0x00007878      0x1dc build/default/production/_ext/699575981/mpfs.o
 .debug_frame   0x00007a54      0x45c build/default/production/_ext/1269487135/sys_fs.o
 .debug_frame   0x00007eb0      0x1e4 build/default/production/_ext/1269487135/sys_fs_media_manager.o
 .debug_frame   0x00008094       0x84 build/default/production/_ext/1881668453/sys_int.o
 .debug_frame   0x00008118       0x20 build/default/production/_ext/1000052432/sys_reset.o
 .debug_frame   0x00008138      0x3f8 build/default/production/_ext/101884895/sys_time.o
 .debug_frame   0x00008530       0x88 build/default/production/_ext/753841488/sys_time_h2_adapter.o
 .debug_frame   0x000085b8       0xa8 build/default/production/_ext/753841488/sys_random_h2_adapter.o
 .debug_frame   0x00008660       0x44 build/default/production/_ext/1171490990/initialization.o
 .debug_frame   0x000086a4       0x20 build/default/production/_ext/1171490990/interrupts.o
 .debug_frame   0x000086c4       0x70 build/default/production/_ext/1171490990/exceptions.o
 .debug_frame   0x00008734       0x38 build/default/production/_ext/1171490990/startup_xc32.o
 .debug_frame   0x0000876c       0xac build/default/production/_ext/1171490990/tasks.o
 .debug_frame   0x00008818       0x6c build/default/production/_ext/1171490990/freertos_hooks.o
 .debug_frame   0x00008884       0xe8 build/default/production/_ext/246609638/port.o
 .debug_frame   0x0000896c       0x5c build/default/production/_ext/1665200909/heap_1.o
 .debug_frame   0x000089c8       0x6c build/default/production/_ext/404212886/list.o
 .debug_frame   0x00008a34      0x280 build/default/production/_ext/404212886/queue.o
 .debug_frame   0x00008cb4      0x478 build/default/production/_ext/404212886/FreeRTOS_tasks.o
 .debug_frame   0x0000912c       0x38 build/default/production/_ext/172253694/crypt_wolfcryptcb.o
 .debug_frame   0x00009164      0x3f8 build/default/production/_ext/1664057780/cryptocb.o
 .debug_frame   0x0000955c      0x138 build/default/production/_ext/1664057780/md5.o
 .debug_frame   0x00009694      0x2e8 build/default/production/_ext/1664057780/random.o
 .debug_frame   0x0000997c      0x23c build/default/production/_ext/1664057780/sha256.o
 .debug_frame   0x00009bb8       0x28 build/default/production/_ext/1360937237/main.o
 .debug_frame   0x00009be0      0x1a0 build/default/production/_ext/1360937237/custom_snmp_app.o
 .debug_frame   0x00009d80       0x30 build/default/production/_ext/1360937237/app.o
 .debug_frame   0x00009db0       0x40 build/default/production/_ext/1360937237/http_print.o
 .debug_frame   0x00009df0      0x3c0 build/default/production/_ext/1360937237/custom_http_app.o
 .debug_frame   0x0000a1b0       0x38 c:/program files/microchip/xc32/v3.01/bin/bin/../../lib/gcc/pic32c/8.3.1/../../../../pic32c/lib/thumb/v7e-m+fp/hard\libpic32c.a(data_init.o)
 .debug_frame   0x0000a1e8       0xac c:/program files/microchip/xc32/v3.01/bin/bin/../../lib/gcc/pic32c/8.3.1/thumb/v7e-m+fp/hard\libgcc.a(_arm_addsubdf3.o)
 .debug_frame   0x0000a294       0x50 c:/program files/microchip/xc32/v3.01/bin/bin/../../lib/gcc/pic32c/8.3.1/thumb/v7e-m+fp/hard\libgcc.a(_arm_muldivdf3.o)
 .debug_frame   0x0000a2e4       0xc4 c:/program files/microchip/xc32/v3.01/bin/bin/../../lib/gcc/pic32c/8.3.1/thumb/v7e-m+fp/hard\libgcc.a(_arm_cmpdf2.o)
 .debug_frame   0x0000a3a8       0x24 c:/program files/microchip/xc32/v3.01/bin/bin/../../lib/gcc/pic32c/8.3.1/thumb/v7e-m+fp/hard\libgcc.a(_arm_fixunsdfsi.o)
 .debug_frame   0x0000a3cc       0x2c c:/program files/microchip/xc32/v3.01/bin/bin/../../lib/gcc/pic32c/8.3.1/thumb/v7e-m+fp/hard\libgcc.a(_aeabi_uldivmod.o)
 .debug_frame   0x0000a3f8       0x34 c:/program files/microchip/xc32/v3.01/bin/bin/../../lib/gcc/pic32c/8.3.1/thumb/v7e-m+fp/hard\libgcc.a(_udivmoddi4.o)
 .debug_frame   0x0000a42c       0x20 c:/program files/microchip/xc32/v3.01/bin/bin/../../lib/gcc/pic32c/8.3.1/../../../../pic32c/lib/thumb/v7e-m+fp/hard\libc_nano.a(lib_a-strcmp.o)
 .debug_frame   0x0000a44c       0x20 c:/program files/microchip/xc32/v3.01/bin/bin/../../lib/gcc/pic32c/8.3.1/../../../../pic32c/lib/thumb/v7e-m+fp/hard\libpic32c.a(sbrk.o)
 .debug_frame   0x0000a46c       0x20 c:/program files/microchip/xc32/v3.01/bin/bin/../../lib/gcc/pic32c/8.3.1/thumb/v7e-m+fp/hard\libgcc.a(_arm_unorddf2.o)
 .debug_frame   0x0000a48c       0x24 c:/program files/microchip/xc32/v3.01/bin/bin/../../lib/gcc/pic32c/8.3.1/thumb/v7e-m+fp/hard\libgcc.a(_arm_fixdfsi.o)

.stack          0x2002a8a8      0x100
 .stack         0x2002a8a8      0x100 stack

.bss.ucHeap%1   0x20000004     0xa000
 .bss.ucHeap    0x20000004     0xa000 build/default/production/_ext/1665200909/heap_1.o

.bss.gDrvMemory0EraseBuffer%2
                0x2000a010     0x2000
 .bss.gDrvMemory0EraseBuffer
                0x2000a010     0x2000 build/default/production/_ext/1171490990/initialization.o

.bss.gSYSFSFileObj%3
                0x2000c010     0x1a90
 .bss.gSYSFSFileObj
                0x2000c010     0x1a90 build/default/production/_ext/1269487135/sys_fs.o
                0x2000c010                gSYSFSFileObj

.bss.SERCOM1_USART_ReadBuffer%4
                0x2000daa0     0x1000
 .bss.SERCOM1_USART_ReadBuffer
                0x2000daa0     0x1000 build/default/production/_ext/504274921/plib_sercom1_usart.o

.bss.SERCOM1_USART_WriteBuffer%5
                0x2000eaa0     0x1000
 .bss.SERCOM1_USART_WriteBuffer
                0x2000eaa0     0x1000 build/default/production/_ext/504274921/plib_sercom1_usart.o

.bss.gSYSFSMediaBlockBuffer%6
                0x2000faa0      0x800
 .bss.gSYSFSMediaBlockBuffer
                0x2000faa0      0x800 build/default/production/_ext/1269487135/sys_fs_media_manager.o
                0x2000faa0                gSYSFSMediaBlockBuffer

.bss.icmpPingBuff%7
                0x200102a0      0x7d0
 .bss.icmpPingBuff
                0x200102a0      0x7d0 build/default/production/_ext/1033058136/tcpip_commands.o

.bss.printBuff%8
                0x20010a70      0x400
 .bss.printBuff
                0x20010a70      0x400 build/default/production/_ext/1376093119/sys_command.o

.bss.TCPIP_STACK_MODULE_SIGNAL_TBL%9
                0x20010e70      0x270
 .bss.TCPIP_STACK_MODULE_SIGNAL_TBL
                0x20010e70      0x270 build/default/production/_ext/1033058136/tcpip_manager.o

.bss.gSYSFSMediaBuffer%10
                0x200110e0      0x200
 .bss.gSYSFSMediaBuffer
                0x200110e0      0x200 build/default/production/_ext/1269487135/sys_fs_media_manager.o
                0x200110e0                gSYSFSMediaBuffer

.bss.getBuffer%11
                0x200112e0      0x1f1
 .bss.getBuffer
                0x200112e0      0x1f1 build/default/production/_ext/1033058136/snmp.o
                0x200112e0                getBuffer

.bss.md5.15584%12
                0x200114d4      0x1b8
 .bss.md5.15584
                0x200114d4      0x1b8 build/default/production/_ext/1360937237/custom_http_app.o

.bss.gSysMpfsFileObj%13
                0x20011690      0x190
 .bss.gSysMpfsFileObj
                0x20011690      0x190 build/default/production/_ext/699575981/mpfs.o

.bss.gSYSFSDirObj%14
                0x20011820      0x190
 .bss.gSYSFSDirObj
                0x20011820      0x190 build/default/production/_ext/1269487135/sys_fs.o
                0x20011820                gSYSFSDirObj

.data.__global_locale%15
                0x200119b0      0x16c
 .data.__global_locale
                0x200119b0      0x16c c:/program files/microchip/xc32/v3.01/bin/bin/../../lib/gcc/pic32c/8.3.1/../../../../pic32c/lib/thumb/v7e-m+fp/hard\libc_nano.a(lib_a-locale.o)
                0x200119b0                __global_locale

.bss.sysRandCtx%16
                0x20011b1c      0x108
 .bss.sysRandCtx
                0x20011b1c      0x108 build/default/production/_ext/753841488/sys_random_h2_adapter.o

.bss.fileName.9063%17
                0x20011c30      0x100
 .bss.fileName.9063
                0x20011c30      0x100 build/default/production/_ext/699575981/mpfs.o

.bss.fileName.9172%18
                0x20011d30      0x100
 .bss.fileName.9172
                0x20011d30      0x100 build/default/production/_ext/699575981/mpfs.o

.data._gmac_drv_dcpt%19
                0x20011e30       0xf8
 .data._gmac_drv_dcpt
                0x20011e30       0xf8 build/default/production/_ext/1546807373/drv_gmac.o

.bss.gIperfState%20
                0x20011f28       0xd8
 .bss.gIperfState
                0x20011f28       0xd8 build/default/production/_ext/1033058136/iperf.o

.bss.consolePrintBuffer%21
                0x20012000       0xc8
 .bss.consolePrintBuffer
                0x20012000       0xc8 build/default/production/_ext/1832805299/sys_console.o

.bss.httpNetData%22
                0x200120c8       0xbc
 .bss.httpNetData
                0x200120c8       0xbc build/default/production/_ext/1360937237/custom_http_app.o

.bss.gDrvMemoryObj%23
                0x20012184       0xa8
 .bss.gDrvMemoryObj
                0x20012184       0xa8 build/default/production/_ext/992804092/drv_memory.o

.bss.timers%24  0x2001222c       0xa0
 .bss.timers    0x2001222c       0xa0 build/default/production/_ext/101884895/sys_time.o

.bss.gDrvMIIMObj%25
                0x200122cc       0x94
 .bss.gDrvMIIMObj
                0x200122cc       0x94 build/default/production/_ext/438849557/drv_miim.o

.bss.TCPIP_MODULES_QUEUE_TBL%26
                0x20012360       0x90
 .bss.TCPIP_MODULES_QUEUE_TBL
                0x20012360       0x90 build/default/production/_ext/1033058136/tcpip_manager.o

.bss.gmac_dcpt_array%27
                0x200123f0       0x80
 .bss.gmac_dcpt_array
                0x200123f0       0x80 build/default/production/_ext/1546807373/drv_gmac_lib_samE5x.o

.bss._usrCmdTbl%28
                0x20012470       0x80
 .bss._usrCmdTbl
                0x20012470       0x80 build/default/production/_ext/1376093119/sys_command.o

.bss.gPhyDrvInst%29
                0x200124f0       0x68
 .bss.gPhyDrvInst
                0x200124f0       0x68 build/default/production/_ext/444070925/drv_ethphy.o

.bss.pxReadyTasksLists%30
                0x20012558       0x64
 .bss.pxReadyTasksLists
                0x20012558       0x64 build/default/production/_ext/404212886/FreeRTOS_tasks.o

.bss.gCryptoDev%31
                0x200125bc       0x60
 .bss.gCryptoDev
                0x200125bc       0x60 build/default/production/_ext/1664057780/cryptocb.o

.data.impure_data%32
                0x2001261c       0x60
 .data.impure_data
                0x2001261c       0x60 c:/program files/microchip/xc32/v3.01/bin/bin/../../lib/gcc/pic32c/8.3.1/../../../../pic32c/lib/thumb/v7e-m+fp/hard\libc_nano.a(lib_a-impure.o)

.bss.arpMod%33  0x2001267c       0x4c
 .bss.arpMod    0x2001267c       0x4c build/default/production/_ext/1033058136/arp.o

.bss.sercom1USARTObj%34
                0x200126c8       0x40
 .bss.sercom1USARTObj
                0x200126c8       0x40 build/default/production/_ext/504274921/plib_sercom1_usart.o

.bss.hashBuffer.9062%35
                0x20012710       0x40
 .bss.hashBuffer.9062
                0x20012710       0x40 build/default/production/_ext/699575981/mpfs.o

.bss.gSystemCounterObj%36
                0x20012750       0x40
 .bss.gSystemCounterObj
                0x20012750       0x40 build/default/production/_ext/101884895/sys_time.o

.data.trapInfo%37
                0x20012790       0x3c
 .data.trapInfo
                0x20012790       0x3c build/default/production/_ext/1360937237/custom_snmp_app.o

.bss.g_bfr%38   0x200127cc       0x34
 .bss.g_bfr     0x200127cc       0x34 build/default/production/_ext/1033058136/iperf.o
                0x200127cc                g_bfr

.data.gSnmpNonMibRecInfo%39
                0x20012800       0x33
 .data.gSnmpNonMibRecInfo
                0x20012800       0x33 build/default/production/_ext/1360937237/custom_snmp_app.o

.bss.gDnsDcpt%40
                0x20012834       0x28
 .bss.gDnsDcpt  0x20012834       0x28 build/default/production/_ext/1033058136/dns.o

.bss.gSYSFSMediaObject%41
                0x2001285c       0x28
 .bss.gSYSFSMediaObject
                0x2001285c       0x28 build/default/production/_ext/1269487135/sys_fs_media_manager.o
                0x2001285c                gSYSFSMediaObject

.bss.gSnmpDcpt%42
                0x20012884       0x20
 .bss.gSnmpDcpt
                0x20012884       0x20 build/default/production/_ext/1033058136/snmp.o
                0x20012884                gSnmpDcpt

.bss.tcpip_stack_ctrl_data%43
                0x200128a4       0x20
 .bss.tcpip_stack_ctrl_data
                0x200128a4       0x20 build/default/production/_ext/1033058136/tcpip_manager.o

.bss.fileRecord.9148%44
                0x200128d0       0x20
 .bss.fileRecord.9148
                0x200128d0       0x20 build/default/production/_ext/699575981/mpfs.o

.bss.fileRecord.9171%45
                0x200128f0       0x20
 .bss.fileRecord.9171
                0x200128f0       0x20 build/default/production/_ext/699575981/mpfs.o

.bss.gSysMpfsFileRecord%46
                0x20012910       0x20
 .bss.gSysMpfsFileRecord
                0x20012910       0x20 build/default/production/_ext/699575981/mpfs.o

.bss.dnslookupTargetHost%47
                0x20012930       0x1f
 .bss.dnslookupTargetHost
                0x20012930       0x1f build/default/production/_ext/1033058136/tcpip_commands.o

.bss.icmpTargetHost%48
                0x20012950       0x1f
 .bss.icmpTargetHost
                0x20012950       0x1f build/default/production/_ext/1033058136/tcpip_commands.o

.bss%49         0x20012970       0x1c
 .bss           0x20012970       0x1c c:/program files/microchip/xc32/v3.01/bin/bin/../../lib/gcc/pic32c/8.3.1/thumb/v7e-m+fp/hard/crtbegin.o

.bss.gSYSFSVolumeObject%50
                0x2001298c       0x1c
 .bss.gSYSFSVolumeObject
                0x2001298c       0x1c build/default/production/_ext/1269487135/sys_fs_media_manager.o
                0x2001298c                gSYSFSVolumeObject

.bss.icmpEchoRequest%51
                0x200129a8       0x18
 .bss.icmpEchoRequest
                0x200129a8       0x18 build/default/production/_ext/1033058136/icmp.o

.bss.cmdTcpipInitData%52
                0x200129c0       0x18
 .bss.cmdTcpipInitData
                0x200129c0       0x18 build/default/production/_ext/1033058136/tcpip_commands.o

.bss.tcpip_init_data%53
                0x200129d8       0x18
 .bss.tcpip_init_data
                0x200129d8       0x18 build/default/production/_ext/1033058136/tcpip_manager.o

.data.gSYSFSMediaManagerObj%54
                0x200129f0       0x18
 .data.gSYSFSMediaManagerObj
                0x200129f0       0x18 build/default/production/_ext/1269487135/sys_fs_media_manager.o
                0x200129f0                gSYSFSMediaManagerObj

.bss.sysObj%55  0x20012a08       0x18
 .bss.sysObj    0x20012a08       0x18 build/default/production/_ext/1171490990/initialization.o
                0x20012a08                sysObj

.bss.icmpRegisteredUsers%56
                0x20012a20       0x14
 .bss.icmpRegisteredUsers
                0x20012a20       0x14 build/default/production/_ext/1033058136/icmp.o

.bss.ipv4ArpQueue%57
                0x20012a34       0x14
 .bss.ipv4ArpQueue
                0x20012a34       0x14 build/default/production/_ext/1033058136/ipv4.o

.bss.ipv4PacketFilters%58
                0x20012a48       0x14
 .bss.ipv4PacketFilters
                0x20012a48       0x14 build/default/production/_ext/1033058136/ipv4.o

.bss.dhcpRegisteredUsers%59
                0x20012a5c       0x14
 .bss.dhcpRegisteredUsers
                0x20012a5c       0x14 build/default/production/_ext/1033058136/dhcp.o

.data.gSysMpfsObj%60
                0x20012a70       0x14
 .data.gSysMpfsObj
                0x20012a70       0x14 build/default/production/_ext/699575981/mpfs.o

.bss.gSYSFSMountPoint%61
                0x20012a84       0x14
 .bss.gSYSFSMountPoint
                0x20012a84       0x14 build/default/production/_ext/1269487135/sys_fs.o
                0x20012a84                gSYSFSMountPoint

.data.gSYSFSVolumeName%62
                0x20012a98       0x14
 .data.gSYSFSVolumeName
                0x20012a98       0x14 build/default/production/_ext/1269487135/sys_fs_media_manager.o
                0x20012a98                gSYSFSVolumeName

.data.tcpipHeapConfig%63
                0x20012aac       0x14
 .data.tcpipHeapConfig
                0x20012aac       0x14 build/default/production/_ext/1171490990/initialization.o
                0x20012aac                tcpipHeapConfig

.bss.xDelayedTaskList1%64
                0x20012ac0       0x14
 .bss.xDelayedTaskList1
                0x20012ac0       0x14 build/default/production/_ext/404212886/FreeRTOS_tasks.o

.bss.xDelayedTaskList2%65
                0x20012ad4       0x14
 .bss.xDelayedTaskList2
                0x20012ad4       0x14 build/default/production/_ext/404212886/FreeRTOS_tasks.o

.bss.xPendingReadyList%66
                0x20012ae8       0x14
 .bss.xPendingReadyList
                0x20012ae8       0x14 build/default/production/_ext/404212886/FreeRTOS_tasks.o

.bss.xSuspendedTaskList%67
                0x20012afc       0x14
 .bss.xSuspendedTaskList
                0x20012afc       0x14 build/default/production/_ext/404212886/FreeRTOS_tasks.o

.bss.xTasksWaitingTermination%68
                0x20012b10       0x14
 .bss.xTasksWaitingTermination
                0x20012b10       0x14 build/default/production/_ext/404212886/FreeRTOS_tasks.o

.bss.s_buf_ipv4addr%69
                0x20012b24       0x14
 .bss.s_buf_ipv4addr
                0x20012b24       0x14 build/default/production/_ext/1360937237/custom_http_app.o

.bss.icmpTargetAddrStr%70
                0x20012b38       0x11
 .bss.icmpTargetAddrStr
                0x20012b38       0x11 build/default/production/_ext/1033058136/tcpip_commands.o

.bss.tcpip_heap_config%71
                0x20012b4c       0x10
 .bss.tcpip_heap_config
                0x20012b4c       0x10 build/default/production/_ext/1033058136/tcpip_manager.o

.bss.gDrvMemory0ClientObject%72
                0x20012b5c       0x10
 .bss.gDrvMemory0ClientObject
                0x20012b5c       0x10 build/default/production/_ext/1171490990/initialization.o

.bss.ipv4ArpPool%73
                0x2000a004        0xc
 .bss.ipv4ArpPool
                0x2000a004        0xc build/default/production/_ext/1033058136/ipv4.o

.bss.gConsoleUartData%74
                0x20011c24        0xc
 .bss.gConsoleUartData
                0x20011c24        0xc build/default/production/_ext/1832805299/sys_console_uart.o

.bss.consoleDeviceInstance%75
                0x200128c4        0xc
 .bss.consoleDeviceInstance
                0x200128c4        0xc build/default/production/_ext/1832805299/sys_console.o

.data.tcpipSNMPInitReadcommunity%76
                0x20012b6c        0xc
 .data.tcpipSNMPInitReadcommunity
                0x20012b6c        0xc build/default/production/_ext/1171490990/initialization.o
                0x20012b6c                tcpipSNMPInitReadcommunity

.data.tcpipSNMPInitWritecommunity%77
                0x20012b78        0xc
 .data.tcpipSNMPInitWritecommunity
                0x20012b78        0xc build/default/production/_ext/1171490990/initialization.o
                0x20012b78                tcpipSNMPInitWritecommunity

.bss.snmpReqVarErrStatus%78
                0x20012708        0x8
 .bss.snmpReqVarErrStatus
                0x20012708        0x8 build/default/production/_ext/1033058136/snmp.o

.bss.TC0_CallbackObject%79
                0x20012b84        0x8
 .bss.TC0_CallbackObject
                0x20012b84        0x8 build/default/production/_ext/829342655/plib_tc0.o

.bss.cmdIODevList%80
                0x20012b8c        0x8
 .bss.cmdIODevList
                0x20012b8c        0x8 build/default/production/_ext/1376093119/sys_command.o

.bss.gSYSFSCurrentMountPoint%81
                0x20012b94        0x8
 .bss.gSYSFSCurrentMountPoint
                0x20012b94        0x8 build/default/production/_ext/1269487135/sys_fs.o
                0x20012b94                gSYSFSCurrentMountPoint

.bss.gSYSFSObj%82
                0x20012b9c        0x8
 .bss.gSYSFSObj
                0x20012b9c        0x8 build/default/production/_ext/1269487135/sys_fs.o
                0x20012b9c                gSYSFSObj

.bss.gSYSFSEventHandler%83
                0x20012ba4        0x8
 .bss.gSYSFSEventHandler
                0x20012ba4        0x8 build/default/production/_ext/1269487135/sys_fs_media_manager.o

.bss.AN0String.15725%84
                0x20012bac        0x8
 .bss.AN0String.15725
                0x20012bac        0x8 build/default/production/_ext/1360937237/custom_snmp_app.o

.bss.appData%85
                0x20012bb4        0x8
 .bss.appData   0x20012bb4        0x8 build/default/production/_ext/1360937237/app.o
                0x20012bb4                appData

.data.arpBcastAdd%86
                0x20012bbc        0x6
 .data.arpBcastAdd
                0x20012bbc        0x6 build/default/production/_ext/1033058136/arp.o

.bss._hEventMac%87
                0x2001168c        0x4
 .bss._hEventMac
                0x2001168c        0x4 build/default/production/_ext/1546807373/drv_gmac.o

.bss.drvGmacQueEvents%88
                0x20012bc4        0x4
 .bss.drvGmacQueEvents
                0x20012bc4        0x4 build/default/production/_ext/1546807373/drv_gmac_lib_samE5x.o
                0x20012bc4                drvGmacQueEvents

.bss.SnmpStackDcptMemStubPtr%89
                0x20012bc8        0x4
 .bss.SnmpStackDcptMemStubPtr
                0x20012bc8        0x4 build/default/production/_ext/1033058136/snmp.o

.bss.SnmpStackMemH%90
                0x20012bcc        0x4
 .bss.SnmpStackMemH
                0x20012bcc        0x4 build/default/production/_ext/1033058136/snmp.o

.bss.snmpFileShell%91
                0x20012bd0        0x4
 .bss.snmpFileShell
                0x20012bd0        0x4 build/default/production/_ext/1033058136/snmp.o
                0x20012bd0                snmpFileShell

.bss.snmpInitCount%92
                0x20012bd4        0x4
 .bss.snmpInitCount
                0x20012bd4        0x4 build/default/production/_ext/1033058136/snmp.o

.data.snmpFileDescrptr%93
                0x20012bd8        0x4
 .data.snmpFileDescrptr
                0x20012bd8        0x4 build/default/production/_ext/1033058136/snmp.o

.data.snmpMountPath%94
                0x20012bdc        0x4
 .data.snmpMountPath
                0x20012bdc        0x4 build/default/production/_ext/1033058136/snmp.o
                0x20012bdc                snmpMountPath

.bss.icmpEchoStart%95
                0x20012be0        0x4
 .bss.icmpEchoStart
                0x20012be0        0x4 build/default/production/_ext/1033058136/icmp.o

.bss.icmpEchoTmo%96
                0x20012be4        0x4
 .bss.icmpEchoTmo
                0x20012be4        0x4 build/default/production/_ext/1033058136/icmp.o

.bss.icmpInitCount%97
                0x20012be8        0x4
 .bss.icmpInitCount
                0x20012be8        0x4 build/default/production/_ext/1033058136/icmp.o

.bss.icmpMemH%98
                0x20012bec        0x4
 .bss.icmpMemH  0x20012bec        0x4 build/default/production/_ext/1033058136/icmp.o

.bss.pIcmpEchoRequest%99
                0x20012bf0        0x4
 .bss.pIcmpEchoRequest
                0x20012bf0        0x4 build/default/production/_ext/1033058136/icmp.o

.bss.signalHandle%100
                0x20012bf4        0x4
 .bss.signalHandle
                0x20012bf4        0x4 build/default/production/_ext/1033058136/icmp.o

.bss.TCBStubs%101
                0x20012bf8        0x4
 .bss.TCBStubs  0x20012bf8        0x4 build/default/production/_ext/1033058136/tcp.o

.bss.TcpSockets%102
                0x20012bfc        0x4
 .bss.TcpSockets
                0x20012bfc        0x4 build/default/production/_ext/1033058136/tcp.o

.bss.tcpHeapH%103
                0x20012c00        0x4
 .bss.tcpHeapH  0x20012c00        0x4 build/default/production/_ext/1033058136/tcp.o

.bss.tcpInitCount%104
                0x20012c04        0x4
 .bss.tcpInitCount
                0x20012c04        0x4 build/default/production/_ext/1033058136/tcp.o

.bss.tcpLockCount%105
                0x20012c08        0x4
 .bss.tcpLockCount
                0x20012c08        0x4 build/default/production/_ext/1033058136/tcp.o

.bss.tcpSemaphore%106
                0x20012c0c        0x4
 .bss.tcpSemaphore
                0x20012c0c        0x4 build/default/production/_ext/1033058136/tcp.o

.bss.tcpSignalHandle%107
                0x20012c10        0x4
 .bss.tcpSignalHandle
                0x20012c10        0x4 build/default/production/_ext/1033058136/tcp.o

.bss.commandInitCount%108
                0x20012c14        0x4
 .bss.commandInitCount
                0x20012c14        0x4 build/default/production/_ext/1033058136/tcpip_commands.o

.bss.dnsLookUpStartTick%109
                0x20012c18        0x4
 .bss.dnsLookUpStartTick
                0x20012c18        0x4 build/default/production/_ext/1033058136/tcpip_commands.o

.bss.dnsLookupCmdIoParam%110
                0x20012c1c        0x4
 .bss.dnsLookupCmdIoParam
                0x20012c1c        0x4 build/default/production/_ext/1033058136/tcpip_commands.o

.bss.icmpAckRecv%111
                0x20012c20        0x4
 .bss.icmpAckRecv
                0x20012c20        0x4 build/default/production/_ext/1033058136/tcpip_commands.o

.bss.icmpCmdIoParam%112
                0x20012c24        0x4
 .bss.icmpCmdIoParam
                0x20012c24        0x4 build/default/production/_ext/1033058136/tcpip_commands.o

.bss.icmpNetH%113
                0x20012c28        0x4
 .bss.icmpNetH  0x20012c28        0x4 build/default/production/_ext/1033058136/tcpip_commands.o

.bss.icmpReqCount%114
                0x20012c2c        0x4
 .bss.icmpReqCount
                0x20012c2c        0x4 build/default/production/_ext/1033058136/tcpip_commands.o

.bss.icmpReqDelay%115
                0x20012c30        0x4
 .bss.icmpReqDelay
                0x20012c30        0x4 build/default/production/_ext/1033058136/tcpip_commands.o

.bss.icmpReqHandle%116
                0x20012c34        0x4
 .bss.icmpReqHandle
                0x20012c34        0x4 build/default/production/_ext/1033058136/tcpip_commands.o

.bss.icmpReqNo%117
                0x20012c38        0x4
 .bss.icmpReqNo
                0x20012c38        0x4 build/default/production/_ext/1033058136/tcpip_commands.o

.bss.icmpStartTick%118
                0x20012c3c        0x4
 .bss.icmpStartTick
                0x20012c3c        0x4 build/default/production/_ext/1033058136/tcpip_commands.o
                0x20012c3c                icmpStartTick

.bss.icmpTargetAddr%119
                0x20012c40        0x4
 .bss.icmpTargetAddr
                0x20012c40        0x4 build/default/production/_ext/1033058136/tcpip_commands.o

.bss.initialNetIfs%120
                0x20012c44        0x4
 .bss.initialNetIfs
                0x20012c44        0x4 build/default/production/_ext/1033058136/tcpip_commands.o

.bss.miimAdd%121
                0x20012c48        0x4
 .bss.miimAdd   0x20012c48        0x4 build/default/production/_ext/1033058136/tcpip_commands.o

.bss.miimCmdIoParam%122
                0x20012c4c        0x4
 .bss.miimCmdIoParam
                0x20012c4c        0x4 build/default/production/_ext/1033058136/tcpip_commands.o

.bss.miimHandle%123
                0x20012c50        0x4
 .bss.miimHandle
                0x20012c50        0x4 build/default/production/_ext/1033058136/tcpip_commands.o

.bss.miimObj%124
                0x20012c54        0x4
 .bss.miimObj   0x20012c54        0x4 build/default/production/_ext/1033058136/tcpip_commands.o

.bss.miimOpHandle%125
                0x20012c58        0x4
 .bss.miimOpHandle
                0x20012c58        0x4 build/default/production/_ext/1033058136/tcpip_commands.o

.bss.miimRegEnd%126
                0x20012c5c        0x4
 .bss.miimRegEnd
                0x20012c5c        0x4 build/default/production/_ext/1033058136/tcpip_commands.o

.bss.miimRegIx%127
                0x20012c60        0x4
 .bss.miimRegIx
                0x20012c60        0x4 build/default/production/_ext/1033058136/tcpip_commands.o

.bss.miimRegStart%128
                0x20012c64        0x4
 .bss.miimRegStart
                0x20012c64        0x4 build/default/production/_ext/1033058136/tcpip_commands.o

.bss.pCmdTcpipInitData%129
                0x20012c68        0x4
 .bss.pCmdTcpipInitData
                0x20012c68        0x4 build/default/production/_ext/1033058136/tcpip_commands.o

.bss.pTcpipCmdDevice%130
                0x20012c6c        0x4
 .bss.pTcpipCmdDevice
                0x20012c6c        0x4 build/default/production/_ext/1033058136/tcpip_commands.o

.bss.tcpipCmdSignalHandle%131
                0x20012c70        0x4
 .bss.tcpipCmdSignalHandle
                0x20012c70        0x4 build/default/production/_ext/1033058136/tcpip_commands.o

.data.icmpPingSize%132
                0x20012c74        0x4
 .data.icmpPingSize
                0x20012c74        0x4 build/default/production/_ext/1033058136/tcpip_commands.o

.bss.httpConnCtrl%133
                0x20012c78        0x4
 .bss.httpConnCtrl
                0x20012c78        0x4 build/default/production/_ext/1033058136/http.o

.bss.httpConnData%134
                0x20012c7c        0x4
 .bss.httpConnData
                0x20012c7c        0x4 build/default/production/_ext/1033058136/http.o

.bss.httpConnNo%135
                0x20012c80        0x4
 .bss.httpConnNo
                0x20012c80        0x4 build/default/production/_ext/1033058136/http.o

.bss.httpFileShell%136
                0x20012c84        0x4
 .bss.httpFileShell
                0x20012c84        0x4 build/default/production/_ext/1033058136/http.o

.bss.httpInitCount%137
                0x20012c88        0x4
 .bss.httpInitCount
                0x20012c88        0x4 build/default/production/_ext/1033058136/http.o

.bss.httpSignalHandle%138
                0x20012c8c        0x4
 .bss.httpSignalHandle
                0x20012c8c        0x4 build/default/production/_ext/1033058136/http.o

.bss.http_free_fnc%139
                0x20012c90        0x4
 .bss.http_free_fnc
                0x20012c90        0x4 build/default/production/_ext/1033058136/http.o

.bss.http_malloc_fnc%140
                0x20012c94        0x4
 .bss.http_malloc_fnc
                0x20012c94        0x4 build/default/production/_ext/1033058136/http.o

.bss.iperfInitCount%141
                0x20012c98        0x4
 .bss.iperfInitCount
                0x20012c98        0x4 build/default/production/_ext/1033058136/iperf.o

.bss.nIperfSessions%142
                0x20012c9c        0x4
 .bss.nIperfSessions
                0x20012c9c        0x4 build/default/production/_ext/1033058136/iperf.o

.bss.ipv4ActFilterCount%143
                0x20012ca0        0x4
 .bss.ipv4ActFilterCount
                0x20012ca0        0x4 build/default/production/_ext/1033058136/ipv4.o

.bss.ipv4ArpEntries%144
                0x20012ca4        0x4
 .bss.ipv4ArpEntries
                0x20012ca4        0x4 build/default/production/_ext/1033058136/ipv4.o

.bss.ipv4ArpHandle%145
                0x20012ca8        0x4
 .bss.ipv4ArpHandle
                0x20012ca8        0x4 build/default/production/_ext/1033058136/ipv4.o

.bss.ipv4MemH%146
                0x20012cac        0x4
 .bss.ipv4MemH  0x20012cac        0x4 build/default/production/_ext/1033058136/ipv4.o

.bss.signalHandle%147
                0x20012cb0        0x4
 .bss.signalHandle
                0x20012cb0        0x4 build/default/production/_ext/1033058136/ipv4.o

.bss.DHCPClients%148
                0x20012cb4        0x4
 .bss.DHCPClients
                0x20012cb4        0x4 build/default/production/_ext/1033058136/dhcp.o

.bss.dhcpInitCount%149
                0x20012cb8        0x4
 .bss.dhcpInitCount
                0x20012cb8        0x4 build/default/production/_ext/1033058136/dhcp.o

.bss.dhcpInterfaces%150
                0x20012cbc        0x4
 .bss.dhcpInterfaces
                0x20012cbc        0x4 build/default/production/_ext/1033058136/dhcp.o

.bss.dhcpMemH%151
                0x20012cc0        0x4
 .bss.dhcpMemH  0x20012cc0        0x4 build/default/production/_ext/1033058136/dhcp.o

.bss.dhcpSecondCount%152
                0x20012cc4        0x4
 .bss.dhcpSecondCount
                0x20012cc4        0x4 build/default/production/_ext/1033058136/dhcp.o

.bss.dhcpSignalHandle%153
                0x20012cc8        0x4
 .bss.dhcpSignalHandle
                0x20012cc8        0x4 build/default/production/_ext/1033058136/dhcp.o

.bss.dnsInitCount%154
                0x20012ccc        0x4
 .bss.dnsInitCount
                0x20012ccc        0x4 build/default/production/_ext/1033058136/dns.o

.bss.pgDnsDcpt%155
                0x20012cd0        0x4
 .bss.pgDnsDcpt
                0x20012cd0        0x4 build/default/production/_ext/1033058136/dns.o

.bss.newTcpipErrorEventCnt%156
                0x20012cd4        0x4
 .bss.newTcpipErrorEventCnt
                0x20012cd4        0x4 build/default/production/_ext/1033058136/tcpip_manager.o

.bss.newTcpipStackEventCnt%157
                0x20012cd8        0x4
 .bss.newTcpipStackEventCnt
                0x20012cd8        0x4 build/default/production/_ext/1033058136/tcpip_manager.o

.bss.newTcpipTickAvlbl%158
                0x20012cdc        0x4
 .bss.newTcpipTickAvlbl
                0x20012cdc        0x4 build/default/production/_ext/1033058136/tcpip_manager.o

.bss.stackAsyncSignalCount%159
                0x20012ce0        0x4
 .bss.stackAsyncSignalCount
                0x20012ce0        0x4 build/default/production/_ext/1033058136/tcpip_manager.o

.bss.stackTaskRate%160
                0x20012ce4        0x4
 .bss.stackTaskRate
                0x20012ce4        0x4 build/default/production/_ext/1033058136/tcpip_manager.o

.bss.tcpipDefIf%161
                0x20012ce8        0x4
 .bss.tcpipDefIf
                0x20012ce8        0x4 build/default/production/_ext/1033058136/tcpip_manager.o

.bss.tcpipNetIf%162
                0x20012cec        0x4
 .bss.tcpipNetIf
                0x20012cec        0x4 build/default/production/_ext/1033058136/tcpip_manager.o

.bss.tcpip_stack_init_cb%163
                0x20012cf0        0x4
 .bss.tcpip_stack_init_cb
                0x20012cf0        0x4 build/default/production/_ext/1033058136/tcpip_manager.o

.bss.totTcpipEventsCnt%164
                0x20012cf4        0x4
 .bss.totTcpipEventsCnt
                0x20012cf4        0x4 build/default/production/_ext/1033058136/tcpip_manager.o

.data.tcpip_stack_tickH%165
                0x20012cf8        0x4
 .data.tcpip_stack_tickH
                0x20012cf8        0x4 build/default/production/_ext/1033058136/tcpip_manager.o

.bss.pktMemH%166
                0x20012cfc        0x4
 .bss.pktMemH   0x20012cfc        0x4 build/default/production/_ext/1033058136/tcpip_packet.o

.bss.UDPSocketDcpt%167
                0x20012d00        0x4
 .bss.UDPSocketDcpt
                0x20012d00        0x4 build/default/production/_ext/1033058136/udp.o

.bss.nUdpSockets%168
                0x20012d04        0x4
 .bss.nUdpSockets
                0x20012d04        0x4 build/default/production/_ext/1033058136/udp.o

.bss.signalHandle%169
                0x20012d08        0x4
 .bss.signalHandle
                0x20012d08        0x4 build/default/production/_ext/1033058136/udp.o

.bss.udpInitCount%170
                0x20012d0c        0x4
 .bss.udpInitCount
                0x20012d0c        0x4 build/default/production/_ext/1033058136/udp.o

.bss.udpMemH%171
                0x20012d10        0x4
 .bss.udpMemH   0x20012d10        0x4 build/default/production/_ext/1033058136/udp.o

.bss.userSem%172
                0x20012d14        0x4
 .bss.userSem   0x20012d14        0x4 build/default/production/_ext/1033058136/udp.o

.bss._cmdInitData%173
                0x20012d18        0x4
 .bss._cmdInitData
                0x20012d18        0x4 build/default/production/_ext/1376093119/sys_command.o

.bss.printBuffPtr%174
                0x20012d1c        0x4
 .bss.printBuffPtr
                0x20012d1c        0x4 build/default/production/_ext/1376093119/sys_command.o

.bss.consolePrintBufferMutex%175
                0x20012d20        0x4
 .bss.consolePrintBufferMutex
                0x20012d20        0x4 build/default/production/_ext/1832805299/sys_console.o

.bss.sysDebugInstance%176
                0x20012d24        0x4
 .bss.sysDebugInstance
                0x20012d24        0x4 build/default/production/_ext/944882569/sys_debug.o

.bss.gSysFsMutex%177
                0x20012d28        0x4
 .bss.gSysFsMutex
                0x20012d28        0x4 build/default/production/_ext/1269487135/sys_fs.o
                0x20012d28                gSysFsMutex

.bss.gTickConv%178
                0x20012d2c        0x4
 .bss.gTickConv
                0x20012d2c        0x4 build/default/production/_ext/753841488/sys_time_h2_adapter.o

.bss.systemAdaptObj%179
                0x20012d30        0x4
 .bss.systemAdaptObj
                0x20012d30        0x4 build/default/production/_ext/753841488/sys_time_h2_adapter.o

.bss.pRandCtx%180
                0x20012d34        0x4
 .bss.pRandCtx  0x20012d34        0x4 build/default/production/_ext/753841488/sys_random_h2_adapter.o

.bss.sysCmdInit%181
                0x20012d38        0x4
 .bss.sysCmdInit
                0x20012d38        0x4 build/default/production/_ext/1171490990/initialization.o
                0x20012d38                sysCmdInit

.bss.xAPP_Tasks%182
                0x20012d3c        0x4
 .bss.xAPP_Tasks
                0x20012d3c        0x4 build/default/production/_ext/1171490990/tasks.o
                0x20012d3c                xAPP_Tasks

.data.uxCriticalNesting%183
                0x20012d40        0x4
 .data.uxCriticalNesting
                0x20012d40        0x4 build/default/production/_ext/246609638/port.o

.bss.pucAlignedHeap.6555%184
                0x20012d44        0x4
 .bss.pucAlignedHeap.6555
                0x20012d44        0x4 build/default/production/_ext/1665200909/heap_1.o

.bss.xNextFreeByte%185
                0x20012d48        0x4
 .bss.xNextFreeByte
                0x20012d48        0x4 build/default/production/_ext/1665200909/heap_1.o

.bss.pxCurrentTCB%186
                0x20012d4c        0x4
 .bss.pxCurrentTCB
                0x20012d4c        0x4 build/default/production/_ext/404212886/FreeRTOS_tasks.o
                0x20012d4c                pxCurrentTCB

.bss.pxDelayedTaskList%187
                0x20012d50        0x4
 .bss.pxDelayedTaskList
                0x20012d50        0x4 build/default/production/_ext/404212886/FreeRTOS_tasks.o

.bss.pxOverflowDelayedTaskList%188
                0x20012d54        0x4
 .bss.pxOverflowDelayedTaskList
                0x20012d54        0x4 build/default/production/_ext/404212886/FreeRTOS_tasks.o

.bss.uxCurrentNumberOfTasks%189
                0x20012d58        0x4
 .bss.uxCurrentNumberOfTasks
                0x20012d58        0x4 build/default/production/_ext/404212886/FreeRTOS_tasks.o

.bss.uxDeletedTasksWaitingCleanUp%190
                0x20012d5c        0x4
 .bss.uxDeletedTasksWaitingCleanUp
                0x20012d5c        0x4 build/default/production/_ext/404212886/FreeRTOS_tasks.o

.bss.uxSchedulerSuspended%191
                0x20012d60        0x4
 .bss.uxSchedulerSuspended
                0x20012d60        0x4 build/default/production/_ext/404212886/FreeRTOS_tasks.o

.bss.uxTaskNumber%192
                0x20012d64        0x4
 .bss.uxTaskNumber
                0x20012d64        0x4 build/default/production/_ext/404212886/FreeRTOS_tasks.o

.bss.uxTopReadyPriority%193
                0x20012d68        0x4
 .bss.uxTopReadyPriority
                0x20012d68        0x4 build/default/production/_ext/404212886/FreeRTOS_tasks.o

.bss.xIdleTaskHandle%194
                0x20012d6c        0x4
 .bss.xIdleTaskHandle
                0x20012d6c        0x4 build/default/production/_ext/404212886/FreeRTOS_tasks.o

.bss.xNextTaskUnblockTime%195
                0x20012d70        0x4
 .bss.xNextTaskUnblockTime
                0x20012d70        0x4 build/default/production/_ext/404212886/FreeRTOS_tasks.o

.bss.xNumOfOverflows%196
                0x20012d74        0x4
 .bss.xNumOfOverflows
                0x20012d74        0x4 build/default/production/_ext/404212886/FreeRTOS_tasks.o

.bss.xPendedTicks%197
                0x20012d78        0x4
 .bss.xPendedTicks
                0x20012d78        0x4 build/default/production/_ext/404212886/FreeRTOS_tasks.o

.bss.xSchedulerRunning%198
                0x20012d7c        0x4
 .bss.xSchedulerRunning
                0x20012d7c        0x4 build/default/production/_ext/404212886/FreeRTOS_tasks.o

.bss.xTickCount%199
                0x20012d80        0x4
 .bss.xTickCount
                0x20012d80        0x4 build/default/production/_ext/404212886/FreeRTOS_tasks.o

.bss.xYieldPending%200
                0x20012d84        0x4
 .bss.xYieldPending
                0x20012d84        0x4 build/default/production/_ext/404212886/FreeRTOS_tasks.o

.bss%201        0x20012d88        0x4
 .bss           0x20012d88        0x4 c:/program files/microchip/xc32/v3.01/bin/bin/../../lib/gcc/pic32c/8.3.1/../../../../pic32c/lib/thumb/v7e-m+fp/hard\libpic32c.a(data_init.o)

.data._impure_ptr%202
                0x20012d8c        0x4
 .data._impure_ptr
                0x20012d8c        0x4 c:/program files/microchip/xc32/v3.01/bin/bin/../../lib/gcc/pic32c/8.3.1/../../../../pic32c/lib/thumb/v7e-m+fp/hard\libc_nano.a(lib_a-impure.o)
                0x20012d8c                _impure_ptr

.bss.__malloc_free_list%203
                0x20012d90        0x4
 .bss.__malloc_free_list
                0x20012d90        0x4 c:/program files/microchip/xc32/v3.01/bin/bin/../../lib/gcc/pic32c/8.3.1/../../../../pic32c/lib/thumb/v7e-m+fp/hard\libc_nano.a(lib_a-nano-mallocr.o)
                0x20012d90                __malloc_free_list

.bss.__malloc_sbrk_start%204
                0x20012d94        0x4
 .bss.__malloc_sbrk_start
                0x20012d94        0x4 c:/program files/microchip/xc32/v3.01/bin/bin/../../lib/gcc/pic32c/8.3.1/../../../../pic32c/lib/thumb/v7e-m+fp/hard\libc_nano.a(lib_a-nano-mallocr.o)
                0x20012d94                __malloc_sbrk_start

.bss%205        0x20012d98        0x4
 .bss           0x20012d98        0x4 c:/program files/microchip/xc32/v3.01/bin/bin/../../lib/gcc/pic32c/8.3.1/../../../../pic32c/lib/thumb/v7e-m+fp/hard\libpic32c.a(sbrk.o)

.bss.MPFS_VolToPart%206
                0x20012d9c        0x2
 .bss.MPFS_VolToPart
                0x20012d9c        0x2 build/default/production/_ext/1269487135/sys_fs_media_manager.o
                0x20012d9c                MPFS_VolToPart

.bss.varBindLen.15708%207
                0x20012da0        0x2
 .bss.varBindLen.15708
                0x20012da0        0x2 build/default/production/_ext/1033058136/snmp.o

.bss.SNMPTxOffset%208
                0x20012bc2        0x2
 .bss.SNMPTxOffset
                0x20012bc2        0x2 build/default/production/_ext/1033058136/snmp.o

.bss.tcpDefRxSize%209
                0x20012d9e        0x2
 .bss.tcpDefRxSize
                0x20012d9e        0x2 build/default/production/_ext/1033058136/tcp.o

.bss.tcpDefTxSize%210
                0x200114d2        0x2
 .bss.tcpDefTxSize
                0x200114d2        0x2 build/default/production/_ext/1033058136/tcp.o

.bss.icmpIdentifier%211
                0x20012b4a        0x2
 .bss.icmpIdentifier
                0x20012b4a        0x2 build/default/production/_ext/1033058136/tcpip_commands.o

.bss.icmpSequenceNo%212
                0x20012da2        0x2
 .bss.icmpSequenceNo
                0x20012da2        0x2 build/default/production/_ext/1033058136/tcpip_commands.o

.bss.miimObjIx%213
                0x20012da4        0x2
 .bss.miimObjIx
                0x20012da4        0x2 build/default/production/_ext/1033058136/tcpip_commands.o

.bss.miimWrData%214
                0x20012da6        0x2
 .bss.miimWrData
                0x20012da6        0x2 build/default/production/_ext/1033058136/tcpip_commands.o

.bss.httpConnDataSize%215
                0x20012da8        0x2
 .bss.httpConnDataSize
                0x20012da8        0x2 build/default/production/_ext/1033058136/http.o

.bss.ipv4Identifier%216
                0x20012daa        0x2
 .bss.ipv4Identifier
                0x20012daa        0x2 build/default/production/_ext/1033058136/ipv4.o

.bss.ipv4InitCount%217
                0x20012dac        0x2
 .bss.ipv4InitCount
                0x20012dac        0x2 build/default/production/_ext/1033058136/ipv4.o

.bss.dhcpClientPort%218
                0x20012dae        0x2
 .bss.dhcpClientPort
                0x20012dae        0x2 build/default/production/_ext/1033058136/dhcp.o

.bss.dhcpClientSocket%219
                0x20012db0        0x2
 .bss.dhcpClientSocket
                0x20012db0        0x2 build/default/production/_ext/1033058136/dhcp.o

.bss.dhcpServerPort%220
                0x20012db2        0x2
 .bss.dhcpServerPort
                0x20012db2        0x2 build/default/production/_ext/1033058136/dhcp.o

.bss.udpDefTxSize%221
                0x20012db4        0x2
 .bss.udpDefTxSize
                0x20012db4        0x2 build/default/production/_ext/1033058136/udp.o

.bss.nvm_error%222
                0x20012db6        0x2
 .bss.nvm_error
                0x20012db6        0x2 build/default/production/_ext/1593096446/plib_nvmctrl.o

.data.gSysTimeTokenCount%223
                0x20012db8        0x2
 .data.gSysTimeTokenCount
                0x20012db8        0x2 build/default/production/_ext/101884895/sys_time.o

.bss.SNMPStatus%224
                0x20012dbc        0x1
 .bss.SNMPStatus
                0x20012dbc        0x1 build/default/production/_ext/1033058136/snmp.o

.data.drvGmacIRQ%225
                0x20012dc0        0x2
 .data.drvGmacIRQ
                0x20012dc0        0x2 build/default/production/_ext/1546807373/drv_gmac_lib_samE5x.o
                0x20012dc0                drvGmacIRQ

.bss.SNMPRxOffset%226
                0x20012dba        0x2
 .bss.SNMPRxOffset
                0x20012dba        0x2 build/default/production/_ext/1033058136/snmp.o

.data.queueIndex.10697%227
                0x20012833        0x1
 .data.queueIndex.10697
                0x20012833        0x1 build/default/production/_ext/1546807373/drv_gmac.o

.bss.indexBytes.15789%228
                0x2001294f        0x1
 .bss.indexBytes.15789
                0x2001294f        0x1 build/default/production/_ext/1033058136/snmp.o

.bss.indexBytes.15812%229
                0x2001296f        0x1
 .bss.indexBytes.15812
                0x2001296f        0x1 build/default/production/_ext/1033058136/snmp.o

.bss.smSnmp.15726%230
                0x200114d1        0x1
 .bss.smSnmp.15726
                0x200114d1        0x1 build/default/production/_ext/1033058136/snmp.o

.bss.varDataType.15788%231
                0x20012b49        0x1
 .bss.varDataType.15788
                0x20012b49        0x1 build/default/production/_ext/1033058136/snmp.o

.bss.varDataType.15811%232
                0x20012dbd        0x1
 .bss.varDataType.15811
                0x20012dbd        0x1 build/default/production/_ext/1033058136/snmp.o

.bss.tcpipCmdStat%233
                0x20012dbe        0x1
 .bss.tcpipCmdStat
                0x20012dbe        0x1 build/default/production/_ext/1033058136/tcpip_commands.o

.data.dnsType%234
                0x20012dbf        0x1
 .data.dnsType  0x20012dbf        0x1 build/default/production/_ext/1033058136/tcpip_commands.o

.bss.fileErr%235
                0x20012dc2        0x1
 .bss.fileErr   0x20012dc2        0x1 build/default/production/_ext/1033058136/http.o

.bss.httpConfigFlags%236
                0x20012dc3        0x1
 .bss.httpConfigFlags
                0x20012dc3        0x1 build/default/production/_ext/1033058136/http.o

.bss.iperf_async_request.15574%237
                0x20012dc4        0x1
 .bss.iperf_async_request.15574
                0x20012dc4        0x1 build/default/production/_ext/1033058136/iperf.o

.bss.ipv4FilterType%238
                0x20012dc5        0x1
 .bss.ipv4FilterType
                0x20012dc5        0x1 build/default/production/_ext/1033058136/ipv4.o

.bss.tcpip_stack_status%239
                0x20012dc6        0x1
 .bss.tcpip_stack_status
                0x20012dc6        0x1 build/default/production/_ext/1033058136/tcpip_manager.o

.bss.error_reported.10420%240
                0x20012dc7        0x1
 .bss.error_reported.10420
                0x20012dc7        0x1 build/default/production/_ext/1376093119/sys_command.o

.bss.isConsoleMutexCreated%241
                0x20012dc8        0x1
 .bss.isConsoleMutexCreated
                0x20012dc8        0x1 build/default/production/_ext/1832805299/sys_console.o

.bss.gblErrLvl%242
                0x20012dc9        0x1
 .bss.gblErrLvl
                0x20012dc9        0x1 build/default/production/_ext/944882569/sys_debug.o
                0x20012dc9                gblErrLvl

.bss.gSysMpfsHandleToken%243
                0x20012dca        0x1
 .bss.gSysMpfsHandleToken
                0x20012dca        0x1 build/default/production/_ext/699575981/mpfs.o
                0x20012dca                gSysMpfsHandleToken

.bss.errorValue%244
                0x20012dcb        0x1
 .bss.errorValue
                0x20012dcb        0x1 build/default/production/_ext/1269487135/sys_fs.o
                0x20012dcb                errorValue

.bss.lastFailure%245
                0x20012dcc        0x1
 .bss.lastFailure
                0x20012dcc        0x1 build/default/production/_ext/1360937237/custom_http_app.o

.bss.lastSuccess%246
                0x20012dcd        0x1
 .bss.lastSuccess
                0x20012dcd        0x1 build/default/production/_ext/1360937237/custom_http_app.o

.eh_frame%z1    0x00000000        0x0
 .eh_frame      0x00000000        0x0 c:/program files/microchip/xc32/v3.01/bin/bin/../../lib/gcc/pic32c/8.3.1/thumb/v7e-m+fp/hard/crtbegin.o

.rodata.NVM_MEDIA_DATA%247
                0x00080000    0x80000
 .rodata.NVM_MEDIA_DATA
                0x00080000    0x80000 build/default/production/_ext/1360937237/mpfs_img2.o
                0x00080000                NVM_MEDIA_DATA

.rodata%248     0x0000028c     0x1a58
 .rodata        0x0000028c     0x1a58 build/default/production/_ext/1033058136/tcpip_commands.o

.text.TCPIP_SNMP_Task%249
                0x00001ce4     0x1238
 .text.TCPIP_SNMP_Task
                0x00001ce4     0x1238 build/default/production/_ext/1033058136/snmp.o
                0x00001ce4                TCPIP_SNMP_Task

.dinit%250      0x00002f1c      0xf70
 .dinit         0x00002f1c      0xf70 data_init

.text.TCPIP_HTTP_ProcessConnection%251
                0x00003e8c      0xf34
 .text.TCPIP_HTTP_ProcessConnection
                0x00003e8c      0xf34 build/default/production/_ext/1033058136/http.o

.text.TCPIP_TCP_Task%252
                0x00004dc0      0xe40
 .text.TCPIP_TCP_Task
                0x00004dc0      0xe40 build/default/production/_ext/1033058136/tcp.o
                0x00004dc0                TCPIP_TCP_Task

.text.TCPIP_IPERF_Task%253
                0x00005c00      0xd34
 .text.TCPIP_IPERF_Task
                0x00005c00      0xd34 build/default/production/_ext/1033058136/iperf.o
                0x00005c00                TCPIP_IPERF_Task

.text._dtoa_r%254
                0x00006938      0xb6c
 .text._dtoa_r  0x00006938      0xb6c c:/program files/microchip/xc32/v3.01/bin/bin/../../lib/gcc/pic32c/8.3.1/../../../../pic32c/lib/thumb/v7e-m+fp/hard\libc_nano.a(lib_a-dtoa.o)
                0x00006938                _dtoa_r

.rodata%255     0x000074a4     0x13b8
 .rodata        0x000074a4      0xaa4 build/default/production/_ext/1033058136/iperf.o
 .rodata        0x00007f48      0x914 build/default/production/_ext/1033058136/http.o

.rodata.macPIC32CHwRegDcpt%257
                0x0000885c      0x708
 .rodata.macPIC32CHwRegDcpt
                0x0000885c      0x708 build/default/production/_ext/1546807373/drv_gmac.o

.text.Transform%258
                0x00008f64      0x6d0
 .text.Transform
                0x00008f64      0x6d0 build/default/production/_ext/1664057780/md5.o

.text.TCPIP_STACK_Task%259
                0x00009634      0x630
 .text.TCPIP_STACK_Task
                0x00009634      0x630 build/default/production/_ext/1033058136/tcpip_manager.o
                0x00009634                TCPIP_STACK_Task

.text.CommandIperfStart%260
                0x00009c64      0x5c0
 .text.CommandIperfStart
                0x00009c64      0x5c0 build/default/production/_ext/1033058136/iperf.o

.text._TcpSend%261
                0x0000a224      0x5b0
 .text._TcpSend
                0x0000a224      0x5b0 build/default/production/_ext/1033058136/tcp.o

.text._printf_float%262
                0x0000a7d4      0x52c
 .text._printf_float
                0x0000a7d4      0x52c c:/program files/microchip/xc32/v3.01/bin/bin/../../lib/gcc/pic32c/8.3.1/../../../../pic32c/lib/thumb/v7e-m+fp/hard\libc_nano.a(lib_a-nano-vfprintf_float.o)
                0x0000a7d4                _printf_float

.text._Command_DNS_Service%263
                0x0000ad00      0x518
 .text._Command_DNS_Service
                0x0000ad00      0x518 build/default/production/_ext/1033058136/tcpip_commands.o

.text.TCPIP_COMMAND_Task%264
                0x0000b218      0x4d8
 .text.TCPIP_COMMAND_Task
                0x0000b218      0x4d8 build/default/production/_ext/1033058136/tcpip_commands.o
                0x0000b218                TCPIP_COMMAND_Task

.text.TCPIP_HTTP_PostExecute%265
                0x0000b6f0      0x4d0
 .text.TCPIP_HTTP_PostExecute
                0x0000b6f0      0x4d0 build/default/production/_ext/1360937237/custom_http_app.o
                0x0000b6f0                TCPIP_HTTP_PostExecute

.text.TCPIP_DHCP_Task%266
                0x0000bbc0      0x4c0
 .text.TCPIP_DHCP_Task
                0x0000bbc0      0x4c0 build/default/production/_ext/1033058136/dhcp.o
                0x0000bbc0                TCPIP_DHCP_Task

.rodata%267     0x0000c080      0x490
 .rodata        0x0000c080      0x490 build/default/production/_ext/1033058136/tcpip_manager.o

.text.SYS_CMD_Tasks%268
                0x0000c510      0x470
 .text.SYS_CMD_Tasks
                0x0000c510      0x470 build/default/production/_ext/1376093119/sys_command.o
                0x0000c510                SYS_CMD_Tasks

.text._TCPIP_DoInitialize%269
                0x0000c980      0x424
 .text._TCPIP_DoInitialize
                0x0000c980      0x424 build/default/production/_ext/1033058136/tcpip_manager.o

.text%270       0x0000cda4      0x424
 .text          0x0000cda4      0x424 c:/program files/microchip/xc32/v3.01/bin/bin/../../lib/gcc/pic32c/8.3.1/thumb/v7e-m+fp/hard\libgcc.a(_arm_muldivdf3.o)
                0x0000cda4                __aeabi_dmul
                0x0000cda4                __muldf3
                0x0000cff8                __divdf3
                0x0000cff8                __aeabi_ddiv

.text._DNS_ProcessPacket%271
                0x0000d1c8      0x3f8
 .text._DNS_ProcessPacket
                0x0000d1c8      0x3f8 build/default/production/_ext/1033058136/dns.o

.text.GenericTxStart%272
                0x0000d5c0      0x3cc
 .text.GenericTxStart
                0x0000d5c0      0x3cc build/default/production/_ext/1033058136/iperf.o

.text.DRV_PIC32CGMAC_LibRxGetPacket%273
                0x0000d98c      0x380
 .text.DRV_PIC32CGMAC_LibRxGetPacket
                0x0000d98c      0x380 build/default/production/_ext/1546807373/drv_gmac_lib_samE5x.o
                0x0000d98c                DRV_PIC32CGMAC_LibRxGetPacket

.text%274       0x0000dd0c      0x378
 .text          0x0000dd0c      0x378 c:/program files/microchip/xc32/v3.01/bin/bin/../../lib/gcc/pic32c/8.3.1/thumb/v7e-m+fp/hard\libgcc.a(_arm_addsubdf3.o)
                0x0000dd0c                __aeabi_drsub
                0x0000dd14                __aeabi_dsub
                0x0000dd14                __subdf3
                0x0000dd18                __aeabi_dadd
                0x0000dd18                __adddf3
                0x0000df90                __floatunsidf
                0x0000df90                __aeabi_ui2d
                0x0000dfb0                __floatsidf
                0x0000dfb0                __aeabi_i2d
                0x0000dfd4                __aeabi_f2d
                0x0000dfd4                __extendsfdf2
                0x0000e018                __floatundidf
                0x0000e018                __aeabi_ul2d
                0x0000e028                __floatdidf
                0x0000e028                __aeabi_l2d

.text.TCPIP_SNMP_OIDFindInMgmtInfoBase%275
                0x0000e084      0x36c
 .text.TCPIP_SNMP_OIDFindInMgmtInfoBase
                0x0000e084      0x36c build/default/production/_ext/1033058136/snmp.o
                0x0000e084                TCPIP_SNMP_OIDFindInMgmtInfoBase

.text.TCPIP_SNMP_ProcessGetBulkVar%276
                0x0000e3f0      0x368
 .text.TCPIP_SNMP_ProcessGetBulkVar
                0x0000e3f0      0x368 build/default/production/_ext/1033058136/snmp.o
                0x0000e3f0                TCPIP_SNMP_ProcessGetBulkVar

.text.TCPIP_Helper_StringToIPv6Address%277
                0x0000e758      0x364
 .text.TCPIP_Helper_StringToIPv6Address
                0x0000e758      0x364 build/default/production/_ext/1033058136/tcpip_helpers.o
                0x0000e758                TCPIP_Helper_StringToIPv6Address

.text.Transform_Sha256%278
                0x0000eabc      0x30c
 .text.Transform_Sha256
                0x0000eabc      0x30c build/default/production/_ext/1664057780/sha256.o

.text.DRV_GMAC_Initialize%279
                0x0000edc8      0x308
 .text.DRV_GMAC_Initialize
                0x0000edc8      0x308 build/default/production/_ext/1546807373/drv_gmac.o
                0x0000edc8                DRV_GMAC_Initialize

.text.TCPIP_TCP_FifoSizeAdjust%280
                0x0000f0d0      0x2f0
 .text.TCPIP_TCP_FifoSizeAdjust
                0x0000f0d0      0x2f0 build/default/production/_ext/1033058136/tcp.o
                0x0000f0d0                TCPIP_TCP_FifoSizeAdjust

.text.TCPIP_SNMP_ProcessGetNextVar%281
                0x0000f3c0      0x2e8
 .text.TCPIP_SNMP_ProcessGetNextVar
                0x0000f3c0      0x2e8 build/default/production/_ext/1033058136/snmp.o
                0x0000f3c0                TCPIP_SNMP_ProcessGetNextVar

.rodata%282     0x0000f6a8      0x2e4
 .rodata        0x0000f6a8      0x2e4 build/default/production/_ext/992804092/drv_memory.o

.text.TCPIP_SNMP_ProcessSetVar%283
                0x0000f98c      0x2d0
 .text.TCPIP_SNMP_ProcessSetVar
                0x0000f98c      0x2d0 build/default/production/_ext/1033058136/snmp.o
                0x0000f98c                TCPIP_SNMP_ProcessSetVar

.text.Hash_DRBG_Generate%284
                0x0000fc5c      0x2d0
 .text.Hash_DRBG_Generate
                0x0000fc5c      0x2d0 build/default/production/_ext/1664057780/random.o

.text%285       0x0000ff2c      0x2d0
 .text          0x0000ff2c      0x2d0 c:/program files/microchip/xc32/v3.01/bin/bin/../../lib/gcc/pic32c/8.3.1/thumb/v7e-m+fp/hard\libgcc.a(_udivmoddi4.o)
                0x0000ff2c                __udivmoddi4

.text._TCP_Open%286
                0x000101fc      0x2c0
 .text._TCP_Open
                0x000101fc      0x2c0 build/default/production/_ext/1033058136/tcp.o

.text.TCPIP_ARP_Task%287
                0x000104bc      0x2c0
 .text.TCPIP_ARP_Task
                0x000104bc      0x2c0 build/default/production/_ext/1033058136/arp.o
                0x000104bc                TCPIP_ARP_Task

.text._DNS_Send_Query%288
                0x0001077c      0x290
 .text._DNS_Send_Query
                0x0001077c      0x290 build/default/production/_ext/1033058136/dns.o

.rodata%289     0x00010a0c      0x290
 .rodata        0x00010a0c      0x290 build/default/production/_ext/1376093119/sys_command.o

.text.SYS_FS_MEDIA_MANAGER_Tasks%290
                0x00010c9c      0x288
 .text.SYS_FS_MEDIA_MANAGER_Tasks
                0x00010c9c      0x288 build/default/production/_ext/1269487135/sys_fs_media_manager.o
                0x00010c9c                SYS_FS_MEDIA_MANAGER_Tasks

.text._CommandDhcpOptions%291
                0x00010f24      0x26c
 .text._CommandDhcpOptions
                0x00010f24      0x26c build/default/production/_ext/1033058136/tcpip_commands.o

.text.DRV_MEMORY_SetupXfer%292
                0x00011190      0x264
 .text.DRV_MEMORY_SetupXfer
                0x00011190      0x264 build/default/production/_ext/992804092/drv_memory.o

.text._CommandMiim%293
                0x000113f4      0x25c
 .text._CommandMiim
                0x000113f4      0x25c build/default/production/_ext/1033058136/tcpip_commands.o

.text.ReportBW_Jitter_Loss%294
                0x00011650      0x25c
 .text.ReportBW_Jitter_Loss
                0x00011650      0x25c build/default/production/_ext/1033058136/iperf.o

.text._CommandPing%295
                0x000118ac      0x254
 .text._CommandPing
                0x000118ac      0x254 build/default/production/_ext/1033058136/tcpip_commands.o

.text.TCPIP_UDP_Task%296
                0x00011b00      0x24c
 .text.TCPIP_UDP_Task
                0x00011b00      0x24c build/default/production/_ext/1033058136/udp.o
                0x00011b00                TCPIP_UDP_Task

.text.TCPIP_HTTP_Initialize%297
                0x00011d4c      0x240
 .text.TCPIP_HTTP_Initialize
                0x00011d4c      0x240 build/default/production/_ext/1033058136/http.o
                0x00011d4c                TCPIP_HTTP_Initialize

.text.TCPIP_TCP_ArrayFind%298
                0x00011f8c      0x23c
 .text.TCPIP_TCP_ArrayFind
                0x00011f8c      0x23c build/default/production/_ext/1033058136/tcp.o
                0x00011f8c                TCPIP_TCP_ArrayFind

.text.TCPIP_STACK_BringNetUp%299
                0x000121c8      0x23c
 .text.TCPIP_STACK_BringNetUp
                0x000121c8      0x23c build/default/production/_ext/1033058136/tcpip_manager.o

.text.TCPIP_IPV4_Task%300
                0x00012404      0x234
 .text.TCPIP_IPV4_Task
                0x00012404      0x234 build/default/production/_ext/1033058136/ipv4.o
                0x00012404                TCPIP_IPV4_Task

.text._printf_i%301
                0x00012638      0x228
 .text._printf_i
                0x00012638      0x228 c:/program files/microchip/xc32/v3.01/bin/bin/../../lib/gcc/pic32c/8.3.1/../../../../pic32c/lib/thumb/v7e-m+fp/hard\libc_nano.a(lib_a-nano-vfprintf_i.o)
                0x00012638                _printf_i

.text.TCPIP_UDP_Flush%302
                0x00012860      0x220
 .text.TCPIP_UDP_Flush
                0x00012860      0x220 build/default/production/_ext/1033058136/udp.o
                0x00012860                TCPIP_UDP_Flush

.text.TCPIP_IPV4_PktTx%303
                0x00012a80      0x210
 .text.TCPIP_IPV4_PktTx
                0x00012a80      0x210 build/default/production/_ext/1033058136/ipv4.o
                0x00012a80                TCPIP_IPV4_PktTx

.text.DRV_MEMORY_Open%304
                0x00012c90      0x20c
 .text.DRV_MEMORY_Open
                0x00012c90      0x20c build/default/production/_ext/992804092/drv_memory.o
                0x00012c90                DRV_MEMORY_Open

.text._Command_NetInfo%305
                0x00012e9c      0x20c
 .text._Command_NetInfo
                0x00012e9c      0x20c build/default/production/_ext/1033058136/tcpip_commands.o

.text.TCPIP_DNS_ClientInitialize%306
                0x000130a8      0x20c
 .text.TCPIP_DNS_ClientInitialize
                0x000130a8      0x20c build/default/production/_ext/1033058136/dns.o
                0x000130a8                TCPIP_DNS_ClientInitialize

.text.TCPIP_UDP_OptionsSet%307
                0x000132b4      0x204
 .text.TCPIP_UDP_OptionsSet
                0x000132b4      0x204 build/default/production/_ext/1033058136/udp.o
                0x000132b4                TCPIP_UDP_OptionsSet

.text.TCPIP_SNMP_Initialize%308
                0x000134b8      0x1e8
 .text.TCPIP_SNMP_Initialize
                0x000134b8      0x1e8 build/default/production/_ext/1033058136/snmp.o
                0x000134b8                TCPIP_SNMP_Initialize

.text.TCPIP_SNMP_ProcessGetVar%309
                0x000136a0      0x1e4
 .text.TCPIP_SNMP_ProcessGetVar
                0x000136a0      0x1e4 build/default/production/_ext/1033058136/snmp.o
                0x000136a0                TCPIP_SNMP_ProcessGetVar

.text.TCPIP_ICMP_Task%310
                0x00013884      0x1e4
 .text.TCPIP_ICMP_Task
                0x00013884      0x1e4 build/default/production/_ext/1033058136/icmp.o
                0x00013884                TCPIP_ICMP_Task

.text.TCPIP_ARP_Initialize%311
                0x00013a68      0x1e4
 .text.TCPIP_ARP_Initialize
                0x00013a68      0x1e4 build/default/production/_ext/1033058136/arp.o
                0x00013a68                TCPIP_ARP_Initialize

.text.xTaskCreate%312
                0x00013c4c      0x1e4
 .text.xTaskCreate
                0x00013c4c      0x1e4 build/default/production/_ext/404212886/FreeRTOS_tasks.o
                0x00013c4c                xTaskCreate

.text._DHCPReceive%313
                0x00013e30      0x1dc
 .text._DHCPReceive
                0x00013e30      0x1dc build/default/production/_ext/1033058136/dhcp.o

.text.SERCOM1_USART_InterruptHandler%314
                0x0001400c      0x1d4
 .text.SERCOM1_USART_InterruptHandler
                0x0001400c      0x1d4 build/default/production/_ext/504274921/plib_sercom1_usart.o
                0x0001400c                SERCOM1_USART_InterruptHandler

.text.GenericTxEnd%315
                0x000141e0      0x1cc
 .text.GenericTxEnd
                0x000141e0      0x1cc build/default/production/_ext/1033058136/iperf.o

.text._svfprintf_r%316
                0x000143ac      0x1cc
 .text._svfprintf_r
                0x000143ac      0x1cc c:/program files/microchip/xc32/v3.01/bin/bin/../../lib/gcc/pic32c/8.3.1/../../../../pic32c/lib/thumb/v7e-m+fp/hard\libc_nano.a(lib_a-nano-svfprintf.o)
                0x000143ac                _svfiprintf_r
                0x000143ac                _svfprintf_r

.text._DHCPSend%317
                0x00014578      0x1bc
 .text._DHCPSend
                0x00014578      0x1bc build/default/production/_ext/1033058136/dhcp.o

.rodata%318     0x00014734      0x1bc
 .rodata        0x00014734      0x1bc build/default/production/_ext/1360937237/custom_http_app.o

.text.DRV_GMAC_PacketRx%319
                0x000148f0      0x1b0
 .text.DRV_GMAC_PacketRx
                0x000148f0      0x1b0 build/default/production/_ext/1546807373/drv_gmac.o
                0x000148f0                DRV_GMAC_PacketRx

.text.DRV_PIC32CGMAC_LibRxFilterHash_Calculate%320
                0x00014aa0      0x1b0
 .text.DRV_PIC32CGMAC_LibRxFilterHash_Calculate
                0x00014aa0      0x1b0 build/default/production/_ext/1546807373/drv_gmac_lib_samE5x.o
                0x00014aa0                DRV_PIC32CGMAC_LibRxFilterHash_Calculate

.text.SYS_FS_Mount%321
                0x00014c50      0x1a8
 .text.SYS_FS_Mount
                0x00014c50      0x1a8 build/default/production/_ext/1269487135/sys_fs.o
                0x00014c50                SYS_FS_Mount

.text._DRV_ETHPHY_DefaultDetect%322
                0x00014df8      0x1a6
 .text._DRV_ETHPHY_DefaultDetect
                0x00014df8      0x1a6 build/default/production/_ext/444070925/drv_ethphy.o

.text.CommandIperfSize%323
                0x00014fa0      0x190
 .text.CommandIperfSize
                0x00014fa0      0x190 build/default/production/_ext/1033058136/iperf.o

.text.TCPIP_DHCP_Initialize%324
                0x00015130      0x190
 .text.TCPIP_DHCP_Initialize
                0x00015130      0x190 build/default/production/_ext/1033058136/dhcp.o
                0x00015130                TCPIP_DHCP_Initialize

.text._Command_MacInfo%325
                0x000152c0      0x188
 .text._Command_MacInfo
                0x000152c0      0x188 build/default/production/_ext/1033058136/tcpip_commands.o

.text.SYS_FS_MEDIA_MANAGER_SectorWrite%326
                0x00015448      0x188
 .text.SYS_FS_MEDIA_MANAGER_SectorWrite
                0x00015448      0x188 build/default/production/_ext/1269487135/sys_fs_media_manager.o
                0x00015448                SYS_FS_MEDIA_MANAGER_SectorWrite

.text.wc_Sha256Final%327
                0x000155d0      0x188
 .text.wc_Sha256Final
                0x000155d0      0x188 build/default/production/_ext/1664057780/sha256.o
                0x000155d0                wc_Sha256Final

.text.TCPIP_HTTP_Print%328
                0x00015758      0x188
 .text.TCPIP_HTTP_Print
                0x00015758      0x188 build/default/production/_ext/1360937237/http_print.o
                0x00015758                TCPIP_HTTP_Print

.text._InitRng%329
                0x000158e0      0x184
 .text._InitRng
                0x000158e0      0x184 build/default/production/_ext/1664057780/random.o

.text.Shell_FileAbsPath%330
                0x00015a64      0x180
 .text.Shell_FileAbsPath
                0x00015a64      0x180 build/default/production/_ext/1751889202/sys_fs_shell.o

.text._TcpCloseSocket%331
                0x00015be4      0x172
 .text._TcpCloseSocket
                0x00015be4      0x172 build/default/production/_ext/1033058136/tcp.o

.text.TCPIP_TCP_ArrayPut%332
                0x00015d58      0x170
 .text.TCPIP_TCP_ArrayPut
                0x00015d58      0x170 build/default/production/_ext/1033058136/tcp.o
                0x00015d58                TCPIP_TCP_ArrayPut

.text._DHCPOptionHostName%333
                0x00015ec8      0x16c
 .text._DHCPOptionHostName
                0x00015ec8      0x16c build/default/production/_ext/1033058136/dhcp.o

.text.DRV_PIC32CGMAC_LibTxAckPacket%334
                0x00016034      0x164
 .text.DRV_PIC32CGMAC_LibTxAckPacket
                0x00016034      0x164 build/default/production/_ext/1546807373/drv_gmac_lib_samE5x.o
                0x00016034                DRV_PIC32CGMAC_LibTxAckPacket

.text._Command_NetworkOnOff%335
                0x00016198      0x164
 .text._Command_NetworkOnOff
                0x00016198      0x164 build/default/production/_ext/1033058136/tcpip_commands.o

.text.CommandHelp%336
                0x000162fc      0x164
 .text.CommandHelp
                0x000162fc      0x164 build/default/production/_ext/1376093119/sys_command.o

.text.SYS_FS_FileOpen%337
                0x00016460      0x160
 .text.SYS_FS_FileOpen
                0x00016460      0x160 build/default/production/_ext/1269487135/sys_fs.o
                0x00016460                SYS_FS_FileOpen

.text._UDPOpen%338
                0x000165c0      0x15c
 .text._UDPOpen
                0x000165c0      0x15c build/default/production/_ext/1033058136/udp.o

.text.TCPIP_DNS_EntryQuery%339
                0x0001671c      0x154
 .text.TCPIP_DNS_EntryQuery
                0x0001671c      0x154 build/default/production/_ext/1033058136/dns.o
                0x0001671c                TCPIP_DNS_EntryQuery

.text.xQueueSemaphoreTake%340
                0x00016870      0x154
 .text.xQueueSemaphoreTake
                0x00016870      0x154 build/default/production/_ext/404212886/queue.o
                0x00016870                xQueueSemaphoreTake

.text.DRV_MIIM_Tasks%341
                0x000169c4      0x150
 .text.DRV_MIIM_Tasks
                0x000169c4      0x150 build/default/production/_ext/438849557/drv_miim.o
                0x000169c4                DRV_MIIM_Tasks

.text.TCPIP_TCP_Initialize%342
                0x00016b14      0x150
 .text.TCPIP_TCP_Initialize
                0x00016b14      0x150 build/default/production/_ext/1033058136/tcp.o
                0x00016b14                TCPIP_TCP_Initialize

.text.wc_Sha256Update%343
                0x00016c64      0x144
 .text.wc_Sha256Update
                0x00016c64      0x144 build/default/production/_ext/1664057780/sha256.o
                0x00016c64                wc_Sha256Update

.text.Hash_df%344
                0x00016da8      0x13e
 .text.Hash_df  0x00016da8      0x13e build/default/production/_ext/1664057780/random.o

.text._MACDeinit%345
                0x00016ee8      0x13c
 .text._MACDeinit
                0x00016ee8      0x13c build/default/production/_ext/1546807373/drv_gmac.o

.text.TCPIP_UDP_Deinitialize%346
                0x00017024      0x13c
 .text.TCPIP_UDP_Deinitialize
                0x00017024      0x13c build/default/production/_ext/1033058136/udp.o
                0x00017024                TCPIP_UDP_Deinitialize

.text._LoadNetworkConfig%347
                0x00017160      0x138
 .text._LoadNetworkConfig
                0x00017160      0x138 build/default/production/_ext/1033058136/tcpip_manager.o

.text.TCPIP_SNMP_NextLeafGet%348
                0x00017298      0x134
 .text.TCPIP_SNMP_NextLeafGet
                0x00017298      0x134 build/default/production/_ext/1033058136/snmp.o
                0x00017298                TCPIP_SNMP_NextLeafGet

.text.CommandIperfNetIf%349
                0x000173cc      0x130
 .text.CommandIperfNetIf
                0x000173cc      0x130 build/default/production/_ext/1033058136/iperf.o

.text._DNS_Resolve%350
                0x000174fc      0x130
 .text._DNS_Resolve
                0x000174fc      0x130 build/default/production/_ext/1033058136/dns.o

.text.TCPIP_SNMP_VarbindGet%351
                0x0001762c      0x130
 .text.TCPIP_SNMP_VarbindGet
                0x0001762c      0x130 build/default/production/_ext/1360937237/custom_snmp_app.o
                0x0001762c                TCPIP_SNMP_VarbindGet

.text.__multiply%352
                0x0001775c      0x130
 .text.__multiply
                0x0001775c      0x130 c:/program files/microchip/xc32/v3.01/bin/bin/../../lib/gcc/pic32c/8.3.1/../../../../pic32c/lib/thumb/v7e-m+fp/hard\libc_nano.a(lib_a-mprec.o)
                0x0001775c                __multiply

.text.quorem%353
                0x0001788c      0x12e
 .text.quorem   0x0001788c      0x12e c:/program files/microchip/xc32/v3.01/bin/bin/../../lib/gcc/pic32c/8.3.1/../../../../pic32c/lib/thumb/v7e-m+fp/hard\libc_nano.a(lib_a-dtoa.o)

.text._CommandMiimOp%354
                0x000179bc      0x12c
 .text._CommandMiimOp
                0x000179bc      0x12c build/default/production/_ext/1033058136/tcpip_commands.o

.text.TCPIP_IPV4_Initialize%355
                0x00017ae8      0x128
 .text.TCPIP_IPV4_Initialize
                0x00017ae8      0x128 build/default/production/_ext/1033058136/ipv4.o
                0x00017ae8                TCPIP_IPV4_Initialize

.text.TCPIP_UDP_OptionsGet%356
                0x00017c10      0x128
 .text.TCPIP_UDP_OptionsGet
                0x00017c10      0x128 build/default/production/_ext/1033058136/udp.o
                0x00017c10                TCPIP_UDP_OptionsGet

.text.TCPIP_SNMP_VarbindSet%357
                0x00017d38      0x128
 .text.TCPIP_SNMP_VarbindSet
                0x00017d38      0x128 build/default/production/_ext/1360937237/custom_snmp_app.o
                0x00017d38                TCPIP_SNMP_VarbindSet

.text.TCPIP_UDP_Bind%358
                0x00017e60      0x124
 .text.TCPIP_UDP_Bind
                0x00017e60      0x124 build/default/production/_ext/1033058136/udp.o
                0x00017e60                TCPIP_UDP_Bind

.text.xQueueGenericSend%359
                0x00017f84      0x124
 .text.xQueueGenericSend
                0x00017f84      0x124 build/default/production/_ext/404212886/queue.o
                0x00017f84                xQueueGenericSend

.text.DRV_GMAC_Tasks%360
                0x000180a8      0x120
 .text.DRV_GMAC_Tasks
                0x000180a8      0x120 build/default/production/_ext/1546807373/drv_gmac.o
                0x000180a8                DRV_GMAC_Tasks

.text.DRV_PIC32CGMAC_LibRxBuffersAppend%361
                0x000181c8      0x120
 .text.DRV_PIC32CGMAC_LibRxBuffersAppend
                0x000181c8      0x120 build/default/production/_ext/1546807373/drv_gmac_lib_samE5x.o
                0x000181c8                DRV_PIC32CGMAC_LibRxBuffersAppend

.text._Command_StackOnOff%362
                0x000182e8      0x120
 .text._Command_StackOnOff
                0x000182e8      0x120 build/default/production/_ext/1033058136/tcpip_commands.o

.text.TCPIP_IPV4_PacketFormatTx%363
                0x00018408      0x120
 .text.TCPIP_IPV4_PacketFormatTx
                0x00018408      0x120 build/default/production/_ext/1033058136/ipv4.o
                0x00018408                TCPIP_IPV4_PacketFormatTx

.text.TCPIP_Helper_StringToIPAddress%364
                0x00018528      0x120
 .text.TCPIP_Helper_StringToIPAddress
                0x00018528      0x120 build/default/production/_ext/1033058136/tcpip_helpers.o
                0x00018528                TCPIP_Helper_StringToIPAddress

.text.DRV_GMAC_EventMaskSet%365
                0x00018648      0x11c
 .text.DRV_GMAC_EventMaskSet
                0x00018648      0x11c build/default/production/_ext/1546807373/drv_gmac.o
                0x00018648                DRV_GMAC_EventMaskSet

.text._UDPv4TxAckFnc%366
                0x00018764      0x11c
 .text._UDPv4TxAckFnc
                0x00018764      0x11c build/default/production/_ext/1033058136/udp.o

.text.wc_RNG_GenerateBlock%367
                0x00018880      0x11c
 .text.wc_RNG_GenerateBlock
                0x00018880      0x11c build/default/production/_ext/1664057780/random.o
                0x00018880                wc_RNG_GenerateBlock

.text.xTaskIncrementTick%368
                0x0001899c      0x114
 .text.xTaskIncrementTick
                0x0001899c      0x114 build/default/production/_ext/404212886/FreeRTOS_tasks.o
                0x0001899c                xTaskIncrementTick

.text.CommandPingHandler%369
                0x00018ab0      0x110
 .text.CommandPingHandler
                0x00018ab0      0x110 build/default/production/_ext/1033058136/tcpip_commands.o

.text%370       0x00018bc0      0x110
 .text          0x00018bc0      0x110 c:/program files/microchip/xc32/v3.01/bin/bin/../../lib/gcc/pic32c/8.3.1/thumb/v7e-m+fp/hard\libgcc.a(_arm_cmpdf2.o)
                0x00018bc0                __gtdf2
                0x00018bc0                __gedf2
                0x00018bc8                __ltdf2
                0x00018bc8                __ledf2
                0x00018bd0                __nedf2
                0x00018bd0                __eqdf2
                0x00018bd0                __cmpdf2
                0x00018c4c                __aeabi_cdrcmple
                0x00018c5c                __aeabi_cdcmpeq
                0x00018c5c                __aeabi_cdcmple
                0x00018c6c                __aeabi_dcmpeq
                0x00018c80                __aeabi_dcmplt
                0x00018c94                __aeabi_dcmple
                0x00018ca8                __aeabi_dcmpge
                0x00018cbc                __aeabi_dcmpgt

.text._Tcpv4TxAckFnc%371
                0x00018cd0      0x10c
 .text._Tcpv4TxAckFnc
                0x00018cd0      0x10c build/default/production/_ext/1033058136/tcp.o

.text._TCPIP_HEAP_Free%372
                0x00018ddc      0x10a
 .text._TCPIP_HEAP_Free
                0x00018ddc      0x10a build/default/production/_ext/1033058136/tcpip_heap_internal.o

.text.SYS_FS_Unmount%373
                0x00018ee8      0x108
 .text.SYS_FS_Unmount
                0x00018ee8      0x108 build/default/production/_ext/1269487135/sys_fs.o
                0x00018ee8                SYS_FS_Unmount

.text.TCPIP_TCP_OptionsSet%374
                0x00018ff0      0x106
 .text.TCPIP_TCP_OptionsSet
                0x00018ff0      0x106 build/default/production/_ext/1033058136/tcp.o
                0x00018ff0                TCPIP_TCP_OptionsSet

.text.TCPIP_UDP_Initialize%375
                0x000190f8      0x104
 .text.TCPIP_UDP_Initialize
                0x000190f8      0x104 build/default/production/_ext/1033058136/udp.o
                0x000190f8                TCPIP_UDP_Initialize

.rodata._ctype_%376
                0x000191fc      0x101
 .rodata._ctype_
                0x000191fc      0x101 c:/program files/microchip/xc32/v3.01/bin/bin/../../lib/gcc/pic32c/8.3.1/../../../../pic32c/lib/thumb/v7e-m+fp/hard\libc_nano.a(lib_a-ctype_.o)
                0x000191fc                _ctype_

.rodata.K%377   0x00019300      0x100
 .rodata.K      0x00019300      0x100 build/default/production/_ext/1664057780/sha256.o

.text.wc_Md5Update%378
                0x00019400       0xfe
 .text.wc_Md5Update
                0x00019400       0xfe build/default/production/_ext/1664057780/md5.o
                0x00019400                wc_Md5Update

.text.TCPIP_ICMP_EchoRequest%379
                0x00019500       0xfc
 .text.TCPIP_ICMP_EchoRequest
                0x00019500       0xfc build/default/production/_ext/1033058136/icmp.o
                0x00019500                TCPIP_ICMP_EchoRequest

.text._Command_AddressService%380
                0x000195fc       0xfc
 .text._Command_AddressService
                0x000195fc       0xfc build/default/production/_ext/1033058136/tcpip_commands.o

.text._Command_HeapInfo%381
                0x000196f8       0xfc
 .text._Command_HeapInfo
                0x000196f8       0xfc build/default/production/_ext/1033058136/tcpip_commands.o

.text.SYS_FS_DirOpen%382
                0x000197f4       0xfc
 .text.SYS_FS_DirOpen
                0x000197f4       0xfc build/default/production/_ext/1269487135/sys_fs.o
                0x000197f4                SYS_FS_DirOpen

.text.TCPIP_SNMP_MIBRecordRead%383
                0x000198f0       0xf6
 .text.TCPIP_SNMP_MIBRecordRead
                0x000198f0       0xf6 build/default/production/_ext/1033058136/snmp.o

.text.TCPIP_TCP_Deinitialize%384
                0x000199e8       0xf0
 .text.TCPIP_TCP_Deinitialize
                0x000199e8       0xf0 build/default/production/_ext/1033058136/tcp.o
                0x000199e8                TCPIP_TCP_Deinitialize

.text.TCPIP_ARP_EntryRemoveNet%385
                0x00019ad8       0xf0
 .text.TCPIP_ARP_EntryRemoveNet
                0x00019ad8       0xf0 build/default/production/_ext/1033058136/arp.o
                0x00019ad8                TCPIP_ARP_EntryRemoveNet

.text._DNS_IsNameResolved%386
                0x00019bc8       0xf0
 .text._DNS_IsNameResolved
                0x00019bc8       0xf0 build/default/production/_ext/1033058136/dns.o

.text.TCPIP_DNS_ClientTask%387
                0x00019cb8       0xf0
 .text.TCPIP_DNS_ClientTask
                0x00019cb8       0xf0 build/default/production/_ext/1033058136/dns.o
                0x00019cb8                TCPIP_DNS_ClientTask

.text.MPFS_DirRead%388
                0x00019da8       0xf0
 .text.MPFS_DirRead
                0x00019da8       0xf0 build/default/production/_ext/699575981/mpfs.o
                0x00019da8                MPFS_DirRead

.text.Shell_Cwd%389
                0x00019e98       0xec
 .text.Shell_Cwd
                0x00019e98       0xec build/default/production/_ext/1751889202/sys_fs_shell.o

.text._ARPProbeAddress%390
                0x00019f84       0xec
 .text._ARPProbeAddress
                0x00019f84       0xec build/default/production/_ext/1033058136/arp.o

.text._DNS_GetAddresses%391
                0x0001a070       0xec
 .text._DNS_GetAddresses
                0x0001a070       0xec build/default/production/_ext/1033058136/dns.o

.text._strtol_l.isra.0%392
                0x0001a15c       0xec
 .text._strtol_l.isra.0
                0x0001a15c       0xec c:/program files/microchip/xc32/v3.01/bin/bin/../../lib/gcc/pic32c/8.3.1/../../../../pic32c/lib/thumb/v7e-m+fp/hard\libc_nano.a(lib_a-strtol.o)

.text._printf_common%393
                0x0001a248       0xea
 .text._printf_common
                0x0001a248       0xea c:/program files/microchip/xc32/v3.01/bin/bin/../../lib/gcc/pic32c/8.3.1/../../../../pic32c/lib/thumb/v7e-m+fp/hard\libc_nano.a(lib_a-nano-vfprintf_i.o)
                0x0001a248                _printf_common

.text.DRV_PIC32CGMAC_LibTxSendPacket%394
                0x0001a334       0xe8
 .text.DRV_PIC32CGMAC_LibTxSendPacket
                0x0001a334       0xe8 build/default/production/_ext/1546807373/drv_gmac_lib_samE5x.o
                0x0001a334                DRV_PIC32CGMAC_LibTxSendPacket

.text.SYS_FS_Shell_Create%395
                0x0001a41c       0xe8
 .text.SYS_FS_Shell_Create
                0x0001a41c       0xe8 build/default/production/_ext/1751889202/sys_fs_shell.o
                0x0001a41c                SYS_FS_Shell_Create

.text._Command_IPAddressSet%396
                0x0001a504       0xe8
 .text._Command_IPAddressSet
                0x0001a504       0xe8 build/default/production/_ext/1033058136/tcpip_commands.o

.text.CLOCK_Initialize%397
                0x0001a5ec       0xe4
 .text.CLOCK_Initialize
                0x0001a5ec       0xe4 build/default/production/_ext/1984496892/plib_clock.o
                0x0001a5ec                CLOCK_Initialize

.text.MPFSFindFile%398
                0x0001a6d0       0xe4
 .text.MPFSFindFile
                0x0001a6d0       0xe4 build/default/production/_ext/699575981/mpfs.o

.text.xTaskResumeAll%399
                0x0001a7b4       0xe4
 .text.xTaskResumeAll
                0x0001a7b4       0xe4 build/default/production/_ext/404212886/FreeRTOS_tasks.o
                0x0001a7b4                xTaskResumeAll

.text._HTTP_ReadTo%400
                0x0001a898       0xe2
 .text._HTTP_ReadTo
                0x0001a898       0xe2 build/default/production/_ext/1033058136/http.o

.text.DRV_MEMORY_HandleEraseWrite%401
                0x0001a97a       0xe0
 .text.DRV_MEMORY_HandleEraseWrite
                0x0001a97a       0xe0 build/default/production/_ext/992804092/drv_memory.o

.text.TCPIP_UDP_ArrayGet%402
                0x0001aa5a       0xde
 .text.TCPIP_UDP_ArrayGet
                0x0001aa5a       0xde build/default/production/_ext/1033058136/udp.o
                0x0001aa5a                TCPIP_UDP_ArrayGet

.text.DRV_ETHPHY_Setup%403
                0x0001ab38       0xdc
 .text.DRV_ETHPHY_Setup
                0x0001ab38       0xdc build/default/production/_ext/444070925/drv_ethphy.o
                0x0001ab38                DRV_ETHPHY_Setup

.text.SYS_FS_FileSeek%404
                0x0001ac14       0xdc
 .text.SYS_FS_FileSeek
                0x0001ac14       0xdc build/default/production/_ext/1269487135/sys_fs.o
                0x0001ac14                SYS_FS_FileSeek

.text.SYS_TIME_PLIBCallback%405
                0x0001acf0       0xdc
 .text.SYS_TIME_PLIBCallback
                0x0001acf0       0xdc build/default/production/_ext/101884895/sys_time.o

.text.SERCOM1_USART_Write%406
                0x0001adcc       0xd8
 .text.SERCOM1_USART_Write
                0x0001adcc       0xd8 build/default/production/_ext/504274921/plib_sercom1_usart.o
                0x0001adcc                SERCOM1_USART_Write

.text.TCPIP_Commands_Initialize%407
                0x0001aea4       0xd4
 .text.TCPIP_Commands_Initialize
                0x0001aea4       0xd4 build/default/production/_ext/1033058136/tcpip_commands.o
                0x0001aea4                TCPIP_Commands_Initialize

.text._DRV_ETHPHY_NegResultPhase_ANAD%408
                0x0001af78       0xd2
 .text._DRV_ETHPHY_NegResultPhase_ANAD
                0x0001af78       0xd2 build/default/production/_ext/444070925/drv_ethphy.o

.text.DRV_EXTPHY_MDIXConfigure%409
                0x0001b04a       0xd0
 .text.DRV_EXTPHY_MDIXConfigure
                0x0001b04a       0xd0 build/default/production/_ext/444070925/drv_extphy_ksz8081.o

.text.TCPIP_SNMP_IsValidCommunity%410
                0x0001b11c       0xd0
 .text.TCPIP_SNMP_IsValidCommunity
                0x0001b11c       0xd0 build/default/production/_ext/1033058136/snmp.o
                0x0001b11c                TCPIP_SNMP_IsValidCommunity

.text.DRV_GMAC_PacketTx%411
                0x0001b1ec       0xcc
 .text.DRV_GMAC_PacketTx
                0x0001b1ec       0xcc build/default/production/_ext/1546807373/drv_gmac.o
                0x0001b1ec                DRV_GMAC_PacketTx

.text.TCPIP_TCP_ArrayGet%412
                0x0001b2b8       0xcc
 .text.TCPIP_TCP_ArrayGet
                0x0001b2b8       0xcc build/default/production/_ext/1033058136/tcp.o
                0x0001b2b8                TCPIP_TCP_ArrayGet

.rodata.tcpipCmdTbl%413
                0x0001b384       0xcc
 .rodata.tcpipCmdTbl
                0x0001b384       0xcc build/default/production/_ext/1033058136/tcpip_commands.o

.text.TCPIP_HTTP_Task%414
                0x0001b450       0xcc
 .text.TCPIP_HTTP_Task
                0x0001b450       0xcc build/default/production/_ext/1033058136/http.o
                0x0001b450                TCPIP_HTTP_Task

.text.TCPIP_HEAP_CreateInternal%415
                0x0001b51c       0xcc
 .text.TCPIP_HEAP_CreateInternal
                0x0001b51c       0xcc build/default/production/_ext/1033058136/tcpip_heap_internal.o
                0x0001b51c                TCPIP_HEAP_CreateInternal

.text.DRV_PIC32CGMAC_LibRxInit%416
                0x0001b5e8       0xc8
 .text.DRV_PIC32CGMAC_LibRxInit
                0x0001b5e8       0xc8 build/default/production/_ext/1546807373/drv_gmac_lib_samE5x.o
                0x0001b5e8                DRV_PIC32CGMAC_LibRxInit

.text._Command_DNSAddressSet%417
                0x0001b6b0       0xc8
 .text._Command_DNSAddressSet
                0x0001b6b0       0xc8 build/default/production/_ext/1033058136/tcpip_commands.o

.text.__mdiff%418
                0x0001b778       0xc8
 .text.__mdiff  0x0001b778       0xc8 c:/program files/microchip/xc32/v3.01/bin/bin/../../lib/gcc/pic32c/8.3.1/../../../../pic32c/lib/thumb/v7e-m+fp/hard\libc_nano.a(lib_a-mprec.o)
                0x0001b778                __mdiff

.rodata.__mprec_tens%419
                0x0001b840       0xc8
 .rodata.__mprec_tens
                0x0001b840       0xc8 c:/program files/microchip/xc32/v3.01/bin/bin/../../lib/gcc/pic32c/8.3.1/../../../../pic32c/lib/thumb/v7e-m+fp/hard\libc_nano.a(lib_a-mprec.o)
                0x0001b840                __mprec_tens

.text._DRV_MIIM_StartOp%420
                0x0001b908       0xc4
 .text._DRV_MIIM_StartOp
                0x0001b908       0xc4 build/default/production/_ext/438849557/drv_miim.o

.text.TCPIP_UDP_OpenServerSkt%421
                0x0001b9cc       0xc4
 .text.TCPIP_UDP_OpenServerSkt
                0x0001b9cc       0xc4 build/default/production/_ext/1033058136/udp.o
                0x0001b9cc                TCPIP_UDP_OpenServerSkt

.text.SYS_FS_GetDisk%422
                0x0001ba90       0xc4
 .text.SYS_FS_GetDisk
                0x0001ba90       0xc4 build/default/production/_ext/1269487135/sys_fs.o

.text.TCPIP_TCP_Bind%423
                0x0001bb54       0xc0
 .text.TCPIP_TCP_Bind
                0x0001bb54       0xc0 build/default/production/_ext/1033058136/tcp.o
                0x0001bb54                TCPIP_TCP_Bind

.text._Command_DefaultInterfaceSet%424
                0x0001bc14       0xc0
 .text._Command_DefaultInterfaceSet
                0x0001bc14       0xc0 build/default/production/_ext/1033058136/tcpip_commands.o

.text.TCPIP_Helper_StringToMACAddress%425
                0x0001bcd4       0xc0
 .text.TCPIP_Helper_StringToMACAddress
                0x0001bcd4       0xc0 build/default/production/_ext/1033058136/tcpip_helpers.o
                0x0001bcd4                TCPIP_Helper_StringToMACAddress

.rodata%426     0x0001bd94       0xc0
 .rodata        0x0001bd94       0xc0 build/default/production/_ext/1171490990/initialization.o

.text._DRV_MIIM_ClientDeallocate%427
                0x0001be54       0xbc
 .text._DRV_MIIM_ClientDeallocate
                0x0001be54       0xbc build/default/production/_ext/438849557/drv_miim.o

.text.TCPIP_IPV4_DeInitialize%428
                0x0001bf10       0xbc
 .text.TCPIP_IPV4_DeInitialize
                0x0001bf10       0xbc build/default/production/_ext/1033058136/ipv4.o
                0x0001bf10                TCPIP_IPV4_DeInitialize

.text.TCPIP_STACK_KillStack%429
                0x0001bfcc       0xbc
 .text.TCPIP_STACK_KillStack
                0x0001bfcc       0xbc build/default/production/_ext/1033058136/tcpip_manager.o

.text.TCPIP_HTTP_Print_uploadedmd5%430
                0x0001c088       0xbc
 .text.TCPIP_HTTP_Print_uploadedmd5
                0x0001c088       0xbc build/default/production/_ext/1360937237/custom_http_app.o
                0x0001c088                TCPIP_HTTP_Print_uploadedmd5

.text._GetMaxSegSizeOption%431
                0x0001c144       0xba
 .text._GetMaxSegSizeOption
                0x0001c144       0xba build/default/production/_ext/1033058136/tcp.o

.text.CommandIperfStop%432
                0x0001c200       0xb8
 .text.CommandIperfStop
                0x0001c200       0xb8 build/default/production/_ext/1033058136/iperf.o

.text.TCPIP_IPERF_Initialize%433
                0x0001c2b8       0xb8
 .text.TCPIP_IPERF_Initialize
                0x0001c2b8       0xb8 build/default/production/_ext/1033058136/iperf.o
                0x0001c2b8                TCPIP_IPERF_Initialize

.text.TCPIP_IPV4_ArpHandler%434
                0x0001c370       0xb8
 .text.TCPIP_IPV4_ArpHandler
                0x0001c370       0xb8 build/default/production/_ext/1033058136/ipv4.o

.text.wc_Md5Final%435
                0x0001c428       0xb8
 .text.wc_Md5Final
                0x0001c428       0xb8 build/default/production/_ext/1664057780/md5.o
                0x0001c428                wc_Md5Final

.text.__ssputs_r%436
                0x0001c4e0       0xb6
 .text.__ssputs_r
                0x0001c4e0       0xb6 c:/program files/microchip/xc32/v3.01/bin/bin/../../lib/gcc/pic32c/8.3.1/../../../../pic32c/lib/thumb/v7e-m+fp/hard\libc_nano.a(lib_a-__ssputs.o)
                0x0001c4e0                __ssputs_r

.text._ARPSendIfPkt%437
                0x0001c598       0xb4
 .text._ARPSendIfPkt
                0x0001c598       0xb4 build/default/production/_ext/1033058136/arp.o

.text.SYS_TIME_HwTimerCompareUpdate%438
                0x0001c64c       0xb4
 .text.SYS_TIME_HwTimerCompareUpdate
                0x0001c64c       0xb4 build/default/production/_ext/101884895/sys_time.o

.text.SYS_TIME_Initialize%439
                0x0001c700       0xb4
 .text.SYS_TIME_Initialize
                0x0001c700       0xb4 build/default/production/_ext/101884895/sys_time.o
                0x0001c700                SYS_TIME_Initialize

.text._malloc_r%440
                0x0001c7b4       0xb4
 .text._malloc_r
                0x0001c7b4       0xb4 c:/program files/microchip/xc32/v3.01/bin/bin/../../lib/gcc/pic32c/8.3.1/../../../../pic32c/lib/thumb/v7e-m+fp/hard\libc_nano.a(lib_a-nano-mallocr.o)
                0x0001c7b4                _malloc_r

.text.TCPIP_STACK_NetUp%441
                0x0001c868       0xb0
 .text.TCPIP_STACK_NetUp
                0x0001c868       0xb0 build/default/production/_ext/1033058136/tcpip_manager.o
                0x0001c868                TCPIP_STACK_NetUp

.text.MPFS_Open%442
                0x0001c918       0xb0
 .text.MPFS_Open
                0x0001c918       0xb0 build/default/production/_ext/699575981/mpfs.o
                0x0001c918                MPFS_Open

.text.SYS_TIME_TimerObjectCreate%443
                0x0001c9c8       0xb0
 .text.SYS_TIME_TimerObjectCreate
                0x0001c9c8       0xb0 build/default/production/_ext/101884895/sys_time.o

.text._TcpDisconnect%444
                0x0001ca78       0xaa
 .text._TcpDisconnect
                0x0001ca78       0xaa build/default/production/_ext/1033058136/tcp.o

.text._TCPIP_HEAP_Malloc%445
                0x0001cb22       0xaa
 .text._TCPIP_HEAP_Malloc
                0x0001cb22       0xaa build/default/production/_ext/1033058136/tcpip_heap_internal.o

.text.Hash_DRBG_Reseed%446
                0x0001cbcc       0xaa
 .text.Hash_DRBG_Reseed
                0x0001cbcc       0xaa build/default/production/_ext/1664057780/random.o

.text._DRV_ETHPHY_SetupPhaseReset%447
                0x0001cc78       0xa8
 .text._DRV_ETHPHY_SetupPhaseReset
                0x0001cc78       0xa8 build/default/production/_ext/444070925/drv_ethphy.o

.text.DRV_MEMORY_Initialize%448
                0x0001cd20       0xa8
 .text.DRV_MEMORY_Initialize
                0x0001cd20       0xa8 build/default/production/_ext/992804092/drv_memory.o
                0x0001cd20                DRV_MEMORY_Initialize

.text._TCP_SktSetSequenceNo%449
                0x0001cdc8       0xa8
 .text._TCP_SktSetSequenceNo
                0x0001cdc8       0xa8 build/default/production/_ext/1033058136/tcp.o

.text.TCPIP_TCP_ServerOpen%450
                0x0001ce70       0xa8
 .text.TCPIP_TCP_ServerOpen
                0x0001ce70       0xa8 build/default/production/_ext/1033058136/tcp.o
                0x0001ce70                TCPIP_TCP_ServerOpen

.text.vTaskSwitchContext%451
                0x0001cf18       0xa8
 .text.vTaskSwitchContext
                0x0001cf18       0xa8 build/default/production/_ext/404212886/FreeRTOS_tasks.o
                0x0001cf18                vTaskSwitchContext

.text.xTaskPriorityInherit%452
                0x0001cfc0       0xa8
 .text.xTaskPriorityInherit
                0x0001cfc0       0xa8 build/default/production/_ext/404212886/FreeRTOS_tasks.o
                0x0001cfc0                xTaskPriorityInherit

.text.TCPIP_HTTP_URLDecode%453
                0x0001d068       0xa6
 .text.TCPIP_HTTP_URLDecode
                0x0001d068       0xa6 build/default/production/_ext/1033058136/http.o
                0x0001d068                TCPIP_HTTP_URLDecode

.text.__lshift%454
                0x0001d10e       0xa6
 .text.__lshift
                0x0001d10e       0xa6 c:/program files/microchip/xc32/v3.01/bin/bin/../../lib/gcc/pic32c/8.3.1/../../../../pic32c/lib/thumb/v7e-m+fp/hard\libc_nano.a(lib_a-mprec.o)
                0x0001d10e                __lshift

.text._DHCPProcessReceiveData%455
                0x0001d1b4       0xa4
 .text._DHCPProcessReceiveData
                0x0001d1b4       0xa4 build/default/production/_ext/1033058136/dhcp.o

.text._DRV_ETHPHY_SetupPhaseNegotiate_SubPhase0%456
                0x0001d258       0xa2
 .text._DRV_ETHPHY_SetupPhaseNegotiate_SubPhase0
                0x0001d258       0xa2 build/default/production/_ext/444070925/drv_ethphy.o

.text.TCPIP_Helper_IPv6AddressToString%457
                0x0001d2fa       0xa2
 .text.TCPIP_Helper_IPv6AddressToString
                0x0001d2fa       0xa2 build/default/production/_ext/1033058136/tcpip_helpers.o
                0x0001d2fa                TCPIP_Helper_IPv6AddressToString

.text.wc_RNG_HealthTest_ex%458
                0x0001d39c       0xa2
 .text.wc_RNG_HealthTest_ex
                0x0001d39c       0xa2 build/default/production/_ext/1664057780/random.o
                0x0001d39c                wc_RNG_HealthTest_ex

.text._ARPDeleteResources%459
                0x0001d440       0xa0
 .text._ARPDeleteResources
                0x0001d440       0xa0 build/default/production/_ext/1033058136/arp.o

.text._HTTP_CloseConnections%460
                0x0001d4e0       0xa0
 .text._HTTP_CloseConnections
                0x0001d4e0       0xa0 build/default/production/_ext/1033058136/http.o

.text._UDPv4AllocateSktTxBuffer%461
                0x0001d580       0xa0
 .text._UDPv4AllocateSktTxBuffer
                0x0001d580       0xa0 build/default/production/_ext/1033058136/udp.o

.text.TCPIP_UDP_Disconnect%462
                0x0001d620       0xa0
 .text.TCPIP_UDP_Disconnect
                0x0001d620       0xa0 build/default/production/_ext/1033058136/udp.o
                0x0001d620                TCPIP_UDP_Disconnect

.text%463       0x0001d6c0       0xa0
 .text          0x0001d6c0       0xa0 c:/program files/microchip/xc32/v3.01/bin/bin/../../lib/gcc/pic32c/8.3.1/../../../../pic32c/lib/thumb/v7e-m+fp/hard\libc_nano.a(lib_a-memchr.o)
                0x0001d6c0                memchr

.text._DRV_PHY_SMITransferStart%464
                0x0001d760       0x9e
 .text._DRV_PHY_SMITransferStart
                0x0001d760       0x9e build/default/production/_ext/444070925/drv_ethphy.o

.text.__d2b%465
                0x0001d7fe       0x9e
 .text.__d2b    0x0001d7fe       0x9e c:/program files/microchip/xc32/v3.01/bin/bin/../../lib/gcc/pic32c/8.3.1/../../../../pic32c/lib/thumb/v7e-m+fp/hard\libc_nano.a(lib_a-mprec.o)
                0x0001d7fe                __d2b

.text.DRV_MIIM_Setup%466
                0x0001d89c       0x9c
 .text.DRV_MIIM_Setup
                0x0001d89c       0x9c build/default/production/_ext/438849557/drv_miim.o
                0x0001d89c                DRV_MIIM_Setup

.text._Command_MACAddressSet%467
                0x0001d938       0x9c
 .text._Command_MACAddressSet
                0x0001d938       0x9c build/default/production/_ext/1033058136/tcpip_commands.o

.text.MPFS_Mount%468
                0x0001d9d4       0x9c
 .text.MPFS_Mount
                0x0001d9d4       0x9c build/default/production/_ext/699575981/mpfs.o
                0x0001d9d4                MPFS_Mount

.text.MPFS_Stat%469
                0x0001da70       0x9c
 .text.MPFS_Stat
                0x0001da70       0x9c build/default/production/_ext/699575981/mpfs.o
                0x0001da70                MPFS_Stat

.text.SYS_FS_FileStat%470
                0x0001db0c       0x9c
 .text.SYS_FS_FileStat
                0x0001db0c       0x9c build/default/production/_ext/1269487135/sys_fs.o
                0x0001db0c                SYS_FS_FileStat

.text._free_r%471
                0x0001dba8       0x9c
 .text._free_r  0x0001dba8       0x9c c:/program files/microchip/xc32/v3.01/bin/bin/../../lib/gcc/pic32c/8.3.1/../../../../pic32c/lib/thumb/v7e-m+fp/hard\libc_nano.a(lib_a-nano-freer.o)
                0x0001dba8                _free_r

.text.__pow5mult%472
                0x0001dc44       0x9c
 .text.__pow5mult
                0x0001dc44       0x9c c:/program files/microchip/xc32/v3.01/bin/bin/../../lib/gcc/pic32c/8.3.1/../../../../pic32c/lib/thumb/v7e-m+fp/hard\libc_nano.a(lib_a-mprec.o)
                0x0001dc44                __pow5mult

.text._DRV_ETHPHY_SetupPhaseDetect%473
                0x0001dce0       0x98
 .text._DRV_ETHPHY_SetupPhaseDetect
                0x0001dce0       0x98 build/default/production/_ext/444070925/drv_ethphy.o

.text.DRV_GMAC_StatisticsGet%474
                0x0001dd78       0x98
 .text.DRV_GMAC_StatisticsGet
                0x0001dd78       0x98 build/default/production/_ext/1546807373/drv_gmac.o
                0x0001dd78                DRV_GMAC_StatisticsGet

.text._DHCPEnable%475
                0x0001de10       0x98
 .text._DHCPEnable
                0x0001de10       0x98 build/default/production/_ext/1033058136/dhcp.o

.text.TCPIP_DHCP_Request%476
                0x0001dea8       0x98
 .text.TCPIP_DHCP_Request
                0x0001dea8       0x98 build/default/production/_ext/1033058136/dhcp.o
                0x0001dea8                TCPIP_DHCP_Request

.text.TCPIP_DHCP_InfoGet%477
                0x0001df40       0x98
 .text.TCPIP_DHCP_InfoGet
                0x0001df40       0x98 build/default/production/_ext/1033058136/dhcp.o
                0x0001df40                TCPIP_DHCP_InfoGet

.text.PORT_Initialize%478
                0x0001dfd8       0x98
 .text.PORT_Initialize
                0x0001dfd8       0x98 build/default/production/_ext/1865521619/plib_port.o
                0x0001dfd8                PORT_Initialize

.text.DisplayNodeMsg%479
                0x0001e070       0x98
 .text.DisplayNodeMsg
                0x0001e070       0x98 build/default/production/_ext/1376093119/sys_command.o

.text.prvAddCurrentTaskToDelayedList%480
                0x0001e108       0x98
 .text.prvAddCurrentTaskToDelayedList
                0x0001e108       0x98 build/default/production/_ext/404212886/FreeRTOS_tasks.o

.text.DRV_PIC32CGMAC_LibInitTransfer%481
                0x0001e1a0       0x94
 .text.DRV_PIC32CGMAC_LibInitTransfer
                0x0001e1a0       0x94 build/default/production/_ext/1546807373/drv_gmac_lib_samE5x.o
                0x0001e1a0                DRV_PIC32CGMAC_LibInitTransfer

.text.TCPIP_ARP_IsResolved%482
                0x0001e234       0x94
 .text.TCPIP_ARP_IsResolved
                0x0001e234       0x94 build/default/production/_ext/1033058136/arp.o
                0x0001e234                TCPIP_ARP_IsResolved

.text.ascii_to_u32s%483
                0x0001e2c8       0x94
 .text.ascii_to_u32s
                0x0001e2c8       0x94 build/default/production/_ext/1033058136/iperf.o

.text.SYS_Tasks%484
                0x0001e35c       0x94
 .text.SYS_Tasks
                0x0001e35c       0x94 build/default/production/_ext/1171490990/tasks.o
                0x0001e35c                SYS_Tasks

.text.TCPIP_SNMP_RecordIDValidation%485
                0x0001e3f0       0x94
 .text.TCPIP_SNMP_RecordIDValidation
                0x0001e3f0       0x94 build/default/production/_ext/1360937237/custom_snmp_app.o
                0x0001e3f0                TCPIP_SNMP_RecordIDValidation

.text.TCPIP_HTTP_Print_config_mac%486
                0x0001e484       0x92
 .text.TCPIP_HTTP_Print_config_mac
                0x0001e484       0x92 build/default/production/_ext/1360937237/custom_http_app.o
                0x0001e484                TCPIP_HTTP_Print_config_mac

.text.DRV_MIIM_OperationResult%487
                0x0001e516       0x90
 .text.DRV_MIIM_OperationResult
                0x0001e516       0x90 build/default/production/_ext/438849557/drv_miim.o
                0x0001e516                DRV_MIIM_OperationResult

.text._DHCPCleanup%488
                0x0001e5a8       0x90
 .text._DHCPCleanup
                0x0001e5a8       0x90 build/default/production/_ext/1033058136/dhcp.o

.text._TCPIPStackModuleRxPurge%489
                0x0001e638       0x90
 .text._TCPIPStackModuleRxPurge
                0x0001e638       0x90 build/default/production/_ext/1033058136/tcpip_manager.o
                0x0001e638                _TCPIPStackModuleRxPurge

.text.SYS_FS_Initialize%490
                0x0001e6c8       0x90
 .text.SYS_FS_Initialize
                0x0001e6c8       0x90 build/default/production/_ext/1269487135/sys_fs.o
                0x0001e6c8                SYS_FS_Initialize

.text.SYS_TIME_AddToList%491
                0x0001e758       0x90
 .text.SYS_TIME_AddToList
                0x0001e758       0x90 build/default/production/_ext/101884895/sys_time.o

.text.SYS_Initialize%492
                0x0001e7e8       0x90
 .text.SYS_Initialize
                0x0001e7e8       0x90 build/default/production/_ext/1171490990/initialization.o
                0x0001e7e8                SYS_Initialize

.text.TCPIP_SNMP_FreeMemory%493
                0x0001e878       0x8c
 .text.TCPIP_SNMP_FreeMemory
                0x0001e878       0x8c build/default/production/_ext/1033058136/snmp.o
                0x0001e878                TCPIP_SNMP_FreeMemory

.text._DHCPClientClose%494
                0x0001e904       0x8c
 .text._DHCPClientClose
                0x0001e904       0x8c build/default/production/_ext/1033058136/dhcp.o

.text.TCPIP_STACK_Initialize%495
                0x0001e990       0x8c
 .text.TCPIP_STACK_Initialize
                0x0001e990       0x8c build/default/production/_ext/1033058136/tcpip_manager.o
                0x0001e990                TCPIP_STACK_Initialize

.text._UDPsetPacketInfo%496
                0x0001ea1c       0x8c
 .text._UDPsetPacketInfo
                0x0001ea1c       0x8c build/default/production/_ext/1033058136/udp.o

.text._Command_GatewayAddressSet%497
                0x0001eaa8       0x88
 .text._Command_GatewayAddressSet
                0x0001eaa8       0x88 build/default/production/_ext/1033058136/tcpip_commands.o

.text._DHCPPacketFilter%498
                0x0001eb30       0x88
 .text._DHCPPacketFilter
                0x0001eb30       0x88 build/default/production/_ext/1033058136/dhcp.o

.text._DHCPSetLeaseTimeParams%499
                0x0001ebb8       0x88
 .text._DHCPSetLeaseTimeParams
                0x0001ebb8       0x88 build/default/production/_ext/1033058136/dhcp.o

.text._OAHashFindBkt%500
                0x0001ec40       0x88
 .text._OAHashFindBkt
                0x0001ec40       0x88 build/default/production/_ext/1033058136/oahash.o

.text.SYS_CMDIO_ADD%501
                0x0001ecc8       0x88
 .text.SYS_CMDIO_ADD
                0x0001ecc8       0x88 build/default/production/_ext/1376093119/sys_command.o
                0x0001ecc8                SYS_CMDIO_ADD

.rodata.MPFSFunctions%502
                0x0001ed50       0x88
 .rodata.MPFSFunctions
                0x0001ed50       0x88 build/default/production/_ext/1171490990/initialization.o
                0x0001ed50                MPFSFunctions

.text.Reset_Handler%503
                0x0001edd8       0x88
 .text.Reset_Handler
                0x0001edd8       0x88 build/default/production/_ext/1171490990/startup_xc32.o
                0x0001edd8                Reset_Handler

.text.__pic32c_data_initialization%504
                0x0001ee60       0x88
 .text.__pic32c_data_initialization
                0x0001ee60       0x88 c:/program files/microchip/xc32/v3.01/bin/bin/../../lib/gcc/pic32c/8.3.1/../../../../pic32c/lib/thumb/v7e-m+fp/hard\libpic32c.a(data_init.o)
                0x0001ee60                __pic32c_data_initialization

.text.TCPIP_IPV4_MacPacketSwitchTxToRx%505
                0x0001eee8       0x84
 .text.TCPIP_IPV4_MacPacketSwitchTxToRx
                0x0001eee8       0x84 build/default/production/_ext/1033058136/ipv4.o
                0x0001eee8                TCPIP_IPV4_MacPacketSwitchTxToRx

.text.TCPIP_STACK_NetAddressSet%506
                0x0001ef6c       0x84
 .text.TCPIP_STACK_NetAddressSet
                0x0001ef6c       0x84 build/default/production/_ext/1033058136/tcpip_manager.o
                0x0001ef6c                TCPIP_STACK_NetAddressSet

.rodata.TCPIP_STACK_MODULE_ENTRY_TBL%507
                0x0001eff0       0x84
 .rodata.TCPIP_STACK_MODULE_ENTRY_TBL
                0x0001eff0       0x84 build/default/production/_ext/1033058136/tcpip_manager.o

.text._TCPIP_PKT_PacketAlloc%508
                0x0001f074       0x84
 .text._TCPIP_PKT_PacketAlloc
                0x0001f074       0x84 build/default/production/_ext/1033058136/tcpip_packet.o
                0x0001f074                _TCPIP_PKT_PacketAlloc

.text.NVIC_Initialize%509
                0x0001f0f8       0x84
 .text.NVIC_Initialize
                0x0001f0f8       0x84 build/default/production/_ext/1865468468/plib_nvic.o
                0x0001f0f8                NVIC_Initialize

.text.SYS_FS_FileRead%510
                0x0001f17c       0x84
 .text.SYS_FS_FileRead
                0x0001f17c       0x84 build/default/production/_ext/1269487135/sys_fs.o
                0x0001f17c                SYS_FS_FileRead

.text.DRV_PIC32CGMAC_LibTxAckErrPacket%511
                0x0001f200       0x82
 .text.DRV_PIC32CGMAC_LibTxAckErrPacket
                0x0001f200       0x82 build/default/production/_ext/1546807373/drv_gmac_lib_samE5x.o
                0x0001f200                DRV_PIC32CGMAC_LibTxAckErrPacket

.text._DNS_ValidateIf%512
                0x0001f282       0x82
 .text._DNS_ValidateIf
                0x0001f282       0x82 build/default/production/_ext/1033058136/dns.o

.text.TCPIP_Helper_PacketChecksum%513
                0x0001f304       0x82
 .text.TCPIP_Helper_PacketChecksum
                0x0001f304       0x82 build/default/production/_ext/1033058136/tcpip_helpers.o
                0x0001f304                TCPIP_Helper_PacketChecksum

.text.DRV_ETHPHY_VendorSMIReadStart%514
                0x0001f388       0x80
 .text.DRV_ETHPHY_VendorSMIReadStart
                0x0001f388       0x80 build/default/production/_ext/444070925/drv_ethphy.o
                0x0001f388                DRV_ETHPHY_VendorSMIReadStart

.text.DRV_ETHPHY_VendorSMIWriteStart%515
                0x0001f408       0x80
 .text.DRV_ETHPHY_VendorSMIWriteStart
                0x0001f408       0x80 build/default/production/_ext/444070925/drv_ethphy.o
                0x0001f408                DRV_ETHPHY_VendorSMIWriteStart

.text.SERCOM1_USART_Initialize%516
                0x0001f488       0x80
 .text.SERCOM1_USART_Initialize
                0x0001f488       0x80 build/default/production/_ext/504274921/plib_sercom1_usart.o
                0x0001f488                SERCOM1_USART_Initialize

.text.SendCommandPrint%517
                0x0001f508       0x80
 .text.SendCommandPrint
                0x0001f508       0x80 build/default/production/_ext/1376093119/sys_command.o

.text.MPFS_Read%518
                0x0001f588       0x80
 .text.MPFS_Read
                0x0001f588       0x80 build/default/production/_ext/699575981/mpfs.o
                0x0001f588                MPFS_Read

.text.xTaskPriorityDisinherit%519
                0x0001f608       0x80
 .text.xTaskPriorityDisinherit
                0x0001f608       0x80 build/default/production/_ext/404212886/FreeRTOS_tasks.o
                0x0001f608                xTaskPriorityDisinherit

.text.vTaskPriorityDisinheritAfterTimeout%520
                0x0001f688       0x80
 .text.vTaskPriorityDisinheritAfterTimeout
                0x0001f688       0x80 build/default/production/_ext/404212886/FreeRTOS_tasks.o
                0x0001f688                vTaskPriorityDisinheritAfterTimeout

.rodata.outputA_data%521
                0x0001f708       0x80
 .rodata.outputA_data
                0x0001f708       0x80 build/default/production/_ext/1664057780/random.o
                0x0001f708                outputA_data

.rodata.outputB_data%522
                0x0001f788       0x80
 .rodata.outputB_data
                0x0001f788       0x80 build/default/production/_ext/1664057780/random.o
                0x0001f788                outputB_data

.text.TCPIP_HTTP_GetExecute%523
                0x0001f808       0x80
 .text.TCPIP_HTTP_GetExecute
                0x0001f808       0x80 build/default/production/_ext/1360937237/custom_http_app.o
                0x0001f808                TCPIP_HTTP_GetExecute

.text.prvUnlockQueue%524
                0x0001f888       0x7e
 .text.prvUnlockQueue
                0x0001f888       0x7e build/default/production/_ext/404212886/queue.o

.text.__multadd%525
                0x0001f906       0x7e
 .text.__multadd
                0x0001f906       0x7e c:/program files/microchip/xc32/v3.01/bin/bin/../../lib/gcc/pic32c/8.3.1/../../../../pic32c/lib/thumb/v7e-m+fp/hard\libc_nano.a(lib_a-mprec.o)
                0x0001f906                __multadd

.text.DRV_ETHPHY_VendorSMIReadResultGet%526
                0x0001f984       0x7c
 .text.DRV_ETHPHY_VendorSMIReadResultGet
                0x0001f984       0x7c build/default/production/_ext/444070925/drv_ethphy.o
                0x0001f984                DRV_ETHPHY_VendorSMIReadResultGet

.text.DRV_PIC32CGMAC_LibInit%527
                0x0001fa00       0x7c
 .text.DRV_PIC32CGMAC_LibInit
                0x0001fa00       0x7c build/default/production/_ext/1546807373/drv_gmac_lib_samE5x.o
                0x0001fa00                DRV_PIC32CGMAC_LibInit

.text.DRV_MEMORY_CommandStatusGet%528
                0x0001fa7c       0x7c
 .text.DRV_MEMORY_CommandStatusGet
                0x0001fa7c       0x7c build/default/production/_ext/992804092/drv_memory.o
                0x0001fa7c                DRV_MEMORY_CommandStatusGet

.text.SERCOM1_USART_Read%529
                0x0001faf8       0x7c
 .text.SERCOM1_USART_Read
                0x0001faf8       0x7c build/default/production/_ext/504274921/plib_sercom1_usart.o
                0x0001faf8                SERCOM1_USART_Read

.text.SYS_FS_FileClose%530
                0x0001fb74       0x7c
 .text.SYS_FS_FileClose
                0x0001fb74       0x7c build/default/production/_ext/1269487135/sys_fs.o
                0x0001fb74                SYS_FS_FileClose

.text.SYS_FS_FileTell%531
                0x0001fbf0       0x7c
 .text.SYS_FS_FileTell
                0x0001fbf0       0x7c build/default/production/_ext/1269487135/sys_fs.o
                0x0001fbf0                SYS_FS_FileTell

.text.SYS_FS_FileSize%532
                0x0001fc6c       0x7c
 .text.SYS_FS_FileSize
                0x0001fc6c       0x7c build/default/production/_ext/1269487135/sys_fs.o
                0x0001fc6c                SYS_FS_FileSize

.text.SYS_FS_DirClose%533
                0x0001fce8       0x7c
 .text.SYS_FS_DirClose
                0x0001fce8       0x7c build/default/production/_ext/1269487135/sys_fs.o
                0x0001fce8                SYS_FS_DirClose

.text.TCPIP_TCP_SocketInfoGet%534
                0x0001fd64       0x7a
 .text.TCPIP_TCP_SocketInfoGet
                0x0001fd64       0x7a build/default/production/_ext/1033058136/tcp.o
                0x0001fd64                TCPIP_TCP_SocketInfoGet

.text._DRV_ETHPHY_SetupPhaseNegotiate_SubPhase4%535
                0x0001fdde       0x78
 .text._DRV_ETHPHY_SetupPhaseNegotiate_SubPhase4
                0x0001fdde       0x78 build/default/production/_ext/444070925/drv_ethphy.o

.text.DRV_PIC32CGMAC_LibTxInit%536
                0x0001fe58       0x78
 .text.DRV_PIC32CGMAC_LibTxInit
                0x0001fe58       0x78 build/default/production/_ext/1546807373/drv_gmac_lib_samE5x.o
                0x0001fe58                DRV_PIC32CGMAC_LibTxInit

.text.DRV_MIIM_Open%537
                0x0001fed0       0x78
 .text.DRV_MIIM_Open
                0x0001fed0       0x78 build/default/production/_ext/438849557/drv_miim.o
                0x0001fed0                DRV_MIIM_Open

.text.DRV_MIIM_Initialize%538
                0x0001ff48       0x78
 .text.DRV_MIIM_Initialize
                0x0001ff48       0x78 build/default/production/_ext/438849557/drv_miim.o
                0x0001ff48                DRV_MIIM_Initialize

.text.TCPIP_SNMP_Deinitialize%539
                0x0001ffc0       0x78
 .text.TCPIP_SNMP_Deinitialize
                0x0001ffc0       0x78 build/default/production/_ext/1033058136/snmp.o
                0x0001ffc0                TCPIP_SNMP_Deinitialize

.text._HTTP_Cleanup%540
                0x00020038       0x78
 .text._HTTP_Cleanup
                0x00020038       0x78 build/default/production/_ext/1033058136/http.o

.rodata%541     0x000200b0       0x78
 .rodata        0x000200b0       0x78 build/default/production/_ext/1033058136/ipv4.o

.text.TCPIP_Helper_PacketCopy%542
                0x00020128       0x78
 .text.TCPIP_Helper_PacketCopy
                0x00020128       0x78 build/default/production/_ext/1033058136/tcpip_helpers.o
                0x00020128                TCPIP_Helper_PacketCopy

.text._DRV_GMAC_LinkStateNegResult%543
                0x000201a0       0x76
 .text._DRV_GMAC_LinkStateNegResult
                0x000201a0       0x76 build/default/production/_ext/1546807373/drv_gmac.o

.text.prvCopyDataToQueue%544
                0x00020216       0x76
 .text.prvCopyDataToQueue
                0x00020216       0x76 build/default/production/_ext/404212886/queue.o

.text.DRV_GMAC_Process%545
                0x0002028c       0x74
 .text.DRV_GMAC_Process
                0x0002028c       0x74 build/default/production/_ext/1546807373/drv_gmac.o
                0x0002028c                DRV_GMAC_Process

.text._ARPUpdateEntry%546
                0x00020300       0x74
 .text._ARPUpdateEntry
                0x00020300       0x74 build/default/production/_ext/1033058136/arp.o

.text.TCPIP_ARP_EntryRemove%547
                0x00020374       0x74
 .text.TCPIP_ARP_EntryRemove
                0x00020374       0x74 build/default/production/_ext/1033058136/arp.o
                0x00020374                TCPIP_ARP_EntryRemove

.text.GenericTxDone%548
                0x000203e8       0x74
 .text.GenericTxDone
                0x000203e8       0x74 build/default/production/_ext/1033058136/iperf.o

.text.TCPIP_DHCP_ConnectionHandler%549
                0x0002045c       0x74
 .text.TCPIP_DHCP_ConnectionHandler
                0x0002045c       0x74 build/default/production/_ext/1033058136/dhcp.o
                0x0002045c                TCPIP_DHCP_ConnectionHandler

.text.xTaskRemoveFromEventList%550
                0x000204d0       0x74
 .text.xTaskRemoveFromEventList
                0x000204d0       0x74 build/default/production/_ext/404212886/FreeRTOS_tasks.o
                0x000204d0                xTaskRemoveFromEventList

.text.wc_GenerateSeed%551
                0x00020544       0x74
 .text.wc_GenerateSeed
                0x00020544       0x74 build/default/production/_ext/1664057780/random.o
                0x00020544                wc_GenerateSeed

.text.TCPIP_HTTP_Print_reboot%552
                0x000205b8       0x74
 .text.TCPIP_HTTP_Print_reboot
                0x000205b8       0x74 build/default/production/_ext/1360937237/custom_http_app.o
                0x000205b8                TCPIP_HTTP_Print_reboot

.text._MacTxPendingPackets%553
                0x0002062c       0x72
 .text._MacTxPendingPackets
                0x0002062c       0x72 build/default/production/_ext/1546807373/drv_gmac.o

.text._TCPIP_StackSyncFunction%554
                0x0002069e       0x72
 .text._TCPIP_StackSyncFunction
                0x0002069e       0x72 build/default/production/_ext/1033058136/tcpip_manager.o

.text.TCPIP_PKT_DataSegmentGet%555
                0x00020710       0x72
 .text.TCPIP_PKT_DataSegmentGet
                0x00020710       0x72 build/default/production/_ext/1033058136/tcpip_packet.o
                0x00020710                TCPIP_PKT_DataSegmentGet

.text.Hash_DRBG_Instantiate%556
                0x00020782       0x72
 .text.Hash_DRBG_Instantiate
                0x00020782       0x72 build/default/production/_ext/1664057780/random.o

.text._DRV_ETHPHY_NegCompletePhaseAN_Restart%557
                0x000207f4       0x70
 .text._DRV_ETHPHY_NegCompletePhaseAN_Restart
                0x000207f4       0x70 build/default/production/_ext/444070925/drv_ethphy.o

.text.DRV_GMAC_EventAcknowledge%558
                0x00020864       0x70
 .text.DRV_GMAC_EventAcknowledge
                0x00020864       0x70 build/default/production/_ext/1546807373/drv_gmac.o
                0x00020864                DRV_GMAC_EventAcknowledge

.text.DRV_GMAC_Tasks_ISR%559
                0x000208d4       0x70
 .text.DRV_GMAC_Tasks_ISR
                0x000208d4       0x70 build/default/production/_ext/1546807373/drv_gmac.o
                0x000208d4                DRV_GMAC_Tasks_ISR

.text.DRV_MEMORY_DriverHandleValidate%560
                0x00020944       0x70
 .text.DRV_MEMORY_DriverHandleValidate
                0x00020944       0x70 build/default/production/_ext/992804092/drv_memory.o

.text.TCPIP_SNMP_OIDStringGetByAddr%561
                0x000209b4       0x70
 .text.TCPIP_SNMP_OIDStringGetByAddr
                0x000209b4       0x70 build/default/production/_ext/1033058136/snmp.o

.text.TCPIP_SNMP_VarDataTypeIsValidInteger%562
                0x00020a24       0x70
 .text.TCPIP_SNMP_VarDataTypeIsValidInteger
                0x00020a24       0x70 build/default/production/_ext/1033058136/snmp.o
                0x00020a24                TCPIP_SNMP_VarDataTypeIsValidInteger

.text.TCPIP_IPV4_Cleanup%563
                0x00020a94       0x70
 .text.TCPIP_IPV4_Cleanup
                0x00020a94       0x70 build/default/production/_ext/1033058136/ipv4.o

.text.TCPIP_Helper_CalcIPChecksum%564
                0x00020b04       0x70
 .text.TCPIP_Helper_CalcIPChecksum
                0x00020b04       0x70 build/default/production/_ext/1033058136/tcpip_helpers.o
                0x00020b04                TCPIP_Helper_CalcIPChecksum

.text.xQueueGenericReset%565
                0x00020b74       0x70
 .text.xQueueGenericReset
                0x00020b74       0x70 build/default/production/_ext/404212886/queue.o
                0x00020b74                xQueueGenericReset

.text.prvIdleTask%566
                0x00020be4       0x70
 .text.prvIdleTask
                0x00020be4       0x70 build/default/production/_ext/404212886/FreeRTOS_tasks.o

.text.DRV_PIC32CGMAC_LibMACOpen%567
                0x00020c54       0x6c
 .text.DRV_PIC32CGMAC_LibMACOpen
                0x00020c54       0x6c build/default/production/_ext/1546807373/drv_gmac_lib_samE5x.o
                0x00020c54                DRV_PIC32CGMAC_LibMACOpen

.text._AllocateRxPacket%568
                0x00020cc0       0x6c
 .text._AllocateRxPacket
                0x00020cc0       0x6c build/default/production/_ext/1546807373/drv_gmac_lib_samE5x.o

.text.TCPIP_ICMP_Initialize%569
                0x00020d2c       0x6c
 .text.TCPIP_ICMP_Initialize
                0x00020d2c       0x6c build/default/production/_ext/1033058136/icmp.o
                0x00020d2c                TCPIP_ICMP_Initialize

.text._TcpCleanup%570
                0x00020d98       0x6c
 .text._TcpCleanup
                0x00020d98       0x6c build/default/production/_ext/1033058136/tcp.o

.text._Command_BIOSNameSet%571
                0x00020e04       0x6c
 .text._Command_BIOSNameSet
                0x00020e04       0x6c build/default/production/_ext/1033058136/tcpip_commands.o

.text.TCPIP_DNS_Disable%572
                0x00020e70       0x6c
 .text.TCPIP_DNS_Disable
                0x00020e70       0x6c build/default/production/_ext/1033058136/dns.o
                0x00020e70                TCPIP_DNS_Disable

.text.SYS_CMD_ADDGRP%573
                0x00020edc       0x6c
 .text.SYS_CMD_ADDGRP
                0x00020edc       0x6c build/default/production/_ext/1376093119/sys_command.o
                0x00020edc                SYS_CMD_ADDGRP

.text.SYS_CONSOLE_Print%574
                0x00020f48       0x6c
 .text.SYS_CONSOLE_Print
                0x00020f48       0x6c build/default/production/_ext/1832805299/sys_console.o
                0x00020f48                SYS_CONSOLE_Print

.text.pvPortMalloc%575
                0x00020fb4       0x6c
 .text.pvPortMalloc
                0x00020fb4       0x6c build/default/production/_ext/1665200909/heap_1.o
                0x00020fb4                pvPortMalloc

.text.snprintf%576
                0x00021020       0x6c
 .text.snprintf
                0x00021020       0x6c c:/program files/microchip/xc32/v3.01/bin/bin/../../lib/gcc/pic32c/8.3.1/../../../../pic32c/lib/thumb/v7e-m+fp/hard\libc_nano.a(lib_a-snprintf.o)
                0x00021020                sniprintf
                0x00021020                __snprintf_dis
                0x00021020                snprintf

.text.DRV_MEMORY_HandleWrite%577
                0x0002108c       0x6a
 .text.DRV_MEMORY_HandleWrite
                0x0002108c       0x6a build/default/production/_ext/992804092/drv_memory.o

.text.wc_CryptoCb_Sha256Hash%578
                0x000210f6       0x6a
 .text.wc_CryptoCb_Sha256Hash
                0x000210f6       0x6a build/default/production/_ext/1664057780/cryptocb.o
                0x000210f6                wc_CryptoCb_Sha256Hash

.text.DRV_ETHPHY_Open%579
                0x00021160       0x68
 .text.DRV_ETHPHY_Open
                0x00021160       0x68 build/default/production/_ext/444070925/drv_ethphy.o
                0x00021160                DRV_ETHPHY_Open

.text.TCPIP_SNMP_LengthIsValid%580
                0x000211c8       0x68
 .text.TCPIP_SNMP_LengthIsValid
                0x000211c8       0x68 build/default/production/_ext/1033058136/snmp.o
                0x000211c8                TCPIP_SNMP_LengthIsValid

.text._TcpSwapHeader%581
                0x00021230       0x68
 .text._TcpSwapHeader
                0x00021230       0x68 build/default/production/_ext/1033058136/tcp.o

.text._DNS_AddSelectionIf%582
                0x00021298       0x68
 .text._DNS_AddSelectionIf
                0x00021298       0x68 build/default/production/_ext/1033058136/dns.o

.text.TCPIP_OAHASH_EntryLookup%583
                0x00021300       0x68
 .text.TCPIP_OAHASH_EntryLookup
                0x00021300       0x68 build/default/production/_ext/1033058136/oahash.o
                0x00021300                TCPIP_OAHASH_EntryLookup

.text._TCPIPStackInsertRxPacket%584
                0x00021368       0x68
 .text._TCPIPStackInsertRxPacket
                0x00021368       0x68 build/default/production/_ext/1033058136/tcpip_manager.o
                0x00021368                _TCPIPStackInsertRxPacket

.text.SYS_CONSOLE_Initialize%585
                0x000213d0       0x68
 .text.SYS_CONSOLE_Initialize
                0x000213d0       0x68 build/default/production/_ext/1832805299/sys_console.o
                0x000213d0                SYS_CONSOLE_Initialize

.text.SYS_FS_FileEOF%586
                0x00021438       0x68
 .text.SYS_FS_FileEOF
                0x00021438       0x68 build/default/production/_ext/1269487135/sys_fs.o
                0x00021438                SYS_FS_FileEOF

.text.wc_RNG_TestSeed%587
                0x000214a0       0x68
 .text.wc_RNG_TestSeed
                0x000214a0       0x68 build/default/production/_ext/1664057780/random.o
                0x000214a0                wc_RNG_TestSeed

.text.rand%588  0x00021508       0x68
 .text.rand     0x00021508       0x68 c:/program files/microchip/xc32/v3.01/bin/bin/../../lib/gcc/pic32c/8.3.1/../../../../pic32c/lib/thumb/v7e-m+fp/hard\libc_nano.a(lib_a-rand.o)
                0x00021508                rand

.text._Balloc%589
                0x00021570       0x68
 .text._Balloc  0x00021570       0x68 c:/program files/microchip/xc32/v3.01/bin/bin/../../lib/gcc/pic32c/8.3.1/../../../../pic32c/lib/thumb/v7e-m+fp/hard\libc_nano.a(lib_a-mprec.o)
                0x00021570                _Balloc

.text._DRV_ETHPHY_NegResultPhase_BMSTAT%590
                0x000215d8       0x64
 .text._DRV_ETHPHY_NegResultPhase_BMSTAT
                0x000215d8       0x64 build/default/production/_ext/444070925/drv_ethphy.o

.text._DRV_ETHPHY_ResetPhaseRead%591
                0x0002163c       0x64
 .text._DRV_ETHPHY_ResetPhaseRead
                0x0002163c       0x64 build/default/production/_ext/444070925/drv_ethphy.o

.text.DRV_GMAC_RegisterStatisticsGet%592
                0x000216a0       0x64
 .text.DRV_GMAC_RegisterStatisticsGet
                0x000216a0       0x64 build/default/production/_ext/1546807373/drv_gmac.o
                0x000216a0                DRV_GMAC_RegisterStatisticsGet

.text._MacRxPacketAck%593
                0x00021704       0x64
 .text._MacRxPacketAck
                0x00021704       0x64 build/default/production/_ext/1546807373/drv_gmac_lib_samE5x.o

.text.DRV_MEMORY_Close%594
                0x00021768       0x64
 .text.DRV_MEMORY_Close
                0x00021768       0x64 build/default/production/_ext/992804092/drv_memory.o
                0x00021768                DRV_MEMORY_Close

.text.TCPIP_SNMP_OIDIsValid%595
                0x000217cc       0x64
 .text.TCPIP_SNMP_OIDIsValid
                0x000217cc       0x64 build/default/production/_ext/1033058136/snmp.o
                0x000217cc                TCPIP_SNMP_OIDIsValid

.text.TCPIP_OAHASH_EntryLookupOrInsert%596
                0x00021830       0x64
 .text.TCPIP_OAHASH_EntryLookupOrInsert
                0x00021830       0x64 build/default/production/_ext/1033058136/oahash.o
                0x00021830                TCPIP_OAHASH_EntryLookupOrInsert

.text.TCPIP_STACK_BringNetDown%597
                0x00021894       0x64
 .text.TCPIP_STACK_BringNetDown
                0x00021894       0x64 build/default/production/_ext/1033058136/tcpip_manager.o

.text.TCPIP_UDP_SocketInfoGet%598
                0x000218f8       0x64
 .text.TCPIP_UDP_SocketInfoGet
                0x000218f8       0x64 build/default/production/_ext/1033058136/udp.o
                0x000218f8                TCPIP_UDP_SocketInfoGet

.text.MPFS_DirOpen%599
                0x0002195c       0x64
 .text.MPFS_DirOpen
                0x0002195c       0x64 build/default/production/_ext/699575981/mpfs.o
                0x0002195c                MPFS_DirOpen

.text.xPortPendSVHandler%600
                0x000219c0       0x64
 .text.xPortPendSVHandler
                0x000219c0       0x64 build/default/production/_ext/246609638/port.o
                0x000219c0                xPortPendSVHandler

.text.xQueueGiveFromISR%601
                0x00021a24       0x64
 .text.xQueueGiveFromISR
                0x00021a24       0x64 build/default/production/_ext/404212886/queue.o
                0x00021a24                xQueueGiveFromISR

.text.vTaskStartScheduler%602
                0x00021a88       0x64
 .text.vTaskStartScheduler
                0x00021a88       0x64 build/default/production/_ext/404212886/FreeRTOS_tasks.o
                0x00021a88                vTaskStartScheduler

.text.wc_InitSha256_ex%603
                0x00021aec       0x64
 .text.wc_InitSha256_ex
                0x00021aec       0x64 build/default/production/_ext/1664057780/sha256.o
                0x00021aec                wc_InitSha256_ex

.text.TCPIP_ARP_EntryGet%604
                0x00021b50       0x62
 .text.TCPIP_ARP_EntryGet
                0x00021b50       0x62 build/default/production/_ext/1033058136/arp.o
                0x00021b50                TCPIP_ARP_EntryGet

.text.DRV_MEMORY_HandleErase%605
                0x00021bb2       0x60
 .text.DRV_MEMORY_HandleErase
                0x00021bb2       0x60 build/default/production/_ext/992804092/drv_memory.o

.text._PingStop%606
                0x00021c14       0x60
 .text._PingStop
                0x00021c14       0x60 build/default/production/_ext/1033058136/tcpip_commands.o

.text.Ipv4FilterSetActive%607
                0x00021c74       0x60
 .text.Ipv4FilterSetActive
                0x00021c74       0x60 build/default/production/_ext/1033058136/ipv4.o
                0x00021c74                Ipv4FilterSetActive

.text._DHCPOptionProcessDns%608
                0x00021cd4       0x60
 .text._DHCPOptionProcessDns
                0x00021cd4       0x60 build/default/production/_ext/1033058136/dhcp.o

.text.TCPIP_DHCP_Disable%609
                0x00021d34       0x60
 .text.TCPIP_DHCP_Disable
                0x00021d34       0x60 build/default/production/_ext/1033058136/dhcp.o
                0x00021d34                TCPIP_DHCP_Disable

.text.TCPIP_DNS_ClientDeinitialize%610
                0x00021d94       0x60
 .text.TCPIP_DNS_ClientDeinitialize
                0x00021d94       0x60 build/default/production/_ext/1033058136/dns.o
                0x00021d94                TCPIP_DNS_ClientDeinitialize

.text.TCPIP_DNS_GetIPAddressesNumber%611
                0x00021df4       0x60
 .text.TCPIP_DNS_GetIPAddressesNumber
                0x00021df4       0x60 build/default/production/_ext/1033058136/dns.o
                0x00021df4                TCPIP_DNS_GetIPAddressesNumber

.text._TCPIP_SelectDefaultNet%612
                0x00021e54       0x60
 .text._TCPIP_SelectDefaultNet
                0x00021e54       0x60 build/default/production/_ext/1033058136/tcpip_manager.o

.text.__lo0bits%613
                0x00021eb4       0x60
 .text.__lo0bits
                0x00021eb4       0x60 c:/program files/microchip/xc32/v3.01/bin/bin/../../lib/gcc/pic32c/8.3.1/../../../../pic32c/lib/thumb/v7e-m+fp/hard\libc_nano.a(lib_a-mprec.o)
                0x00021eb4                __lo0bits

.text._DRV_ETHPHY_NegCompletePhaseRead2%614
                0x00021f14       0x5c
 .text._DRV_ETHPHY_NegCompletePhaseRead2
                0x00021f14       0x5c build/default/production/_ext/444070925/drv_ethphy.o

.rodata.DRV_ETHPHY_OBJECT_BASE_Default%615
                0x00021f70       0x5c
 .rodata.DRV_ETHPHY_OBJECT_BASE_Default
                0x00021f70       0x5c build/default/production/_ext/444070925/drv_ethphy.o
                0x00021f70                DRV_ETHPHY_OBJECT_BASE_Default

.text._DRV_GMAC_LinkStateWaitLinkUp%616
                0x00021fcc       0x5c
 .text._DRV_GMAC_LinkStateWaitLinkUp
                0x00021fcc       0x5c build/default/production/_ext/1546807373/drv_gmac.o

.text.uitoa%617
                0x00022028       0x5c
 .text.uitoa    0x00022028       0x5c build/default/production/_ext/1033058136/helpers.o
                0x00022028                uitoa

.text._TcpClientSocketConnect%618
                0x00022084       0x5c
 .text._TcpClientSocketConnect
                0x00022084       0x5c build/default/production/_ext/1033058136/tcp.o

.text.TCPIP_ARP_Probe%619
                0x000220e0       0x5c
 .text.TCPIP_ARP_Probe
                0x000220e0       0x5c build/default/production/_ext/1033058136/arp.o
                0x000220e0                TCPIP_ARP_Probe

.text.TCPIP_DHCP_Enable%620
                0x0002213c       0x5c
 .text.TCPIP_DHCP_Enable
                0x0002213c       0x5c build/default/production/_ext/1033058136/dhcp.o
                0x0002213c                TCPIP_DHCP_Enable

.text._TCPIPStackIpAddFromAnyNet%621
                0x00022198       0x5c
 .text._TCPIPStackIpAddFromAnyNet
                0x00022198       0x5c build/default/production/_ext/1033058136/tcpip_manager.o
                0x00022198                _TCPIPStackIpAddFromAnyNet

.text.SYS_FS_MEDIA_MANAGER_MediaStatusGet%622
                0x000221f4       0x5c
 .text.SYS_FS_MEDIA_MANAGER_MediaStatusGet
                0x000221f4       0x5c build/default/production/_ext/1269487135/sys_fs_media_manager.o
                0x000221f4                SYS_FS_MEDIA_MANAGER_MediaStatusGet

.text.SYS_TIME_RemoveFromList%623
                0x00022250       0x5c
 .text.SYS_TIME_RemoveFromList
                0x00022250       0x5c build/default/production/_ext/101884895/sys_time.o

.text.xTaskCheckForTimeOut%624
                0x000222ac       0x5c
 .text.xTaskCheckForTimeOut
                0x000222ac       0x5c build/default/production/_ext/404212886/FreeRTOS_tasks.o
                0x000222ac                xTaskCheckForTimeOut

.text.wc_CryptoCb_RandomBlock%625
                0x00022308       0x5c
 .text.wc_CryptoCb_RandomBlock
                0x00022308       0x5c build/default/production/_ext/1664057780/cryptocb.o
                0x00022308                wc_CryptoCb_RandomBlock

.text._vsnprintf_r%626
                0x00022364       0x5c
 .text._vsnprintf_r
                0x00022364       0x5c c:/program files/microchip/xc32/v3.01/bin/bin/../../lib/gcc/pic32c/8.3.1/../../../../pic32c/lib/thumb/v7e-m+fp/hard\libc_nano.a(lib_a-vsnprintf.o)
                0x00022364                _vsniprintf_r
                0x00022364                _vsnprintf_r

.text.DRV_PIC32CGMAC_LibRxBuffersCountGet%627
                0x000223c0       0x5a
 .text.DRV_PIC32CGMAC_LibRxBuffersCountGet
                0x000223c0       0x5a build/default/production/_ext/1546807373/drv_gmac_lib_samE5x.o
                0x000223c0                DRV_PIC32CGMAC_LibRxBuffersCountGet

.text.TCPIP_UDP_BcastIPV4AddressSet%628
                0x0002241a       0x5a
 .text.TCPIP_UDP_BcastIPV4AddressSet
                0x0002241a       0x5a build/default/production/_ext/1033058136/udp.o
                0x0002241a                TCPIP_UDP_BcastIPV4AddressSet

.text.DRV_ETHPHY_Initialize%629
                0x00022474       0x58
 .text.DRV_ETHPHY_Initialize
                0x00022474       0x58 build/default/production/_ext/444070925/drv_ethphy.o
                0x00022474                DRV_ETHPHY_Initialize

.text.DRV_GMAC_RxFilterHashTableEntrySet%630
                0x000224cc       0x58
 .text.DRV_GMAC_RxFilterHashTableEntrySet
                0x000224cc       0x58 build/default/production/_ext/1546807373/drv_gmac.o
                0x000224cc                DRV_GMAC_RxFilterHashTableEntrySet

.rodata.DRV_GMAC_Object%631
                0x00022524       0x58
 .rodata.DRV_GMAC_Object
                0x00022524       0x58 build/default/production/_ext/1546807373/drv_gmac.o
                0x00022524                DRV_GMAC_Object

.text._DNS_Enable%632
                0x0002257c       0x58
 .text._DNS_Enable
                0x0002257c       0x58 build/default/production/_ext/1033058136/dns.o

.text._TCPIPStackModuleSignalRequest%633
                0x000225d4       0x58
 .text._TCPIPStackModuleSignalRequest
                0x000225d4       0x58 build/default/production/_ext/1033058136/tcpip_manager.o
                0x000225d4                _TCPIPStackModuleSignalRequest

.text.OSAL_SEM_Create%634
                0x0002262c       0x58
 .text.OSAL_SEM_Create
                0x0002262c       0x58 build/default/production/_ext/1529399856/osal_freertos.o
                0x0002262c                OSAL_SEM_Create

.text.MPFSGetArray%635
                0x00022684       0x58
 .text.MPFSGetArray
                0x00022684       0x58 build/default/production/_ext/699575981/mpfs.o

.text.SYS_TIME_TimerAdd%636
                0x000226dc       0x58
 .text.SYS_TIME_TimerAdd
                0x000226dc       0x58 build/default/production/_ext/101884895/sys_time.o

.text.SYS_TIME_TimerStart%637
                0x00022734       0x58
 .text.SYS_TIME_TimerStart
                0x00022734       0x58 build/default/production/_ext/101884895/sys_time.o
                0x00022734                SYS_TIME_TimerStart

.text.SYS_TIME_CallbackRegisterUS%638
                0x0002278c       0x58
 .text.SYS_TIME_CallbackRegisterUS
                0x0002278c       0x58 build/default/production/_ext/101884895/sys_time.o
                0x0002278c                SYS_TIME_CallbackRegisterUS

.rodata.TCPIP_STACK_MODULE_CONFIG_TBL%639
                0x000227e4       0x58
 .rodata.TCPIP_STACK_MODULE_CONFIG_TBL
                0x000227e4       0x58 build/default/production/_ext/1171490990/initialization.o
                0x000227e4                TCPIP_STACK_MODULE_CONFIG_TBL

.text.DRV_MIIM_OperationAbort%640
                0x0002283c       0x56
 .text.DRV_MIIM_OperationAbort
                0x0002283c       0x56 build/default/production/_ext/438849557/drv_miim.o
                0x0002283c                DRV_MIIM_OperationAbort

.text._DRV_PHY_SMITransferWaitComplete%641
                0x00022892       0x54
 .text._DRV_PHY_SMITransferWaitComplete
                0x00022892       0x54 build/default/production/_ext/444070925/drv_ethphy.o

.text._ARPNotifyClients%642
                0x000228e8       0x54
 .text._ARPNotifyClients
                0x000228e8       0x54 build/default/production/_ext/1033058136/arp.o

.text.IperfSetState%643
                0x0002293c       0x54
 .text.IperfSetState
                0x0002293c       0x54 build/default/production/_ext/1033058136/iperf.o

.text.TCPIP_IPERF_Deinitialize%644
                0x00022990       0x54
 .text.TCPIP_IPERF_Deinitialize
                0x00022990       0x54 build/default/production/_ext/1033058136/iperf.o
                0x00022990                TCPIP_IPERF_Deinitialize

.text.IPv4RegisterFilter%645
                0x000229e4       0x54
 .text.IPv4RegisterFilter
                0x000229e4       0x54 build/default/production/_ext/1033058136/ipv4.o
                0x000229e4                IPv4RegisterFilter

.text._DHCPOptionWriteSrvIdent%646
                0x00022a38       0x54
 .text._DHCPOptionWriteSrvIdent
                0x00022a38       0x54 build/default/production/_ext/1033058136/dhcp.o

.text._DNS_DeleteHash%647
                0x00022a8c       0x54
 .text._DNS_DeleteHash
                0x00022a8c       0x54 build/default/production/_ext/1033058136/dns.o

.text.TCPIP_DNS_RemoveAll%648
                0x00022ae0       0x54
 .text.TCPIP_DNS_RemoveAll
                0x00022ae0       0x54 build/default/production/_ext/1033058136/dns.o
                0x00022ae0                TCPIP_DNS_RemoveAll

.text.TCPIP_STACK_StringToMACId%649
                0x00022b34       0x54
 .text.TCPIP_STACK_StringToMACId
                0x00022b34       0x54 build/default/production/_ext/1033058136/tcpip_manager.o
                0x00022b34                TCPIP_STACK_StringToMACId

.text._TCPIPStackAnyNetLinked%650
                0x00022b88       0x54
 .text._TCPIPStackAnyNetLinked
                0x00022b88       0x54 build/default/production/_ext/1033058136/tcpip_manager.o
                0x00022b88                _TCPIPStackAnyNetLinked

.text._SYS_FS_MEDIA_MANAGER_HandleMediaDetach%651
                0x00022bdc       0x54
 .text._SYS_FS_MEDIA_MANAGER_HandleMediaDetach
                0x00022bdc       0x54 build/default/production/_ext/1269487135/sys_fs_media_manager.o

.text.SYS_TIME_CallbackRegisterMS%652
                0x00022c30       0x54
 .text.SYS_TIME_CallbackRegisterMS
                0x00022c30       0x54 build/default/production/_ext/101884895/sys_time.o
                0x00022c30                SYS_TIME_CallbackRegisterMS

.text.strtok%653
                0x00022c84       0x54
 .text.strtok   0x00022c84       0x54 c:/program files/microchip/xc32/v3.01/bin/bin/../../lib/gcc/pic32c/8.3.1/../../../../pic32c/lib/thumb/v7e-m+fp/hard\libc_nano.a(lib_a-strtok.o)
                0x00022c84                strtok

.text._TcpAbort%654
                0x00022cd8       0x52
 .text._TcpAbort
                0x00022cd8       0x52 build/default/production/_ext/1033058136/tcp.o

.text.TCPIP_TCP_RemoteBind%655
                0x00022d2a       0x52
 .text.TCPIP_TCP_RemoteBind
                0x00022d2a       0x52 build/default/production/_ext/1033058136/tcp.o
                0x00022d2a                TCPIP_TCP_RemoteBind

.text.__strtok_r%656
                0x00022d7c       0x52
 .text.__strtok_r
                0x00022d7c       0x52 c:/program files/microchip/xc32/v3.01/bin/bin/../../lib/gcc/pic32c/8.3.1/../../../../pic32c/lib/thumb/v7e-m+fp/hard\libc_nano.a(lib_a-strtok_r.o)
                0x00022d7c                __strtok_r

.text.DRV_ETHPHY_LinkStatusGet%657
                0x00022dd0       0x50
 .text.DRV_ETHPHY_LinkStatusGet
                0x00022dd0       0x50 build/default/production/_ext/444070925/drv_ethphy.o
                0x00022dd0                DRV_ETHPHY_LinkStatusGet

.text.DRV_GMAC_ParametersGet%658
                0x00022e20       0x50
 .text.DRV_GMAC_ParametersGet
                0x00022e20       0x50 build/default/production/_ext/1546807373/drv_gmac.o
                0x00022e20                DRV_GMAC_ParametersGet

.rodata%659     0x00022e70       0xa0
 .rodata        0x00022e70       0x50 build/default/production/_ext/1033058136/snmp.o
 .rodata        0x00022ec0       0x50 build/default/production/_ext/1033058136/tcp.o

.text._DHCPOptionWriteIPRequest%661
                0x00022f10       0x50
 .text._DHCPOptionWriteIPRequest
                0x00022f10       0x50 build/default/production/_ext/1033058136/dhcp.o

.text.TCPIP_DHCP_Renew%662
                0x00022f60       0x50
 .text.TCPIP_DHCP_Renew
                0x00022f60       0x50 build/default/production/_ext/1033058136/dhcp.o
                0x00022f60                TCPIP_DHCP_Renew

.text.TCPIP_DNS_OAHASH_DeleteEntry%663
                0x00022fb0       0x50
 .text.TCPIP_DNS_OAHASH_DeleteEntry
                0x00022fb0       0x50 build/default/production/_ext/1033058136/dns.o

.text.TCPIP_Helper_FormatNetBIOSName%664
                0x00023000       0x50
 .text.TCPIP_Helper_FormatNetBIOSName
                0x00023000       0x50 build/default/production/_ext/1033058136/tcpip_helpers.o
                0x00023000                TCPIP_Helper_FormatNetBIOSName

.text.SYS_CONSOLE_Status%665
                0x00023050       0x50
 .text.SYS_CONSOLE_Status
                0x00023050       0x50 build/default/production/_ext/1832805299/sys_console.o
                0x00023050                SYS_CONSOLE_Status

.text.MPFSGetFileRecord%666
                0x000230a0       0x50
 .text.MPFSGetFileRecord
                0x000230a0       0x50 build/default/production/_ext/699575981/mpfs.o

.text.SYS_FS_FileNameGet%667
                0x000230f0       0x50
 .text.SYS_FS_FileNameGet
                0x000230f0       0x50 build/default/production/_ext/1269487135/sys_fs.o
                0x000230f0                SYS_FS_FileNameGet

.rodata%668     0x00023140       0x50
 .rodata        0x00023140       0x50 build/default/production/_ext/1171490990/tasks.o

.text%669       0x00023190       0x50
 .text          0x00023190       0x50 c:/program files/microchip/xc32/v3.01/bin/bin/../../lib/gcc/pic32c/8.3.1/thumb/v7e-m+fp/hard\libgcc.a(_arm_fixdfsi.o)
                0x00023190                __aeabi_d2iz
                0x00023190                __fixdfsi

.text._DRV_ETHPHY_SetupPhaseNegotiate_SubPhase7%670
                0x000231e0       0x4e
 .text._DRV_ETHPHY_SetupPhaseNegotiate_SubPhase7
                0x000231e0       0x4e build/default/production/_ext/444070925/drv_ethphy.o

.text._DRV_MIIM_GetClientAndLock%671
                0x0002322e       0x4e
 .text._DRV_MIIM_GetClientAndLock
                0x0002322e       0x4e build/default/production/_ext/438849557/drv_miim.o

.text.TCPIP_HTTP_PostValueRead%672
                0x0002327c       0x4e
 .text.TCPIP_HTTP_PostValueRead
                0x0002327c       0x4e build/default/production/_ext/1033058136/http.o
                0x0002327c                TCPIP_HTTP_PostValueRead

.text.TCPIP_IPV4_SelectDestInterface%673
                0x000232ca       0x4e
 .text.TCPIP_IPV4_SelectDestInterface
                0x000232ca       0x4e build/default/production/_ext/1033058136/ipv4.o
                0x000232ca                TCPIP_IPV4_SelectDestInterface

.text.TCPIP_UDP_PutIsReady%674
                0x00023318       0x4e
 .text.TCPIP_UDP_PutIsReady
                0x00023318       0x4e build/default/production/_ext/1033058136/udp.o
                0x00023318                TCPIP_UDP_PutIsReady

.text._DRV_ETHPHY_LinkStatPhaseRead%675
                0x00023366       0x4c
 .text._DRV_ETHPHY_LinkStatPhaseRead
                0x00023366       0x4c build/default/production/_ext/444070925/drv_ethphy.o

.text.stricmp%676
                0x000233b4       0x4c
 .text.stricmp  0x000233b4       0x4c build/default/production/_ext/1033058136/helpers.o
                0x000233b4                stricmp

.text.TCPIP_SNMP_WriteCommunitySet%677
                0x00023400       0x4c
 .text.TCPIP_SNMP_WriteCommunitySet
                0x00023400       0x4c build/default/production/_ext/1033058136/snmp.o
                0x00023400                TCPIP_SNMP_WriteCommunitySet

.text.TCPIP_SNMP_ReadCommunitySet%678
                0x0002344c       0x4c
 .text.TCPIP_SNMP_ReadCommunitySet
                0x0002344c       0x4c build/default/production/_ext/1033058136/snmp.o
                0x0002344c                TCPIP_SNMP_ReadCommunitySet

.text._TcpSocketKill%679
                0x00023498       0x4c
 .text._TcpSocketKill
                0x00023498       0x4c build/default/production/_ext/1033058136/tcp.o

.text.ResetIperfCounters%680
                0x000234e4       0x4c
 .text.ResetIperfCounters
                0x000234e4       0x4c build/default/production/_ext/1033058136/iperf.o

.text._DHCPSetRunFail%681
                0x00023530       0x4c
 .text._DHCPSetRunFail
                0x00023530       0x4c build/default/production/_ext/1033058136/dhcp.o

.text.TCPIP_Helper_IPAddressToString%682
                0x0002357c       0x4c
 .text.TCPIP_Helper_IPAddressToString
                0x0002357c       0x4c build/default/production/_ext/1033058136/tcpip_helpers.o
                0x0002357c                TCPIP_Helper_IPAddressToString

.text._TCPIP_MacEventCB%683
                0x000235c8       0x4c
 .text._TCPIP_MacEventCB
                0x000235c8       0x4c build/default/production/_ext/1033058136/tcpip_manager.o

.text._UDPClose%684
                0x00023614       0x4c
 .text._UDPClose
                0x00023614       0x4c build/default/production/_ext/1033058136/udp.o

.text.SYS_FS_MEDIA_MANAGER_Read%685
                0x00023660       0x4c
 .text.SYS_FS_MEDIA_MANAGER_Read
                0x00023660       0x4c build/default/production/_ext/1269487135/sys_fs_media_manager.o
                0x00023660                SYS_FS_MEDIA_MANAGER_Read

.text._realloc_r%686
                0x000236ac       0x4c
 .text._realloc_r
                0x000236ac       0x4c c:/program files/microchip/xc32/v3.01/bin/bin/../../lib/gcc/pic32c/8.3.1/../../../../pic32c/lib/thumb/v7e-m+fp/hard\libc_nano.a(lib_a-nano-reallocr.o)
                0x000236ac                _realloc_r

.text.TCPIP_IPV4_SelectSourceInterface%687
                0x000236f8       0x4a
 .text.TCPIP_IPV4_SelectSourceInterface
                0x000236f8       0x4a build/default/production/_ext/1033058136/ipv4.o
                0x000236f8                TCPIP_IPV4_SelectSourceInterface

.text.TCPIP_UDP_ArrayPut%688
                0x00023742       0x4a
 .text.TCPIP_UDP_ArrayPut
                0x00023742       0x4a build/default/production/_ext/1033058136/udp.o
                0x00023742                TCPIP_UDP_ArrayPut

.text.TCPIP_UDP_DestinationIPAddressSet%689
                0x0002378c       0x4a
 .text.TCPIP_UDP_DestinationIPAddressSet
                0x0002378c       0x4a build/default/production/_ext/1033058136/udp.o
                0x0002378c                TCPIP_UDP_DestinationIPAddressSet

.text.DRV_ETHPHY_NegotiationResultGet%690
                0x000237d8       0x48
 .text.DRV_ETHPHY_NegotiationResultGet
                0x000237d8       0x48 build/default/production/_ext/444070925/drv_ethphy.o
                0x000237d8                DRV_ETHPHY_NegotiationResultGet

.text.DRV_GMAC_LinkCheck%691
                0x00023820       0x48
 .text.DRV_GMAC_LinkCheck
                0x00023820       0x48 build/default/production/_ext/1546807373/drv_gmac.o
                0x00023820                DRV_GMAC_LinkCheck

.rodata.default_shell_obj%692
                0x00023868       0x48
 .rodata.default_shell_obj
                0x00023868       0x48 build/default/production/_ext/1751889202/sys_fs_shell.o

.text._TCPSendWinIncUpdate%693
                0x000238b0       0x48
 .text._TCPSendWinIncUpdate
                0x000238b0       0x48 build/default/production/_ext/1033058136/tcp.o

.text.TCPIP_TCP_DestinationIPAddressSet%694
                0x000238f8       0x48
 .text.TCPIP_TCP_DestinationIPAddressSet
                0x000238f8       0x48 build/default/production/_ext/1033058136/tcp.o
                0x000238f8                TCPIP_TCP_DestinationIPAddressSet

.text.TCPIP_ARP_Deinitialize%695
                0x00023940       0x48
 .text.TCPIP_ARP_Deinitialize
                0x00023940       0x48 build/default/production/_ext/1033058136/arp.o
                0x00023940                TCPIP_ARP_Deinitialize

.rodata._DHCPOptProcTbl%696
                0x00023988       0x48
 .rodata._DHCPOptProcTbl
                0x00023988       0x48 build/default/production/_ext/1033058136/dhcp.o

.text.TCPIP_STACK_MACIdToNet%697
                0x000239d0       0x48
 .text.TCPIP_STACK_MACIdToNet
                0x000239d0       0x48 build/default/production/_ext/1033058136/tcpip_manager.o
                0x000239d0                TCPIP_STACK_MACIdToNet

.text.TCPIP_STACK_MatchNetAddress%698
                0x00023a18       0x48
 .text.TCPIP_STACK_MatchNetAddress
                0x00023a18       0x48 build/default/production/_ext/1033058136/tcpip_manager.o
                0x00023a18                TCPIP_STACK_MatchNetAddress

.text._TCPIPStackSignalHandlerRegister%699
                0x00023a60       0x48
 .text._TCPIPStackSignalHandlerRegister
                0x00023a60       0x48 build/default/production/_ext/1033058136/tcpip_manager.o
                0x00023a60                _TCPIPStackSignalHandlerRegister

.rodata.keySeqTbl%700
                0x00023aa8       0x48
 .rodata.keySeqTbl
                0x00023aa8       0x48 build/default/production/_ext/1376093119/sys_command.o

.text.xPortStartScheduler%701
                0x00023af0       0x48
 .text.xPortStartScheduler
                0x00023af0       0x48 build/default/production/_ext/246609638/port.o
                0x00023af0                xPortStartScheduler

.text.wc_CryptoCb_FindDeviceByIndex%702
                0x00023b38       0x48
 .text.wc_CryptoCb_FindDeviceByIndex
                0x00023b38       0x48 build/default/production/_ext/1664057780/cryptocb.o

.text.__libc_init_array%703
                0x00023b80       0x48
 .text.__libc_init_array
                0x00023b80       0x48 c:/program files/microchip/xc32/v3.01/bin/bin/../../lib/gcc/pic32c/8.3.1/../../../../pic32c/lib/thumb/v7e-m+fp/hard\libc_nano.a(lib_a-init.o)
                0x00023b80                __libc_init_array

.text.srand%704
                0x00023bc8       0x48
 .text.srand    0x00023bc8       0x48 c:/program files/microchip/xc32/v3.01/bin/bin/../../lib/gcc/pic32c/8.3.1/../../../../pic32c/lib/thumb/v7e-m+fp/hard\libc_nano.a(lib_a-rand.o)
                0x00023bc8                srand

.text._DRV_GMAC_LinkStateGetLink%705
                0x00023c10       0x46
 .text._DRV_GMAC_LinkStateGetLink
                0x00023c10       0x46 build/default/production/_ext/1546807373/drv_gmac.o

.text.Shell_GetCwd%706
                0x00023c56       0x46
 .text.Shell_GetCwd
                0x00023c56       0x46 build/default/production/_ext/1751889202/sys_fs_shell.o

.text.Shell_GetRoot%707
                0x00023c9c       0x46
 .text.Shell_GetRoot
                0x00023c9c       0x46 build/default/production/_ext/1751889202/sys_fs_shell.o

.text.TCPIP_TCP_FifoTxFullGet%708
                0x00023ce2       0x46
 .text.TCPIP_TCP_FifoTxFullGet
                0x00023ce2       0x46 build/default/production/_ext/1033058136/tcp.o
                0x00023ce2                TCPIP_TCP_FifoTxFullGet

.text.TCPIP_ARP_Resolve%709
                0x00023d28       0x46
 .text.TCPIP_ARP_Resolve
                0x00023d28       0x46 build/default/production/_ext/1033058136/arp.o
                0x00023d28                TCPIP_ARP_Resolve

.text._TCPIP_HEAP_Delete%710
                0x00023d6e       0x46
 .text._TCPIP_HEAP_Delete
                0x00023d6e       0x46 build/default/production/_ext/1033058136/tcpip_heap_internal.o

.text.TCPIP_Helper_SingleListNodeRemove%711
                0x00023db4       0x46
 .text.TCPIP_Helper_SingleListNodeRemove
                0x00023db4       0x46 build/default/production/_ext/1033058136/tcpip_helpers.o
                0x00023db4                TCPIP_Helper_SingleListNodeRemove

.text.TCPIP_Notification_CbackRemove%712
                0x00023dfa       0x46
 .text.TCPIP_Notification_CbackRemove
                0x00023dfa       0x46 build/default/production/_ext/1033058136/tcpip_notify.o
                0x00023dfa                TCPIP_Notification_CbackRemove

.text.TCPIP_UDP_SignalHandlerRegister%713
                0x00023e40       0x46
 .text.TCPIP_UDP_SignalHandlerRegister
                0x00023e40       0x46 build/default/production/_ext/1033058136/udp.o
                0x00023e40                TCPIP_UDP_SignalHandlerRegister

.text.DRV_GMAC_ConfigGet%714
                0x00023e88       0x44
 .text.DRV_GMAC_ConfigGet
                0x00023e88       0x44 build/default/production/_ext/1546807373/drv_gmac.o
                0x00023e88                DRV_GMAC_ConfigGet

.text._MacTxDiscardQueues%715
                0x00023ecc       0x44
 .text._MacTxDiscardQueues
                0x00023ecc       0x44 build/default/production/_ext/1546807373/drv_gmac.o

.text.Helper_SingleListNodeRemove%716
                0x00023f10       0x44
 .text.Helper_SingleListNodeRemove
                0x00023f10       0x44 build/default/production/_ext/438849557/drv_miim.o
                0x00023f10                Helper_SingleListNodeRemove

.text._SNMP_Trap_Initialize%717
                0x00023f54       0x44
 .text._SNMP_Trap_Initialize
                0x00023f54       0x44 build/default/production/_ext/1033058136/snmp.o

.text.TCPIP_SNMP_GetArrayOfDataFromUDPBuff%718
                0x00023f98       0x44
 .text.TCPIP_SNMP_GetArrayOfDataFromUDPBuff
                0x00023f98       0x44 build/default/production/_ext/1033058136/snmp.o
                0x00023f98                TCPIP_SNMP_GetArrayOfDataFromUDPBuff

.text.TCPIP_SNMP_WriteCommunityGet%719
                0x00023fdc       0x44
 .text.TCPIP_SNMP_WriteCommunityGet
                0x00023fdc       0x44 build/default/production/_ext/1033058136/snmp.o
                0x00023fdc                TCPIP_SNMP_WriteCommunityGet

.text.TCPIP_SNMP_ReadCommunityGet%720
                0x00024020       0x44
 .text.TCPIP_SNMP_ReadCommunityGet
                0x00024020       0x44 build/default/production/_ext/1033058136/snmp.o
                0x00024020                TCPIP_SNMP_ReadCommunityGet

.text.TCPIP_TCP_SignalHandlerRegister%721
                0x00024064       0x44
 .text.TCPIP_TCP_SignalHandlerRegister
                0x00024064       0x44 build/default/production/_ext/1033058136/tcp.o
                0x00024064                TCPIP_TCP_SignalHandlerRegister

.text._MiimClose%722
                0x000240a8       0x44
 .text._MiimClose
                0x000240a8       0x44 build/default/production/_ext/1033058136/tcpip_commands.o

.text.TCPIP_Helper_MACAddressToString%723
                0x000240ec       0x44
 .text.TCPIP_Helper_MACAddressToString
                0x000240ec       0x44 build/default/production/_ext/1033058136/tcpip_helpers.o
                0x000240ec                TCPIP_Helper_MACAddressToString

.text.TCPIP_STACK_NetByAddress%724
                0x00024130       0x44
 .text.TCPIP_STACK_NetByAddress
                0x00024130       0x44 build/default/production/_ext/1033058136/tcpip_manager.o
                0x00024130                TCPIP_STACK_NetByAddress

.text.TCPIP_STACK_AddressServiceEvent%725
                0x00024174       0x44
 .text.TCPIP_STACK_AddressServiceEvent
                0x00024174       0x44 build/default/production/_ext/1033058136/tcpip_manager.o
                0x00024174                TCPIP_STACK_AddressServiceEvent

.text._TCPIPStackModuleRxInsert%726
                0x000241b8       0x44
 .text._TCPIPStackModuleRxInsert
                0x000241b8       0x44 build/default/production/_ext/1033058136/tcpip_manager.o
                0x000241b8                _TCPIPStackModuleRxInsert

.rodata%727     0x000241fc       0x44
 .rodata        0x000241fc       0x44 build/default/production/_ext/1033058136/udp.o

.text.MPFS_Seek%728
                0x00024240       0x44
 .text.MPFS_Seek
                0x00024240       0x44 build/default/production/_ext/699575981/mpfs.o
                0x00024240                MPFS_Seek

.text.SYS_INT_SourceDisable%729
                0x00024284       0x44
 .text.SYS_INT_SourceDisable
                0x00024284       0x44 build/default/production/_ext/1881668453/sys_int.o
                0x00024284                SYS_INT_SourceDisable

.text.TCPIP_SNMP_NextIndexGet%730
                0x000242c8       0x44
 .text.TCPIP_SNMP_NextIndexGet
                0x000242c8       0x44 build/default/production/_ext/1360937237/custom_snmp_app.o
                0x000242c8                TCPIP_SNMP_NextIndexGet

.text.sprintf%731
                0x0002430c       0x44
 .text.sprintf  0x0002430c       0x44 c:/program files/microchip/xc32/v3.01/bin/bin/../../lib/gcc/pic32c/8.3.1/../../../../pic32c/lib/thumb/v7e-m+fp/hard\libc_nano.a(lib_a-sprintf.o)
                0x0002430c                __sprintf_dis
                0x0002430c                sprintf
                0x0002430c                __sprintf_oxX
                0x0002430c                siprintf
                0x0002430c                __sprintf_di

.text._DRV_GMAC_LinkStateNegComplete%732
                0x00024350       0x42
 .text._DRV_GMAC_LinkStateNegComplete
                0x00024350       0x42 build/default/production/_ext/1546807373/drv_gmac.o

.text.DRV_MEMORY_HandleRead%733
                0x00024392       0x42
 .text.DRV_MEMORY_HandleRead
                0x00024392       0x42 build/default/production/_ext/992804092/drv_memory.o

.text._TcpSocketSetSourceInterface%734
                0x000243d4       0x42
 .text._TcpSocketSetSourceInterface
                0x000243d4       0x42 build/default/production/_ext/1033058136/tcp.o

.text.TCPIP_HTTP_ArgGet%735
                0x00024416       0x42
 .text.TCPIP_HTTP_ArgGet
                0x00024416       0x42 build/default/production/_ext/1033058136/http.o
                0x00024416                TCPIP_HTTP_ArgGet

.text._UDPSetNewRxPacket%736
                0x00024458       0x42
 .text._UDPSetNewRxPacket
                0x00024458       0x42 build/default/production/_ext/1033058136/udp.o

.text.TCPIP_UDP_SourceIPAddressSet%737
                0x0002449a       0x42
 .text.TCPIP_UDP_SourceIPAddressSet
                0x0002449a       0x42 build/default/production/_ext/1033058136/udp.o
                0x0002449a                TCPIP_UDP_SourceIPAddressSet

.text%738       0x000244dc       0x40
 .text          0x000244dc       0x40 c:/program files/microchip/xc32/v3.01/bin/bin/../../lib/gcc/pic32c/8.3.1/thumb/v7e-m+fp/hard/crtbegin.o

.text.DRV_ETHPHY_Reset%739
                0x0002451c       0x40
 .text.DRV_ETHPHY_Reset
                0x0002451c       0x40 build/default/production/_ext/444070925/drv_ethphy.o
                0x0002451c                DRV_ETHPHY_Reset

.text.DRV_ETHPHY_NegotiationIsComplete%740
                0x0002455c       0x40
 .text.DRV_ETHPHY_NegotiationIsComplete
                0x0002455c       0x40 build/default/production/_ext/444070925/drv_ethphy.o
                0x0002455c                DRV_ETHPHY_NegotiationIsComplete

.text.DRV_ETHPHY_RestartNegotiation%741
                0x0002459c       0x40
 .text.DRV_ETHPHY_RestartNegotiation
                0x0002459c       0x40 build/default/production/_ext/444070925/drv_ethphy.o
                0x0002459c                DRV_ETHPHY_RestartNegotiation

.text._DRV_ETHPHY_ResetPhaseWrite%742
                0x000245dc       0x40
 .text._DRV_ETHPHY_ResetPhaseWrite
                0x000245dc       0x40 build/default/production/_ext/444070925/drv_ethphy.o

.rodata.DRV_MIIM_OBJECT_BASE_Default%743
                0x0002461c       0x40
 .rodata.DRV_MIIM_OBJECT_BASE_Default
                0x0002461c       0x40 build/default/production/_ext/438849557/drv_miim.o
                0x0002461c                DRV_MIIM_OBJECT_BASE_Default

.text._TCP_PortIsAvailable%744
                0x0002465c       0x40
 .text._TCP_PortIsAvailable
                0x0002465c       0x40 build/default/production/_ext/1033058136/tcp.o

.text._MiimOpen%745
                0x0002469c       0x40
 .text._MiimOpen
                0x0002469c       0x40 build/default/production/_ext/1033058136/tcpip_commands.o

.rodata.HTTPResponseHeaders%746
                0x000246dc       0x40
 .rodata.HTTPResponseHeaders
                0x000246dc       0x40 build/default/production/_ext/1033058136/http.o

.text._DHCPSetBoundState%747
                0x0002471c       0x40
 .text._DHCPSetBoundState
                0x0002471c       0x40 build/default/production/_ext/1033058136/dhcp.o

.text.TCPIP_DHCP_Deinitialize%748
                0x0002475c       0x40
 .text.TCPIP_DHCP_Deinitialize
                0x0002475c       0x40 build/default/production/_ext/1033058136/dhcp.o
                0x0002475c                TCPIP_DHCP_Deinitialize

.text.TCPIP_DNS_RemoveEntry%749
                0x0002479c       0x40
 .text.TCPIP_DNS_RemoveEntry
                0x0002479c       0x40 build/default/production/_ext/1033058136/dns.o
                0x0002479c                TCPIP_DNS_RemoveEntry

.rodata%750     0x000247dc       0x40
 .rodata        0x000247dc       0x40 build/default/production/_ext/1033058136/tcpip_helpers.o

.text.TCPIP_STACK_NetHandleGet%751
                0x0002481c       0x40
 .text.TCPIP_STACK_NetHandleGet
                0x0002481c       0x40 build/default/production/_ext/1033058136/tcpip_manager.o
                0x0002481c                TCPIP_STACK_NetHandleGet

.text._TCPIP_PKT_PacketAcknowledge%752
                0x0002485c       0x40
 .text._TCPIP_PKT_PacketAcknowledge
                0x0002485c       0x40 build/default/production/_ext/1033058136/tcpip_packet.o
                0x0002485c                _TCPIP_PKT_PacketAcknowledge

.text._UDPIsAvailablePort%753
                0x0002489c       0x40
 .text._UDPIsAvailablePort
                0x0002489c       0x40 build/default/production/_ext/1033058136/udp.o

.text.TCPIP_UDP_SocketNetSet%754
                0x000248dc       0x40
 .text.TCPIP_UDP_SocketNetSet
                0x000248dc       0x40 build/default/production/_ext/1033058136/udp.o
                0x000248dc                TCPIP_UDP_SocketNetSet

.text.NVMCTRL_PageWrite%755
                0x0002491c       0x40
 .text.NVMCTRL_PageWrite
                0x0002491c       0x40 build/default/production/_ext/1593096446/plib_nvmctrl.o
                0x0002491c                NVMCTRL_PageWrite

.text.TC0_TimerInitialize%756
                0x0002495c       0x40
 .text.TC0_TimerInitialize
                0x0002495c       0x40 build/default/production/_ext/829342655/plib_tc0.o
                0x0002495c                TC0_TimerInitialize

.text.SYS_FS_MEDIA_MANAGER_Register%757
                0x0002499c       0x40
 .text.SYS_FS_MEDIA_MANAGER_Register
                0x0002499c       0x40 build/default/production/_ext/1269487135/sys_fs_media_manager.o
                0x0002499c                SYS_FS_MEDIA_MANAGER_Register

.text.TCPIP_SNMP_ExactIndexGet%758
                0x000249dc       0x40
 .text.TCPIP_SNMP_ExactIndexGet
                0x000249dc       0x40 build/default/production/_ext/1360937237/custom_snmp_app.o
                0x000249dc                TCPIP_SNMP_ExactIndexGet

.text%759       0x00024a1c       0x40
 .text          0x00024a1c       0x40 c:/program files/microchip/xc32/v3.01/bin/bin/../../lib/gcc/pic32c/8.3.1/thumb/v7e-m+fp/hard\libgcc.a(_arm_fixunsdfsi.o)
                0x00024a1c                __aeabi_d2uiz
                0x00024a1c                __fixunsdfsi

.text.__hi0bits%760
                0x00024a5c       0x40
 .text.__hi0bits
                0x00024a5c       0x40 c:/program files/microchip/xc32/v3.01/bin/bin/../../lib/gcc/pic32c/8.3.1/../../../../pic32c/lib/thumb/v7e-m+fp/hard\libc_nano.a(lib_a-mprec.o)
                0x00024a5c                __hi0bits

.text._TCPSetHalfFlushFlag%761
                0x00024a9c       0x3e
 .text._TCPSetHalfFlushFlag
                0x00024a9c       0x3e build/default/production/_ext/1033058136/tcp.o

.text._DHCPOptionProcessSubNet%762
                0x00024ada       0x3e
 .text._DHCPOptionProcessSubNet
                0x00024ada       0x3e build/default/production/_ext/1033058136/dhcp.o

.text.TCPIP_STACK_AddressServiceDefaultSet%763
                0x00024b18       0x3e
 .text.TCPIP_STACK_AddressServiceDefaultSet
                0x00024b18       0x3e build/default/production/_ext/1033058136/tcpip_manager.o
                0x00024b18                TCPIP_STACK_AddressServiceDefaultSet

.text.TCPIP_UDP_TxOffsetSet%764
                0x00024b56       0x3e
 .text.TCPIP_UDP_TxOffsetSet
                0x00024b56       0x3e build/default/production/_ext/1033058136/udp.o
                0x00024b56                TCPIP_UDP_TxOffsetSet

.text._DRV_ETHPHY_NegCompletePhaseAN_Complete%765
                0x00024b94       0x3c
 .text._DRV_ETHPHY_NegCompletePhaseAN_Complete
                0x00024b94       0x3c build/default/production/_ext/444070925/drv_ethphy.o

.text.DRV_MIIM_RegisterCallback%766
                0x00024bd0       0x3c
 .text.DRV_MIIM_RegisterCallback
                0x00024bd0       0x3c build/default/production/_ext/438849557/drv_miim.o
                0x00024bd0                DRV_MIIM_RegisterCallback

.text.hexatob%767
                0x00024c0c       0x3c
 .text.hexatob  0x00024c0c       0x3c build/default/production/_ext/1033058136/helpers.o
                0x00024c0c                hexatob

.text.TCPIP_TCP_Close%768
                0x00024c48       0x3c
 .text.TCPIP_TCP_Close
                0x00024c48       0x3c build/default/production/_ext/1033058136/tcp.o
                0x00024c48                TCPIP_TCP_Close

.text._DHCPOptionProcessRouter%769
                0x00024c84       0x3c
 .text._DHCPOptionProcessRouter
                0x00024c84       0x3c build/default/production/_ext/1033058136/dhcp.o

.text._DHCPNotifyClients%770
                0x00024cc0       0x3c
 .text._DHCPNotifyClients
                0x00024cc0       0x3c build/default/production/_ext/1033058136/dhcp.o

.text.TCPIP_DHCP_IsEnabled%771
                0x00024cfc       0x3c
 .text.TCPIP_DHCP_IsEnabled
                0x00024cfc       0x3c build/default/production/_ext/1033058136/dhcp.o
                0x00024cfc                TCPIP_DHCP_IsEnabled

.text._TCPIPStackModuleSignalGet%772
                0x00024d38       0x3c
 .text._TCPIPStackModuleSignalGet
                0x00024d38       0x3c build/default/production/_ext/1033058136/tcpip_manager.o
                0x00024d38                _TCPIPStackModuleSignalGet

.text._TCPIP_PKT_PacketFree%773
                0x00024d74       0x3c
 .text._TCPIP_PKT_PacketFree
                0x00024d74       0x3c build/default/production/_ext/1033058136/tcpip_packet.o
                0x00024d74                _TCPIP_PKT_PacketFree

.text.TCPIP_UDP_OpenClientSkt%774
                0x00024db0       0x3c
 .text.TCPIP_UDP_OpenClientSkt
                0x00024db0       0x3c build/default/production/_ext/1033058136/udp.o
                0x00024db0                TCPIP_UDP_OpenClientSkt

.text.OSAL_SEM_PostISR%775
                0x00024dec       0x3c
 .text.OSAL_SEM_PostISR
                0x00024dec       0x3c build/default/production/_ext/1529399856/osal_freertos.o
                0x00024dec                OSAL_SEM_PostISR

.text.Console_UART_Read%776
                0x00024e28       0x3c
 .text.Console_UART_Read
                0x00024e28       0x3c build/default/production/_ext/1832805299/sys_console_uart.o
                0x00024e28                Console_UART_Read

.text.Console_UART_Write%777
                0x00024e64       0x3c
 .text.Console_UART_Write
                0x00024e64       0x3c build/default/production/_ext/1832805299/sys_console_uart.o
                0x00024e64                Console_UART_Write

.text.SYS_TIME_GetTimerObject%778
                0x00024ea0       0x3c
 .text.SYS_TIME_GetTimerObject
                0x00024ea0       0x3c build/default/production/_ext/101884895/sys_time.o

.text.SYS_TIME_ResourceUnlock%779
                0x00024edc       0x3c
 .text.SYS_TIME_ResourceUnlock
                0x00024edc       0x3c build/default/production/_ext/101884895/sys_time.o

.text.SYS_TIME_TimerDestroy%780
                0x00024f18       0x3c
 .text.SYS_TIME_TimerDestroy
                0x00024f18       0x3c build/default/production/_ext/101884895/sys_time.o
                0x00024f18                SYS_TIME_TimerDestroy

.text.wc_InitMd5_ex%781
                0x00024f54       0x3c
 .text.wc_InitMd5_ex
                0x00024f54       0x3c build/default/production/_ext/1664057780/md5.o
                0x00024f54                wc_InitMd5_ex

.text._DRV_ETHPHY_SetupPhaseNegotiate_SubPhase1%782
                0x00024f90       0x3a
 .text._DRV_ETHPHY_SetupPhaseNegotiate_SubPhase1
                0x00024f90       0x3a build/default/production/_ext/444070925/drv_ethphy.o

.text._DRV_ETHPHY_NegRestartPhaseRead%783
                0x00024fca       0x3a
 .text._DRV_ETHPHY_NegRestartPhaseRead
                0x00024fca       0x3a build/default/production/_ext/444070925/drv_ethphy.o

.text._DRV_MIIM_ReleaseOpDcpt%784
                0x00025004       0x3a
 .text._DRV_MIIM_ReleaseOpDcpt
                0x00025004       0x3a build/default/production/_ext/438849557/drv_miim.o

.text.DRV_MIIM_Deinitialize%785
                0x0002503e       0x3a
 .text.DRV_MIIM_Deinitialize
                0x0002503e       0x3a build/default/production/_ext/438849557/drv_miim.o
                0x0002503e                DRV_MIIM_Deinitialize

.text.Shell_FileOpen%786
                0x00025078       0x3a
 .text.Shell_FileOpen
                0x00025078       0x3a build/default/production/_ext/1751889202/sys_fs_shell.o

.text.Shell_FileStat%787
                0x000250b2       0x3a
 .text.Shell_FileStat
                0x000250b2       0x3a build/default/production/_ext/1751889202/sys_fs_shell.o

.text.TCPIP_TCP_SignalHandlerDeregister%788
                0x000250ec       0x3a
 .text.TCPIP_TCP_SignalHandlerDeregister
                0x000250ec       0x3a build/default/production/_ext/1033058136/tcp.o
                0x000250ec                TCPIP_TCP_SignalHandlerDeregister

.text._TCPIP_HEAP_MaxSize%789
                0x00025126       0x3a
 .text._TCPIP_HEAP_MaxSize
                0x00025126       0x3a build/default/production/_ext/1033058136/tcpip_heap_internal.o

.text._DHCPOptionProcessMsgType%790
                0x00025160       0x3a
 .text._DHCPOptionProcessMsgType
                0x00025160       0x3a build/default/production/_ext/1033058136/dhcp.o

.text.TCPIP_STACK_NetAliasNameGet%791
                0x0002519a       0x3a
 .text.TCPIP_STACK_NetAliasNameGet
                0x0002519a       0x3a build/default/production/_ext/1033058136/tcpip_manager.o
                0x0002519a                TCPIP_STACK_NetAliasNameGet

.text.SNMPGetTimeStamp%792
                0x000251d4       0x3a
 .text.SNMPGetTimeStamp
                0x000251d4       0x3a build/default/production/_ext/1360937237/custom_snmp_app.o

.text.TCPIP_HTTP_Print_read_comm%793
                0x0002520e       0x3a
 .text.TCPIP_HTTP_Print_read_comm
                0x0002520e       0x3a build/default/production/_ext/1360937237/custom_http_app.o
                0x0002520e                TCPIP_HTTP_Print_read_comm

.text.TCPIP_HTTP_Print_write_comm%794
                0x00025248       0x3a
 .text.TCPIP_HTTP_Print_write_comm
                0x00025248       0x3a build/default/production/_ext/1360937237/custom_http_app.o
                0x00025248                TCPIP_HTTP_Print_write_comm

.text.DRV_ETHPHY_HWConfigFlagsGet%795
                0x00025284       0x38
 .text.DRV_ETHPHY_HWConfigFlagsGet
                0x00025284       0x38 build/default/production/_ext/444070925/drv_ethphy.o
                0x00025284                DRV_ETHPHY_HWConfigFlagsGet

.text._DRV_ETHPHY_SetupPhaseNegotiate_SubPhase6%796
                0x000252bc       0x38
 .text._DRV_ETHPHY_SetupPhaseNegotiate_SubPhase6
                0x000252bc       0x38 build/default/production/_ext/444070925/drv_ethphy.o

.text.DRV_GMAC_Open%797
                0x000252f4       0x38
 .text.DRV_GMAC_Open
                0x000252f4       0x38 build/default/production/_ext/1546807373/drv_gmac.o
                0x000252f4                DRV_GMAC_Open

.text.DRV_PIC32CGMAC_LibGetMacAddr%798
                0x0002532c       0x38
 .text.DRV_PIC32CGMAC_LibGetMacAddr
                0x0002532c       0x38 build/default/production/_ext/1546807373/drv_gmac_lib_samE5x.o
                0x0002532c                DRV_PIC32CGMAC_LibGetMacAddr

.text.DRV_MEMORY_GeometryGet%799
                0x00025364       0x38
 .text.DRV_MEMORY_GeometryGet
                0x00025364       0x38 build/default/production/_ext/992804092/drv_memory.o
                0x00025364                DRV_MEMORY_GeometryGet

.text.DRV_MEMORY_AddressGet%800
                0x0002539c       0x38
 .text.DRV_MEMORY_AddressGet
                0x0002539c       0x38 build/default/production/_ext/992804092/drv_memory.o
                0x0002539c                DRV_MEMORY_AddressGet

.text.TCPIP_SNMP_StructureIsValid%801
                0x000253d4       0x38
 .text.TCPIP_SNMP_StructureIsValid
                0x000253d4       0x38 build/default/production/_ext/1033058136/snmp.o
                0x000253d4                TCPIP_SNMP_StructureIsValid

.text.TCPIP_SNMP_PDUProcessDuplexInit%802
                0x0002540c       0x38
 .text.TCPIP_SNMP_PDUProcessDuplexInit
                0x0002540c       0x38 build/default/production/_ext/1033058136/snmp.o
                0x0002540c                TCPIP_SNMP_PDUProcessDuplexInit

.text._TCP_EphemeralPortAllocate%803
                0x00025444       0x38
 .text._TCP_EphemeralPortAllocate
                0x00025444       0x38 build/default/production/_ext/1033058136/tcp.o

.text.TCPIP_Commands_Deinitialize%804
                0x0002547c       0x38
 .text.TCPIP_Commands_Deinitialize
                0x0002547c       0x38 build/default/production/_ext/1033058136/tcpip_commands.o
                0x0002547c                TCPIP_Commands_Deinitialize

.rodata.httpContentTypes%805
                0x000254b4       0x38
 .rodata.httpContentTypes
                0x000254b4       0x38 build/default/production/_ext/1033058136/http.o

.rodata.httpFileExtensions%806
                0x000254ec       0x38
 .rodata.httpFileExtensions
                0x000254ec       0x38 build/default/production/_ext/1033058136/http.o

.text.TCPIP_DNS_ClientInfoGet%807
                0x00025524       0x38
 .text.TCPIP_DNS_ClientInfoGet
                0x00025524       0x38 build/default/production/_ext/1033058136/dns.o
                0x00025524                TCPIP_DNS_ClientInfoGet

.text.TCPIP_PKT_PacketMACFormat%808
                0x0002555c       0x38
 .text.TCPIP_PKT_PacketMACFormat
                0x0002555c       0x38 build/default/production/_ext/1033058136/tcpip_packet.o
                0x0002555c                TCPIP_PKT_PacketMACFormat

.text._UDPAllocateEphemeralPort%809
                0x00025594       0x38
 .text._UDPAllocateEphemeralPort
                0x00025594       0x38 build/default/production/_ext/1033058136/udp.o

.text.MPFS_EOF%810
                0x000255cc       0x38
 .text.MPFS_EOF
                0x000255cc       0x38 build/default/production/_ext/699575981/mpfs.o
                0x000255cc                MPFS_EOF

.text.SYS_TIME_ResourceLock%811
                0x00025604       0x38
 .text.SYS_TIME_ResourceLock
                0x00025604       0x38 build/default/production/_ext/101884895/sys_time.o

.rodata.TCPIP_HOSTS_CONFIGURATION%812
                0x0002563c       0x38
 .rodata.TCPIP_HOSTS_CONFIGURATION
                0x0002563c       0x38 build/default/production/_ext/1171490990/initialization.o
                0x0002563c                TCPIP_HOSTS_CONFIGURATION

.text._DRV_ETHPHY_NegCompletePhaseRead1%813
                0x00025674       0x36
 .text._DRV_ETHPHY_NegCompletePhaseRead1
                0x00025674       0x36 build/default/production/_ext/444070925/drv_ethphy.o

.text.Shell_FileDelete%814
                0x000256aa       0x36
 .text.Shell_FileDelete
                0x000256aa       0x36 build/default/production/_ext/1751889202/sys_fs_shell.o

.text.Shell_DirMake%815
                0x000256e0       0x36
 .text.Shell_DirMake
                0x000256e0       0x36 build/default/production/_ext/1751889202/sys_fs_shell.o

.text.Shell_DirOpen%816
                0x00025716       0x36
 .text.Shell_DirOpen
                0x00025716       0x36 build/default/production/_ext/1751889202/sys_fs_shell.o

.text._TCPSetSourceAddress%817
                0x0002574c       0x36
 .text._TCPSetSourceAddress
                0x0002574c       0x36 build/default/production/_ext/1033058136/tcp.o

.text._DNS_NetIsValid%818
                0x00025782       0x36
 .text._DNS_NetIsValid
                0x00025782       0x36 build/default/production/_ext/1033058136/dns.o

.text._TCPIPStackSetConfigAddress%819
                0x000257b8       0x36
 .text._TCPIPStackSetConfigAddress
                0x000257b8       0x36 build/default/production/_ext/1033058136/tcpip_manager.o
                0x000257b8                _TCPIPStackSetConfigAddress

.text._DRV_ETHPHY_SetupPhaseNegotiate_SubPhase2%820
                0x000257f0       0x34
 .text._DRV_ETHPHY_SetupPhaseNegotiate_SubPhase2
                0x000257f0       0x34 build/default/production/_ext/444070925/drv_ethphy.o

.text.DRV_PIC32CGMAC_LibClearPriorityQue%821
                0x00025824       0x34
 .text.DRV_PIC32CGMAC_LibClearPriorityQue
                0x00025824       0x34 build/default/production/_ext/1546807373/drv_gmac_lib_samE5x.o
                0x00025824                DRV_PIC32CGMAC_LibClearPriorityQue

.text._SNMP_BuildIntegerValue%822
                0x00025858       0x34
 .text._SNMP_BuildIntegerValue
                0x00025858       0x34 build/default/production/_ext/1033058136/snmp.o
                0x00025858                _SNMP_BuildIntegerValue

.text._TCP_SktFlagsGet%823
                0x0002588c       0x34
 .text._TCP_SktFlagsGet
                0x0002588c       0x34 build/default/production/_ext/1033058136/tcp.o

.text._ARPSetEntry%824
                0x000258c0       0x34
 .text._ARPSetEntry
                0x000258c0       0x34 build/default/production/_ext/1033058136/arp.o

.text.TCPIP_ARP_HandlerRegister%825
                0x000258f4       0x34
 .text.TCPIP_ARP_HandlerRegister
                0x000258f4       0x34 build/default/production/_ext/1033058136/arp.o
                0x000258f4                TCPIP_ARP_HandlerRegister

.text.TCPIP_HTTP_Deinitialize%826
                0x00025928       0x34
 .text.TCPIP_HTTP_Deinitialize
                0x00025928       0x34 build/default/production/_ext/1033058136/http.o
                0x00025928                TCPIP_HTTP_Deinitialize

.rodata%827     0x0002595c       0x34
 .rodata        0x0002595c       0x34 build/default/production/_ext/1033058136/dhcp.o

.text._DNSGetData%828
                0x00025990       0x34
 .text._DNSGetData
                0x00025990       0x34 build/default/production/_ext/1033058136/dns.o

.text.TCPIP_STACK_NetDown%829
                0x000259c4       0x34
 .text.TCPIP_STACK_NetDown
                0x000259c4       0x34 build/default/production/_ext/1033058136/tcpip_manager.o
                0x000259c4                TCPIP_STACK_NetDown

.text.TCPIP_UDP_RxOffsetSet%830
                0x000259f8       0x34
 .text.TCPIP_UDP_RxOffsetSet
                0x000259f8       0x34 build/default/production/_ext/1033058136/udp.o
                0x000259f8                TCPIP_UDP_RxOffsetSet

.text.CommandQuit%831
                0x00025a2c       0x34
 .text.CommandQuit
                0x00025a2c       0x34 build/default/production/_ext/1376093119/sys_command.o

.text.Console_UART_WriteCountGet%832
                0x00025a60       0x34
 .text.Console_UART_WriteCountGet
                0x00025a60       0x34 build/default/production/_ext/1832805299/sys_console_uart.o
                0x00025a60                Console_UART_WriteCountGet

.text.Console_UART_WriteFreeBufferCountGet%833
                0x00025a94       0x34
 .text.Console_UART_WriteFreeBufferCountGet
                0x00025a94       0x34 build/default/production/_ext/1832805299/sys_console_uart.o
                0x00025a94                Console_UART_WriteFreeBufferCountGet

.text.Console_UART_ReadFreeBufferCountGet%834
                0x00025ac8       0x34
 .text.Console_UART_ReadFreeBufferCountGet
                0x00025ac8       0x34 build/default/production/_ext/1832805299/sys_console_uart.o
                0x00025ac8                Console_UART_ReadFreeBufferCountGet

.text.Console_UART_ReadCountGet%835
                0x00025afc       0x34
 .text.Console_UART_ReadCountGet
                0x00025afc       0x34 build/default/production/_ext/1832805299/sys_console_uart.o
                0x00025afc                Console_UART_ReadCountGet

.text.SYS_CONSOLE_Read%836
                0x00025b30       0x34
 .text.SYS_CONSOLE_Read
                0x00025b30       0x34 build/default/production/_ext/1832805299/sys_console.o
                0x00025b30                SYS_CONSOLE_Read

.text.SYS_CONSOLE_ReadCountGet%837
                0x00025b64       0x34
 .text.SYS_CONSOLE_ReadCountGet
                0x00025b64       0x34 build/default/production/_ext/1832805299/sys_console.o
                0x00025b64                SYS_CONSOLE_ReadCountGet

.text.SYS_CONSOLE_Write%838
                0x00025b98       0x34
 .text.SYS_CONSOLE_Write
                0x00025b98       0x34 build/default/production/_ext/1832805299/sys_console.o
                0x00025b98                SYS_CONSOLE_Write

.text.MPFS_Close%839
                0x00025bcc       0x34
 .text.MPFS_Close
                0x00025bcc       0x34 build/default/production/_ext/699575981/mpfs.o
                0x00025bcc                MPFS_Close

.text.SYS_FS_MEDIA_MANAGER_VolumePropertyGet%840
                0x00025c00       0x34
 .text.SYS_FS_MEDIA_MANAGER_VolumePropertyGet
                0x00025c00       0x34 build/default/production/_ext/1269487135/sys_fs_media_manager.o
                0x00025c00                SYS_FS_MEDIA_MANAGER_VolumePropertyGet

.rodata.tcpipMACPIC32CINTInitData%841
                0x00025c34       0x34
 .rodata.tcpipMACPIC32CINTInitData
                0x00025c34       0x34 build/default/production/_ext/1171490990/initialization.o
                0x00025c34                tcpipMACPIC32CINTInitData

.text.vListInsert%842
                0x00025c68       0x34
 .text.vListInsert
                0x00025c68       0x34 build/default/production/_ext/404212886/list.o
                0x00025c68                vListInsert

.text.vTaskDelay%843
                0x00025c9c       0x34
 .text.vTaskDelay
                0x00025c9c       0x34 build/default/production/_ext/404212886/FreeRTOS_tasks.o
                0x00025c9c                vTaskDelay

.text.Hash_DRBG_Uninstantiate%844
                0x00025cd0       0x34
 .text.Hash_DRBG_Uninstantiate
                0x00025cd0       0x34 build/default/production/_ext/1664057780/random.o

.text.TCPIP_HTTP_Print_hellomsg%845
                0x00025d04       0x34
 .text.TCPIP_HTTP_Print_hellomsg
                0x00025d04       0x34 build/default/production/_ext/1360937237/custom_http_app.o
                0x00025d04                TCPIP_HTTP_Print_hellomsg

.text.TCPIP_HTTP_Print_builddate%846
                0x00025d38       0x34
 .text.TCPIP_HTTP_Print_builddate
                0x00025d38       0x34 build/default/production/_ext/1360937237/custom_http_app.o
                0x00025d38                TCPIP_HTTP_Print_builddate

.text.TCPIP_HTTP_Print_cookiename%847
                0x00025d6c       0x34
 .text.TCPIP_HTTP_Print_cookiename
                0x00025d6c       0x34 build/default/production/_ext/1360937237/custom_http_app.o
                0x00025d6c                TCPIP_HTTP_Print_cookiename

.text.TCPIP_HTTP_Print_cookiefav%848
                0x00025da0       0x34
 .text.TCPIP_HTTP_Print_cookiefav
                0x00025da0       0x34 build/default/production/_ext/1360937237/custom_http_app.o
                0x00025da0                TCPIP_HTTP_Print_cookiefav

.text.TCPIP_HTTP_Print_config_ip%849
                0x00025dd4       0x34
 .text.TCPIP_HTTP_Print_config_ip
                0x00025dd4       0x34 build/default/production/_ext/1360937237/custom_http_app.o
                0x00025dd4                TCPIP_HTTP_Print_config_ip

.text.TCPIP_HTTP_Print_config_gw%850
                0x00025e08       0x34
 .text.TCPIP_HTTP_Print_config_gw
                0x00025e08       0x34 build/default/production/_ext/1360937237/custom_http_app.o
                0x00025e08                TCPIP_HTTP_Print_config_gw

.text.TCPIP_HTTP_Print_config_subnet%851
                0x00025e3c       0x34
 .text.TCPIP_HTTP_Print_config_subnet
                0x00025e3c       0x34 build/default/production/_ext/1360937237/custom_http_app.o
                0x00025e3c                TCPIP_HTTP_Print_config_subnet

.text.TCPIP_HTTP_Print_config_dns1%852
                0x00025e70       0x34
 .text.TCPIP_HTTP_Print_config_dns1
                0x00025e70       0x34 build/default/production/_ext/1360937237/custom_http_app.o
                0x00025e70                TCPIP_HTTP_Print_config_dns1

.text.TCPIP_HTTP_Print_config_dns2%853
                0x00025ea4       0x34
 .text.TCPIP_HTTP_Print_config_dns2
                0x00025ea4       0x34 build/default/production/_ext/1360937237/custom_http_app.o
                0x00025ea4                TCPIP_HTTP_Print_config_dns2

.text.TCPIP_HTTP_Print_ddns_status_msg%854
                0x00025ed8       0x34
 .text.TCPIP_HTTP_Print_ddns_status_msg
                0x00025ed8       0x34 build/default/production/_ext/1360937237/custom_http_app.o
                0x00025ed8                TCPIP_HTTP_Print_ddns_status_msg

.text.memmove%855
                0x00025f0c       0x34
 .text.memmove  0x00025f0c       0x34 c:/program files/microchip/xc32/v3.01/bin/bin/../../lib/gcc/pic32c/8.3.1/../../../../pic32c/lib/thumb/v7e-m+fp/hard\libc_nano.a(lib_a-memmove.o)
                0x00025f0c                memmove

.text.__mcmp%856
                0x00025f40       0x34
 .text.__mcmp   0x00025f40       0x34 c:/program files/microchip/xc32/v3.01/bin/bin/../../lib/gcc/pic32c/8.3.1/../../../../pic32c/lib/thumb/v7e-m+fp/hard\libc_nano.a(lib_a-mprec.o)
                0x00025f40                __mcmp

.text._DRV_PHY_SMIReadStart%857
                0x00025f74       0x32
 .text._DRV_PHY_SMIReadStart
                0x00025f74       0x32 build/default/production/_ext/444070925/drv_ethphy.o

.text._DRV_PHY_SMIWriteStart%858
                0x00025fa6       0x32
 .text._DRV_PHY_SMIWriteStart
                0x00025fa6       0x32 build/default/production/_ext/444070925/drv_ethphy.o

.text._DRV_ETHPHY_SetupPhaseIdle%859
                0x00025fd8       0x32
 .text._DRV_ETHPHY_SetupPhaseIdle
                0x00025fd8       0x32 build/default/production/_ext/444070925/drv_ethphy.o

.text.DRV_PIC32CGMAC_LibTxAckPendPacket%860
                0x0002600a       0x32
 .text.DRV_PIC32CGMAC_LibTxAckPendPacket
                0x0002600a       0x32 build/default/production/_ext/1546807373/drv_gmac_lib_samE5x.o
                0x0002600a                DRV_PIC32CGMAC_LibTxAckPendPacket

.text.TCPIP_STACK_NetBiosNameSet%861
                0x0002603c       0x32
 .text.TCPIP_STACK_NetBiosNameSet
                0x0002603c       0x32 build/default/production/_ext/1033058136/tcpip_manager.o
                0x0002603c                TCPIP_STACK_NetBiosNameSet

.text._DRV_PHY_NegCompleteSetOperResult%862
                0x0002606e       0x30
 .text._DRV_PHY_NegCompleteSetOperResult
                0x0002606e       0x30 build/default/production/_ext/444070925/drv_ethphy.o

.text._DRV_ETHPHY_SetupPhaseNegotiate_SubPhase3%863
                0x000260a0       0x30
 .text._DRV_ETHPHY_SetupPhaseNegotiate_SubPhase3
                0x000260a0       0x30 build/default/production/_ext/444070925/drv_ethphy.o

.text.DRV_GMAC_Status%864
                0x000260d0       0x30
 .text.DRV_GMAC_Status
                0x000260d0       0x30 build/default/production/_ext/1546807373/drv_gmac.o
                0x000260d0                DRV_GMAC_Status

.text.DRV_PIC32CGMAC_LibSetMacAddr%865
                0x00026100       0x30
 .text.DRV_PIC32CGMAC_LibSetMacAddr
                0x00026100       0x30 build/default/production/_ext/1546807373/drv_gmac_lib_samE5x.o
                0x00026100                DRV_PIC32CGMAC_LibSetMacAddr

.text.GMAC_InterruptHandler%866
                0x00026130       0x30
 .text.GMAC_InterruptHandler
                0x00026130       0x30 build/default/production/_ext/1546807373/drv_gmac_lib_samE5x.o
                0x00026130                GMAC_InterruptHandler

.rodata.memoryMediaFunctions%867
                0x00026160       0x30
 .rodata.memoryMediaFunctions
                0x00026160       0x30 build/default/production/_ext/992804092/drv_memory_file_system.o
                0x00026160                memoryMediaFunctions

.text.TCPIP_ICMP_Cleanup%868
                0x00026190       0x30
 .text.TCPIP_ICMP_Cleanup
                0x00026190       0x30 build/default/production/_ext/1033058136/icmp.o

.text._TCPSocketTxFreeSize%869
                0x000261c0       0x30
 .text._TCPSocketTxFreeSize
                0x000261c0       0x30 build/default/production/_ext/1033058136/tcp.o

.text.TCPIP_ARP_HashEntryDelete%870
                0x000261f0       0x30
 .text.TCPIP_ARP_HashEntryDelete
                0x000261f0       0x30 build/default/production/_ext/1033058136/arp.o
                0x000261f0                TCPIP_ARP_HashEntryDelete

.rodata.iperfCmdTbl%871
                0x00026220       0x30
 .rodata.iperfCmdTbl
                0x00026220       0x30 build/default/production/_ext/1033058136/iperf.o

.text.TCPIP_IPV4_CheckPktTx%872
                0x00026250       0x30
 .text.TCPIP_IPV4_CheckPktTx
                0x00026250       0x30 build/default/production/_ext/1033058136/ipv4.o

.text.fnv_32_hash%873
                0x00026280       0x30
 .text.fnv_32_hash
                0x00026280       0x30 build/default/production/_ext/1033058136/hash_fnv.o
                0x00026280                fnv_32_hash

.text.TCPIP_OAHASH_EntriesRemoveAll%874
                0x000262b0       0x30
 .text.TCPIP_OAHASH_EntriesRemoveAll
                0x000262b0       0x30 build/default/production/_ext/1033058136/oahash.o
                0x000262b0                TCPIP_OAHASH_EntriesRemoveAll

.text.TCPIP_Helper_StringToPowerMode%875
                0x000262e0       0x30
 .text.TCPIP_Helper_StringToPowerMode
                0x000262e0       0x30 build/default/production/_ext/1033058136/tcpip_helpers.o
                0x000262e0                TCPIP_Helper_StringToPowerMode

.text.TCPIP_Helper_ProtectedSingleListDeinitialize%876
                0x00026310       0x30
 .text.TCPIP_Helper_ProtectedSingleListDeinitialize
                0x00026310       0x30 build/default/production/_ext/1033058136/tcpip_helpers.o
                0x00026310                TCPIP_Helper_ProtectedSingleListDeinitialize

.text.TCPIP_Helper_ProtectedSingleListNodeRemove%877
                0x00026340       0x30
 .text.TCPIP_Helper_ProtectedSingleListNodeRemove
                0x00026340       0x30 build/default/production/_ext/1033058136/tcpip_helpers.o
                0x00026340                TCPIP_Helper_ProtectedSingleListNodeRemove

.text.TCPIP_STACK_InitializeDataGet%878
                0x00026370       0x30
 .text.TCPIP_STACK_InitializeDataGet
                0x00026370       0x30 build/default/production/_ext/1033058136/tcpip_manager.o
                0x00026370                TCPIP_STACK_InitializeDataGet

.text.TCPIP_PKT_Initialize%879
                0x000263a0       0x30
 .text.TCPIP_PKT_Initialize
                0x000263a0       0x30 build/default/production/_ext/1033058136/tcpip_packet.o
                0x000263a0                TCPIP_PKT_Initialize

.text.TCPIP_UDP_Close%880
                0x000263d0       0x30
 .text.TCPIP_UDP_Close
                0x000263d0       0x30 build/default/production/_ext/1033058136/udp.o
                0x000263d0                TCPIP_UDP_Close

.text.SendCommandCharacter%881
                0x00026400       0x30
 .text.SendCommandCharacter
                0x00026400       0x30 build/default/production/_ext/1376093119/sys_command.o

.text._keyEndProcess%882
                0x00026430       0x30
 .text._keyEndProcess
                0x00026430       0x30 build/default/production/_ext/1376093119/sys_command.o

.text._keyHomeProcess%883
                0x00026460       0x30
 .text._keyHomeProcess
                0x00026460       0x30 build/default/production/_ext/1376093119/sys_command.o

.text.SYS_CONSOLE_Message%884
                0x00026490       0x30
 .text.SYS_CONSOLE_Message
                0x00026490       0x30 build/default/production/_ext/1832805299/sys_console.o
                0x00026490                SYS_CONSOLE_Message

.text.MPFS_Unmount%885
                0x000264c0       0x30
 .text.MPFS_Unmount
                0x000264c0       0x30 build/default/production/_ext/699575981/mpfs.o
                0x000264c0                MPFS_Unmount

.text.SYS_FS_MEDIA_MANAGER_EventHandler%886
                0x000264f0       0x30
 .text.SYS_FS_MEDIA_MANAGER_EventHandler
                0x000264f0       0x30 build/default/production/_ext/1269487135/sys_fs_media_manager.o
                0x000264f0                SYS_FS_MEDIA_MANAGER_EventHandler

.text.SYS_TIME_UpdateTimerList%887
                0x00026520       0x30
 .text.SYS_TIME_UpdateTimerList
                0x00026520       0x30 build/default/production/_ext/101884895/sys_time.o

.text.xQueueGenericCreate%888
                0x00026550       0x30
 .text.xQueueGenericCreate
                0x00026550       0x30 build/default/production/_ext/404212886/queue.o
                0x00026550                xQueueGenericCreate

.text.wc_CryptoCb_FindDevice%889
                0x00026580       0x30
 .text.wc_CryptoCb_FindDevice
                0x00026580       0x30 build/default/production/_ext/1664057780/cryptocb.o

.rodata.seedA_data%890
                0x000265b0       0x30
 .rodata.seedA_data
                0x000265b0       0x30 build/default/production/_ext/1664057780/random.o
                0x000265b0                seedA_data

.rodata.seedB_data%891
                0x000265e0       0x30
 .rodata.seedB_data
                0x000265e0       0x30 build/default/production/_ext/1664057780/random.o
                0x000265e0                seedB_data

.text.TCPIP_HTTP_Print_status_ok%892
                0x00026610       0x30
 .text.TCPIP_HTTP_Print_status_ok
                0x00026610       0x30 build/default/production/_ext/1360937237/custom_http_app.o
                0x00026610                TCPIP_HTTP_Print_status_ok

.text.TCPIP_HTTP_Print_status_fail%893
                0x00026640       0x30
 .text.TCPIP_HTTP_Print_status_fail
                0x00026640       0x30 build/default/production/_ext/1360937237/custom_http_app.o
                0x00026640                TCPIP_HTTP_Print_status_fail

.text%894       0x00026670       0x30
 .text          0x00026670       0x30 c:/program files/microchip/xc32/v3.01/bin/bin/../../lib/gcc/pic32c/8.3.1/thumb/v7e-m+fp/hard\libgcc.a(_aeabi_uldivmod.o)
                0x00026670                __aeabi_uldivmod

.text._XtlEventsTcp2Eth%895
                0x000266a0       0x2e
 .text._XtlEventsTcp2Eth
                0x000266a0       0x2e build/default/production/_ext/1546807373/drv_gmac.o

.text._DRV_MIIM_GetObjectAndLock%896
                0x000266ce       0x2e
 .text._DRV_MIIM_GetObjectAndLock
                0x000266ce       0x2e build/default/production/_ext/438849557/drv_miim.o

.text.DRV_MIIM_DeregisterCallback%897
                0x000266fc       0x2e
 .text.DRV_MIIM_DeregisterCallback
                0x000266fc       0x2e build/default/production/_ext/438849557/drv_miim.o
                0x000266fc                DRV_MIIM_DeregisterCallback

.text.TCPIP_TCP_Connect%898
                0x0002672a       0x2e
 .text.TCPIP_TCP_Connect
                0x0002672a       0x2e build/default/production/_ext/1033058136/tcp.o
                0x0002672a                TCPIP_TCP_Connect

.text._DHCPOptionProcessLease%899
                0x00026758       0x2e
 .text._DHCPOptionProcessLease
                0x00026758       0x2e build/default/production/_ext/1033058136/dhcp.o

.text._DHCPOptionProcessRenewT%900
                0x00026786       0x2e
 .text._DHCPOptionProcessRenewT
                0x00026786       0x2e build/default/production/_ext/1033058136/dhcp.o

.text._DHCPOptionProcessRebindT%901
                0x000267b4       0x2e
 .text._DHCPOptionProcessRebindT
                0x000267b4       0x2e build/default/production/_ext/1033058136/dhcp.o

.text._DHCPOptionClientId%902
                0x000267e2       0x2e
 .text._DHCPOptionClientId
                0x000267e2       0x2e build/default/production/_ext/1033058136/dhcp.o

.text._DHCPSetTimeout%903
                0x00026810       0x2e
 .text._DHCPSetTimeout
                0x00026810       0x2e build/default/production/_ext/1033058136/dhcp.o

.text._DNS_CleanCacheEntry%904
                0x0002683e       0x2e
 .text._DNS_CleanCacheEntry
                0x0002683e       0x2e build/default/production/_ext/1033058136/dns.o

.text._DNSClientCleanup%905
                0x0002686c       0x2e
 .text._DNSClientCleanup
                0x0002686c       0x2e build/default/production/_ext/1033058136/dns.o

.text.TCPIP_STACK_DNSServiceCanStart%906
                0x0002689a       0x2e
 .text.TCPIP_STACK_DNSServiceCanStart
                0x0002689a       0x2e build/default/production/_ext/1033058136/tcpip_manager.o
                0x0002689a                TCPIP_STACK_DNSServiceCanStart

.text._TxSktGetLockedV4Pkt%907
                0x000268c8       0x2e
 .text._TxSktGetLockedV4Pkt
                0x000268c8       0x2e build/default/production/_ext/1033058136/udp.o

.text.wc_CryptoCb_RegisterDevice%908
                0x000268f6       0x2e
 .text.wc_CryptoCb_RegisterDevice
                0x000268f6       0x2e build/default/production/_ext/1664057780/cryptocb.o
                0x000268f6                wc_CryptoCb_RegisterDevice

.text.strstr%909
                0x00026924       0x2e
 .text.strstr   0x00026924       0x2e c:/program files/microchip/xc32/v3.01/bin/bin/../../lib/gcc/pic32c/8.3.1/../../../../pic32c/lib/thumb/v7e-m+fp/hard\libc_nano.a(lib_a-strstr.o)
                0x00026924                strstr

.text._Bfree%910
                0x00026952       0x2e
 .text._Bfree   0x00026952       0x2e c:/program files/microchip/xc32/v3.01/bin/bin/../../lib/gcc/pic32c/8.3.1/../../../../pic32c/lib/thumb/v7e-m+fp/hard\libc_nano.a(lib_a-mprec.o)
                0x00026952                _Bfree

.text.DRV_ETHPHY_Close%911
                0x00026980       0x2c
 .text.DRV_ETHPHY_Close
                0x00026980       0x2c build/default/production/_ext/444070925/drv_ethphy.o
                0x00026980                DRV_ETHPHY_Close

.text.DRV_ETHPHY_VendorDataGet%912
                0x000269ac       0x2c
 .text.DRV_ETHPHY_VendorDataGet
                0x000269ac       0x2c build/default/production/_ext/444070925/drv_ethphy.o
                0x000269ac                DRV_ETHPHY_VendorDataGet

.text.DRV_ETHPHY_Reinitialize%913
                0x000269d8       0x2c
 .text.DRV_ETHPHY_Reinitialize
                0x000269d8       0x2c build/default/production/_ext/444070925/drv_ethphy.o
                0x000269d8                DRV_ETHPHY_Reinitialize

.text._DRV_ETHPHY_LinkStatPhaseRefresh%914
                0x00026a04       0x2c
 .text._DRV_ETHPHY_LinkStatPhaseRefresh
                0x00026a04       0x2c build/default/production/_ext/444070925/drv_ethphy.o

.text.DRV_MEMORY_TransferHandlerSet%915
                0x00026a30       0x2c
 .text.DRV_MEMORY_TransferHandlerSet
                0x00026a30       0x2c build/default/production/_ext/992804092/drv_memory.o
                0x00026a30                DRV_MEMORY_TransferHandlerSet

.text.DRV_MEMORY_IsAttached%916
                0x00026a5c       0x2c
 .text.DRV_MEMORY_IsAttached
                0x00026a5c       0x2c build/default/production/_ext/992804092/drv_memory.o
                0x00026a5c                DRV_MEMORY_IsAttached

.text._ARPRemoveEntry%917
                0x00026a88       0x2c
 .text._ARPRemoveEntry
                0x00026a88       0x2c build/default/production/_ext/1033058136/arp.o

.text.TCPIP_Helper_ProtectedSingleListHeadRemove%918
                0x00026ab4       0x2c
 .text.TCPIP_Helper_ProtectedSingleListHeadRemove
                0x00026ab4       0x2c build/default/production/_ext/1033058136/tcpip_helpers.o
                0x00026ab4                TCPIP_Helper_ProtectedSingleListHeadRemove

.text.TCPIP_STACK_IsBcastAddress%919
                0x00026ae0       0x2c
 .text.TCPIP_STACK_IsBcastAddress
                0x00026ae0       0x2c build/default/production/_ext/1033058136/tcpip_manager.o
                0x00026ae0                TCPIP_STACK_IsBcastAddress

.text._TCPIPStackModuleRxExtract%920
                0x00026b0c       0x2c
 .text._TCPIPStackModuleRxExtract
                0x00026b0c       0x2c build/default/production/_ext/1033058136/tcpip_manager.o
                0x00026b0c                _TCPIPStackModuleRxExtract

.text._TCPIP_PKT_SocketAlloc%921
                0x00026b38       0x2c
 .text._TCPIP_PKT_SocketAlloc
                0x00026b38       0x2c build/default/production/_ext/1033058136/tcpip_packet.o
                0x00026b38                _TCPIP_PKT_SocketAlloc

.text._UDPFreeTxResources%922
                0x00026b64       0x2c
 .text._UDPFreeTxResources
                0x00026b64       0x2c build/default/production/_ext/1033058136/udp.o

.text.TC0_TimerInterruptHandler%923
                0x00026b90       0x2c
 .text.TC0_TimerInterruptHandler
                0x00026b90       0x2c build/default/production/_ext/829342655/plib_tc0.o
                0x00026b90                TC0_TimerInterruptHandler

.rodata.sysConsoleUARTDevDesc%924
                0x00026bbc       0x2c
 .rodata.sysConsoleUARTDevDesc
                0x00026bbc       0x2c build/default/production/_ext/1832805299/sys_console_uart.o
                0x00026bbc                sysConsoleUARTDevDesc

.text.MPFS_GetPosition%925
                0x00026be8       0x2c
 .text.MPFS_GetPosition
                0x00026be8       0x2c build/default/production/_ext/699575981/mpfs.o
                0x00026be8                MPFS_GetPosition

.text.SYS_TIME_Counter64Get%926
                0x00026c14       0x2c
 .text.SYS_TIME_Counter64Get
                0x00026c14       0x2c build/default/production/_ext/101884895/sys_time.o
                0x00026c14                SYS_TIME_Counter64Get

.text.TCPIP_STACK_Init%927
                0x00026c40       0x2c
 .text.TCPIP_STACK_Init
                0x00026c40       0x2c build/default/production/_ext/1171490990/initialization.o
                0x00026c40                TCPIP_STACK_Init

.text.pxPortInitialiseStack%928
                0x00026c6c       0x2c
 .text.pxPortInitialiseStack
                0x00026c6c       0x2c build/default/production/_ext/246609638/port.o
                0x00026c6c                pxPortInitialiseStack

.text.xPortSysTickHandler%929
                0x00026c98       0x2c
 .text.xPortSysTickHandler
                0x00026c98       0x2c build/default/production/_ext/246609638/port.o
                0x00026c98                xPortSysTickHandler

.text.prvResetNextTaskUnblockTime%930
                0x00026cc4       0x2c
 .text.prvResetNextTaskUnblockTime
                0x00026cc4       0x2c build/default/production/_ext/404212886/FreeRTOS_tasks.o

.text.wc_RNG_HealthTest%931
                0x00026cf0       0x2c
 .text.wc_RNG_HealthTest
                0x00026cf0       0x2c build/default/production/_ext/1664057780/random.o
                0x00026cf0                wc_RNG_HealthTest

.text._sbrk%932
                0x00026d1c       0x2c
 .text._sbrk    0x00026d1c       0x2c c:/program files/microchip/xc32/v3.01/bin/bin/../../lib/gcc/pic32c/8.3.1/../../../../pic32c/lib/thumb/v7e-m+fp/hard\libpic32c.a(sbrk.o)
                0x00026d1c                _sbrk

.text%933       0x00026d48       0x2c
 .text          0x00026d48       0x2c c:/program files/microchip/xc32/v3.01/bin/bin/../../lib/gcc/pic32c/8.3.1/thumb/v7e-m+fp/hard\libgcc.a(_arm_unorddf2.o)
                0x00026d48                __unorddf2
                0x00026d48                __aeabi_dcmpun

.text._DRV_GMAC_LinkStateStartLink%934
                0x00026d74       0x2a
 .text._DRV_GMAC_LinkStateStartLink
                0x00026d74       0x2a build/default/production/_ext/1546807373/drv_gmac.o

.text.DRV_NVMCTRL_GeometryGet%935
                0x00026d9e       0x2a
 .text.DRV_NVMCTRL_GeometryGet
                0x00026d9e       0x2a build/default/production/_ext/992804092/drv_memory_nvmctrl.o
                0x00026d9e                DRV_NVMCTRL_GeometryGet

.text.TCPIP_TCP_WasReset%936
                0x00026dc8       0x2a
 .text.TCPIP_TCP_WasReset
                0x00026dc8       0x2a build/default/production/_ext/1033058136/tcp.o
                0x00026dc8                TCPIP_TCP_WasReset

.text.TCPIP_DNS_OAHASH_KeyCopy%937
                0x00026df2       0x2a
 .text.TCPIP_DNS_OAHASH_KeyCopy
                0x00026df2       0x2a build/default/production/_ext/1033058136/dns.o

.text.TCPIP_Helper_ProtectedSingleListTailAdd%938
                0x00026e1c       0x2a
 .text.TCPIP_Helper_ProtectedSingleListTailAdd
                0x00026e1c       0x2a build/default/production/_ext/1033058136/tcpip_helpers.o
                0x00026e1c                TCPIP_Helper_ProtectedSingleListTailAdd

.text.TCPIP_Helper_ProtectedSingleListRemoveAll%939
                0x00026e46       0x2a
 .text.TCPIP_Helper_ProtectedSingleListRemoveAll
                0x00026e46       0x2a build/default/production/_ext/1033058136/tcpip_helpers.o
                0x00026e46                TCPIP_Helper_ProtectedSingleListRemoveAll

.text.TCPIP_Notification_Add%940
                0x00026e70       0x2a
 .text.TCPIP_Notification_Add
                0x00026e70       0x2a build/default/production/_ext/1033058136/tcpip_notify.o
                0x00026e70                TCPIP_Notification_Add

.text.DRV_ETHPHY_Tasks%941
                0x00026e9c       0x28
 .text.DRV_ETHPHY_Tasks
                0x00026e9c       0x28 build/default/production/_ext/444070925/drv_ethphy.o
                0x00026e9c                DRV_ETHPHY_Tasks

.text.DRV_ETHPHY_PhyAddressGet%942
                0x00026ec4       0x28
 .text.DRV_ETHPHY_PhyAddressGet
                0x00026ec4       0x28 build/default/production/_ext/444070925/drv_ethphy.o
                0x00026ec4                DRV_ETHPHY_PhyAddressGet

.text._DRV_PHY_SetOperDoneResult%943
                0x00026eec       0x28
 .text._DRV_PHY_SetOperDoneResult
                0x00026eec       0x28 build/default/production/_ext/444070925/drv_ethphy.o

.text.DRV_ETHPHY_ClientOperationAbort%944
                0x00026f14       0x28
 .text.DRV_ETHPHY_ClientOperationAbort
                0x00026f14       0x28 build/default/production/_ext/444070925/drv_ethphy.o
                0x00026f14                DRV_ETHPHY_ClientOperationAbort

.text.DRV_PIC32CGMAC_LibSysIntStatus_Clear%945
                0x00026f3c       0x28
 .text.DRV_PIC32CGMAC_LibSysIntStatus_Clear
                0x00026f3c       0x28 build/default/production/_ext/1546807373/drv_gmac_lib_samE5x.o
                0x00026f3c                DRV_PIC32CGMAC_LibSysIntStatus_Clear

.text.DRV_PIC32CGMAC_LibSysInt_Enable%946
                0x00026f64       0x28
 .text.DRV_PIC32CGMAC_LibSysInt_Enable
                0x00026f64       0x28 build/default/production/_ext/1546807373/drv_gmac_lib_samE5x.o
                0x00026f64                DRV_PIC32CGMAC_LibSysInt_Enable

.text.DRV_MIIM_Status%947
                0x00026f8c       0x28
 .text.DRV_MIIM_Status
                0x00026f8c       0x28 build/default/production/_ext/438849557/drv_miim.o
                0x00026f8c                DRV_MIIM_Status

.text.TCPIP_ICMP_Deinitialize%948
                0x00026fb4       0x28
 .text.TCPIP_ICMP_Deinitialize
                0x00026fb4       0x28 build/default/production/_ext/1033058136/icmp.o
                0x00026fb4                TCPIP_ICMP_Deinitialize

.text._TcpSocketChk%949
                0x00026fdc       0x28
 .text._TcpSocketChk
                0x00026fdc       0x28 build/default/production/_ext/1033058136/tcp.o

.text._TcpFlush%950
                0x00027004       0x28
 .text._TcpFlush
                0x00027004       0x28 build/default/production/_ext/1033058136/tcp.o

.text._ARPRemoveCacheEntries%951
                0x0002702c       0x28
 .text._ARPRemoveCacheEntries
                0x0002702c       0x28 build/default/production/_ext/1033058136/arp.o

.text.Ipv4DeRegisterFilter%952
                0x00027054       0x28
 .text.Ipv4DeRegisterFilter
                0x00027054       0x28 build/default/production/_ext/1033058136/ipv4.o
                0x00027054                Ipv4DeRegisterFilter

.text._DHCPOptionWriteParamRequest%953
                0x0002707c       0x28
 .text._DHCPOptionWriteParamRequest
                0x0002707c       0x28 build/default/production/_ext/1033058136/dhcp.o

.text.TCPIP_DHCP_IsActive%954
                0x000270a4       0x28
 .text.TCPIP_DHCP_IsActive
                0x000270a4       0x28 build/default/production/_ext/1033058136/dhcp.o
                0x000270a4                TCPIP_DHCP_IsActive

.text._TCPIP_STACK_TickHandler%955
                0x000270cc       0x28
 .text._TCPIP_STACK_TickHandler
                0x000270cc       0x28 build/default/production/_ext/1033058136/tcpip_manager.o

.text._TCPIPSignalEntrySetNotify%956
                0x000270f4       0x28
 .text._TCPIPSignalEntrySetNotify
                0x000270f4       0x28 build/default/production/_ext/1033058136/tcpip_manager.o

.text.TCPIP_STACK_IndexToNet%957
                0x0002711c       0x28
 .text.TCPIP_STACK_IndexToNet
                0x0002711c       0x28 build/default/production/_ext/1033058136/tcpip_manager.o
                0x0002711c                TCPIP_STACK_IndexToNet

.text.TCPIP_STACK_NetMACStatisticsGet%958
                0x00027144       0x28
 .text.TCPIP_STACK_NetMACStatisticsGet
                0x00027144       0x28 build/default/production/_ext/1033058136/tcpip_manager.o
                0x00027144                TCPIP_STACK_NetMACStatisticsGet

.text.TCPIP_STACK_NetMACRegisterStatisticsGet%959
                0x0002716c       0x28
 .text.TCPIP_STACK_NetMACRegisterStatisticsGet
                0x0002716c       0x28 build/default/production/_ext/1033058136/tcpip_manager.o
                0x0002716c                TCPIP_STACK_NetMACRegisterStatisticsGet

.text.TCPIP_STACK_NetIsBcastAddress%960
                0x00027194       0x28
 .text.TCPIP_STACK_NetIsBcastAddress
                0x00027194       0x28 build/default/production/_ext/1033058136/tcpip_manager.o
                0x00027194                TCPIP_STACK_NetIsBcastAddress

.text._TCPIPStackSignalHandlerSetParams%961
                0x000271bc       0x28
 .text._TCPIPStackSignalHandlerSetParams
                0x000271bc       0x28 build/default/production/_ext/1033058136/tcpip_manager.o
                0x000271bc                _TCPIPStackSignalHandlerSetParams

.text._UDPSocketDcpt%962
                0x000271e4       0x28
 .text._UDPSocketDcpt
                0x000271e4       0x28 build/default/production/_ext/1033058136/udp.o

.text._UDPUpdatePacketLock%963
                0x0002720c       0x28
 .text._UDPUpdatePacketLock
                0x0002720c       0x28 build/default/production/_ext/1033058136/udp.o

.text.TCPIP_UDP_GetIsReady%964
                0x00027234       0x28
 .text.TCPIP_UDP_GetIsReady
                0x00027234       0x28 build/default/production/_ext/1033058136/udp.o
                0x00027234                TCPIP_UDP_GetIsReady

.text.TC0_Timer16bitCounterGet%965
                0x0002725c       0x28
 .text.TC0_Timer16bitCounterGet
                0x0002725c       0x28 build/default/production/_ext/829342655/plib_tc0.o
                0x0002725c                TC0_Timer16bitCounterGet

.text.SYS_CMD_Initialize%966
                0x00027284       0x28
 .text.SYS_CMD_Initialize
                0x00027284       0x28 build/default/production/_ext/1376093119/sys_command.o
                0x00027284                SYS_CMD_Initialize

.text.Console_UART_Initialize%967
                0x000272ac       0x28
 .text.Console_UART_Initialize
                0x000272ac       0x28 build/default/production/_ext/1832805299/sys_console_uart.o
                0x000272ac                Console_UART_Initialize

.text.SYS_FS_MEDIA_MANAGER_CommandStatusGet%968
                0x000272d4       0x28
 .text.SYS_FS_MEDIA_MANAGER_CommandStatusGet
                0x000272d4       0x28 build/default/production/_ext/1269487135/sys_fs_media_manager.o
                0x000272d4                SYS_FS_MEDIA_MANAGER_CommandStatusGet

.rodata%969     0x000272fc       0x28
 .rodata        0x000272fc       0x28 build/default/production/_ext/1269487135/sys_fs_media_manager.o

.text.SYS_TMR_TickCountGet%970
                0x00027324       0x28
 .text.SYS_TMR_TickCountGet
                0x00027324       0x28 build/default/production/_ext/753841488/sys_time_h2_adapter.o
                0x00027324                SYS_TMR_TickCountGet

.text.SYS_TMR_TickCountGetLong%971
                0x0002734c       0x28
 .text.SYS_TMR_TickCountGetLong
                0x0002734c       0x28 build/default/production/_ext/753841488/sys_time_h2_adapter.o
                0x0002734c                SYS_TMR_TickCountGetLong

.text.SYS_TMR_TickCounterFrequencyGet%972
                0x00027374       0x28
 .text.SYS_TMR_TickCounterFrequencyGet
                0x00027374       0x28 build/default/production/_ext/753841488/sys_time_h2_adapter.o
                0x00027374                SYS_TMR_TickCounterFrequencyGet

.rodata.drvMemory0InitData%973
                0x0002739c       0x28
 .rodata.drvMemory0InitData
                0x0002739c       0x28 build/default/production/_ext/1171490990/initialization.o
                0x0002739c                drvMemory0InitData

.rodata.tcpipARPInitData%974
                0x000273c4       0x28
 .rodata.tcpipARPInitData
                0x000273c4       0x28 build/default/production/_ext/1171490990/initialization.o
                0x000273c4                tcpipARPInitData

.text.prvPortStartFirstTask%975
                0x000273ec       0x28
 .text.prvPortStartFirstTask
                0x000273ec       0x28 build/default/production/_ext/246609638/port.o

.text.vPortSetupTimerInterrupt%976
                0x00027414       0x28
 .text.vPortSetupTimerInterrupt
                0x00027414       0x28 build/default/production/_ext/246609638/port.o
                0x00027414                vPortSetupTimerInterrupt

.text.TCPIP_HTTP_Print_btn%977
                0x0002743c       0x28
 .text.TCPIP_HTTP_Print_btn
                0x0002743c       0x28 build/default/production/_ext/1360937237/custom_http_app.o
                0x0002743c                TCPIP_HTTP_Print_btn

.rodata.__mprec_bigtens%978
                0x00027468       0x28
 .rodata.__mprec_bigtens
                0x00027468       0x28 c:/program files/microchip/xc32/v3.01/bin/bin/../../lib/gcc/pic32c/8.3.1/../../../../pic32c/lib/thumb/v7e-m+fp/hard\libc_nano.a(lib_a-mprec.o)
                0x00027468                __mprec_bigtens

.text._DRV_ETHPHY_NegResultPhase_ANEXP%979
                0x00027490       0x26
 .text._DRV_ETHPHY_NegResultPhase_ANEXP
                0x00027490       0x26 build/default/production/_ext/444070925/drv_ethphy.o

.text._DRV_ETHPHY_NegResultPhase_ANLPAD%980
                0x000274b6       0x26
 .text._DRV_ETHPHY_NegResultPhase_ANLPAD
                0x000274b6       0x26 build/default/production/_ext/444070925/drv_ethphy.o

.text.TCPIP_SNMP_TrapSpecificNotificationSet%981
                0x000274dc       0x26
 .text.TCPIP_SNMP_TrapSpecificNotificationSet
                0x000274dc       0x26 build/default/production/_ext/1033058136/snmp.o
                0x000274dc                TCPIP_SNMP_TrapSpecificNotificationSet

.text.TCPIP_TCP_IsConnected%982
                0x00027502       0x26
 .text.TCPIP_TCP_IsConnected
                0x00027502       0x26 build/default/production/_ext/1033058136/tcp.o
                0x00027502                TCPIP_TCP_IsConnected

.text.TCPIP_TCP_Flush%983
                0x00027528       0x26
 .text.TCPIP_TCP_Flush
                0x00027528       0x26 build/default/production/_ext/1033058136/tcp.o
                0x00027528                TCPIP_TCP_Flush

.text.TCPIP_TCP_Discard%984
                0x0002754e       0x26
 .text.TCPIP_TCP_Discard
                0x0002754e       0x26 build/default/production/_ext/1033058136/tcp.o
                0x0002754e                TCPIP_TCP_Discard

.text.TCPIP_OAHASH_Initialize%985
                0x00027574       0x26
 .text.TCPIP_OAHASH_Initialize
                0x00027574       0x26 build/default/production/_ext/1033058136/oahash.o
                0x00027574                TCPIP_OAHASH_Initialize

.text.TCPIP_STACK_DNSServiceSelect%986
                0x0002759a       0x26
 .text.TCPIP_STACK_DNSServiceSelect
                0x0002759a       0x26 build/default/production/_ext/1033058136/tcpip_manager.o
                0x0002759a                TCPIP_STACK_DNSServiceSelect

.text.TCPIP_STACK_AddressServiceSelect%987
                0x000275c0       0x26
 .text.TCPIP_STACK_AddressServiceSelect
                0x000275c0       0x26 build/default/production/_ext/1033058136/tcpip_manager.o
                0x000275c0                TCPIP_STACK_AddressServiceSelect

.text.SYS_RANDOM_CryptoBlockGet%988
                0x000275e6       0x26
 .text.SYS_RANDOM_CryptoBlockGet
                0x000275e6       0x26 build/default/production/_ext/753841488/sys_random_h2_adapter.o
                0x000275e6                SYS_RANDOM_CryptoBlockGet

.text.strncpy%989
                0x0002760c       0x26
 .text.strncpy  0x0002760c       0x26 c:/program files/microchip/xc32/v3.01/bin/bin/../../lib/gcc/pic32c/8.3.1/../../../../pic32c/lib/thumb/v7e-m+fp/hard\libc_nano.a(lib_a-strncpy.o)
                0x0002760c                strncpy

.text.DRV_ETHPHY_VendorDataSet%990
                0x00027634       0x24
 .text.DRV_ETHPHY_VendorDataSet
                0x00027634       0x24 build/default/production/_ext/444070925/drv_ethphy.o
                0x00027634                DRV_ETHPHY_VendorDataSet

.rodata%991     0x00027658       0x24
 .rodata        0x00027658       0x24 build/default/production/_ext/1546807373/drv_gmac.o

.text.DRV_PIC32CGMAC_LibSysInt_Disable%992
                0x0002767c       0x24
 .text.DRV_PIC32CGMAC_LibSysInt_Disable
                0x0002767c       0x24 build/default/production/_ext/1546807373/drv_gmac_lib_samE5x.o
                0x0002767c                DRV_PIC32CGMAC_LibSysInt_Disable

.text.Shell_Delete%993
                0x000276a0       0x24
 .text.Shell_Delete
                0x000276a0       0x24 build/default/production/_ext/1751889202/sys_fs_shell.o

.text.TCPIP_SNMP_GetDataFromUDPBuff%994
                0x000276c4       0x24
 .text.TCPIP_SNMP_GetDataFromUDPBuff
                0x000276c4       0x24 build/default/production/_ext/1033058136/snmp.o
                0x000276c4                TCPIP_SNMP_GetDataFromUDPBuff

.text.TCPIP_SNMP_DataIsASNNull%995
                0x000276e8       0x24
 .text.TCPIP_SNMP_DataIsASNNull
                0x000276e8       0x24 build/default/production/_ext/1033058136/snmp.o
                0x000276e8                TCPIP_SNMP_DataIsASNNull

.text.TCPIP_SNMP_DataTypeInfoGet%996
                0x0002770c       0x24
 .text.TCPIP_SNMP_DataTypeInfoGet
                0x0002770c       0x24 build/default/production/_ext/1033058136/snmp.o
                0x0002770c                TCPIP_SNMP_DataTypeInfoGet

.text._ICMPAllocateTxPacketStruct%997
                0x00027730       0x24
 .text._ICMPAllocateTxPacketStruct
                0x00027730       0x24 build/default/production/_ext/1033058136/icmp.o

.text.TCPIP_ICMP_EchoRequestCancel%998
                0x00027754       0x24
 .text.TCPIP_ICMP_EchoRequestCancel
                0x00027754       0x24 build/default/production/_ext/1033058136/icmp.o
                0x00027754                TCPIP_ICMP_EchoRequestCancel

.text._ARPAllocateTxPacket%999
                0x00027778       0x24
 .text._ARPAllocateTxPacket
                0x00027778       0x24 build/default/production/_ext/1033058136/arp.o

.text.TCPIP_ARP_HandlerDeRegister%1000
                0x0002779c       0x24
 .text.TCPIP_ARP_HandlerDeRegister
                0x0002779c       0x24 build/default/production/_ext/1033058136/arp.o
                0x0002779c                TCPIP_ARP_HandlerDeRegister

.rodata._tcpip_heap_object%1001
                0x000277c0       0x24
 .rodata._tcpip_heap_object
                0x000277c0       0x24 build/default/production/_ext/1033058136/tcpip_heap_internal.o

.text._DHCPOptionProcessSrvIdent%1002
                0x000277e4       0x24
 .text._DHCPOptionProcessSrvIdent
                0x000277e4       0x24 build/default/production/_ext/1033058136/dhcp.o

.text._DHCPOptionWriteMsgType%1003
                0x00027808       0x24
 .text._DHCPOptionWriteMsgType
                0x00027808       0x24 build/default/production/_ext/1033058136/dhcp.o

.text.TCPIP_STACK_IPAddToNet%1004
                0x0002782c       0x24
 .text.TCPIP_STACK_IPAddToNet
                0x0002782c       0x24 build/default/production/_ext/1033058136/tcpip_manager.o
                0x0002782c                TCPIP_STACK_IPAddToNet

.text._UDPFreeRxQueue%1005
                0x00027850       0x24
 .text._UDPFreeRxQueue
                0x00027850       0x24 build/default/production/_ext/1033058136/udp.o

.rodata._builtinCmdTbl%1006
                0x00027874       0x24
 .rodata._builtinCmdTbl
                0x00027874       0x24 build/default/production/_ext/1376093119/sys_command.o

.text.MPFSIsHandleValid%1007
                0x00027898       0x24
 .text.MPFSIsHandleValid
                0x00027898       0x24 build/default/production/_ext/699575981/mpfs.o

.text.MPFS_DirClose%1008
                0x000278bc       0x24
 .text.MPFS_DirClose
                0x000278bc       0x24 build/default/production/_ext/699575981/mpfs.o
                0x000278bc                MPFS_DirClose

.text.SYS_RESET_SoftwareReset%1009
                0x000278e0       0x24
 .text.SYS_RESET_SoftwareReset
                0x000278e0       0x24 build/default/production/_ext/1000052432/sys_reset.o
                0x000278e0                SYS_RESET_SoftwareReset

.text.SYS_RANDOM_CryptoGet%1010
                0x00027904       0x24
 .text.SYS_RANDOM_CryptoGet
                0x00027904       0x24 build/default/production/_ext/753841488/sys_random_h2_adapter.o
                0x00027904                SYS_RANDOM_CryptoGet

.rodata.drvMemory0DeviceAPI%1011
                0x00027928       0x24
 .rodata.drvMemory0DeviceAPI
                0x00027928       0x24 build/default/production/_ext/1171490990/initialization.o
                0x00027928                drvMemory0DeviceAPI

.text.vPortSVCHandler%1012
                0x00027950       0x24
 .text.vPortSVCHandler
                0x00027950       0x24 build/default/production/_ext/246609638/port.o
                0x00027950                vPortSVCHandler

.text.uxListRemove%1013
                0x00027974       0x24
 .text.uxListRemove
                0x00027974       0x24 build/default/production/_ext/404212886/list.o
                0x00027974                uxListRemove

.text.xQueueCreateMutex%1014
                0x00027998       0x24
 .text.xQueueCreateMutex
                0x00027998       0x24 build/default/production/_ext/404212886/queue.o
                0x00027998                xQueueCreateMutex

.text.TCPIP_HTTP_Print_config_dhcpchecked%1015
                0x000279bc       0x24
 .text.TCPIP_HTTP_Print_config_dhcpchecked
                0x000279bc       0x24 build/default/production/_ext/1360937237/custom_http_app.o
                0x000279bc                TCPIP_HTTP_Print_config_dhcpchecked

.text.strncmp%1016
                0x000279e0       0x24
 .text.strncmp  0x000279e0       0x24 c:/program files/microchip/xc32/v3.01/bin/bin/../../lib/gcc/pic32c/8.3.1/../../../../pic32c/lib/thumb/v7e-m+fp/hard\libc_nano.a(lib_a-strncmp.o)
                0x000279e0                strncmp

.text.__ascii_mbtowc%1017
                0x00027a04       0x24
 .text.__ascii_mbtowc
                0x00027a04       0x24 c:/program files/microchip/xc32/v3.01/bin/bin/../../lib/gcc/pic32c/8.3.1/../../../../pic32c/lib/thumb/v7e-m+fp/hard\libc_nano.a(lib_a-mbtowc_r.o)
                0x00027a04                __ascii_mbtowc

.text._DRV_PHY_SMITransfer_Wait%1018
                0x00027a28       0x22
 .text._DRV_PHY_SMITransfer_Wait
                0x00027a28       0x22 build/default/production/_ext/444070925/drv_ethphy.o

.text.TCPIP_SNMP_ErrorStatusSet%1019
                0x00027a4a       0x22
 .text.TCPIP_SNMP_ErrorStatusSet
                0x00027a4a       0x22 build/default/production/_ext/1033058136/snmp.o

.text.TCPIP_TCP_Find%1020
                0x00027a6c       0x22
 .text.TCPIP_TCP_Find
                0x00027a6c       0x22 build/default/production/_ext/1033058136/tcp.o
                0x00027a6c                TCPIP_TCP_Find

.text.TCPIP_HTTP_PostNameRead%1021
                0x00027a8e       0x22
 .text.TCPIP_HTTP_PostNameRead
                0x00027a8e       0x22 build/default/production/_ext/1033058136/http.o
                0x00027a8e                TCPIP_HTTP_PostNameRead

.text.TCPIP_Helper_ProtectedSingleListInitialize%1022
                0x00027ab0       0x22
 .text.TCPIP_Helper_ProtectedSingleListInitialize
                0x00027ab0       0x22 build/default/production/_ext/1033058136/tcpip_helpers.o
                0x00027ab0                TCPIP_Helper_ProtectedSingleListInitialize

.text.TCPIP_STACK_NetAddressMacSet%1023
                0x00027ad2       0x22
 .text.TCPIP_STACK_NetAddressMacSet
                0x00027ad2       0x22 build/default/production/_ext/1033058136/tcpip_manager.o
                0x00027ad2                TCPIP_STACK_NetAddressMacSet

.text.TCPIP_UDP_Discard%1024
                0x00027af4       0x22
 .text.TCPIP_UDP_Discard
                0x00027af4       0x22 build/default/production/_ext/1033058136/udp.o
                0x00027af4                TCPIP_UDP_Discard

.text.TCPIP_HTTP_Print_pot%1025
                0x00027b16       0x22
 .text.TCPIP_HTTP_Print_pot
                0x00027b16       0x22 build/default/production/_ext/1360937237/custom_http_app.o
                0x00027b16                TCPIP_HTTP_Print_pot

.rodata%1026    0x00027b38       0x22
 .rodata        0x00027b38       0x22 c:/program files/microchip/xc32/v3.01/bin/bin/../../lib/gcc/pic32c/8.3.1/../../../../pic32c/lib/thumb/v7e-m+fp/hard\libc_nano.a(lib_a-nano-vfprintf_i.o)

.text.DRV_ETHPHY_Status%1027
                0x00027b5c       0x20
 .text.DRV_ETHPHY_Status
                0x00027b5c       0x20 build/default/production/_ext/444070925/drv_ethphy.o
                0x00027b5c                DRV_ETHPHY_Status

.text.DRV_ETHPHY_ClientStatus%1028
                0x00027b7c       0x20
 .text.DRV_ETHPHY_ClientStatus
                0x00027b7c       0x20 build/default/production/_ext/444070925/drv_ethphy.o
                0x00027b7c                DRV_ETHPHY_ClientStatus

.text.DRV_ETHPHY_ClientOperationResult%1029
                0x00027b9c       0x20
 .text.DRV_ETHPHY_ClientOperationResult
                0x00027b9c       0x20 build/default/production/_ext/444070925/drv_ethphy.o
                0x00027b9c                DRV_ETHPHY_ClientOperationResult

.text._DRV_ETHPHY_ClientOpReset%1030
                0x00027bbc       0x20
 .text._DRV_ETHPHY_ClientOpReset
                0x00027bbc       0x20 build/default/production/_ext/444070925/drv_ethphy.o

.text._DRV_ETHPHY_ClientOpNegRestart%1031
                0x00027bdc       0x20
 .text._DRV_ETHPHY_ClientOpNegRestart
                0x00027bdc       0x20 build/default/production/_ext/444070925/drv_ethphy.o

.text._DRV_ETHPHY_ClientOpNegResult%1032
                0x00027bfc       0x20
 .text._DRV_ETHPHY_ClientOpNegResult
                0x00027bfc       0x20 build/default/production/_ext/444070925/drv_ethphy.o

.text._DRV_ETHPHY_ClientOpNegComplete%1033
                0x00027c1c       0x20
 .text._DRV_ETHPHY_ClientOpNegComplete
                0x00027c1c       0x20 build/default/production/_ext/444070925/drv_ethphy.o

.text._DRV_ETHPHY_ClientOpLinkStat%1034
                0x00027c3c       0x20
 .text._DRV_ETHPHY_ClientOpLinkStat
                0x00027c3c       0x20 build/default/production/_ext/444070925/drv_ethphy.o

.text._DRV_ETHPHY_ClientOpSetup%1035
                0x00027c5c       0x20
 .text._DRV_ETHPHY_ClientOpSetup
                0x00027c5c       0x20 build/default/production/_ext/444070925/drv_ethphy.o

.text._DRV_ETHPHY_SetupPhaseNegotiate%1036
                0x00027c7c       0x20
 .text._DRV_ETHPHY_SetupPhaseNegotiate
                0x00027c7c       0x20 build/default/production/_ext/444070925/drv_ethphy.o

.rodata%1037    0x00027c9c       0x20
 .rodata        0x00027c9c       0x20 build/default/production/_ext/444070925/drv_ethphy.o

.rodata._DRV_PHY_SetupPhaseNegotiateSubPhaseTbl%1038
                0x00027cbc       0x20
 .rodata._DRV_PHY_SetupPhaseNegotiateSubPhaseTbl
                0x00027cbc       0x20 build/default/production/_ext/444070925/drv_ethphy.o

.text.DRV_GMAC_Close%1039
                0x00027cdc       0x20
 .text.DRV_GMAC_Close
                0x00027cdc       0x20 build/default/production/_ext/1546807373/drv_gmac.o
                0x00027cdc                DRV_GMAC_Close

.text.DRV_GMAC_Deinitialize%1040
                0x00027cfc       0x20
 .text.DRV_GMAC_Deinitialize
                0x00027cfc       0x20 build/default/production/_ext/1546807373/drv_gmac.o
                0x00027cfc                DRV_GMAC_Deinitialize

.text.DRV_PIC32CGMAC_LibTransferEnable%1041
                0x00027d1c       0x20
 .text.DRV_PIC32CGMAC_LibTransferEnable
                0x00027d1c       0x20 build/default/production/_ext/1546807373/drv_gmac_lib_samE5x.o
                0x00027d1c                DRV_PIC32CGMAC_LibTransferEnable

.text.DRV_GMAC_LibDescriptorsPoolAdd%1042
                0x00027d3c       0x20
 .text.DRV_GMAC_LibDescriptorsPoolAdd
                0x00027d3c       0x20 build/default/production/_ext/1546807373/drv_gmac_lib_samE5x.o
                0x00027d3c                DRV_GMAC_LibDescriptorsPoolAdd

.text.TCPIP_SNMP_PacketProcStubPtrsGet%1043
                0x00027d5c       0x20
 .text.TCPIP_SNMP_PacketProcStubPtrsGet
                0x00027d5c       0x20 build/default/production/_ext/1033058136/snmp.o
                0x00027d5c                TCPIP_SNMP_PacketProcStubPtrsGet

.text._SwapARPPacket%1044
                0x00027d7c       0x20
 .text._SwapARPPacket
                0x00027d7c       0x20 build/default/production/_ext/1033058136/arp.o

.text.TCPIP_DNS_OAHASH_KeyHash%1045
                0x00027d9c       0x20
 .text.TCPIP_DNS_OAHASH_KeyHash
                0x00027d9c       0x20 build/default/production/_ext/1033058136/dns.o

.text.TCPIP_Helper_ProtectedSingleListLock%1046
                0x00027dbc       0x20
 .text.TCPIP_Helper_ProtectedSingleListLock
                0x00027dbc       0x20 build/default/production/_ext/1033058136/tcpip_helpers.o
                0x00027dbc                TCPIP_Helper_ProtectedSingleListLock

.rodata.TCPIP_MAC_POWER_TBL%1047
                0x00027ddc       0x20
 .rodata.TCPIP_MAC_POWER_TBL
                0x00027ddc       0x20 build/default/production/_ext/1033058136/tcpip_helpers.o

.text.TCPIP_STACK_NetDefaultSet%1048
                0x00027dfc       0x20
 .text.TCPIP_STACK_NetDefaultSet
                0x00027dfc       0x20 build/default/production/_ext/1033058136/tcpip_manager.o
                0x00027dfc                TCPIP_STACK_NetDefaultSet

.text._TCPIPStackHandleToNetLinked%1049
                0x00027e1c       0x20
 .text._TCPIPStackHandleToNetLinked
                0x00027e1c       0x20 build/default/production/_ext/1033058136/tcpip_manager.o
                0x00027e1c                _TCPIPStackHandleToNetLinked

.text.TCPIP_Notification_Remove%1050
                0x00027e3c       0x20
 .text.TCPIP_Notification_Remove
                0x00027e3c       0x20 build/default/production/_ext/1033058136/tcpip_notify.o
                0x00027e3c                TCPIP_Notification_Remove

.rodata%1051    0x00027e5c       0x20
 .rodata        0x00027e5c       0x20 build/default/production/_ext/1033058136/tcpip_packet.o

.text.TCPIP_UDP_DestinationPortSet%1052
                0x00027e7c       0x20
 .text.TCPIP_UDP_DestinationPortSet
                0x00027e7c       0x20 build/default/production/_ext/1033058136/udp.o
                0x00027e7c                TCPIP_UDP_DestinationPortSet

.text._keyRightProcess%1053
                0x00027e9c       0x20
 .text._keyRightProcess
                0x00027e9c       0x20 build/default/production/_ext/1376093119/sys_command.o

.text.GetCommandCharacter%1054
                0x00027ebc       0x20
 .text.GetCommandCharacter
                0x00027ebc       0x20 build/default/production/_ext/1376093119/sys_command.o

.text.MPFS_GetSize%1055
                0x00027edc       0x20
 .text.MPFS_GetSize
                0x00027edc       0x20 build/default/production/_ext/699575981/mpfs.o
                0x00027edc                MPFS_GetSize

.text.SYS_FS_MEDIA_MANAGER_TransferTask%1056
                0x00027efc       0x20
 .text.SYS_FS_MEDIA_MANAGER_TransferTask
                0x00027efc       0x20 build/default/production/_ext/1269487135/sys_fs_media_manager.o
                0x00027efc                SYS_FS_MEDIA_MANAGER_TransferTask

.text.SYS_INT_SourceRestore%1057
                0x00027f1c       0x20
 .text.SYS_INT_SourceRestore
                0x00027f1c       0x20 build/default/production/_ext/1881668453/sys_int.o
                0x00027f1c                SYS_INT_SourceRestore

.text.SYS_RANDOM_CryptoInitialize%1058
                0x00027f3c       0x20
 .text.SYS_RANDOM_CryptoInitialize
                0x00027f3c       0x20 build/default/production/_ext/753841488/sys_random_h2_adapter.o
                0x00027f3c                SYS_RANDOM_CryptoInitialize

.rodata.tcpipPhyInitData_KSZ8081%1059
                0x00027f5c       0x20
 .rodata.tcpipPhyInitData_KSZ8081
                0x00027f5c       0x20 build/default/production/_ext/1171490990/initialization.o
                0x00027f5c                tcpipPhyInitData_KSZ8081

.text.prvTaskExitError%1060
                0x00027f7c       0x20
 .text.prvTaskExitError
                0x00027f7c       0x20 build/default/production/_ext/246609638/port.o

.text.vPortEnterCritical%1061
                0x00027f9c       0x20
 .text.vPortEnterCritical
                0x00027f9c       0x20 build/default/production/_ext/246609638/port.o
                0x00027f9c                vPortEnterCritical

.rodata.reseedSeedA_data%1062
                0x00027fbc       0x20
 .rodata.reseedSeedA_data
                0x00027fbc       0x20 build/default/production/_ext/1664057780/random.o
                0x00027fbc                reseedSeedA_data

.text.TCPIP_SNMP_IsValidLength%1063
                0x00027fdc       0x20
 .text.TCPIP_SNMP_IsValidLength
                0x00027fdc       0x20 build/default/production/_ext/1360937237/custom_snmp_app.o
                0x00027fdc                TCPIP_SNMP_IsValidLength

.text._sbrk_r%1064
                0x00027ffc       0x20
 .text._sbrk_r  0x00027ffc       0x20 c:/program files/microchip/xc32/v3.01/bin/bin/../../lib/gcc/pic32c/8.3.1/../../../../pic32c/lib/thumb/v7e-m+fp/hard\libc_nano.a(lib_a-sbrkr.o)
                0x00027ffc                _sbrk_r

.text._DRV_GMAC_LinkStateDown%1065
                0x0002801c       0x1e
 .text._DRV_GMAC_LinkStateDown
                0x0002801c       0x1e build/default/production/_ext/1546807373/drv_gmac.o

.text._SNMP_BuildIntegerLen%1066
                0x0002803a       0x1e
 .text._SNMP_BuildIntegerLen
                0x0002803a       0x1e build/default/production/_ext/1033058136/snmp.o
                0x0002803a                _SNMP_BuildIntegerLen

.text.TCPIP_SNMP_DataCopyToProcessBuffer%1067
                0x00028058       0x1e
 .text.TCPIP_SNMP_DataCopyToProcessBuffer
                0x00028058       0x1e build/default/production/_ext/1033058136/snmp.o
                0x00028058                TCPIP_SNMP_DataCopyToProcessBuffer

.text._TCPIsGetReady%1068
                0x00028076       0x1e
 .text._TCPIsGetReady
                0x00028076       0x1e build/default/production/_ext/1033058136/tcp.o

.text.TCPIP_TCP_FifoRxFreeGet%1069
                0x00028094       0x1e
 .text.TCPIP_TCP_FifoRxFreeGet
                0x00028094       0x1e build/default/production/_ext/1033058136/tcp.o
                0x00028094                TCPIP_TCP_FifoRxFreeGet

.text.TCPIP_STACK_NetAddressBcast%1070
                0x000280b2       0x1e
 .text.TCPIP_STACK_NetAddressBcast
                0x000280b2       0x1e build/default/production/_ext/1033058136/tcpip_manager.o
                0x000280b2                TCPIP_STACK_NetAddressBcast

.text.TCPIP_STACK_NetAddress%1071
                0x000280d0       0x1e
 .text.TCPIP_STACK_NetAddress
                0x000280d0       0x1e build/default/production/_ext/1033058136/tcpip_manager.o
                0x000280d0                TCPIP_STACK_NetAddress

.text.TCPIP_STACK_NetworkIsLinked%1072
                0x000280ee       0x1e
 .text.TCPIP_STACK_NetworkIsLinked
                0x000280ee       0x1e build/default/production/_ext/1033058136/tcpip_manager.o
                0x000280ee                TCPIP_STACK_NetworkIsLinked

.text.TCPIP_PKT_PayloadLen%1073
                0x0002810c       0x1e
 .text.TCPIP_PKT_PayloadLen
                0x0002810c       0x1e build/default/production/_ext/1033058136/tcpip_packet.o
                0x0002810c                TCPIP_PKT_PayloadLen

.text.OSAL_SEM_Pend%1074
                0x0002812a       0x1e
 .text.OSAL_SEM_Pend
                0x0002812a       0x1e build/default/production/_ext/1529399856/osal_freertos.o
                0x0002812a                OSAL_SEM_Pend

.text.OSAL_MUTEX_Lock%1075
                0x00028148       0x1e
 .text.OSAL_MUTEX_Lock
                0x00028148       0x1e build/default/production/_ext/1529399856/osal_freertos.o
                0x00028148                OSAL_MUTEX_Lock

.text._keyUpProcess%1076
                0x00028166       0x1e
 .text._keyUpProcess
                0x00028166       0x1e build/default/production/_ext/1376093119/sys_command.o

.text._DRV_ETHPHY_ResetPhaseIdle%1077
                0x00028184       0x1c
 .text._DRV_ETHPHY_ResetPhaseIdle
                0x00028184       0x1c build/default/production/_ext/444070925/drv_ethphy.o

.rodata._DRV_PHY_ClientOpTbl%1078
                0x000281a0       0x1c
 .rodata._DRV_PHY_ClientOpTbl
                0x000281a0       0x1c build/default/production/_ext/444070925/drv_ethphy.o

.text.DRV_GMAC_EventPendingGet%1079
                0x000281bc       0x1c
 .text.DRV_GMAC_EventPendingGet
                0x000281bc       0x1c build/default/production/_ext/1546807373/drv_gmac.o
                0x000281bc                DRV_GMAC_EventPendingGet

.text.DRV_PIC32CGMAC_LibClose%1080
                0x000281d8       0x1c
 .text.DRV_PIC32CGMAC_LibClose
                0x000281d8       0x1c build/default/production/_ext/1546807373/drv_gmac_lib_samE5x.o
                0x000281d8                DRV_PIC32CGMAC_LibClose

.text.DRV_PIC32CGMAC_SingleListHeadRemove%1081
                0x000281f4       0x1c
 .text.DRV_PIC32CGMAC_SingleListHeadRemove
                0x000281f4       0x1c build/default/production/_ext/1546807373/drv_gmac_lib_samE5x.o
                0x000281f4                DRV_PIC32CGMAC_SingleListHeadRemove

.text.DRV_MEMORY_EraseWrite%1082
                0x00028210       0x1c
 .text.DRV_MEMORY_EraseWrite
                0x00028210       0x1c build/default/production/_ext/992804092/drv_memory.o
                0x00028210                DRV_MEMORY_EraseWrite

.text.Helper_SingleListHeadRemove%1083
                0x0002822c       0x1c
 .text.Helper_SingleListHeadRemove
                0x0002822c       0x1c build/default/production/_ext/438849557/drv_miim.o
                0x0002822c                Helper_SingleListHeadRemove

.text.Shell_LastError%1084
                0x00028248       0x1c
 .text.Shell_LastError
                0x00028248       0x1c build/default/production/_ext/1751889202/sys_fs_shell.o

.text._ARPTxAckFnc%1085
                0x00028264       0x1c
 .text._ARPTxAckFnc
                0x00028264       0x1c build/default/production/_ext/1033058136/arp.o

.text.TCPIP_IPV4_MaxDatagramDataSizeGet%1086
                0x00028280       0x1c
 .text.TCPIP_IPV4_MaxDatagramDataSizeGet
                0x00028280       0x1c build/default/production/_ext/1033058136/ipv4.o
                0x00028280                TCPIP_IPV4_MaxDatagramDataSizeGet

.text._TCPIP_HEAP_Calloc%1087
                0x0002829c       0x1c
 .text._TCPIP_HEAP_Calloc
                0x0002829c       0x1c build/default/production/_ext/1033058136/tcpip_heap_internal.o

.rodata._DHCPOptWriteTbl%1088
                0x000282b8       0x1c
 .rodata._DHCPOptWriteTbl
                0x000282b8       0x1c build/default/production/_ext/1033058136/dhcp.o

.text.TCPIP_Helper_SingleListHeadRemove%1089
                0x000282d4       0x1c
 .text.TCPIP_Helper_SingleListHeadRemove
                0x000282d4       0x1c build/default/production/_ext/1033058136/tcpip_helpers.o
                0x000282d4                TCPIP_Helper_SingleListHeadRemove

.text.TCPIP_Helper_ProtectedSingleListUnlock%1090
                0x000282f0       0x1c
 .text.TCPIP_Helper_ProtectedSingleListUnlock
                0x000282f0       0x1c build/default/production/_ext/1033058136/tcpip_helpers.o
                0x000282f0                TCPIP_Helper_ProtectedSingleListUnlock

.text._TCPIPSignalEntryNotify%1091
                0x0002830c       0x1c
 .text._TCPIPSignalEntryNotify
                0x0002830c       0x1c build/default/production/_ext/1033058136/tcpip_manager.o

.text.TCPIP_STACK_NetAddressGatewaySet%1092
                0x00028328       0x1c
 .text.TCPIP_STACK_NetAddressGatewaySet
                0x00028328       0x1c build/default/production/_ext/1033058136/tcpip_manager.o
                0x00028328                TCPIP_STACK_NetAddressGatewaySet

.text.TCPIP_STACK_NetAddressDnsPrimarySet%1093
                0x00028344       0x1c
 .text.TCPIP_STACK_NetAddressDnsPrimarySet
                0x00028344       0x1c build/default/production/_ext/1033058136/tcpip_manager.o
                0x00028344                TCPIP_STACK_NetAddressDnsPrimarySet

.text.TCPIP_STACK_NetAddressDnsSecondSet%1094
                0x00028360       0x1c
 .text.TCPIP_STACK_NetAddressDnsSecondSet
                0x00028360       0x1c build/default/production/_ext/1033058136/tcpip_manager.o
                0x00028360                TCPIP_STACK_NetAddressDnsSecondSet

.text.TCPIP_STACK_NetIsUp%1095
                0x0002837c       0x1c
 .text.TCPIP_STACK_NetIsUp
                0x0002837c       0x1c build/default/production/_ext/1033058136/tcpip_manager.o
                0x0002837c                TCPIP_STACK_NetIsUp

.text.TCPIP_STACK_NetMask%1096
                0x00028398       0x1c
 .text.TCPIP_STACK_NetMask
                0x00028398       0x1c build/default/production/_ext/1033058136/tcpip_manager.o
                0x00028398                TCPIP_STACK_NetMask

.text.TCPIP_STACK_NetIsLinked%1097
                0x000283b4       0x1c
 .text.TCPIP_STACK_NetIsLinked
                0x000283b4       0x1c build/default/production/_ext/1033058136/tcpip_manager.o
                0x000283b4                TCPIP_STACK_NetIsLinked

.text.TCPIP_STACK_Deinitialize%1098
                0x000283d0       0x1c
 .text.TCPIP_STACK_Deinitialize
                0x000283d0       0x1c build/default/production/_ext/1033058136/tcpip_manager.o
                0x000283d0                TCPIP_STACK_Deinitialize

.text.NVMCTRL_BlockErase%1099
                0x000283ec       0x1c
 .text.NVMCTRL_BlockErase
                0x000283ec       0x1c build/default/production/_ext/1593096446/plib_nvmctrl.o
                0x000283ec                NVMCTRL_BlockErase

.text._keyLeftProcess%1100
                0x00028408       0x1c
 .text._keyLeftProcess
                0x00028408       0x1c build/default/production/_ext/1376093119/sys_command.o

.text.SendCommandMessage%1101
                0x00028424       0x1c
 .text.SendCommandMessage
                0x00028424       0x1c build/default/production/_ext/1376093119/sys_command.o

.text.SYS_DEBUG_Initialize%1102
                0x00028440       0x1c
 .text.SYS_DEBUG_Initialize
                0x00028440       0x1c build/default/production/_ext/944882569/sys_debug.o
                0x00028440                SYS_DEBUG_Initialize

.text.SYS_FS_FileWrite%1103
                0x0002845c       0x1c
 .text.SYS_FS_FileWrite
                0x0002845c       0x1c build/default/production/_ext/1269487135/sys_fs.o
                0x0002845c                SYS_FS_FileWrite

.text.SYS_FS_MEDIA_MANAGER_AddressGet%1104
                0x00028478       0x1c
 .text.SYS_FS_MEDIA_MANAGER_AddressGet
                0x00028478       0x1c build/default/production/_ext/1269487135/sys_fs_media_manager.o
                0x00028478                SYS_FS_MEDIA_MANAGER_AddressGet

.text.SYS_TIME_MSToCount%1105
                0x00028494       0x1c
 .text.SYS_TIME_MSToCount
                0x00028494       0x1c build/default/production/_ext/101884895/sys_time.o
                0x00028494                SYS_TIME_MSToCount

.text.SYS_TMR_CallbackPeriodic%1106
                0x000284b0       0x1c
 .text.SYS_TMR_CallbackPeriodic
                0x000284b0       0x1c build/default/production/_ext/753841488/sys_time_h2_adapter.o
                0x000284b0                SYS_TMR_CallbackPeriodic

.rodata.sysTimePlibAPI%1107
                0x000284cc       0x1c
 .rodata.sysTimePlibAPI
                0x000284cc       0x1c build/default/production/_ext/1171490990/initialization.o
                0x000284cc                sysTimePlibAPI

.rodata.tcpipHTTPInitData%1108
                0x000284e8       0x1c
 .rodata.tcpipHTTPInitData
                0x000284e8       0x1c build/default/production/_ext/1171490990/initialization.o
                0x000284e8                tcpipHTTPInitData

.rodata.tcpipSNMPInitData%1109
                0x00028504       0x1c
 .rodata.tcpipSNMPInitData
                0x00028504       0x1c build/default/production/_ext/1171490990/initialization.o
                0x00028504                tcpipSNMPInitData

.text.vTaskPlaceOnEventList%1110
                0x00028520       0x1c
 .text.vTaskPlaceOnEventList
                0x00028520       0x1c build/default/production/_ext/404212886/FreeRTOS_tasks.o
                0x00028520                vTaskPlaceOnEventList

.text.pvTaskIncrementMutexHeldCount%1111
                0x0002853c       0x1c
 .text.pvTaskIncrementMutexHeldCount
                0x0002853c       0x1c build/default/production/_ext/404212886/FreeRTOS_tasks.o
                0x0002853c                pvTaskIncrementMutexHeldCount

.text.memcmp%1112
                0x00028558       0x1c
 .text.memcmp   0x00028558       0x1c c:/program files/microchip/xc32/v3.01/bin/bin/../../lib/gcc/pic32c/8.3.1/../../../../pic32c/lib/thumb/v7e-m+fp/hard\libc_nano.a(lib_a-memcmp.o)
                0x00028558                memcmp

.text.memcpy%1113
                0x00028574       0x1c
 .text.memcpy   0x00028574       0x1c c:/program files/microchip/xc32/v3.01/bin/bin/../../lib/gcc/pic32c/8.3.1/../../../../pic32c/lib/thumb/v7e-m+fp/hard\libc_nano.a(lib_a-memcpy-stub.o)
                0x00028574                memcpy

.text._calloc_r%1114
                0x00028590       0x1c
 .text._calloc_r
                0x00028590       0x1c c:/program files/microchip/xc32/v3.01/bin/bin/../../lib/gcc/pic32c/8.3.1/../../../../pic32c/lib/thumb/v7e-m+fp/hard\libc_nano.a(lib_a-nano-callocr.o)
                0x00028590                _calloc_r

.text.vsnprintf%1115
                0x000285ac       0x1c
 .text.vsnprintf
                0x000285ac       0x1c c:/program files/microchip/xc32/v3.01/bin/bin/../../lib/gcc/pic32c/8.3.1/../../../../pic32c/lib/thumb/v7e-m+fp/hard\libc_nano.a(lib_a-vsnprintf.o)
                0x000285ac                vsniprintf
                0x000285ac                vsnprintf

.text.DRV_PIC32CGMAC_SingleListTailAdd%1116
                0x000285c8       0x1a
 .text.DRV_PIC32CGMAC_SingleListTailAdd
                0x000285c8       0x1a build/default/production/_ext/1546807373/drv_gmac_lib_samE5x.o
                0x000285c8                DRV_PIC32CGMAC_SingleListTailAdd

.text.DRV_MEMORY_Read%1117
                0x000285e2       0x1a
 .text.DRV_MEMORY_Read
                0x000285e2       0x1a build/default/production/_ext/992804092/drv_memory.o
                0x000285e2                DRV_MEMORY_Read

.text.DRV_MEMORY_Erase%1118
                0x000285fc       0x1a
 .text.DRV_MEMORY_Erase
                0x000285fc       0x1a build/default/production/_ext/992804092/drv_memory.o
                0x000285fc                DRV_MEMORY_Erase

.text.Helper_SingleListTailAdd%1119
                0x00028616       0x1a
 .text.Helper_SingleListTailAdd
                0x00028616       0x1a build/default/production/_ext/438849557/drv_miim.o
                0x00028616                Helper_SingleListTailAdd

.text.DRV_MIIM_Read%1120
                0x00028630       0x1a
 .text.DRV_MIIM_Read
                0x00028630       0x1a build/default/production/_ext/438849557/drv_miim.o
                0x00028630                DRV_MIIM_Read

.text.DRV_MIIM_Write%1121
                0x0002864a       0x1a
 .text.DRV_MIIM_Write
                0x0002864a       0x1a build/default/production/_ext/438849557/drv_miim.o
                0x0002864a                DRV_MIIM_Write

.text.DRV_MIIM_Scan%1122
                0x00028664       0x1a
 .text.DRV_MIIM_Scan
                0x00028664       0x1a build/default/production/_ext/438849557/drv_miim.o
                0x00028664                DRV_MIIM_Scan

.text.TCPIP_TCP_ClientOpen%1123
                0x0002867e       0x1a
 .text.TCPIP_TCP_ClientOpen
                0x0002867e       0x1a build/default/production/_ext/1033058136/tcp.o
                0x0002867e                TCPIP_TCP_ClientOpen

.text.TCPIP_TCP_Disconnect%1124
                0x00028698       0x1a
 .text.TCPIP_TCP_Disconnect
                0x00028698       0x1a build/default/production/_ext/1033058136/tcp.o
                0x00028698                TCPIP_TCP_Disconnect

.text.TCPIP_TCP_PutIsReady%1125
                0x000286b2       0x1a
 .text.TCPIP_TCP_PutIsReady
                0x000286b2       0x1a build/default/production/_ext/1033058136/tcp.o
                0x000286b2                TCPIP_TCP_PutIsReady

.text.TCPIP_TCP_StringPut%1126
                0x000286cc       0x1a
 .text.TCPIP_TCP_StringPut
                0x000286cc       0x1a build/default/production/_ext/1033058136/tcp.o
                0x000286cc                TCPIP_TCP_StringPut

.text.TCPIP_DNS_IsResolved%1127
                0x000286e6       0x1a
 .text.TCPIP_DNS_IsResolved
                0x000286e6       0x1a build/default/production/_ext/1033058136/dns.o
                0x000286e6                TCPIP_DNS_IsResolved

.text.TCPIP_Helper_SingleListTailAdd%1128
                0x00028700       0x1a
 .text.TCPIP_Helper_SingleListTailAdd
                0x00028700       0x1a build/default/production/_ext/1033058136/tcpip_helpers.o
                0x00028700                TCPIP_Helper_SingleListTailAdd

.text.TCPIP_Helper_SingleListAppend%1129
                0x0002871a       0x1a
 .text.TCPIP_Helper_SingleListAppend
                0x0002871a       0x1a build/default/production/_ext/1033058136/tcpip_helpers.o
                0x0002871a                TCPIP_Helper_SingleListAppend

.text.TCPIP_STACK_NetIsReady%1130
                0x00028734       0x1a
 .text.TCPIP_STACK_NetIsReady
                0x00028734       0x1a build/default/production/_ext/1033058136/tcpip_manager.o
                0x00028734                TCPIP_STACK_NetIsReady

.text.TCPIP_Notification_RemoveAll%1131
                0x0002874e       0x1a
 .text.TCPIP_Notification_RemoveAll
                0x0002874e       0x1a build/default/production/_ext/1033058136/tcpip_notify.o
                0x0002874e                TCPIP_Notification_RemoveAll

.text._UDPTxPktValid%1132
                0x00028768       0x1a
 .text._UDPTxPktValid
                0x00028768       0x1a build/default/production/_ext/1033058136/udp.o

.text.TCPIP_UDP_TxPointerGet%1133
                0x00028782       0x1a
 .text.TCPIP_UDP_TxPointerGet
                0x00028782       0x1a build/default/production/_ext/1033058136/udp.o
                0x00028782                TCPIP_UDP_TxPointerGet

.text.wc_InitRng%1134
                0x0002879c       0x1a
 .text.wc_InitRng
                0x0002879c       0x1a build/default/production/_ext/1664057780/random.o
                0x0002879c                wc_InitRng

.text.TCPIP_HTTP_Print_config_hostname%1135
                0x000287b6       0x1a
 .text.TCPIP_HTTP_Print_config_hostname
                0x000287b6       0x1a build/default/production/_ext/1360937237/custom_http_app.o
                0x000287b6                TCPIP_HTTP_Print_config_hostname

.text.TCPIP_HTTP_Print_rebootaddr%1136
                0x000287d0       0x1a
 .text.TCPIP_HTTP_Print_rebootaddr
                0x000287d0       0x1a build/default/production/_ext/1360937237/custom_http_app.o
                0x000287d0                TCPIP_HTTP_Print_rebootaddr

.text.strchr%1137
                0x000287ea       0x1a
 .text.strchr   0x000287ea       0x1a c:/program files/microchip/xc32/v3.01/bin/bin/../../lib/gcc/pic32c/8.3.1/../../../../pic32c/lib/thumb/v7e-m+fp/hard\libc_nano.a(lib_a-strchr.o)
                0x000287ea                strchr

.text.__ascii_wctomb%1138
                0x00028804       0x1a
 .text.__ascii_wctomb
                0x00028804       0x1a c:/program files/microchip/xc32/v3.01/bin/bin/../../lib/gcc/pic32c/8.3.1/../../../../pic32c/lib/thumb/v7e-m+fp/hard\libc_nano.a(lib_a-wctomb_r.o)
                0x00028804                __ascii_wctomb

.text.CRYPT_MD5_DataAdd%1139
                0x0002881e       0x18
 .text.CRYPT_MD5_DataAdd
                0x0002881e       0x18 build/default/production/_ext/1645245335/crypto.o
                0x0002881e                CRYPT_MD5_DataAdd

.text.CRYPT_MD5_Finalize%1140
                0x00028836       0x18
 .text.CRYPT_MD5_Finalize
                0x00028836       0x18 build/default/production/_ext/1645245335/crypto.o
                0x00028836                CRYPT_MD5_Finalize

.text.CRYPT_RNG_BlockGenerate%1141
                0x0002884e       0x18
 .text.CRYPT_RNG_BlockGenerate
                0x0002884e       0x18 build/default/production/_ext/1645245335/crypto.o
                0x0002884e                CRYPT_RNG_BlockGenerate

.text.DRV_ETHPHY_Deinitialize%1142
                0x00028868       0x18
 .text.DRV_ETHPHY_Deinitialize
                0x00028868       0x18 build/default/production/_ext/444070925/drv_ethphy.o
                0x00028868                DRV_ETHPHY_Deinitialize

.text._DRV_ETHPHY_NegCompletePhaseResultNoWait%1143
                0x00028880       0x18
 .text._DRV_ETHPHY_NegCompletePhaseResultNoWait
                0x00028880       0x18 build/default/production/_ext/444070925/drv_ethphy.o

.text._DRV_ETHPHY_SetupPhaseNegotiate_SubPhase5%1144
                0x00028898       0x18
 .text._DRV_ETHPHY_SetupPhaseNegotiate_SubPhase5
                0x00028898       0x18 build/default/production/_ext/444070925/drv_ethphy.o

.text._DRV_ETHPHY_LinkStatPhaseIdle%1145
                0x000288b0       0x18
 .text._DRV_ETHPHY_LinkStatPhaseIdle
                0x000288b0       0x18 build/default/production/_ext/444070925/drv_ethphy.o

.text._DRV_ETHPHY_NegCompletePhaseIdle%1146
                0x000288c8       0x18
 .text._DRV_ETHPHY_NegCompletePhaseIdle
                0x000288c8       0x18 build/default/production/_ext/444070925/drv_ethphy.o

.text._DRV_ETHPHY_NegResultPhaseIdle%1147
                0x000288e0       0x18
 .text._DRV_ETHPHY_NegResultPhaseIdle
                0x000288e0       0x18 build/default/production/_ext/444070925/drv_ethphy.o

.text._DRV_ETHPHY_NegRestartPhaseIdle%1148
                0x000288f8       0x18
 .text._DRV_ETHPHY_NegRestartPhaseIdle
                0x000288f8       0x18 build/default/production/_ext/444070925/drv_ethphy.o

.rodata._DRV_PHY_NegCompletePhasesTbl%1149
                0x00028910       0x18
 .rodata._DRV_PHY_NegCompletePhasesTbl
                0x00028910       0x18 build/default/production/_ext/444070925/drv_ethphy.o

.text.DRV_PIC32CGMAC_SingleListHeadAdd%1150
                0x00028928       0x18
 .text.DRV_PIC32CGMAC_SingleListHeadAdd
                0x00028928       0x18 build/default/production/_ext/1546807373/drv_gmac_lib_samE5x.o
                0x00028928                DRV_PIC32CGMAC_SingleListHeadAdd

.text.DRV_PIC32CGMAC_LibSysInt_Restore%1151
                0x00028940       0x18
 .text.DRV_PIC32CGMAC_LibSysInt_Restore
                0x00028940       0x18 build/default/production/_ext/1546807373/drv_gmac_lib_samE5x.o
                0x00028940                DRV_PIC32CGMAC_LibSysInt_Restore

.text.DRV_MIIM_Close%1152
                0x00028958       0x18
 .text.DRV_MIIM_Close
                0x00028958       0x18 build/default/production/_ext/438849557/drv_miim.o
                0x00028958                DRV_MIIM_Close

.text.TCPIP_TCP_Put%1153
                0x00028970       0x18
 .text.TCPIP_TCP_Put
                0x00028970       0x18 build/default/production/_ext/1033058136/tcp.o
                0x00028970                TCPIP_TCP_Put

.text.TCPIP_ARP_HashKeyHash%1154
                0x00028988       0x18
 .text.TCPIP_ARP_HashKeyHash
                0x00028988       0x18 build/default/production/_ext/1033058136/arp.o
                0x00028988                TCPIP_ARP_HashKeyHash

.text.TCPIP_OAHASH_EntryRemove%1155
                0x000289a0       0x18
 .text.TCPIP_OAHASH_EntryRemove
                0x000289a0       0x18 build/default/production/_ext/1033058136/oahash.o
                0x000289a0                TCPIP_OAHASH_EntryRemove

.text.TCPIP_STACK_NetAddressGateway%1156
                0x000289b8       0x18
 .text.TCPIP_STACK_NetAddressGateway
                0x000289b8       0x18 build/default/production/_ext/1033058136/tcpip_manager.o
                0x000289b8                TCPIP_STACK_NetAddressGateway

.text.TCPIP_STACK_NetAddressDnsPrimary%1157
                0x000289d0       0x18
 .text.TCPIP_STACK_NetAddressDnsPrimary
                0x000289d0       0x18 build/default/production/_ext/1033058136/tcpip_manager.o
                0x000289d0                TCPIP_STACK_NetAddressDnsPrimary

.text.TCPIP_STACK_NetAddressDnsSecond%1158
                0x000289e8       0x18
 .text.TCPIP_STACK_NetAddressDnsSecond
                0x000289e8       0x18 build/default/production/_ext/1033058136/tcpip_manager.o
                0x000289e8                TCPIP_STACK_NetAddressDnsSecond

.text.TCPIP_STACK_NetAddressGet%1159
                0x00028a00       0x18
 .text.TCPIP_STACK_NetAddressGet
                0x00028a00       0x18 build/default/production/_ext/1033058136/tcpip_manager.o
                0x00028a00                TCPIP_STACK_NetAddressGet

.text.TCPIP_STACK_NetMaskGet%1160
                0x00028a18       0x18
 .text.TCPIP_STACK_NetMaskGet
                0x00028a18       0x18 build/default/production/_ext/1033058136/tcpip_manager.o
                0x00028a18                TCPIP_STACK_NetMaskGet

.rodata.TCPIP_FRAME_PROCESS_TBL%1161
                0x00028a30       0x18
 .rodata.TCPIP_FRAME_PROCESS_TBL
                0x00028a30       0x18 build/default/production/_ext/1033058136/tcpip_manager.o

.text.OSAL_CRIT_Enter%1162
                0x00028a48       0x18
 .text.OSAL_CRIT_Enter
                0x00028a48       0x18 build/default/production/_ext/1529399856/osal_freertos.o
                0x00028a48                OSAL_CRIT_Enter

.text.OSAL_SEM_Post%1163
                0x00028a60       0x18
 .text.OSAL_SEM_Post
                0x00028a60       0x18 build/default/production/_ext/1529399856/osal_freertos.o
                0x00028a60                OSAL_SEM_Post

.text.OSAL_MUTEX_Create%1164
                0x00028a78       0x18
 .text.OSAL_MUTEX_Create
                0x00028a78       0x18 build/default/production/_ext/1529399856/osal_freertos.o
                0x00028a78                OSAL_MUTEX_Create

.text.OSAL_MUTEX_Unlock%1165
                0x00028a90       0x18
 .text.OSAL_MUTEX_Unlock
                0x00028a90       0x18 build/default/production/_ext/1529399856/osal_freertos.o
                0x00028a90                OSAL_MUTEX_Unlock

.text.SERCOM1_USART_WritePendingBytesGet%1166
                0x00028aa8       0x18
 .text.SERCOM1_USART_WritePendingBytesGet
                0x00028aa8       0x18 build/default/production/_ext/504274921/plib_sercom1_usart.o

.text.SERCOM1_USART_ReadCountGet%1167
                0x00028ac0       0x18
 .text.SERCOM1_USART_ReadCountGet
                0x00028ac0       0x18 build/default/production/_ext/504274921/plib_sercom1_usart.o
                0x00028ac0                SERCOM1_USART_ReadCountGet

.text.TC0_TimerStart%1168
                0x00028ad8       0x18
 .text.TC0_TimerStart
                0x00028ad8       0x18 build/default/production/_ext/829342655/plib_tc0.o
                0x00028ad8                TC0_TimerStart

.text.TC0_TimerStop%1169
                0x00028af0       0x18
 .text.TC0_TimerStop
                0x00028af0       0x18 build/default/production/_ext/829342655/plib_tc0.o
                0x00028af0                TC0_TimerStop

.text._keyDownProcess%1170
                0x00028b08       0x18
 .text._keyDownProcess
                0x00028b08       0x18 build/default/production/_ext/1376093119/sys_command.o

.text.CommandReset%1171
                0x00028b20       0x18
 .text.CommandReset
                0x00028b20       0x18 build/default/production/_ext/1376093119/sys_command.o

.text.SYS_TIME_GetElapsedCount%1172
                0x00028b38       0x18
 .text.SYS_TIME_GetElapsedCount
                0x00028b38       0x18 build/default/production/_ext/101884895/sys_time.o

.text._SYS_RANDOM_CryptoContext%1173
                0x00028b50       0x18
 .text._SYS_RANDOM_CryptoContext
                0x00028b50       0x18 build/default/production/_ext/753841488/sys_random_h2_adapter.o

.rodata.sysConsole0UARTPlibAPI%1174
                0x00028b68       0x18
 .rodata.sysConsole0UARTPlibAPI
                0x00028b68       0x18 build/default/production/_ext/1171490990/initialization.o
                0x00028b68                sysConsole0UARTPlibAPI

.rodata.tcpipDNSClientInitData%1175
                0x00028b80       0x18
 .rodata.tcpipDNSClientInitData
                0x00028b80       0x18 build/default/production/_ext/1171490990/initialization.o
                0x00028b80                tcpipDNSClientInitData

.text._TCPIP_STACK_Task%1176
                0x00028b98       0x18
 .text._TCPIP_STACK_Task
                0x00028b98       0x18 build/default/production/_ext/1171490990/tasks.o
                0x00028b98                _TCPIP_STACK_Task

.text._DRV_MIIM_Task%1177
                0x00028bb0       0x18
 .text._DRV_MIIM_Task
                0x00028bb0       0x18 build/default/production/_ext/1171490990/tasks.o
                0x00028bb0                _DRV_MIIM_Task

.text.vTaskInternalSetTimeOutState%1178
                0x00028bc8       0x18
 .text.vTaskInternalSetTimeOutState
                0x00028bc8       0x18 build/default/production/_ext/404212886/FreeRTOS_tasks.o
                0x00028bc8                vTaskInternalSetTimeOutState

.text.TCPIP_HTTP_Print_ledSelected%1179
                0x00028be0       0x18
 .text.TCPIP_HTTP_Print_ledSelected
                0x00028be0       0x18 build/default/production/_ext/1360937237/custom_http_app.o
                0x00028be0                TCPIP_HTTP_Print_ledSelected

.text.DRV_MIIM_ClientStatus%1180
                0x00028bf8       0x16
 .text.DRV_MIIM_ClientStatus
                0x00028bf8       0x16 build/default/production/_ext/438849557/drv_miim.o
                0x00028bf8                DRV_MIIM_ClientStatus

.text._SNMPSocketRxSignalHandler%1181
                0x00028c0e       0x16
 .text._SNMPSocketRxSignalHandler
                0x00028c0e       0x16 build/default/production/_ext/1033058136/snmp.o

.text.TCPIP_TCP_WasDisconnected%1182
                0x00028c24       0x16
 .text.TCPIP_TCP_WasDisconnected
                0x00028c24       0x16 build/default/production/_ext/1033058136/tcp.o
                0x00028c24                TCPIP_TCP_WasDisconnected

.text._HTTPSocketRxSignalHandler%1183
                0x00028c3a       0x16
 .text._HTTPSocketRxSignalHandler
                0x00028c3a       0x16 build/default/production/_ext/1033058136/http.o

.text._IperfUDPRxSignalHandler%1184
                0x00028c50       0x16
 .text._IperfUDPRxSignalHandler
                0x00028c50       0x16 build/default/production/_ext/1033058136/iperf.o

.text._IperfTCPRxSignalHandler%1185
                0x00028c66       0x16
 .text._IperfTCPRxSignalHandler
                0x00028c66       0x16 build/default/production/_ext/1033058136/iperf.o

.text._TCPIP_HEAP_LastError%1186
                0x00028c7c       0x16
 .text._TCPIP_HEAP_LastError
                0x00028c7c       0x16 build/default/production/_ext/1033058136/tcpip_heap_internal.o

.text._DHCPSocketRxSignalHandler%1187
                0x00028c92       0x16
 .text._DHCPSocketRxSignalHandler
                0x00028c92       0x16 build/default/production/_ext/1033058136/dhcp.o

.text._DNSSocketRxSignalHandler%1188
                0x00028ca8       0x16
 .text._DNSSocketRxSignalHandler
                0x00028ca8       0x16 build/default/production/_ext/1033058136/dns.o

.text.TCPIP_STACK_AddressServiceCanStart%1189
                0x00028cbe       0x16
 .text.TCPIP_STACK_AddressServiceCanStart
                0x00028cbe       0x16 build/default/production/_ext/1033058136/tcpip_manager.o
                0x00028cbe                TCPIP_STACK_AddressServiceCanStart

.text._TCPIPStackPacketTx%1190
                0x00028cd4       0x16
 .text._TCPIPStackPacketTx
                0x00028cd4       0x16 build/default/production/_ext/1033058136/tcpip_manager.o
                0x00028cd4                _TCPIPStackPacketTx

.text.OSAL_CRIT_Leave%1191
                0x00028cea       0x16
 .text.OSAL_CRIT_Leave
                0x00028cea       0x16 build/default/production/_ext/1529399856/osal_freertos.o
                0x00028cea                OSAL_CRIT_Leave

.text.vListInitialise%1192
                0x00028d00       0x16
 .text.vListInitialise
                0x00028d00       0x16 build/default/production/_ext/404212886/list.o
                0x00028d00                vListInitialise

.text.vListInsertEnd%1193
                0x00028d16       0x16
 .text.vListInsertEnd
                0x00028d16       0x16 build/default/production/_ext/404212886/list.o
                0x00028d16                vListInsertEnd

.text.prvIsQueueEmpty%1194
                0x00028d2c       0x16
 .text.prvIsQueueEmpty
                0x00028d2c       0x16 build/default/production/_ext/404212886/queue.o

.text.xQueueCreateCountingSemaphore%1195
                0x00028d42       0x16
 .text.xQueueCreateCountingSemaphore
                0x00028d42       0x16 build/default/production/_ext/404212886/queue.o
                0x00028d42                xQueueCreateCountingSemaphore

.text.wc_InitMd5%1196
                0x00028d58       0x16
 .text.wc_InitMd5
                0x00028d58       0x16 build/default/production/_ext/1664057780/md5.o
                0x00028d58                wc_InitMd5

.rodata._DRV_PHY_NegResultPhasesTbl%1197
                0x00028d70       0x14
 .rodata._DRV_PHY_NegResultPhasesTbl
                0x00028d70       0x14 build/default/production/_ext/444070925/drv_ethphy.o

.rodata.DRV_ETHPHY_OBJECT_KSZ8081%1198
                0x00028d84       0x14
 .rodata.DRV_ETHPHY_OBJECT_KSZ8081
                0x00028d84       0x14 build/default/production/_ext/444070925/drv_extphy_ksz8081.o
                0x00028d84                DRV_ETHPHY_OBJECT_KSZ8081

.rodata._DRV_GMAC_LinkStateTbl%1199
                0x00028d98       0x14
 .rodata._DRV_GMAC_LinkStateTbl
                0x00028d98       0x14 build/default/production/_ext/1546807373/drv_gmac.o

.text.DRV_PIC32CGMAC_LibGetHighPrioReadyQue%1200
                0x00028dac       0x14
 .text.DRV_PIC32CGMAC_LibGetHighPrioReadyQue
                0x00028dac       0x14 build/default/production/_ext/1546807373/drv_gmac_lib_samE5x.o
                0x00028dac                DRV_PIC32CGMAC_LibGetHighPrioReadyQue

.text.DRV_MEMORY_RegisterWithSysFs%1201
                0x00028dc0       0x14
 .text.DRV_MEMORY_RegisterWithSysFs
                0x00028dc0       0x14 build/default/production/_ext/992804092/drv_memory_file_system.o
                0x00028dc0                DRV_MEMORY_RegisterWithSysFs

.rodata.dataTypeTable%1202
                0x00028dd4       0x14
 .rodata.dataTypeTable
                0x00028dd4       0x14 build/default/production/_ext/1033058136/snmp.o

.text.Ipv4DeRegisterCallback%1203
                0x00028de8       0x14
 .text.Ipv4DeRegisterCallback
                0x00028de8       0x14 build/default/production/_ext/1033058136/ipv4.o

.text.TCPIP_HEAP_Create%1204
                0x00028dfc       0x14
 .text.TCPIP_HEAP_Create
                0x00028dfc       0x14 build/default/production/_ext/1033058136/tcpip_heap_alloc.o
                0x00028dfc                TCPIP_HEAP_Create

.text._DHCPOptionWriteEnd%1205
                0x00028e10       0x14
 .text._DHCPOptionWriteEnd
                0x00028e10       0x14 build/default/production/_ext/1033058136/dhcp.o

.text.TCPIP_STACK_NetUpMACAddressGet%1206
                0x00028e24       0x14
 .text.TCPIP_STACK_NetUpMACAddressGet
                0x00028e24       0x14 build/default/production/_ext/1033058136/tcpip_manager.o
                0x00028e24                TCPIP_STACK_NetUpMACAddressGet

.text.TCPIP_STACK_HeapHandleGet%1207
                0x00028e38       0x14
 .text.TCPIP_STACK_HeapHandleGet
                0x00028e38       0x14 build/default/production/_ext/1033058136/tcpip_manager.o
                0x00028e38                TCPIP_STACK_HeapHandleGet

.text.NVMCTRL_IsBusy%1208
                0x00028e4c       0x14
 .text.NVMCTRL_IsBusy
                0x00028e4c       0x14 build/default/production/_ext/1593096446/plib_nvmctrl.o
                0x00028e4c                NVMCTRL_IsBusy

.text.SERCOM1_USART_ReadFreeBufferCountGet%1209
                0x00028e60       0x14
 .text.SERCOM1_USART_ReadFreeBufferCountGet
                0x00028e60       0x14 build/default/production/_ext/504274921/plib_sercom1_usart.o
                0x00028e60                SERCOM1_USART_ReadFreeBufferCountGet

.text.SERCOM1_USART_WriteFreeBufferCountGet%1210
                0x00028e74       0x14
 .text.SERCOM1_USART_WriteFreeBufferCountGet
                0x00028e74       0x14 build/default/production/_ext/504274921/plib_sercom1_usart.o
                0x00028e74                SERCOM1_USART_WriteFreeBufferCountGet

.text.TC0_Timer16bitPeriodSet%1211
                0x00028e88       0x14
 .text.TC0_Timer16bitPeriodSet
                0x00028e88       0x14 build/default/production/_ext/829342655/plib_tc0.o
                0x00028e88                TC0_Timer16bitPeriodSet

.text.TC0_Timer16bitCompareSet%1212
                0x00028e9c       0x14
 .text.TC0_Timer16bitCompareSet
                0x00028e9c       0x14 build/default/production/_ext/829342655/plib_tc0.o
                0x00028e9c                TC0_Timer16bitCompareSet

.rodata.sysConsoleApi%1213
                0x00028eb0       0x14
 .rodata.sysConsoleApi
                0x00028eb0       0x14 build/default/production/_ext/1376093119/sys_command.o
                0x00028eb0                sysConsoleApi

.text.Console_UART_ResourceLock%1214
                0x00028ec4       0x14
 .text.Console_UART_ResourceLock
                0x00028ec4       0x14 build/default/production/_ext/1832805299/sys_console_uart.o

.text.vPortEnableVFP%1215
                0x00028ed8       0x14
 .text.vPortEnableVFP
                0x00028ed8       0x14 build/default/production/_ext/246609638/port.o

.text.vPortExitCritical%1216
                0x00028eec       0x14
 .text.vPortExitCritical
                0x00028eec       0x14 build/default/production/_ext/246609638/port.o
                0x00028eec                vPortExitCritical

.text.CRYPT_WCCB_Initialize%1217
                0x00028f00       0x14
 .text.CRYPT_WCCB_Initialize
                0x00028f00       0x14 build/default/production/_ext/172253694/crypt_wolfcryptcb.o
                0x00028f00                CRYPT_WCCB_Initialize

.text.TCPIP_HTTP_Print_version%1218
                0x00028f14       0x14
 .text.TCPIP_HTTP_Print_version
                0x00028f14       0x14 build/default/production/_ext/1360937237/custom_http_app.o
                0x00028f14                TCPIP_HTTP_Print_version

.text.TCPIP_HTTP_Print_ddns_status%1219
                0x00028f28       0x14
 .text.TCPIP_HTTP_Print_ddns_status
                0x00028f28       0x14 build/default/production/_ext/1360937237/custom_http_app.o
                0x00028f28                TCPIP_HTTP_Print_ddns_status

.text.TCPIP_HTTP_Print_snmp_en%1220
                0x00028f3c       0x14
 .text.TCPIP_HTTP_Print_snmp_en
                0x00028f3c       0x14 build/default/production/_ext/1360937237/custom_http_app.o
                0x00028f3c                TCPIP_HTTP_Print_snmp_en

.text%1221      0x00028f50       0x14
 .text          0x00028f50       0x14 c:/program files/microchip/xc32/v3.01/bin/bin/../../lib/gcc/pic32c/8.3.1/../../../../pic32c/lib/thumb/v7e-m+fp/hard\libc_nano.a(lib_a-strcmp.o)
                0x00028f50                strcmp

.text.strtol%1222
                0x00028f64       0x14
 .text.strtol   0x00028f64       0x14 c:/program files/microchip/xc32/v3.01/bin/bin/../../lib/gcc/pic32c/8.3.1/../../../../pic32c/lib/thumb/v7e-m+fp/hard\libc_nano.a(lib_a-strtol.o)
                0x00028f64                strtol

.text.CRYPT_MD5_Initialize%1223
                0x00028f78       0x12
 .text.CRYPT_MD5_Initialize
                0x00028f78       0x12 build/default/production/_ext/1645245335/crypto.o
                0x00028f78                CRYPT_MD5_Initialize

.text.TCPIP_TCP_GetIsReady%1224
                0x00028f8a       0x12
 .text.TCPIP_TCP_GetIsReady
                0x00028f8a       0x12 build/default/production/_ext/1033058136/tcp.o
                0x00028f8a                TCPIP_TCP_GetIsReady

.text._TCPIP_HEAP_FreeSize%1225
                0x00028f9c       0x12
 .text._TCPIP_HEAP_FreeSize
                0x00028f9c       0x12 build/default/production/_ext/1033058136/tcpip_heap_internal.o

.text.TCPIP_OAHASH_EntryGet%1226
                0x00028fae       0x12
 .text.TCPIP_OAHASH_EntryGet
                0x00028fae       0x12 build/default/production/_ext/1033058136/oahash.o
                0x00028fae                TCPIP_OAHASH_EntryGet

.text.OSAL_SEM_Delete%1227
                0x00028fc0       0x12
 .text.OSAL_SEM_Delete
                0x00028fc0       0x12 build/default/production/_ext/1529399856/osal_freertos.o
                0x00028fc0                OSAL_SEM_Delete

.text.NVIC_INT_Disable%1228
                0x00028fd2       0x12
 .text.NVIC_INT_Disable
                0x00028fd2       0x12 build/default/production/_ext/1865468468/plib_nvic.o
                0x00028fd2                NVIC_INT_Disable

.text.NVIC_INT_Restore%1229
                0x00028fe4       0x12
 .text.NVIC_INT_Restore
                0x00028fe4       0x12 build/default/production/_ext/1865468468/plib_nvic.o
                0x00028fe4                NVIC_INT_Restore

.text.vApplicationStackOverflowHook%1230
                0x00028ff6       0x12
 .text.vApplicationStackOverflowHook
                0x00028ff6       0x12 build/default/production/_ext/1171490990/freertos_hooks.o
                0x00028ff6                vApplicationStackOverflowHook

.text.vApplicationMallocFailedHook%1231
                0x00029008       0x12
 .text.vApplicationMallocFailedHook
                0x00029008       0x12 build/default/production/_ext/1171490990/freertos_hooks.o
                0x00029008                vApplicationMallocFailedHook

.rodata%1232    0x0002901a       0x12
 .rodata        0x0002901a       0x12 c:/program files/microchip/xc32/v3.01/bin/bin/../../lib/gcc/pic32c/8.3.1/../../../../pic32c/lib/thumb/v7e-m+fp/hard\libc_nano.a(lib_a-nano-vfprintf_float.o)

.text.__i2b%1233
                0x0002902c       0x12
 .text.__i2b    0x0002902c       0x12 c:/program files/microchip/xc32/v3.01/bin/bin/../../lib/gcc/pic32c/8.3.1/../../../../pic32c/lib/thumb/v7e-m+fp/hard\libc_nano.a(lib_a-mprec.o)
                0x0002902c                __i2b

.rodata%1234    0x0002903e       0x11
 .rodata        0x0002903e       0x11 c:/program files/microchip/xc32/v3.01/bin/bin/../../lib/gcc/pic32c/8.3.1/../../../../pic32c/lib/thumb/v7e-m+fp/hard\libc_nano.a(lib_a-nano-svfprintf.o)

.text.CRYPT_RNG_Initialize%1235
                0x00029050       0x10
 .text.CRYPT_RNG_Initialize
                0x00029050       0x10 build/default/production/_ext/1645245335/crypto.o
                0x00029050                CRYPT_RNG_Initialize

.rodata._DRV_PHY_SetupPhasesTbl%1236
                0x00029060       0x10
 .rodata._DRV_PHY_SetupPhasesTbl
                0x00029060       0x10 build/default/production/_ext/444070925/drv_ethphy.o

.text.DRV_EXTPHY_MIIConfigure%1237
                0x00029070       0x10
 .text.DRV_EXTPHY_MIIConfigure
                0x00029070       0x10 build/default/production/_ext/444070925/drv_extphy_ksz8081.o

.text.DRV_PIC32CGMAC_LibSetInterruptSrc%1238
                0x00029080       0x10
 .text.DRV_PIC32CGMAC_LibSetInterruptSrc
                0x00029080       0x10 build/default/production/_ext/1546807373/drv_gmac_lib_samE5x.o
                0x00029080                DRV_PIC32CGMAC_LibSetInterruptSrc

.text.DRV_MEMORY_EventHandler%1239
                0x00029090       0x10
 .text.DRV_MEMORY_EventHandler
                0x00029090       0x10 build/default/production/_ext/992804092/drv_memory.o

.rodata.gMemoryXferFuncPtr%1240
                0x000290a0       0x10
 .rodata.gMemoryXferFuncPtr
                0x000290a0       0x10 build/default/production/_ext/992804092/drv_memory.o

.text._Shell_ObjectLock%1241
                0x000290b0       0x10
 .text._Shell_ObjectLock
                0x000290b0       0x10 build/default/production/_ext/1751889202/sys_fs_shell.o

.text.TCPIP_SNMP_AuthTrapFlagSet%1242
                0x000290c0       0x10
 .text.TCPIP_SNMP_AuthTrapFlagSet
                0x000290c0       0x10 build/default/production/_ext/1033058136/snmp.o
                0x000290c0                TCPIP_SNMP_AuthTrapFlagSet

.text.TCPIP_TCP_SocketNetGet%1243
                0x000290d0       0x10
 .text.TCPIP_TCP_SocketNetGet
                0x000290d0       0x10 build/default/production/_ext/1033058136/tcp.o
                0x000290d0                TCPIP_TCP_SocketNetGet

.rodata.heapTypeStr.15589%1244
                0x000290e0       0x10
 .rodata.heapTypeStr.15589
                0x000290e0       0x10 build/default/production/_ext/1033058136/tcpip_commands.o

.text.TCPIP_DNS_GetIPv4Addresses%1245
                0x000290f0       0x10
 .text.TCPIP_DNS_GetIPv4Addresses
                0x000290f0       0x10 build/default/production/_ext/1033058136/dns.o
                0x000290f0                TCPIP_DNS_GetIPv4Addresses

.text.TCPIP_DNS_GetIPv6Addresses%1246
                0x00029100       0x10
 .text.TCPIP_DNS_GetIPv6Addresses
                0x00029100       0x10 build/default/production/_ext/1033058136/dns.o
                0x00029100                TCPIP_DNS_GetIPv6Addresses

.text.TCPIP_Notification_Deinitialize%1247
                0x00029110       0x10
 .text.TCPIP_Notification_Deinitialize
                0x00029110       0x10 build/default/production/_ext/1033058136/tcpip_notify.o
                0x00029110                TCPIP_Notification_Deinitialize

.text.TCPIP_UDP_SocketNetGet%1248
                0x00029120       0x10
 .text.TCPIP_UDP_SocketNetGet
                0x00029120       0x10 build/default/production/_ext/1033058136/udp.o
                0x00029120                TCPIP_UDP_SocketNetGet

.text.NVMCTRL_Initialize%1249
                0x00029130       0x10
 .text.NVMCTRL_Initialize
                0x00029130       0x10 build/default/production/_ext/1593096446/plib_nvmctrl.o
                0x00029130                NVMCTRL_Initialize

.text.NVMCTRL_Read%1250
                0x00029140       0x10
 .text.NVMCTRL_Read
                0x00029140       0x10 build/default/production/_ext/1593096446/plib_nvmctrl.o
                0x00029140                NVMCTRL_Read

.text.IsCommandReady%1251
                0x00029150       0x10
 .text.IsCommandReady
                0x00029150       0x10 build/default/production/_ext/1376093119/sys_command.o

.text.Console_UART_Status%1252
                0x00029160       0x10
 .text.Console_UART_Status
                0x00029160       0x10 build/default/production/_ext/1832805299/sys_console_uart.o
                0x00029160                Console_UART_Status

.text.SYS_FS_DirectoryMake%1253
                0x00029170       0x10
 .text.SYS_FS_DirectoryMake
                0x00029170       0x10 build/default/production/_ext/1269487135/sys_fs.o
                0x00029170                SYS_FS_DirectoryMake

.text.SYS_FS_FileDirectoryRemove%1254
                0x00029180       0x10
 .text.SYS_FS_FileDirectoryRemove
                0x00029180       0x10 build/default/production/_ext/1269487135/sys_fs.o
                0x00029180                SYS_FS_FileDirectoryRemove

.text.sy_time_h2_adapter_callback%1255
                0x00029190       0x10
 .text.sy_time_h2_adapter_callback
                0x00029190       0x10 build/default/production/_ext/753841488/sys_time_h2_adapter.o
                0x00029190                sy_time_h2_adapter_callback

.rodata.tcpipDHCPInitData%1256
                0x000291a0       0x10
 .rodata.tcpipDHCPInitData
                0x000291a0       0x10 build/default/production/_ext/1171490990/initialization.o
                0x000291a0                tcpipDHCPInitData

.rodata.tcpipIPv4InitData%1257
                0x000291b0       0x10
 .rodata.tcpipIPv4InitData
                0x000291b0       0x10 build/default/production/_ext/1171490990/initialization.o
                0x000291b0                tcpipIPv4InitData

.text._APP_Tasks%1258
                0x000291c0       0x10
 .text._APP_Tasks
                0x000291c0       0x10 build/default/production/_ext/1171490990/tasks.o
                0x000291c0                _APP_Tasks

.text._SYS_CMD_Tasks%1259
                0x000291d0       0x10
 .text._SYS_CMD_Tasks
                0x000291d0       0x10 build/default/production/_ext/1171490990/tasks.o
                0x000291d0                _SYS_CMD_Tasks

.text._SYS_FS_Tasks%1260
                0x000291e0       0x10
 .text._SYS_FS_Tasks
                0x000291e0       0x10 build/default/production/_ext/1171490990/tasks.o
                0x000291e0                _SYS_FS_Tasks

.text.vTaskSuspendAll%1261
                0x000291f0       0x10
 .text.vTaskSuspendAll
                0x000291f0       0x10 build/default/production/_ext/404212886/FreeRTOS_tasks.o
                0x000291f0                vTaskSuspendAll

.text.APP_Initialize%1262
                0x00029200       0x10
 .text.APP_Initialize
                0x00029200       0x10 build/default/production/_ext/1360937237/app.o
                0x00029200                APP_Initialize

.text.calloc%1263
                0x00029210       0x10
 .text.calloc   0x00029210       0x10 c:/program files/microchip/xc32/v3.01/bin/bin/../../lib/gcc/pic32c/8.3.1/../../../../pic32c/lib/thumb/v7e-m+fp/hard\libc_nano.a(lib_a-calloc.o)
                0x00029210                calloc

.text.malloc%1264
                0x00029220       0x10
 .text.malloc   0x00029220       0x10 c:/program files/microchip/xc32/v3.01/bin/bin/../../lib/gcc/pic32c/8.3.1/../../../../pic32c/lib/thumb/v7e-m+fp/hard\libc_nano.a(lib_a-malloc.o)
                0x00029220                malloc

.text.free%1265
                0x00029230       0x10
 .text.free     0x00029230       0x10 c:/program files/microchip/xc32/v3.01/bin/bin/../../lib/gcc/pic32c/8.3.1/../../../../pic32c/lib/thumb/v7e-m+fp/hard\libc_nano.a(lib_a-malloc.o)
                0x00029230                free

.text.memset%1266
                0x00029240       0x10
 .text.memset   0x00029240       0x10 c:/program files/microchip/xc32/v3.01/bin/bin/../../lib/gcc/pic32c/8.3.1/../../../../pic32c/lib/thumb/v7e-m+fp/hard\libc_nano.a(lib_a-memset.o)
                0x00029240                memset

.text.strcpy%1267
                0x00029250       0x10
 .text.strcpy   0x00029250       0x10 c:/program files/microchip/xc32/v3.01/bin/bin/../../lib/gcc/pic32c/8.3.1/../../../../pic32c/lib/thumb/v7e-m+fp/hard\libc_nano.a(lib_a-strcpy.o)
                0x00029250                strcpy

.text%1268      0x00029260       0x10
 .text          0x00029260       0x10 c:/program files/microchip/xc32/v3.01/bin/bin/../../lib/gcc/pic32c/8.3.1/../../../../pic32c/lib/thumb/v7e-m+fp/hard\libc_nano.a(lib_a-strlen.o)
                0x00029260                strlen

.text._malloc_usable_size_r%1269
                0x00029270       0x10
 .text._malloc_usable_size_r
                0x00029270       0x10 c:/program files/microchip/xc32/v3.01/bin/bin/../../lib/gcc/pic32c/8.3.1/../../../../pic32c/lib/thumb/v7e-m+fp/hard\libc_nano.a(lib_a-nano-msizer.o)
                0x00029270                _malloc_usable_size_r

.rodata%1270    0x00029280        0xf
 .rodata        0x00029280        0xf c:/program files/microchip/xc32/v3.01/bin/bin/../../lib/gcc/pic32c/8.3.1/../../../../pic32c/lib/thumb/v7e-m+fp/hard\libc_nano.a(lib_a-dtoa.o)

.text.DRV_PIC32CGMAC_LibSetPriorityToQueueNum%1271
                0x00029290        0xe
 .text.DRV_PIC32CGMAC_LibSetPriorityToQueueNum
                0x00029290        0xe build/default/production/_ext/1546807373/drv_gmac_lib_samE5x.o
                0x00029290                DRV_PIC32CGMAC_LibSetPriorityToQueueNum

.text.DRV_NVMCTRL_TransferStatusGet%1272
                0x0002929e        0xe
 .text.DRV_NVMCTRL_TransferStatusGet
                0x0002929e        0xe build/default/production/_ext/992804092/drv_memory_nvmctrl.o
                0x0002929e                DRV_NVMCTRL_TransferStatusGet

.text.DRV_NVMCTRL_Read%1273
                0x000292ac        0xe
 .text.DRV_NVMCTRL_Read
                0x000292ac        0xe build/default/production/_ext/992804092/drv_memory_nvmctrl.o
                0x000292ac                DRV_NVMCTRL_Read

.text.Shell_FileWrite%1274
                0x000292ba        0xe
 .text.Shell_FileWrite
                0x000292ba        0xe build/default/production/_ext/1751889202/sys_fs_shell.o

.text.Shell_FileRead%1275
                0x000292c8        0xe
 .text.Shell_FileRead
                0x000292c8        0xe build/default/production/_ext/1751889202/sys_fs_shell.o

.text.Shell_FileSeek%1276
                0x000292d6        0xe
 .text.Shell_FileSeek
                0x000292d6        0xe build/default/production/_ext/1751889202/sys_fs_shell.o

.text.btohexa_low%1277
                0x000292e4        0xe
 .text.btohexa_low
                0x000292e4        0xe build/default/production/_ext/1033058136/helpers.o
                0x000292e4                btohexa_low

.text.TCPIP_HTTP_CurrentConnectionCallbackPosSet%1278
                0x000292f2        0xe
 .text.TCPIP_HTTP_CurrentConnectionCallbackPosSet
                0x000292f2        0xe build/default/production/_ext/1033058136/http.o
                0x000292f2                TCPIP_HTTP_CurrentConnectionCallbackPosSet

.text.TCPIP_Helper_ChecksumFold%1279
                0x00029300        0xe
 .text.TCPIP_Helper_ChecksumFold
                0x00029300        0xe build/default/production/_ext/1033058136/tcpip_helpers.o
                0x00029300                TCPIP_Helper_ChecksumFold

.text.TCPIP_STACK_NetIndexGet%1280
                0x0002930e        0xe
 .text.TCPIP_STACK_NetIndexGet
                0x0002930e        0xe build/default/production/_ext/1033058136/tcpip_manager.o
                0x0002930e                TCPIP_STACK_NetIndexGet

.text.TCPIP_STACK_NetIxGet%1281
                0x0002931c        0xe
 .text.TCPIP_STACK_NetIxGet
                0x0002931c        0xe build/default/production/_ext/1033058136/tcpip_manager.o
                0x0002931c                TCPIP_STACK_NetIxGet

.text._TCPIPStackSignalHandlerDeregister%1282
                0x0002932a        0xe
 .text._TCPIPStackSignalHandlerDeregister
                0x0002932a        0xe build/default/production/_ext/1033058136/tcpip_manager.o
                0x0002932a                _TCPIPStackSignalHandlerDeregister

.text.main%1283
                0x00029338        0xe
 .text.main     0x00029338        0xe build/default/production/_ext/1360937237/main.o
                0x00029338                main

.text.TCPIP_HTTP_Print_myVariable%1284
                0x00029346        0xe
 .text.TCPIP_HTTP_Print_myVariable
                0x00029346        0xe build/default/production/_ext/1360937237/http_print.o
                0x00029346                TCPIP_HTTP_Print_myVariable

.text.TCPIP_HTTP_Print_led%1285
                0x00029354        0xe
 .text.TCPIP_HTTP_Print_led
                0x00029354        0xe build/default/production/_ext/1360937237/custom_http_app.o
                0x00029354                TCPIP_HTTP_Print_led

.rodata._DRV_PHY_LinkStatPhasesTbl%1286
                0x00029364        0xc
 .rodata._DRV_PHY_LinkStatPhasesTbl
                0x00029364        0xc build/default/production/_ext/444070925/drv_ethphy.o

.rodata._DRV_PHY_NegRestartPhasesTbl%1287
                0x00029370        0xc
 .rodata._DRV_PHY_NegRestartPhasesTbl
                0x00029370        0xc build/default/production/_ext/444070925/drv_ethphy.o

.rodata._DRV_PHY_ResetPhasesTbl%1288
                0x0002937c        0xc
 .rodata._DRV_PHY_ResetPhasesTbl
                0x0002937c        0xc build/default/production/_ext/444070925/drv_ethphy.o

.text._DRV_GMAC_GetTxOctetLow%1289
                0x00029388        0xc
 .text._DRV_GMAC_GetTxOctetLow
                0x00029388        0xc build/default/production/_ext/1546807373/drv_gmac.o

.text._DRV_GMAC_GetTxOctetHigh%1290
                0x00029394        0xc
 .text._DRV_GMAC_GetTxOctetHigh
                0x00029394        0xc build/default/production/_ext/1546807373/drv_gmac.o

.text._DRV_GMAC_GetTxFrameCount%1291
                0x000293a0        0xc
 .text._DRV_GMAC_GetTxFrameCount
                0x000293a0        0xc build/default/production/_ext/1546807373/drv_gmac.o

.text._DRV_GMAC_GetTxBCastFrameCount%1292
                0x000293ac        0xc
 .text._DRV_GMAC_GetTxBCastFrameCount
                0x000293ac        0xc build/default/production/_ext/1546807373/drv_gmac.o

.text._DRV_GMAC_GetTxMCastFrameCount%1293
                0x000293b8        0xc
 .text._DRV_GMAC_GetTxMCastFrameCount
                0x000293b8        0xc build/default/production/_ext/1546807373/drv_gmac.o

.text._DRV_GMAC_GetTxPauseFrameCount%1294
                0x000293c4        0xc
 .text._DRV_GMAC_GetTxPauseFrameCount
                0x000293c4        0xc build/default/production/_ext/1546807373/drv_gmac.o

.text._DRV_GMAC_GetTx64ByteFrameCount%1295
                0x000293d0        0xc
 .text._DRV_GMAC_GetTx64ByteFrameCount
                0x000293d0        0xc build/default/production/_ext/1546807373/drv_gmac.o

.text._DRV_GMAC_GetTx127ByteFrameCount%1296
                0x000293dc        0xc
 .text._DRV_GMAC_GetTx127ByteFrameCount
                0x000293dc        0xc build/default/production/_ext/1546807373/drv_gmac.o

.text._DRV_GMAC_GetTx255ByteFrameCount%1297
                0x000293e8        0xc
 .text._DRV_GMAC_GetTx255ByteFrameCount
                0x000293e8        0xc build/default/production/_ext/1546807373/drv_gmac.o

.text._DRV_GMAC_GetTx511ByteFrameCount%1298
                0x000293f4        0xc
 .text._DRV_GMAC_GetTx511ByteFrameCount
                0x000293f4        0xc build/default/production/_ext/1546807373/drv_gmac.o

.text._DRV_GMAC_GetTx1023ByteFrameCount%1299
                0x00029400        0xc
 .text._DRV_GMAC_GetTx1023ByteFrameCount
                0x00029400        0xc build/default/production/_ext/1546807373/drv_gmac.o

.text._DRV_GMAC_GetTx1518ByteFrameCount%1300
                0x0002940c        0xc
 .text._DRV_GMAC_GetTx1518ByteFrameCount
                0x0002940c        0xc build/default/production/_ext/1546807373/drv_gmac.o

.text._DRV_GMAC_GetTxGT1518ByteFrameCount%1301
                0x00029418        0xc
 .text._DRV_GMAC_GetTxGT1518ByteFrameCount
                0x00029418        0xc build/default/production/_ext/1546807373/drv_gmac.o

.text._DRV_GMAC_GetTxUnderRunFrameCount%1302
                0x00029424        0xc
 .text._DRV_GMAC_GetTxUnderRunFrameCount
                0x00029424        0xc build/default/production/_ext/1546807373/drv_gmac.o

.text._DRV_GMAC_GetTxSingleCollFrameCount%1303
                0x00029430        0xc
 .text._DRV_GMAC_GetTxSingleCollFrameCount
                0x00029430        0xc build/default/production/_ext/1546807373/drv_gmac.o

.text._DRV_GMAC_GetTxMultiCollFrameCount%1304
                0x0002943c        0xc
 .text._DRV_GMAC_GetTxMultiCollFrameCount
                0x0002943c        0xc build/default/production/_ext/1546807373/drv_gmac.o

.text._DRV_GMAC_GetTxExcessCollFrameCount%1305
                0x00029448        0xc
 .text._DRV_GMAC_GetTxExcessCollFrameCount
                0x00029448        0xc build/default/production/_ext/1546807373/drv_gmac.o

.text._DRV_GMAC_GetTxLateCollFrameCount%1306
                0x00029454        0xc
 .text._DRV_GMAC_GetTxLateCollFrameCount
                0x00029454        0xc build/default/production/_ext/1546807373/drv_gmac.o

.text._DRV_GMAC_GetTxDeferFrameCount%1307
                0x00029460        0xc
 .text._DRV_GMAC_GetTxDeferFrameCount
                0x00029460        0xc build/default/production/_ext/1546807373/drv_gmac.o

.text._DRV_GMAC_GetTxCSErrorFrameCount%1308
                0x0002946c        0xc
 .text._DRV_GMAC_GetTxCSErrorFrameCount
                0x0002946c        0xc build/default/production/_ext/1546807373/drv_gmac.o

.text._DRV_GMAC_GetRxOctetLow%1309
                0x00029478        0xc
 .text._DRV_GMAC_GetRxOctetLow
                0x00029478        0xc build/default/production/_ext/1546807373/drv_gmac.o

.text._DRV_GMAC_GetRxOctetHigh%1310
                0x00029484        0xc
 .text._DRV_GMAC_GetRxOctetHigh
                0x00029484        0xc build/default/production/_ext/1546807373/drv_gmac.o

.text._DRV_GMAC_GetRxFrameCount%1311
                0x00029490        0xc
 .text._DRV_GMAC_GetRxFrameCount
                0x00029490        0xc build/default/production/_ext/1546807373/drv_gmac.o

.text._DRV_GMAC_GetRxBCastFrameCount%1312
                0x0002949c        0xc
 .text._DRV_GMAC_GetRxBCastFrameCount
                0x0002949c        0xc build/default/production/_ext/1546807373/drv_gmac.o

.text._DRV_GMAC_GetRxMCastFrameCount%1313
                0x000294a8        0xc
 .text._DRV_GMAC_GetRxMCastFrameCount
                0x000294a8        0xc build/default/production/_ext/1546807373/drv_gmac.o

.text._DRV_GMAC_GetRxPauseFrameCount%1314
                0x000294b4        0xc
 .text._DRV_GMAC_GetRxPauseFrameCount
                0x000294b4        0xc build/default/production/_ext/1546807373/drv_gmac.o

.text._DRV_GMAC_GetRx64ByteFrameCount%1315
                0x000294c0        0xc
 .text._DRV_GMAC_GetRx64ByteFrameCount
                0x000294c0        0xc build/default/production/_ext/1546807373/drv_gmac.o

.text._DRV_GMAC_GetRx127ByteFrameCount%1316
                0x000294cc        0xc
 .text._DRV_GMAC_GetRx127ByteFrameCount
                0x000294cc        0xc build/default/production/_ext/1546807373/drv_gmac.o

.text._DRV_GMAC_GetRx255ByteFrameCount%1317
                0x000294d8        0xc
 .text._DRV_GMAC_GetRx255ByteFrameCount
                0x000294d8        0xc build/default/production/_ext/1546807373/drv_gmac.o

.text._DRV_GMAC_GetRx511ByteFrameCount%1318
                0x000294e4        0xc
 .text._DRV_GMAC_GetRx511ByteFrameCount
                0x000294e4        0xc build/default/production/_ext/1546807373/drv_gmac.o

.text._DRV_GMAC_GetRx1023ByteFrameCount%1319
                0x000294f0        0xc
 .text._DRV_GMAC_GetRx1023ByteFrameCount
                0x000294f0        0xc build/default/production/_ext/1546807373/drv_gmac.o

.text._DRV_GMAC_GetRx1518ByteFrameCount%1320
                0x000294fc        0xc
 .text._DRV_GMAC_GetRx1518ByteFrameCount
                0x000294fc        0xc build/default/production/_ext/1546807373/drv_gmac.o

.text._DRV_GMAC_GetRxGT1518ByteFrameCount%1321
                0x00029508        0xc
 .text._DRV_GMAC_GetRxGT1518ByteFrameCount
                0x00029508        0xc build/default/production/_ext/1546807373/drv_gmac.o

.text._DRV_GMAC_GetRxUnderSizeFrameCount%1322
                0x00029514        0xc
 .text._DRV_GMAC_GetRxUnderSizeFrameCount
                0x00029514        0xc build/default/production/_ext/1546807373/drv_gmac.o

.text._DRV_GMAC_GetRxOverSizeFrameCount%1323
                0x00029520        0xc
 .text._DRV_GMAC_GetRxOverSizeFrameCount
                0x00029520        0xc build/default/production/_ext/1546807373/drv_gmac.o

.text._DRV_GMAC_GetRxJabberFrameCount%1324
                0x0002952c        0xc
 .text._DRV_GMAC_GetRxJabberFrameCount
                0x0002952c        0xc build/default/production/_ext/1546807373/drv_gmac.o

.text._DRV_GMAC_GetRxFCSErrorFrameCount%1325
                0x00029538        0xc
 .text._DRV_GMAC_GetRxFCSErrorFrameCount
                0x00029538        0xc build/default/production/_ext/1546807373/drv_gmac.o

.text._DRV_GMAC_GetRxLFErrorFrameCount%1326
                0x00029544        0xc
 .text._DRV_GMAC_GetRxLFErrorFrameCount
                0x00029544        0xc build/default/production/_ext/1546807373/drv_gmac.o

.text._DRV_GMAC_GetRxSymErrorFrameCount%1327
                0x00029550        0xc
 .text._DRV_GMAC_GetRxSymErrorFrameCount
                0x00029550        0xc build/default/production/_ext/1546807373/drv_gmac.o

.text._DRV_GMAC_GetRxAlignErrorFrameCount%1328
                0x0002955c        0xc
 .text._DRV_GMAC_GetRxAlignErrorFrameCount
                0x0002955c        0xc build/default/production/_ext/1546807373/drv_gmac.o

.text._DRV_GMAC_GetRxResErrorFrameCount%1329
                0x00029568        0xc
 .text._DRV_GMAC_GetRxResErrorFrameCount
                0x00029568        0xc build/default/production/_ext/1546807373/drv_gmac.o

.text._DRV_GMAC_GetRxOverRunFrameCount%1330
                0x00029574        0xc
 .text._DRV_GMAC_GetRxOverRunFrameCount
                0x00029574        0xc build/default/production/_ext/1546807373/drv_gmac.o

.text._DRV_GMAC_GetRxIPHdrCSErrorFrameCount%1331
                0x00029580        0xc
 .text._DRV_GMAC_GetRxIPHdrCSErrorFrameCount
                0x00029580        0xc build/default/production/_ext/1546807373/drv_gmac.o

.text._DRV_GMAC_GetRxTCPCSErrorFrameCount%1332
                0x0002958c        0xc
 .text._DRV_GMAC_GetRxTCPCSErrorFrameCount
                0x0002958c        0xc build/default/production/_ext/1546807373/drv_gmac.o

.text._DRV_GMAC_GetRxUDPCSErrorFrameCount%1333
                0x00029598        0xc
 .text._DRV_GMAC_GetRxUDPCSErrorFrameCount
                0x00029598        0xc build/default/production/_ext/1546807373/drv_gmac.o

.text.DRV_PIC32CGMAC_LibReadInterruptStatus%1334
                0x000295a4        0xc
 .text.DRV_PIC32CGMAC_LibReadInterruptStatus
                0x000295a4        0xc build/default/production/_ext/1546807373/drv_gmac_lib_samE5x.o
                0x000295a4                DRV_PIC32CGMAC_LibReadInterruptStatus

.text.DRV_PIC32CGMAC_LibEnableInterrupt%1335
                0x000295b0        0xc
 .text.DRV_PIC32CGMAC_LibEnableInterrupt
                0x000295b0        0xc build/default/production/_ext/1546807373/drv_gmac_lib_samE5x.o
                0x000295b0                DRV_PIC32CGMAC_LibEnableInterrupt

.text.DRV_PIC32CGMAC_LibDisableInterrupt%1336
                0x000295bc        0xc
 .text.DRV_PIC32CGMAC_LibDisableInterrupt
                0x000295bc        0xc build/default/production/_ext/1546807373/drv_gmac_lib_samE5x.o
                0x000295bc                DRV_PIC32CGMAC_LibDisableInterrupt

.text.DRV_NVMCTRL_PageWrite%1337
                0x000295c8        0xc
 .text.DRV_NVMCTRL_PageWrite
                0x000295c8        0xc build/default/production/_ext/992804092/drv_memory_nvmctrl.o
                0x000295c8                DRV_NVMCTRL_PageWrite

.text.btohexa_high%1338
                0x000295d4        0xc
 .text.btohexa_high
                0x000295d4        0xc build/default/production/_ext/1033058136/helpers.o
                0x000295d4                btohexa_high

.text.TCPIP_SNMP_IsTrapEnabled%1339
                0x000295e0        0xc
 .text.TCPIP_SNMP_IsTrapEnabled
                0x000295e0        0xc build/default/production/_ext/1033058136/snmp.o
                0x000295e0                TCPIP_SNMP_IsTrapEnabled

.text.TCPIP_ARP_HashKeyCompare%1340
                0x000295ec        0xc
 .text.TCPIP_ARP_HashKeyCompare
                0x000295ec        0xc build/default/production/_ext/1033058136/arp.o
                0x000295ec                TCPIP_ARP_HashKeyCompare

.text.TCPIP_HTTP_CurrentConnectionDataBufferSizeGet%1341
                0x000295f8        0xc
 .text.TCPIP_HTTP_CurrentConnectionDataBufferSizeGet
                0x000295f8        0xc build/default/production/_ext/1033058136/http.o
                0x000295f8                TCPIP_HTTP_CurrentConnectionDataBufferSizeGet

.text.TCPIP_IPV4_PacketTransmit%1342
                0x00029604        0xc
 .text.TCPIP_IPV4_PacketTransmit
                0x00029604        0xc build/default/production/_ext/1033058136/ipv4.o
                0x00029604                TCPIP_IPV4_PacketTransmit

.text._TCPIP_HEAP_Size%1343
                0x00029610        0xc
 .text._TCPIP_HEAP_Size
                0x00029610        0xc build/default/production/_ext/1033058136/tcpip_heap_internal.o

.text._TCPIP_HEAP_HighWatermark%1344
                0x0002961c        0xc
 .text._TCPIP_HEAP_HighWatermark
                0x0002961c        0xc build/default/production/_ext/1033058136/tcpip_heap_internal.o

.text.TCPIP_DNS_OAHASH_KeyCompare%1345
                0x00029628        0xc
 .text.TCPIP_DNS_OAHASH_KeyCompare
                0x00029628        0xc build/default/production/_ext/1033058136/dns.o

.text.TCPIP_DNS_Enable%1346
                0x00029634        0xc
 .text.TCPIP_DNS_Enable
                0x00029634        0xc build/default/production/_ext/1033058136/dns.o
                0x00029634                TCPIP_DNS_Enable

.text.TCPIP_STACK_NetDefaultGet%1347
                0x00029640        0xc
 .text.TCPIP_STACK_NetDefaultGet
                0x00029640        0xc build/default/production/_ext/1033058136/tcpip_manager.o
                0x00029640                TCPIP_STACK_NetDefaultGet

.text.TCPIP_STACK_NumberOfNetworksGet%1348
                0x0002964c        0xc
 .text.TCPIP_STACK_NumberOfNetworksGet
                0x0002964c        0xc build/default/production/_ext/1033058136/tcpip_manager.o
                0x0002964c                TCPIP_STACK_NumberOfNetworksGet

.rodata.TCPIP_STACK_IF_ALIAS_NAME_TBL%1349
                0x00029658        0xc
 .rodata.TCPIP_STACK_IF_ALIAS_NAME_TBL
                0x00029658        0xc build/default/production/_ext/1033058136/tcpip_manager.o

.text.TCPIP_PKT_Deinitialize%1350
                0x00029664        0xc
 .text.TCPIP_PKT_Deinitialize
                0x00029664        0xc build/default/production/_ext/1033058136/tcpip_packet.o
                0x00029664                TCPIP_PKT_Deinitialize

.text.TC0_TimerCallbackRegister%1351
                0x00029670        0xc
 .text.TC0_TimerCallbackRegister
                0x00029670        0xc build/default/production/_ext/829342655/plib_tc0.o
                0x00029670                TC0_TimerCallbackRegister

.text.SYS_DEBUG_ConsoleInstanceGet%1352
                0x0002967c        0xc
 .text.SYS_DEBUG_ConsoleInstanceGet
                0x0002967c        0xc build/default/production/_ext/944882569/sys_debug.o
                0x0002967c                SYS_DEBUG_ConsoleInstanceGet

.text.SYS_DEBUG_ErrorLevelGet%1353
                0x00029688        0xc
 .text.SYS_DEBUG_ErrorLevelGet
                0x00029688        0xc build/default/production/_ext/944882569/sys_debug.o
                0x00029688                SYS_DEBUG_ErrorLevelGet

.text.SYS_FS_Error%1354
                0x00029694        0xc
 .text.SYS_FS_Error
                0x00029694        0xc build/default/production/_ext/1269487135/sys_fs.o
                0x00029694                SYS_FS_Error

.text.SYS_TIME_FrequencyGet%1355
                0x000296a0        0xc
 .text.SYS_TIME_FrequencyGet
                0x000296a0        0xc build/default/production/_ext/101884895/sys_time.o
                0x000296a0                SYS_TIME_FrequencyGet

.rodata.sysConsole0Init%1356
                0x000296ac        0xc
 .rodata.sysConsole0Init
                0x000296ac        0xc build/default/production/_ext/1171490990/initialization.o
                0x000296ac                sysConsole0Init

.rodata.sysfsMountTable%1357
                0x000296b8        0xc
 .rodata.sysfsMountTable
                0x000296b8        0xc build/default/production/_ext/1171490990/initialization.o
                0x000296b8                sysfsMountTable

.text.vTaskMissedYield%1358
                0x000296c4        0xc
 .text.vTaskMissedYield
                0x000296c4        0xc build/default/production/_ext/404212886/FreeRTOS_tasks.o
                0x000296c4                vTaskMissedYield

.rodata.p05.7453%1359
                0x000296d0        0xc
 .rodata.p05.7453
                0x000296d0        0xc c:/program files/microchip/xc32/v3.01/bin/bin/../../lib/gcc/pic32c/8.3.1/../../../../pic32c/lib/thumb/v7e-m+fp/hard\libc_nano.a(lib_a-mprec.o)

.rodata%1360    0x000296dc        0xb
 .rodata        0x000296dc        0xb c:/program files/microchip/xc32/v3.01/bin/bin/../../lib/gcc/pic32c/8.3.1/../../../../pic32c/lib/thumb/v7e-m+fp/hard\libc_nano.a(lib_a-locale.o)

.text._DRV_ETHPHY_NegRestartPhaseWrite%1361
                0x000296e8        0xa
 .text._DRV_ETHPHY_NegRestartPhaseWrite
                0x000296e8        0xa build/default/production/_ext/444070925/drv_ethphy.o

.text.DRV_MEMORY_TimerHandler%1362
                0x000296f2        0xa
 .text.DRV_MEMORY_TimerHandler
                0x000296f2        0xa build/default/production/_ext/992804092/drv_memory.o

.text.DRV_NVMCTRL_SectorErase%1363
                0x000296fc        0xa
 .text.DRV_NVMCTRL_SectorErase
                0x000296fc        0xa build/default/production/_ext/992804092/drv_memory_nvmctrl.o
                0x000296fc                DRV_NVMCTRL_SectorErase

.text.Shell_DirClose%1364
                0x00029706        0xa
 .text.Shell_DirClose
                0x00029706        0xa build/default/production/_ext/1751889202/sys_fs_shell.o

.text.Shell_FileEof%1365
                0x00029710        0xa
 .text.Shell_FileEof
                0x00029710        0xa build/default/production/_ext/1751889202/sys_fs_shell.o

.text.Shell_FileTell%1366
                0x0002971a        0xa
 .text.Shell_FileTell
                0x0002971a        0xa build/default/production/_ext/1751889202/sys_fs_shell.o

.text.Shell_FileSize%1367
                0x00029724        0xa
 .text.Shell_FileSize
                0x00029724        0xa build/default/production/_ext/1751889202/sys_fs_shell.o

.text.Shell_FileClose%1368
                0x0002972e        0xa
 .text.Shell_FileClose
                0x0002972e        0xa build/default/production/_ext/1751889202/sys_fs_shell.o

.text._ICMPTxPktAcknowledge%1369
                0x00029738        0xa
 .text._ICMPTxPktAcknowledge
                0x00029738        0xa build/default/production/_ext/1033058136/icmp.o

.text.TCPIP_TCP_Get%1370
                0x00029742        0xa
 .text.TCPIP_TCP_Get
                0x00029742        0xa build/default/production/_ext/1033058136/tcp.o
                0x00029742                TCPIP_TCP_Get

.text._Command_ZcllOnOff%1371
                0x0002974c        0xa
 .text._Command_ZcllOnOff
                0x0002974c        0xa build/default/production/_ext/1033058136/tcpip_commands.o

.text._Command_DHCPSOnOff%1372
                0x00029756        0xa
 .text._Command_DHCPSOnOff
                0x00029756        0xa build/default/production/_ext/1033058136/tcpip_commands.o

.text.TCPIP_DNS_Resolve%1373
                0x00029760        0xa
 .text.TCPIP_DNS_Resolve
                0x00029760        0xa build/default/production/_ext/1033058136/dns.o
                0x00029760                TCPIP_DNS_Resolve

.text.TCPIP_DNS_IsNameResolved%1374
                0x0002976a        0xa
 .text.TCPIP_DNS_IsNameResolved
                0x0002976a        0xa build/default/production/_ext/1033058136/dns.o
                0x0002976a                TCPIP_DNS_IsNameResolved

.text.TCPIP_Helper_SingleListInitialize%1375
                0x00029774        0xa
 .text.TCPIP_Helper_SingleListInitialize
                0x00029774        0xa build/default/production/_ext/1033058136/tcpip_helpers.o
                0x00029774                TCPIP_Helper_SingleListInitialize

.text.TCPIP_STACK_NetNameGet%1376
                0x0002977e        0xa
 .text.TCPIP_STACK_NetNameGet
                0x0002977e        0xa build/default/production/_ext/1033058136/tcpip_manager.o
                0x0002977e                TCPIP_STACK_NetNameGet

.text._TCPIPStackAddressServiceIsRunning%1377
                0x00029788        0xa
 .text._TCPIPStackAddressServiceIsRunning
                0x00029788        0xa build/default/production/_ext/1033058136/tcpip_manager.o
                0x00029788                _TCPIPStackAddressServiceIsRunning

.text.TCPIP_UDP_ServerOpen%1378
                0x00029792        0xa
 .text.TCPIP_UDP_ServerOpen
                0x00029792        0xa build/default/production/_ext/1033058136/udp.o
                0x00029792                TCPIP_UDP_ServerOpen

.text.TCPIP_UDP_ClientOpen%1379
                0x0002979c        0xa
 .text.TCPIP_UDP_ClientOpen
                0x0002979c        0xa build/default/production/_ext/1033058136/udp.o
                0x0002979c                TCPIP_UDP_ClientOpen

.text.DRV_EXTPHY_SMIClockGet%1380
                0x000297a8        0x8
 .text.DRV_EXTPHY_SMIClockGet
                0x000297a8        0x8 build/default/production/_ext/444070925/drv_extphy_ksz8081.o

.rodata%1381    0x000297b0        0x8
 .rodata        0x000297b0        0x8 build/default/production/_ext/1751889202/sys_fs_shell.o

.text.TCPIP_HTTP_CurrentConnectionByteCountDec%1382
                0x000297b8        0x8
 .text.TCPIP_HTTP_CurrentConnectionByteCountDec
                0x000297b8        0x8 build/default/production/_ext/1033058136/http.o
                0x000297b8                TCPIP_HTTP_CurrentConnectionByteCountDec

.text.TCPIP_HEAP_MallocOutline%1383
                0x000297c0        0x8
 .text.TCPIP_HEAP_MallocOutline
                0x000297c0        0x8 build/default/production/_ext/1033058136/tcpip_heap_alloc.o
                0x000297c0                TCPIP_HEAP_MallocOutline

.text.TCPIP_HEAP_CallocOutline%1384
                0x000297c8        0x8
 .text.TCPIP_HEAP_CallocOutline
                0x000297c8        0x8 build/default/production/_ext/1033058136/tcpip_heap_alloc.o
                0x000297c8                TCPIP_HEAP_CallocOutline

.text.TCPIP_HEAP_FreeOutline%1385
                0x000297d0        0x8
 .text.TCPIP_HEAP_FreeOutline
                0x000297d0        0x8 build/default/production/_ext/1033058136/tcpip_heap_alloc.o
                0x000297d0                TCPIP_HEAP_FreeOutline

.text.TCPIP_STACK_GatewayAddressSet%1386
                0x000297d8        0x8
 .text.TCPIP_STACK_GatewayAddressSet
                0x000297d8        0x8 build/default/production/_ext/1033058136/tcpip_manager.o
                0x000297d8                TCPIP_STACK_GatewayAddressSet

.text.TCPIP_STACK_PrimaryDNSAddressSet%1387
                0x000297e0        0x8
 .text.TCPIP_STACK_PrimaryDNSAddressSet
                0x000297e0        0x8 build/default/production/_ext/1033058136/tcpip_manager.o
                0x000297e0                TCPIP_STACK_PrimaryDNSAddressSet

.text.TCPIP_STACK_SecondaryDNSAddressSet%1388
                0x000297e8        0x8
 .text.TCPIP_STACK_SecondaryDNSAddressSet
                0x000297e8        0x8 build/default/production/_ext/1033058136/tcpip_manager.o
                0x000297e8                TCPIP_STACK_SecondaryDNSAddressSet

.text.TCPIP_STACK_NetAddressMac%1389
                0x000297f0        0x8
 .text.TCPIP_STACK_NetAddressMac
                0x000297f0        0x8 build/default/production/_ext/1033058136/tcpip_manager.o
                0x000297f0                TCPIP_STACK_NetAddressMac

.text._TCPIPStackHeapConfig%1390
                0x000297f8        0x8
 .text._TCPIPStackHeapConfig
                0x000297f8        0x8 build/default/production/_ext/1033058136/tcpip_manager.o
                0x000297f8                _TCPIPStackHeapConfig

.text.TCPIP_STACK_NetGetType%1391
                0x00029800        0x8
 .text.TCPIP_STACK_NetGetType
                0x00029800        0x8 build/default/production/_ext/1033058136/tcpip_manager.o
                0x00029800                TCPIP_STACK_NetGetType

.text.TCPIP_Notification_Initialize%1392
                0x00029808        0x8
 .text.TCPIP_Notification_Initialize
                0x00029808        0x8 build/default/production/_ext/1033058136/tcpip_notify.o
                0x00029808                TCPIP_Notification_Initialize

.text.TCPIP_UDP_TxPutIsReady%1393
                0x00029810        0x8
 .text.TCPIP_UDP_TxPutIsReady
                0x00029810        0x8 build/default/production/_ext/1033058136/udp.o
                0x00029810                TCPIP_UDP_TxPutIsReady

.text.OSAL_Malloc%1394
                0x00029818        0x8
 .text.OSAL_Malloc
                0x00029818        0x8 build/default/production/_ext/1529399856/osal_freertos.o
                0x00029818                OSAL_Malloc

.text.SERCOM1_USART_WriteCountGet%1395
                0x00029820        0x8
 .text.SERCOM1_USART_WriteCountGet
                0x00029820        0x8 build/default/production/_ext/504274921/plib_sercom1_usart.o
                0x00029820                SERCOM1_USART_WriteCountGet

.text.TC0_TimerFrequencyGet%1396
                0x00029828        0x8
 .text.TC0_TimerFrequencyGet
                0x00029828        0x8 build/default/production/_ext/829342655/plib_tc0.o
                0x00029828                TC0_TimerFrequencyGet

.rodata%1397    0x00029830        0x8
 .rodata        0x00029830        0x8 build/default/production/_ext/699575981/mpfs.o

.text.SYS_FS_Tasks%1398
                0x00029838        0x8
 .text.SYS_FS_Tasks
                0x00029838        0x8 build/default/production/_ext/1269487135/sys_fs.o
                0x00029838                SYS_FS_Tasks

.rodata%1399    0x00029840        0x8
 .rodata        0x00029840        0x8 build/default/production/_ext/1269487135/sys_fs.o

.text.SYS_INT_Disable%1400
                0x00029848        0x8
 .text.SYS_INT_Disable
                0x00029848        0x8 build/default/production/_ext/1881668453/sys_int.o
                0x00029848                SYS_INT_Disable

.text.SYS_INT_Restore%1401
                0x00029850        0x8
 .text.SYS_INT_Restore
                0x00029850        0x8 build/default/production/_ext/1881668453/sys_int.o
                0x00029850                SYS_INT_Restore

.text.SYS_TIME_CounterGet%1402
                0x00029858        0x8
 .text.SYS_TIME_CounterGet
                0x00029858        0x8 build/default/production/_ext/101884895/sys_time.o
                0x00029858                SYS_TIME_CounterGet

.rodata.drvMiimInitData%1403
                0x00029860        0x8
 .rodata.drvMiimInitData
                0x00029860        0x8 build/default/production/_ext/1171490990/initialization.o

.rodata.sysFSInit%1404
                0x00029868        0x8
 .rodata.sysFSInit
                0x00029868        0x8 build/default/production/_ext/1171490990/initialization.o
                0x00029868                sysFSInit

.rodata.sysTimeInitData%1405
                0x00029870        0x8
 .rodata.sysTimeInitData
                0x00029870        0x8 build/default/production/_ext/1171490990/initialization.o
                0x00029870                sysTimeInitData

.rodata.tcpipTCPInitData%1406
                0x00029878        0x8
 .rodata.tcpipTCPInitData
                0x00029878        0x8 build/default/production/_ext/1171490990/initialization.o
                0x00029878                tcpipTCPInitData

.rodata.tcpipUDPInitData%1407
                0x00029880        0x8
 .rodata.tcpipUDPInitData
                0x00029880        0x8 build/default/production/_ext/1171490990/initialization.o
                0x00029880                tcpipUDPInitData

.text.vQueueDelete%1408
                0x00029888        0x8
 .text.vQueueDelete
                0x00029888        0x8 build/default/production/_ext/404212886/queue.o
                0x00029888                vQueueDelete

.rodata%1409    0x00029890       0x10
 .rodata        0x00029890        0x8 build/default/production/_ext/404212886/FreeRTOS_tasks.o
 .rodata        0x00029898        0x8 build/default/production/_ext/1360937237/http_print.o

.text.atoi%1411
                0x000298a0        0x8
 .text.atoi     0x000298a0        0x8 c:/program files/microchip/xc32/v3.01/bin/bin/../../lib/gcc/pic32c/8.3.1/../../../../pic32c/lib/thumb/v7e-m+fp/hard\libc_nano.a(lib_a-atoi.o)
                0x000298a0                atoi

.text.atol%1412
                0x000298a8        0x8
 .text.atol     0x000298a8        0x8 c:/program files/microchip/xc32/v3.01/bin/bin/../../lib/gcc/pic32c/8.3.1/../../../../pic32c/lib/thumb/v7e-m+fp/hard\libc_nano.a(lib_a-atol.o)
                0x000298a8                atol

.text._localeconv_r%1413
                0x000298b0        0x8
 .text._localeconv_r
                0x000298b0        0x8 c:/program files/microchip/xc32/v3.01/bin/bin/../../lib/gcc/pic32c/8.3.1/../../../../pic32c/lib/thumb/v7e-m+fp/hard\libc_nano.a(lib_a-localeconv.o)
                0x000298b0                _localeconv_r

.text.TCPIP_ARP_HashKeyCopy%1414
                0x000298b8        0x6
 .text.TCPIP_ARP_HashKeyCopy
                0x000298b8        0x6 build/default/production/_ext/1033058136/arp.o
                0x000298b8                TCPIP_ARP_HashKeyCopy

.text.TCPIP_HTTP_CurrentConnectionPostSmGet%1415
                0x000298be        0x6
 .text.TCPIP_HTTP_CurrentConnectionPostSmGet
                0x000298be        0x6 build/default/production/_ext/1033058136/http.o
                0x000298be                TCPIP_HTTP_CurrentConnectionPostSmGet

.text.TCPIP_HTTP_CurrentConnectionPostSmSet%1416
                0x000298c4        0x6
 .text.TCPIP_HTTP_CurrentConnectionPostSmSet
                0x000298c4        0x6 build/default/production/_ext/1033058136/http.o
                0x000298c4                TCPIP_HTTP_CurrentConnectionPostSmSet

.text.TCPIP_HTTP_CurrentConnectionStatusSet%1417
                0x000298ca        0x6
 .text.TCPIP_HTTP_CurrentConnectionStatusSet
                0x000298ca        0x6 build/default/production/_ext/1033058136/http.o
                0x000298ca                TCPIP_HTTP_CurrentConnectionStatusSet

.text.TCPIP_HTTP_CurrentConnectionHasArgsSet%1418
                0x000298d0        0x6
 .text.TCPIP_HTTP_CurrentConnectionHasArgsSet
                0x000298d0        0x6 build/default/production/_ext/1033058136/http.o
                0x000298d0                TCPIP_HTTP_CurrentConnectionHasArgsSet

.text.TCPIP_HTTP_CurrentConnectionSocketGet%1419
                0x000298d6        0x6
 .text.TCPIP_HTTP_CurrentConnectionSocketGet
                0x000298d6        0x6 build/default/production/_ext/1033058136/http.o
                0x000298d6                TCPIP_HTTP_CurrentConnectionSocketGet

.text.TCPIP_STACK_MACObjectGet%1420
                0x000298dc        0x6
 .text.TCPIP_STACK_MACObjectGet
                0x000298dc        0x6 build/default/production/_ext/1033058136/tcpip_manager.o
                0x000298dc                TCPIP_STACK_MACObjectGet

.text.TCPIP_STACK_NetBIOSName%1421
                0x000298e2        0x6
 .text.TCPIP_STACK_NetBIOSName
                0x000298e2        0x6 build/default/production/_ext/1033058136/tcpip_manager.o
                0x000298e2                TCPIP_STACK_NetBIOSName

.text.TCPIP_PKT_GapDcptOffset%1422
                0x000298e8        0x6
 .text.TCPIP_PKT_GapDcptOffset
                0x000298e8        0x6 build/default/production/_ext/1033058136/tcpip_packet.o
                0x000298e8                TCPIP_PKT_GapDcptOffset

.text.vListInitialiseItem%1423
                0x000298ee        0x6
 .text.vListInitialiseItem
                0x000298ee        0x6 build/default/production/_ext/404212886/list.o
                0x000298ee                vListInitialiseItem

.text.CRYPT_WCCB_Callback%1424
                0x000298f4        0x6
 .text.CRYPT_WCCB_Callback
                0x000298f4        0x6 build/default/production/_ext/172253694/crypt_wolfcryptcb.o
                0x000298f4                CRYPT_WCCB_Callback

.text.DRV_GMAC_PowerMode%1425
                0x00006934        0x4
 .text.DRV_GMAC_PowerMode
                0x00006934        0x4 build/default/production/_ext/1546807373/drv_gmac.o
                0x00006934                DRV_GMAC_PowerMode

.text.DRV_PIC32CGMAC_LibRxQueFilterInit%1426
                0x00027464        0x4
 .text.DRV_PIC32CGMAC_LibRxQueFilterInit
                0x00027464        0x4 build/default/production/_ext/1546807373/drv_gmac_lib_samE5x.o
                0x00027464                DRV_PIC32CGMAC_LibRxQueFilterInit

.text.DRV_PIC32CGMAC_LibGetPriorityFromQueueNum%1427
                0x0002794c        0x4
 .text.DRV_PIC32CGMAC_LibGetPriorityFromQueueNum
                0x0002794c        0x4 build/default/production/_ext/1546807373/drv_gmac_lib_samE5x.o
                0x0002794c                DRV_PIC32CGMAC_LibGetPriorityFromQueueNum

.text.DRV_NVMCTRL_Status%1428
                0x000298fa        0x4
 .text.DRV_NVMCTRL_Status
                0x000298fa        0x4 build/default/production/_ext/992804092/drv_memory_nvmctrl.o
                0x000298fa                DRV_NVMCTRL_Status

.text.TCPIP_HTTP_CurrentConnectionFileGet%1429
                0x000298fe        0x4
 .text.TCPIP_HTTP_CurrentConnectionFileGet
                0x000298fe        0x4 build/default/production/_ext/1033058136/http.o
                0x000298fe                TCPIP_HTTP_CurrentConnectionFileGet

.text.TCPIP_HTTP_CurrentConnectionDataBufferGet%1430
                0x00029902        0x4
 .text.TCPIP_HTTP_CurrentConnectionDataBufferGet
                0x00029902        0x4 build/default/production/_ext/1033058136/http.o
                0x00029902                TCPIP_HTTP_CurrentConnectionDataBufferGet

.text.TCPIP_HTTP_CurrentConnectionByteCountGet%1431
                0x00029906        0x4
 .text.TCPIP_HTTP_CurrentConnectionByteCountGet
                0x00029906        0x4 build/default/production/_ext/1033058136/http.o
                0x00029906                TCPIP_HTTP_CurrentConnectionByteCountGet

.rodata.HTTP_CRLF%1432
                0x0002990c        0x4
 .rodata.HTTP_CRLF
                0x0002990c        0x4 build/default/production/_ext/1033058136/http.o

.text.TCPIP_IPV4_IsFragmentationEnabled%1433
                0x00029910        0x4
 .text.TCPIP_IPV4_IsFragmentationEnabled
                0x00029910        0x4 build/default/production/_ext/1033058136/ipv4.o
                0x00029910                TCPIP_IPV4_IsFragmentationEnabled

.text._DHCPOptionProcessEnd%1434
                0x00029914        0x4
 .text._DHCPOptionProcessEnd
                0x00029914        0x4 build/default/production/_ext/1033058136/dhcp.o

.rodata._DHCPRequestParamsTbl%1435
                0x00029918        0x4
 .rodata._DHCPRequestParamsTbl
                0x00029918        0x4 build/default/production/_ext/1033058136/dhcp.o

.rodata.dhcpMagicCookie%1436
                0x0002991c        0x4
 .rodata.dhcpMagicCookie
                0x0002991c        0x4 build/default/production/_ext/1033058136/dhcp.o

.text.TCPIP_PKT_GapDcptSize%1437
                0x00029920        0x4
 .text.TCPIP_PKT_GapDcptSize
                0x00029920        0x4 build/default/production/_ext/1033058136/tcpip_packet.o
                0x00029920                TCPIP_PKT_GapDcptSize

.text.Console_UART_Flush%1438
                0x00029924        0x4
 .text.Console_UART_Flush
                0x00029924        0x4 build/default/production/_ext/1832805299/sys_console_uart.o
                0x00029924                Console_UART_Flush

.rodata.debugInit%1439
                0x00029928        0x4
 .rodata.debugInit
                0x00029928        0x4 build/default/production/_ext/1171490990/initialization.o
                0x00029928                debugInit

.rodata.sysConsole0UARTInitData%1440
                0x0002992c        0x4
 .rodata.sysConsole0UARTInitData
                0x0002992c        0x4 build/default/production/_ext/1171490990/initialization.o
                0x0002992c                sysConsole0UARTInitData

.text%1441      0x00029930        0x4
 .text          0x00029930        0x4 c:/program files/microchip/xc32/v3.01/bin/bin/../../lib/gcc/pic32c/8.3.1/thumb/v7e-m+fp/hard\libgcc.a(_dvmd_tls.o)
                0x00029930                __aeabi_idiv0
                0x00029930                __aeabi_ldiv0

.text._DRV_ETHPHY_ClientOpNone%1442
                0x00014f9e        0x2
 .text._DRV_ETHPHY_ClientOpNone
                0x00014f9e        0x2 build/default/production/_ext/444070925/drv_ethphy.o

.text.DRV_GMAC_Reinitialize%1443
                0x00015d56        0x2
 .text.DRV_GMAC_Reinitialize
                0x00015d56        0x2 build/default/production/_ext/1546807373/drv_gmac.o
                0x00015d56                DRV_GMAC_Reinitialize

.text.DRV_NVMCTRL_Open%1444
                0x00016ee6        0x2
 .text.DRV_NVMCTRL_Open
                0x00016ee6        0x2 build/default/production/_ext/992804092/drv_memory_nvmctrl.o
                0x00016ee6                DRV_NVMCTRL_Open

.text.DRV_NVMCTRL_Close%1445
                0x000179ba        0x2
 .text.DRV_NVMCTRL_Close
                0x000179ba        0x2 build/default/production/_ext/992804092/drv_memory_nvmctrl.o
                0x000179ba                DRV_NVMCTRL_Close

.text.DRV_MIIM_Reinitialize%1446
                0x00018ee6        0x2
 .text.DRV_MIIM_Reinitialize
                0x00018ee6        0x2 build/default/production/_ext/438849557/drv_miim.o
                0x00018ee6                DRV_MIIM_Reinitialize

.text._TCPIP_HEAP_BufferMapNonCached%1447
                0x000190f6        0x2
 .text._TCPIP_HEAP_BufferMapNonCached
                0x000190f6        0x2 build/default/production/_ext/1033058136/tcpip_heap_alloc.o
                0x000190f6                _TCPIP_HEAP_BufferMapNonCached

.text.EVSYS_Initialize%1448
                0x000194fe        0x2
 .text.EVSYS_Initialize
                0x000194fe        0x2 build/default/production/_ext/1986646378/plib_evsys.o
                0x000194fe                EVSYS_Initialize

.text.Console_UART_Tasks%1449
                0x000199e6        0x2
 .text.Console_UART_Tasks
                0x000199e6        0x2 build/default/production/_ext/1832805299/sys_console_uart.o
                0x000199e6                Console_UART_Tasks

.text.Dummy_Handler%1450
                0x0001a332        0x2
 .text.Dummy_Handler
                0x0001a332        0x2 build/default/production/_ext/1171490990/interrupts.o
                0x0001a332                EIC_EXTINT_9_Handler
                0x0001a332                TCC0_MC5_Handler
                0x0001a332                SERCOM0_2_Handler
                0x0001a332                USB_SOF_HSOF_Handler
                0x0001a332                TCC4_OTHER_Handler
                0x0001a332                TCC2_MC2_Handler
                0x0001a332                EVSYS_0_Handler
                0x0001a332                TRNG_Handler
                0x0001a332                TC2_Handler
                0x0001a332                USB_TRCPT0_Handler
                0x0001a332                DAC_OTHER_Handler
                0x0001a332                AC_Handler
                0x0001a332                DAC_EMPTY_0_Handler
                0x0001a332                DMAC_OTHER_Handler
                0x0001a332                EIC_EXTINT_5_Handler
                0x0001a332                SERCOM3_1_Handler
                0x0001a332                SERCOM4_OTHER_Handler
                0x0001a332                SERCOM3_2_Handler
                0x0001a332                EIC_EXTINT_6_Handler
                0x0001a332                TC7_Handler
                0x0001a332                TCC4_MC0_Handler
                0x0001a332                EVSYS_3_Handler
                0x0001a332                QSPI_Handler
                0x0001a332                TCC2_MC0_Handler
                0x0001a332                PDEC_OTHER_Handler
                0x0001a332                TCC3_MC0_Handler
                0x0001a332                PDEC_MC1_Handler
                0x0001a332                TCC2_MC1_Handler
                0x0001a332                OSCCTRL_XOSC1_Handler
                0x0001a332                PDEC_MC0_Handler
                0x0001a332                EIC_EXTINT_4_Handler
                0x0001a332                EIC_EXTINT_7_Handler
                0x0001a332                SERCOM0_OTHER_Handler
                0x0001a332                EVSYS_OTHER_Handler
                0x0001a332                SERCOM0_0_Handler
                0x0001a332                RTC_Handler
                0x0001a332                SERCOM4_0_Handler
                0x0001a332                TCC1_MC0_Handler
                0x0001a332                TCC2_OTHER_Handler
                0x0001a332                EIC_EXTINT_11_Handler
                0x0001a332                SUPC_BODDET_Handler
                0x0001a332                EIC_EXTINT_14_Handler
                0x0001a332                OSC32KCTRL_Handler
                0x0001a332                SERCOM6_2_Handler
                0x0001a332                EVSYS_1_Handler
                0x0001a332                TC6_Handler
                0x0001a332                TCC4_MC1_Handler
                0x0001a332                DMAC_0_Handler
                0x0001a332                SUPC_OTHER_Handler
                0x0001a332                WDT_Handler
                0x0001a332                EIC_EXTINT_15_Handler
                0x0001a332                SERCOM6_0_Handler
                0x0001a332                EIC_EXTINT_1_Handler
                0x0001a332                TCC3_MC1_Handler
                0x0001a332                SERCOM5_0_Handler
                0x0001a332                TC4_Handler
                0x0001a332                TC1_Handler
                0x0001a332                TCC1_MC1_Handler
                0x0001a332                EIC_EXTINT_0_Handler
                0x0001a332                TCC1_OTHER_Handler
                0x0001a332                PAC_Handler
                0x0001a332                SERCOM4_1_Handler
                0x0001a332                TC3_Handler
                0x0001a332                Dummy_Handler
                0x0001a332                DAC_RESRDY_0_Handler
                0x0001a332                SERCOM5_1_Handler
                0x0001a332                DMAC_2_Handler
                0x0001a332                TCC0_MC4_Handler
                0x0001a332                USB_TRCPT1_Handler
                0x0001a332                SERCOM0_1_Handler
                0x0001a332                TCC0_MC3_Handler
                0x0001a332                EIC_EXTINT_12_Handler
                0x0001a332                OSCCTRL_DPLL0_Handler
                0x0001a332                SERCOM6_OTHER_Handler
                0x0001a332                SERCOM7_1_Handler
                0x0001a332                SERCOM5_OTHER_Handler
                0x0001a332                PM_Handler
                0x0001a332                OSCCTRL_DFLL_Handler
                0x0001a332                SERCOM7_0_Handler
                0x0001a332                DAC_RESRDY_1_Handler
                0x0001a332                DMAC_1_Handler
                0x0001a332                USB_OTHER_Handler
                0x0001a332                SDHC1_Handler
                0x0001a332                SERCOM7_2_Handler
                0x0001a332                TCC0_OTHER_Handler
                0x0001a332                EIC_EXTINT_10_Handler
                0x0001a332                TCC1_MC3_Handler
                0x0001a332                OSCCTRL_XOSC0_Handler
                0x0001a332                SERCOM6_1_Handler
                0x0001a332                TCC0_MC0_Handler
                0x0001a332                EIC_EXTINT_2_Handler
                0x0001a332                SDHC0_Handler
                0x0001a332                I2S_Handler
                0x0001a332                PCC_Handler
                0x0001a332                TCC3_OTHER_Handler
                0x0001a332                EIC_EXTINT_13_Handler
                0x0001a332                PUKCC_Handler
                0x0001a332                SERCOM2_1_Handler
                0x0001a332                SERCOM3_0_Handler
                0x0001a332                SERCOM4_2_Handler
                0x0001a332                TCC1_MC2_Handler
                0x0001a332                ADC1_RESRDY_Handler
                0x0001a332                NVMCTRL_1_Handler
                0x0001a332                SERCOM5_2_Handler
                0x0001a332                SERCOM2_2_Handler
                0x0001a332                DAC_EMPTY_1_Handler
                0x0001a332                ADC1_OTHER_Handler
                0x0001a332                OSCCTRL_DPLL1_Handler
                0x0001a332                EIC_EXTINT_3_Handler
                0x0001a332                SERCOM3_OTHER_Handler
                0x0001a332                EIC_EXTINT_8_Handler
                0x0001a332                NVMCTRL_0_Handler
                0x0001a332                ADC0_RESRDY_Handler
                0x0001a332                ADC0_OTHER_Handler
                0x0001a332                MCLK_Handler
                0x0001a332                SERCOM7_OTHER_Handler
                0x0001a332                EVSYS_2_Handler
                0x0001a332                SERCOM2_OTHER_Handler
                0x0001a332                FREQM_Handler
                0x0001a332                TCC0_MC1_Handler
                0x0001a332                DMAC_3_Handler
                0x0001a332                RAMECC_Handler
                0x0001a332                TC5_Handler
                0x0001a332                SERCOM2_0_Handler
                0x0001a332                AES_Handler
                0x0001a332                ICM_Handler
                0x0001a332                TCC0_MC2_Handler

.text.NonMaskableInt_Handler%1451
                0x0001b11a        0x2
 .text.NonMaskableInt_Handler
                0x0001b11a        0x2 build/default/production/_ext/1171490990/exceptions.o
                0x0001b11a                NonMaskableInt_Handler

.text.HardFault_Handler%1452
                0x0001c1fe        0x2
 .text.HardFault_Handler
                0x0001c1fe        0x2 build/default/production/_ext/1171490990/exceptions.o
                0x0001c1fe                HardFault_Handler

.text.DebugMonitor_Handler%1453
                0x0001c596        0x2
 .text.DebugMonitor_Handler
                0x0001c596        0x2 build/default/production/_ext/1171490990/exceptions.o
                0x0001c596                DebugMonitor_Handler

.text.MemoryManagement_Handler%1454
                0x0001cc76        0x2
 .text.MemoryManagement_Handler
                0x0001cc76        0x2 build/default/production/_ext/1171490990/exceptions.o
                0x0001cc76                MemoryManagement_Handler

.text.BusFault_Handler%1455
                0x0001d43e        0x2
 .text.BusFault_Handler
                0x0001d43e        0x2 build/default/production/_ext/1171490990/exceptions.o
                0x0001d43e                BusFault_Handler

.text.UsageFault_Handler%1456
                0x0001e5a6        0x2
 .text.UsageFault_Handler
                0x0001e5a6        0x2 build/default/production/_ext/1171490990/exceptions.o
                0x0001e5a6                UsageFault_Handler

.text.Dummy_App_Func%1457
                0x0001f386        0x2
 .text.Dummy_App_Func
                0x0001f386        0x2 build/default/production/_ext/1171490990/startup_xc32.o
                0x0001f386                _on_reset
                0x0001f386                _on_bootstrap
                0x0001f386                __xc32_on_reset
                0x0001f386                Dummy_App_Func
                0x0001f386                __xc32_on_bootstrap

.text.vPortFree%1458
                0x0001fe56        0x2
 .text.vPortFree
                0x0001fe56        0x2 build/default/production/_ext/1665200909/heap_1.o
                0x0001fe56                vPortFree

.text.wc_Sha256Free%1459
                0x00021c12        0x2
 .text.wc_Sha256Free
                0x00021c12        0x2 build/default/production/_ext/1664057780/sha256.o
                0x00021c12                wc_Sha256Free

.text.APP_Tasks%1460
                0x000228e6        0x2
 .text.APP_Tasks
                0x000228e6        0x2 build/default/production/_ext/1360937237/app.o
                0x000228e6                APP_Tasks

.text.TCPIP_HTTP_Print_ddns_user%1461
                0x00022dce        0x2
 .text.TCPIP_HTTP_Print_ddns_user
                0x00022dce        0x2 build/default/production/_ext/1360937237/custom_http_app.o
                0x00022dce                TCPIP_HTTP_Print_ddns_user

.text.TCPIP_HTTP_Print_ddns_pass%1462
                0x000233b2        0x2
 .text.TCPIP_HTTP_Print_ddns_pass
                0x000233b2        0x2 build/default/production/_ext/1360937237/custom_http_app.o
                0x000233b2                TCPIP_HTTP_Print_ddns_pass

.text.TCPIP_HTTP_Print_ddns_host%1463
                0x000237d6        0x2
 .text.TCPIP_HTTP_Print_ddns_host
                0x000237d6        0x2 build/default/production/_ext/1360937237/custom_http_app.o
                0x000237d6                TCPIP_HTTP_Print_ddns_host

.text.TCPIP_HTTP_Print_ddns_service%1464
                0x00023e86        0x2
 .text.TCPIP_HTTP_Print_ddns_service
                0x00023e86        0x2 build/default/production/_ext/1360937237/custom_http_app.o
                0x00023e86                TCPIP_HTTP_Print_ddns_service

.text.__malloc_lock%1465
                0x00025282        0x2
 .text.__malloc_lock
                0x00025282        0x2 c:/program files/microchip/xc32/v3.01/bin/bin/../../lib/gcc/pic32c/8.3.1/../../../../pic32c/lib/thumb/v7e-m+fp/hard\libc_nano.a(lib_a-mlock.o)
                0x00025282                __malloc_lock

.text.__malloc_unlock%1466
                0x000257ee        0x2
 .text.__malloc_unlock
                0x000257ee        0x2 c:/program files/microchip/xc32/v3.01/bin/bin/../../lib/gcc/pic32c/8.3.1/../../../../pic32c/lib/thumb/v7e-m+fp/hard\libc_nano.a(lib_a-mlock.o)
                0x000257ee                __malloc_unlock
